ARM GAS  C:\Users\hoangp\AppData\Local\Temp\ccLgEkeB.s 			page 1


   1              		.syntax unified
   2              		.cpu cortex-m3
   3              		.fpu softvfp
   4              		.eabi_attribute 20, 1
   5              		.eabi_attribute 21, 1
   6              		.eabi_attribute 23, 3
   7              		.eabi_attribute 24, 1
   8              		.eabi_attribute 25, 1
   9              		.eabi_attribute 26, 1
  10              		.eabi_attribute 30, 6
  11              		.eabi_attribute 18, 4
  12              		.thumb
  13              		.file	"ADC_DelSig_V_INT.c"
  20 0000 CE000000 		.text
  20      02006900 
  20      00000201 
  20      FB0E0D00 
  20      01010101 
  21              	.Ltext0:
  22              		.cfi_sections	.debug_frame
  23              		.global	A1
  24              		.data
  25              		.align	1
  26              		.type	A1, %object
  27              		.size	A1, 2
  28              	A1:
  29 0000 F9FF     		.short	-7
  30              		.global	A2
  31              		.align	1
  32              		.type	A2, %object
  33              		.size	A2, 2
  34              	A2:
  35 0002 2000     		.short	32
  36              		.global	A3
  37              		.align	1
  38              		.type	A3, %object
  39              		.size	A3, 2
  40              	A3:
  41 0004 0700     		.short	7
  42              		.global	B0
  43              		.align	1
  44              		.type	B0, %object
  45              		.size	B0, 2
  46              	B0:
  47 0006 0E00     		.short	14
  48              		.global	B1
  49              		.align	1
  50              		.type	B1, %object
  51              		.size	B1, 2
  52              	B1:
  53 0008 FEFF     		.short	-2
ARM GAS  C:\Users\hoangp\AppData\Local\Temp\ccLgEkeB.s 			page 2


  54              		.global	B2
  55              		.align	1
  56              		.type	B2, %object
  57              		.size	B2, 2
  58              	B2:
  59 000a F4FF     		.short	-12
  60              		.global	B3
  61              		.align	1
  62              		.type	B3, %object
  63              		.size	B3, 2
  64              	B3:
  65 000c 0500     		.short	5
  66              		.global	__aeabi_i2d
  67              		.global	__aeabi_dmul
  68              		.global	__aeabi_dadd
  69              		.global	__aeabi_d2iz
  70              		.section	.text.ADC_DelSig_V_ISR1,"ax",%progbits
  71              		.align	2
  72              		.global	ADC_DelSig_V_ISR1
  73              		.thumb
  74              		.thumb_func
  75              		.type	ADC_DelSig_V_ISR1, %function
  76              	ADC_DelSig_V_ISR1:
  77              	.LFB0:
  78              		.file 1 ".\\Generated_Source\\PSoC5\\ADC_DelSig_V_INT.c"
   1:.\Generated_Source\PSoC5/ADC_DelSig_V_INT.c **** /*******************************************************************************
   2:.\Generated_Source\PSoC5/ADC_DelSig_V_INT.c **** * File Name: ADC_DelSig_V_INT.c  
   3:.\Generated_Source\PSoC5/ADC_DelSig_V_INT.c **** * Version 2.30
   4:.\Generated_Source\PSoC5/ADC_DelSig_V_INT.c **** *
   5:.\Generated_Source\PSoC5/ADC_DelSig_V_INT.c **** * Description:
   6:.\Generated_Source\PSoC5/ADC_DelSig_V_INT.c **** *  This file contains the code that operates during the ADC_DelSig interrupt 
   7:.\Generated_Source\PSoC5/ADC_DelSig_V_INT.c **** *  service routine.  
   8:.\Generated_Source\PSoC5/ADC_DelSig_V_INT.c **** *
   9:.\Generated_Source\PSoC5/ADC_DelSig_V_INT.c **** * Note:
  10:.\Generated_Source\PSoC5/ADC_DelSig_V_INT.c **** *
  11:.\Generated_Source\PSoC5/ADC_DelSig_V_INT.c **** *******************************************************************************
  12:.\Generated_Source\PSoC5/ADC_DelSig_V_INT.c **** * Copyright 2008-2012, Cypress Semiconductor Corporation.  All rights reserved.
  13:.\Generated_Source\PSoC5/ADC_DelSig_V_INT.c **** * You may use this file only in accordance with the license, terms, conditions, 
  14:.\Generated_Source\PSoC5/ADC_DelSig_V_INT.c **** * disclaimers, and limitations in the end user license agreement accompanying 
  15:.\Generated_Source\PSoC5/ADC_DelSig_V_INT.c **** * the software package with which this file was provided.
  16:.\Generated_Source\PSoC5/ADC_DelSig_V_INT.c **** ********************************************************************************/
  17:.\Generated_Source\PSoC5/ADC_DelSig_V_INT.c **** 
  18:.\Generated_Source\PSoC5/ADC_DelSig_V_INT.c **** #include "ADC_DelSig_V.h"  
  19:.\Generated_Source\PSoC5/ADC_DelSig_V_INT.c **** 
  20:.\Generated_Source\PSoC5/ADC_DelSig_V_INT.c **** 
  21:.\Generated_Source\PSoC5/ADC_DelSig_V_INT.c **** /*******************************************************************************
  22:.\Generated_Source\PSoC5/ADC_DelSig_V_INT.c **** * Custom Declarations and Variables
  23:.\Generated_Source\PSoC5/ADC_DelSig_V_INT.c **** * - add user inlcude files, prototypes and variables between the following 
  24:.\Generated_Source\PSoC5/ADC_DelSig_V_INT.c **** *   #START and #END tags
  25:.\Generated_Source\PSoC5/ADC_DelSig_V_INT.c **** *******************************************************************************/
  26:.\Generated_Source\PSoC5/ADC_DelSig_V_INT.c **** /* `#START ADC_SYS_VAR`  */
  27:.\Generated_Source\PSoC5/ADC_DelSig_V_INT.c **** extern int16 buffvolt;
  28:.\Generated_Source\PSoC5/ADC_DelSig_V_INT.c **** extern int16 sineLUTindex;
  29:.\Generated_Source\PSoC5/ADC_DelSig_V_INT.c **** extern int16 sineLUT[256];
  30:.\Generated_Source\PSoC5/ADC_DelSig_V_INT.c **** 
  31:.\Generated_Source\PSoC5/ADC_DelSig_V_INT.c **** 
  32:.\Generated_Source\PSoC5/ADC_DelSig_V_INT.c **** 
ARM GAS  C:\Users\hoangp\AppData\Local\Temp\ccLgEkeB.s 			page 3


  33:.\Generated_Source\PSoC5/ADC_DelSig_V_INT.c **** 
  34:.\Generated_Source\PSoC5/ADC_DelSig_V_INT.c **** int16 A1 = -7;
  35:.\Generated_Source\PSoC5/ADC_DelSig_V_INT.c **** int16 A2 = 32;
  36:.\Generated_Source\PSoC5/ADC_DelSig_V_INT.c **** int16 A3 = 7;
  37:.\Generated_Source\PSoC5/ADC_DelSig_V_INT.c **** 
  38:.\Generated_Source\PSoC5/ADC_DelSig_V_INT.c **** int16 B0 = 14;
  39:.\Generated_Source\PSoC5/ADC_DelSig_V_INT.c **** int16 B1 = -2;
  40:.\Generated_Source\PSoC5/ADC_DelSig_V_INT.c **** int16 B2 = -12;
  41:.\Generated_Source\PSoC5/ADC_DelSig_V_INT.c **** int16 B3 = 5;
  42:.\Generated_Source\PSoC5/ADC_DelSig_V_INT.c **** 
  43:.\Generated_Source\PSoC5/ADC_DelSig_V_INT.c **** extern int32 E[4];
  44:.\Generated_Source\PSoC5/ADC_DelSig_V_INT.c **** extern int32 U[4];
  45:.\Generated_Source\PSoC5/ADC_DelSig_V_INT.c **** //extern float calcDuty();
  46:.\Generated_Source\PSoC5/ADC_DelSig_V_INT.c **** 
  47:.\Generated_Source\PSoC5/ADC_DelSig_V_INT.c **** //extern float K; 
  48:.\Generated_Source\PSoC5/ADC_DelSig_V_INT.c **** 
  49:.\Generated_Source\PSoC5/ADC_DelSig_V_INT.c **** /* `#END`  */
  50:.\Generated_Source\PSoC5/ADC_DelSig_V_INT.c **** 
  51:.\Generated_Source\PSoC5/ADC_DelSig_V_INT.c **** 
  52:.\Generated_Source\PSoC5/ADC_DelSig_V_INT.c **** /*****************************************************************************
  53:.\Generated_Source\PSoC5/ADC_DelSig_V_INT.c **** * Function Name: ADC_DelSig_V_ISR1
  54:.\Generated_Source\PSoC5/ADC_DelSig_V_INT.c **** ******************************************************************************
  55:.\Generated_Source\PSoC5/ADC_DelSig_V_INT.c **** *
  56:.\Generated_Source\PSoC5/ADC_DelSig_V_INT.c **** * Summary:
  57:.\Generated_Source\PSoC5/ADC_DelSig_V_INT.c **** *  Handle Interrupt Service Routine.  
  58:.\Generated_Source\PSoC5/ADC_DelSig_V_INT.c **** *
  59:.\Generated_Source\PSoC5/ADC_DelSig_V_INT.c **** * Parameters:  
  60:.\Generated_Source\PSoC5/ADC_DelSig_V_INT.c **** *  void
  61:.\Generated_Source\PSoC5/ADC_DelSig_V_INT.c **** *
  62:.\Generated_Source\PSoC5/ADC_DelSig_V_INT.c **** * Return: 
  63:.\Generated_Source\PSoC5/ADC_DelSig_V_INT.c **** *  void 
  64:.\Generated_Source\PSoC5/ADC_DelSig_V_INT.c **** *
  65:.\Generated_Source\PSoC5/ADC_DelSig_V_INT.c **** * Reentrant: 
  66:.\Generated_Source\PSoC5/ADC_DelSig_V_INT.c **** *  No
  67:.\Generated_Source\PSoC5/ADC_DelSig_V_INT.c **** *
  68:.\Generated_Source\PSoC5/ADC_DelSig_V_INT.c **** *****************************************************************************/
  69:.\Generated_Source\PSoC5/ADC_DelSig_V_INT.c **** CY_ISR( ADC_DelSig_V_ISR1)
  70:.\Generated_Source\PSoC5/ADC_DelSig_V_INT.c **** {
  79              		.loc 1 70 0
  80              		.cfi_startproc
  81              		@ args = 0, pretend = 0, frame = 0
  82              		@ frame_needed = 1, uses_anonymous_args = 0
  83 0000 B0B5     		push	{r4, r5, r7, lr}
  84              	.LCFI0:
  85              		.cfi_def_cfa_offset 16
  86 0002 00AF     		add	r7, sp, #0
  87              		.cfi_offset 14, -4
  88              		.cfi_offset 7, -8
  89              		.cfi_offset 5, -12
  90              		.cfi_offset 4, -16
  91              	.LCFI1:
  92              		.cfi_def_cfa_register 7
  71:.\Generated_Source\PSoC5/ADC_DelSig_V_INT.c ****     /***************************************************************************
  72:.\Generated_Source\PSoC5/ADC_DelSig_V_INT.c ****     *  Custom Code
  73:.\Generated_Source\PSoC5/ADC_DelSig_V_INT.c ****     *  - add user ISR code between the following #START and #END tags
  74:.\Generated_Source\PSoC5/ADC_DelSig_V_INT.c ****     **************************************************************************/
  75:.\Generated_Source\PSoC5/ADC_DelSig_V_INT.c ****     /* `#START MAIN_ADC_ISR1`  */
ARM GAS  C:\Users\hoangp\AppData\Local\Temp\ccLgEkeB.s 			page 4


  76:.\Generated_Source\PSoC5/ADC_DelSig_V_INT.c ****     
  77:.\Generated_Source\PSoC5/ADC_DelSig_V_INT.c ****     buffvolt=ADC_DelSig_V_GetResult16();
  93              		.loc 1 77 0
  94 0004 FFF7FEFF 		bl	ADC_DelSig_V_GetResult16
  95 0008 0346     		mov	r3, r0
  96 000a 9AB2     		uxth	r2, r3
  97 000c 40F20003 		movw	r3, #:lower16:buffvolt
  98 0010 C0F20003 		movt	r3, #:upper16:buffvolt
  99 0014 1A80     		strh	r2, [r3, #0]	@ movhi
  78:.\Generated_Source\PSoC5/ADC_DelSig_V_INT.c ****     
  79:.\Generated_Source\PSoC5/ADC_DelSig_V_INT.c ****     
  80:.\Generated_Source\PSoC5/ADC_DelSig_V_INT.c ****    
  81:.\Generated_Source\PSoC5/ADC_DelSig_V_INT.c ****     
  82:.\Generated_Source\PSoC5/ADC_DelSig_V_INT.c ****     if (buffvolt < 0) {
 100              		.loc 1 82 0
 101 0016 40F20003 		movw	r3, #:lower16:buffvolt
 102 001a C0F20003 		movt	r3, #:upper16:buffvolt
 103 001e 1B88     		ldrh	r3, [r3, #0]
 104 0020 1BB2     		sxth	r3, r3
 105 0022 002B     		cmp	r3, #0
 106 0024 06DA     		bge	.L2
  83:.\Generated_Source\PSoC5/ADC_DelSig_V_INT.c ****         buffvolt = 0;
 107              		.loc 1 83 0
 108 0026 40F20003 		movw	r3, #:lower16:buffvolt
 109 002a C0F20003 		movt	r3, #:upper16:buffvolt
 110 002e 4FF00002 		mov	r2, #0
 111 0032 1A80     		strh	r2, [r3, #0]	@ movhi
 112              	.L2:
  84:.\Generated_Source\PSoC5/ADC_DelSig_V_INT.c ****         
  85:.\Generated_Source\PSoC5/ADC_DelSig_V_INT.c ****     }
  86:.\Generated_Source\PSoC5/ADC_DelSig_V_INT.c ****     if (buffvolt<20){
 113              		.loc 1 86 0
 114 0034 40F20003 		movw	r3, #:lower16:buffvolt
 115 0038 C0F20003 		movt	r3, #:upper16:buffvolt
 116 003c 1B88     		ldrh	r3, [r3, #0]
 117 003e 1BB2     		sxth	r3, r3
 118 0040 132B     		cmp	r3, #19
 119 0042 04DC     		bgt	.L3
  87:.\Generated_Source\PSoC5/ADC_DelSig_V_INT.c ****         Control_Reg_1_Write(1);
 120              		.loc 1 87 0
 121 0044 4FF00100 		mov	r0, #1
 122 0048 FFF7FEFF 		bl	Control_Reg_1_Write
 123 004c 03E0     		b	.L4
 124              	.L3:
  88:.\Generated_Source\PSoC5/ADC_DelSig_V_INT.c ****     
  89:.\Generated_Source\PSoC5/ADC_DelSig_V_INT.c ****     }else{
  90:.\Generated_Source\PSoC5/ADC_DelSig_V_INT.c ****         Control_Reg_1_Write(0);
 125              		.loc 1 90 0
 126 004e 4FF00000 		mov	r0, #0
 127 0052 FFF7FEFF 		bl	Control_Reg_1_Write
 128              	.L4:
  91:.\Generated_Source\PSoC5/ADC_DelSig_V_INT.c ****     }
  92:.\Generated_Source\PSoC5/ADC_DelSig_V_INT.c **** 
  93:.\Generated_Source\PSoC5/ADC_DelSig_V_INT.c ****     E[0] = sineLUT[sineLUTindex]-200-buffvolt; 
 129              		.loc 1 93 0
 130 0056 40F20003 		movw	r3, #:lower16:sineLUTindex
 131 005a C0F20003 		movt	r3, #:upper16:sineLUTindex
ARM GAS  C:\Users\hoangp\AppData\Local\Temp\ccLgEkeB.s 			page 5


 132 005e 1B88     		ldrh	r3, [r3, #0]
 133 0060 1AB2     		sxth	r2, r3
 134 0062 40F20003 		movw	r3, #:lower16:sineLUT
 135 0066 C0F20003 		movt	r3, #:upper16:sineLUT
 136 006a 33F81230 		ldrh	r3, [r3, r2, lsl #1]
 137 006e 1BB2     		sxth	r3, r3
 138 0070 A3F1C802 		sub	r2, r3, #200
 139 0074 40F20003 		movw	r3, #:lower16:buffvolt
 140 0078 C0F20003 		movt	r3, #:upper16:buffvolt
 141 007c 1B88     		ldrh	r3, [r3, #0]
 142 007e 1BB2     		sxth	r3, r3
 143 0080 C3EB0202 		rsb	r2, r3, r2
 144 0084 40F20003 		movw	r3, #:lower16:E
 145 0088 C0F20003 		movt	r3, #:upper16:E
 146 008c 1A60     		str	r2, [r3, #0]
  94:.\Generated_Source\PSoC5/ADC_DelSig_V_INT.c **** 
  95:.\Generated_Source\PSoC5/ADC_DelSig_V_INT.c ****     
  96:.\Generated_Source\PSoC5/ADC_DelSig_V_INT.c ****     //integral .6 and .16
  97:.\Generated_Source\PSoC5/ADC_DelSig_V_INT.c ****     U[1] += E[0]*.22;
 147              		.loc 1 97 0
 148 008e 40F20003 		movw	r3, #:lower16:U
 149 0092 C0F20003 		movt	r3, #:upper16:U
 150 0096 5B68     		ldr	r3, [r3, #4]
 151 0098 1846     		mov	r0, r3
 152 009a FFF7FEFF 		bl	__aeabi_i2d
 153 009e 0446     		mov	r4, r0
 154 00a0 0D46     		mov	r5, r1
 155 00a2 40F20003 		movw	r3, #:lower16:E
 156 00a6 C0F20003 		movt	r3, #:upper16:E
 157 00aa 1B68     		ldr	r3, [r3, #0]
 158 00ac 1846     		mov	r0, r3
 159 00ae FFF7FEFF 		bl	__aeabi_i2d
 160 00b2 0246     		mov	r2, r0
 161 00b4 0B46     		mov	r3, r1
 162 00b6 1046     		mov	r0, r2
 163 00b8 1946     		mov	r1, r3
 164 00ba 37A3     		adr	r3, .L8
 165 00bc D3E90023 		ldrd	r2, [r3]
 166 00c0 FFF7FEFF 		bl	__aeabi_dmul
 167 00c4 0246     		mov	r2, r0
 168 00c6 0B46     		mov	r3, r1
 169 00c8 2046     		mov	r0, r4
 170 00ca 2946     		mov	r1, r5
 171 00cc FFF7FEFF 		bl	__aeabi_dadd
 172 00d0 0246     		mov	r2, r0
 173 00d2 0B46     		mov	r3, r1
 174 00d4 1046     		mov	r0, r2
 175 00d6 1946     		mov	r1, r3
 176 00d8 FFF7FEFF 		bl	__aeabi_d2iz
 177 00dc 0246     		mov	r2, r0
 178 00de 40F20003 		movw	r3, #:lower16:U
 179 00e2 C0F20003 		movt	r3, #:upper16:U
 180 00e6 5A60     		str	r2, [r3, #4]
  98:.\Generated_Source\PSoC5/ADC_DelSig_V_INT.c ****     //calculating PI output
  99:.\Generated_Source\PSoC5/ADC_DelSig_V_INT.c ****     U[0] = E[0]*.008+U[1];
 181              		.loc 1 99 0
 182 00e8 40F20003 		movw	r3, #:lower16:E
ARM GAS  C:\Users\hoangp\AppData\Local\Temp\ccLgEkeB.s 			page 6


 183 00ec C0F20003 		movt	r3, #:upper16:E
 184 00f0 1B68     		ldr	r3, [r3, #0]
 185 00f2 1846     		mov	r0, r3
 186 00f4 FFF7FEFF 		bl	__aeabi_i2d
 187 00f8 0246     		mov	r2, r0
 188 00fa 0B46     		mov	r3, r1
 189 00fc 1046     		mov	r0, r2
 190 00fe 1946     		mov	r1, r3
 191 0100 27A3     		adr	r3, .L8+8
 192 0102 D3E90023 		ldrd	r2, [r3]
 193 0106 FFF7FEFF 		bl	__aeabi_dmul
 194 010a 0246     		mov	r2, r0
 195 010c 0B46     		mov	r3, r1
 196 010e 1446     		mov	r4, r2
 197 0110 1D46     		mov	r5, r3
 198 0112 40F20003 		movw	r3, #:lower16:U
 199 0116 C0F20003 		movt	r3, #:upper16:U
 200 011a 5B68     		ldr	r3, [r3, #4]
 201 011c 1846     		mov	r0, r3
 202 011e FFF7FEFF 		bl	__aeabi_i2d
 203 0122 0246     		mov	r2, r0
 204 0124 0B46     		mov	r3, r1
 205 0126 2046     		mov	r0, r4
 206 0128 2946     		mov	r1, r5
 207 012a FFF7FEFF 		bl	__aeabi_dadd
 208 012e 0246     		mov	r2, r0
 209 0130 0B46     		mov	r3, r1
 210 0132 1046     		mov	r0, r2
 211 0134 1946     		mov	r1, r3
 212 0136 FFF7FEFF 		bl	__aeabi_d2iz
 213 013a 0246     		mov	r2, r0
 214 013c 40F20003 		movw	r3, #:lower16:U
 215 0140 C0F20003 		movt	r3, #:upper16:U
 216 0144 1A60     		str	r2, [r3, #0]
 100:.\Generated_Source\PSoC5/ADC_DelSig_V_INT.c **** 
 101:.\Generated_Source\PSoC5/ADC_DelSig_V_INT.c ****     
 102:.\Generated_Source\PSoC5/ADC_DelSig_V_INT.c ****     if (U[0] > 398) {
 217              		.loc 1 102 0
 218 0146 40F20003 		movw	r3, #:lower16:U
 219 014a C0F20003 		movt	r3, #:upper16:U
 220 014e 1B68     		ldr	r3, [r3, #0]
 221 0150 B3F5C77F 		cmp	r3, #398
 222 0154 07DD     		ble	.L5
 103:.\Generated_Source\PSoC5/ADC_DelSig_V_INT.c ****         U[0]=398;
 223              		.loc 1 103 0
 224 0156 40F20003 		movw	r3, #:lower16:U
 225 015a C0F20003 		movt	r3, #:upper16:U
 226 015e 4FF4C772 		mov	r2, #398
 227 0162 1A60     		str	r2, [r3, #0]
 228 0164 0DE0     		b	.L6
 229              	.L5:
 104:.\Generated_Source\PSoC5/ADC_DelSig_V_INT.c ****     } else if (U[0] < 0) {
 230              		.loc 1 104 0
 231 0166 40F20003 		movw	r3, #:lower16:U
 232 016a C0F20003 		movt	r3, #:upper16:U
 233 016e 1B68     		ldr	r3, [r3, #0]
 234 0170 002B     		cmp	r3, #0
ARM GAS  C:\Users\hoangp\AppData\Local\Temp\ccLgEkeB.s 			page 7


 235 0172 06DA     		bge	.L6
 105:.\Generated_Source\PSoC5/ADC_DelSig_V_INT.c ****         U[0]=0;
 236              		.loc 1 105 0
 237 0174 40F20003 		movw	r3, #:lower16:U
 238 0178 C0F20003 		movt	r3, #:upper16:U
 239 017c 4FF00002 		mov	r2, #0
 240 0180 1A60     		str	r2, [r3, #0]
 241              	.L6:
 106:.\Generated_Source\PSoC5/ADC_DelSig_V_INT.c ****     }
 107:.\Generated_Source\PSoC5/ADC_DelSig_V_INT.c ****     
 108:.\Generated_Source\PSoC5/ADC_DelSig_V_INT.c ****     PWM_BUCK_WriteCompare(U[0]);
 242              		.loc 1 108 0
 243 0182 40F20003 		movw	r3, #:lower16:U
 244 0186 C0F20003 		movt	r3, #:upper16:U
 245 018a 1B68     		ldr	r3, [r3, #0]
 246 018c 1846     		mov	r0, r3
 247 018e FFF7FEFF 		bl	PWM_BUCK_WriteCompare
 109:.\Generated_Source\PSoC5/ADC_DelSig_V_INT.c ****     
 110:.\Generated_Source\PSoC5/ADC_DelSig_V_INT.c ****     
 111:.\Generated_Source\PSoC5/ADC_DelSig_V_INT.c ****     /* `#END`  */
 112:.\Generated_Source\PSoC5/ADC_DelSig_V_INT.c ****     
 113:.\Generated_Source\PSoC5/ADC_DelSig_V_INT.c ****     /* Stop the conversion if conversion mode is single sample and resolution
 114:.\Generated_Source\PSoC5/ADC_DelSig_V_INT.c ****        is above 16 bits. 
 115:.\Generated_Source\PSoC5/ADC_DelSig_V_INT.c ****     */
 116:.\Generated_Source\PSoC5/ADC_DelSig_V_INT.c ****     #if(ADC_DelSig_V_CFG1_RESOLUTION > 16 && \
 117:.\Generated_Source\PSoC5/ADC_DelSig_V_INT.c ****         ADC_DelSig_V_CFG1_CONV_MODE == ADC_DelSig_V_MODE_SINGLE_SAMPLE) 
 118:.\Generated_Source\PSoC5/ADC_DelSig_V_INT.c ****         ADC_DelSig_V_StopConvert(); 
 119:.\Generated_Source\PSoC5/ADC_DelSig_V_INT.c ****     #endif /* Single sample conversion mode with resolution above 16 bits */         
 120:.\Generated_Source\PSoC5/ADC_DelSig_V_INT.c ****         
 121:.\Generated_Source\PSoC5/ADC_DelSig_V_INT.c **** }
 248              		.loc 1 121 0
 249 0192 B0BD     		pop	{r4, r5, r7, pc}
 250              	.L9:
 251 0194 AFF30080 		.align	3
 252              	.L8:
 253 0198 295C8FC2 		.word	-1030792151
 254 019c F528CC3F 		.word	1070344437
 255 01a0 FCA9F1D2 		.word	-755914244
 256 01a4 4D62803F 		.word	1065378381
 257              		.cfi_endproc
 258              	.LFE0:
 259              		.size	ADC_DelSig_V_ISR1, .-ADC_DelSig_V_ISR1
 260              		.section	.text.ADC_DelSig_V_ISR2,"ax",%progbits
 261              		.align	2
 262              		.global	ADC_DelSig_V_ISR2
 263              		.thumb
 264              		.thumb_func
 265              		.type	ADC_DelSig_V_ISR2, %function
 266              	ADC_DelSig_V_ISR2:
 267              	.LFB1:
 122:.\Generated_Source\PSoC5/ADC_DelSig_V_INT.c **** 
 123:.\Generated_Source\PSoC5/ADC_DelSig_V_INT.c **** 
 124:.\Generated_Source\PSoC5/ADC_DelSig_V_INT.c **** /*****************************************************************************
 125:.\Generated_Source\PSoC5/ADC_DelSig_V_INT.c **** * Function Name: ADC_DelSig_V_ISR2
 126:.\Generated_Source\PSoC5/ADC_DelSig_V_INT.c **** ******************************************************************************
 127:.\Generated_Source\PSoC5/ADC_DelSig_V_INT.c **** *
 128:.\Generated_Source\PSoC5/ADC_DelSig_V_INT.c **** * Summary:
ARM GAS  C:\Users\hoangp\AppData\Local\Temp\ccLgEkeB.s 			page 8


 129:.\Generated_Source\PSoC5/ADC_DelSig_V_INT.c **** *  Handle Interrupt Service Routine.  
 130:.\Generated_Source\PSoC5/ADC_DelSig_V_INT.c **** *
 131:.\Generated_Source\PSoC5/ADC_DelSig_V_INT.c **** * Parameters:  
 132:.\Generated_Source\PSoC5/ADC_DelSig_V_INT.c **** *  void
 133:.\Generated_Source\PSoC5/ADC_DelSig_V_INT.c **** *
 134:.\Generated_Source\PSoC5/ADC_DelSig_V_INT.c **** * Return: 
 135:.\Generated_Source\PSoC5/ADC_DelSig_V_INT.c **** *  void 
 136:.\Generated_Source\PSoC5/ADC_DelSig_V_INT.c **** *
 137:.\Generated_Source\PSoC5/ADC_DelSig_V_INT.c **** * Reentrant: 
 138:.\Generated_Source\PSoC5/ADC_DelSig_V_INT.c **** *  No
 139:.\Generated_Source\PSoC5/ADC_DelSig_V_INT.c **** *
 140:.\Generated_Source\PSoC5/ADC_DelSig_V_INT.c **** *****************************************************************************/
 141:.\Generated_Source\PSoC5/ADC_DelSig_V_INT.c **** CY_ISR( ADC_DelSig_V_ISR2)
 142:.\Generated_Source\PSoC5/ADC_DelSig_V_INT.c **** {
 268              		.loc 1 142 0
 269              		.cfi_startproc
 270              		@ args = 0, pretend = 0, frame = 0
 271              		@ frame_needed = 1, uses_anonymous_args = 0
 272              		@ link register save eliminated.
 273 0000 80B4     		push	{r7}
 274              	.LCFI2:
 275              		.cfi_def_cfa_offset 4
 276 0002 00AF     		add	r7, sp, #0
 277              		.cfi_offset 7, -4
 278              	.LCFI3:
 279              		.cfi_def_cfa_register 7
 143:.\Generated_Source\PSoC5/ADC_DelSig_V_INT.c ****     /***************************************************************************
 144:.\Generated_Source\PSoC5/ADC_DelSig_V_INT.c ****     *  Custom Code
 145:.\Generated_Source\PSoC5/ADC_DelSig_V_INT.c ****     *  - add user ISR code between the following #START and #END tags
 146:.\Generated_Source\PSoC5/ADC_DelSig_V_INT.c ****     **************************************************************************/
 147:.\Generated_Source\PSoC5/ADC_DelSig_V_INT.c ****     /* `#START MAIN_ADC_ISR2`  */
 148:.\Generated_Source\PSoC5/ADC_DelSig_V_INT.c **** 
 149:.\Generated_Source\PSoC5/ADC_DelSig_V_INT.c ****     /* `#END`  */
 150:.\Generated_Source\PSoC5/ADC_DelSig_V_INT.c ****     
 151:.\Generated_Source\PSoC5/ADC_DelSig_V_INT.c ****     /* Stop the conversion conversion mode is single sample and resolution
 152:.\Generated_Source\PSoC5/ADC_DelSig_V_INT.c ****        is above 16 bits.
 153:.\Generated_Source\PSoC5/ADC_DelSig_V_INT.c ****     */
 154:.\Generated_Source\PSoC5/ADC_DelSig_V_INT.c ****     #if(ADC_DelSig_V_CFG2_RESOLUTION > 16 && \
 155:.\Generated_Source\PSoC5/ADC_DelSig_V_INT.c ****         ADC_DelSig_V_CFG2_CONVMODE == ADC_DelSig_V_MODE_SINGLE_SAMPLE) 
 156:.\Generated_Source\PSoC5/ADC_DelSig_V_INT.c ****         ADC_DelSig_V_StopConvert(); 
 157:.\Generated_Source\PSoC5/ADC_DelSig_V_INT.c ****     #endif /* Single sample conversion mode with resolution above 16 bits */
 158:.\Generated_Source\PSoC5/ADC_DelSig_V_INT.c ****     
 159:.\Generated_Source\PSoC5/ADC_DelSig_V_INT.c **** }
 280              		.loc 1 159 0
 281 0004 BD46     		mov	sp, r7
 282 0006 80BC     		pop	{r7}
 283 0008 7047     		bx	lr
 284              		.cfi_endproc
 285              	.LFE1:
 286              		.size	ADC_DelSig_V_ISR2, .-ADC_DelSig_V_ISR2
 287 000a 00BF     		.section	.text.ADC_DelSig_V_ISR3,"ax",%progbits
 288              		.align	2
 289              		.global	ADC_DelSig_V_ISR3
 290              		.thumb
 291              		.thumb_func
 292              		.type	ADC_DelSig_V_ISR3, %function
 293              	ADC_DelSig_V_ISR3:
ARM GAS  C:\Users\hoangp\AppData\Local\Temp\ccLgEkeB.s 			page 9


 294              	.LFB2:
 160:.\Generated_Source\PSoC5/ADC_DelSig_V_INT.c **** 
 161:.\Generated_Source\PSoC5/ADC_DelSig_V_INT.c **** 
 162:.\Generated_Source\PSoC5/ADC_DelSig_V_INT.c **** /*****************************************************************************
 163:.\Generated_Source\PSoC5/ADC_DelSig_V_INT.c **** * Function Name: ADC_DelSig_V_ISR3
 164:.\Generated_Source\PSoC5/ADC_DelSig_V_INT.c **** ******************************************************************************
 165:.\Generated_Source\PSoC5/ADC_DelSig_V_INT.c **** *
 166:.\Generated_Source\PSoC5/ADC_DelSig_V_INT.c **** * Summary:
 167:.\Generated_Source\PSoC5/ADC_DelSig_V_INT.c **** *  Handle Interrupt Service Routine.  
 168:.\Generated_Source\PSoC5/ADC_DelSig_V_INT.c **** *
 169:.\Generated_Source\PSoC5/ADC_DelSig_V_INT.c **** * Parameters:  
 170:.\Generated_Source\PSoC5/ADC_DelSig_V_INT.c **** *  void
 171:.\Generated_Source\PSoC5/ADC_DelSig_V_INT.c **** *
 172:.\Generated_Source\PSoC5/ADC_DelSig_V_INT.c **** * Return: 
 173:.\Generated_Source\PSoC5/ADC_DelSig_V_INT.c **** *  void 
 174:.\Generated_Source\PSoC5/ADC_DelSig_V_INT.c **** *
 175:.\Generated_Source\PSoC5/ADC_DelSig_V_INT.c **** * Reentrant: 
 176:.\Generated_Source\PSoC5/ADC_DelSig_V_INT.c **** *  No
 177:.\Generated_Source\PSoC5/ADC_DelSig_V_INT.c **** *
 178:.\Generated_Source\PSoC5/ADC_DelSig_V_INT.c **** *****************************************************************************/
 179:.\Generated_Source\PSoC5/ADC_DelSig_V_INT.c **** CY_ISR( ADC_DelSig_V_ISR3)
 180:.\Generated_Source\PSoC5/ADC_DelSig_V_INT.c **** {
 295              		.loc 1 180 0
 296              		.cfi_startproc
 297              		@ args = 0, pretend = 0, frame = 0
 298              		@ frame_needed = 1, uses_anonymous_args = 0
 299              		@ link register save eliminated.
 300 0000 80B4     		push	{r7}
 301              	.LCFI4:
 302              		.cfi_def_cfa_offset 4
 303 0002 00AF     		add	r7, sp, #0
 304              		.cfi_offset 7, -4
 305              	.LCFI5:
 306              		.cfi_def_cfa_register 7
 181:.\Generated_Source\PSoC5/ADC_DelSig_V_INT.c ****     /***************************************************************************
 182:.\Generated_Source\PSoC5/ADC_DelSig_V_INT.c ****     *  Custom Code
 183:.\Generated_Source\PSoC5/ADC_DelSig_V_INT.c ****     *  - add user ISR code between the following #START and #END tags
 184:.\Generated_Source\PSoC5/ADC_DelSig_V_INT.c ****     **************************************************************************/
 185:.\Generated_Source\PSoC5/ADC_DelSig_V_INT.c ****     /* `#START MAIN_ADC_ISR3`  */
 186:.\Generated_Source\PSoC5/ADC_DelSig_V_INT.c **** 
 187:.\Generated_Source\PSoC5/ADC_DelSig_V_INT.c ****     /* `#END`  */
 188:.\Generated_Source\PSoC5/ADC_DelSig_V_INT.c **** 
 189:.\Generated_Source\PSoC5/ADC_DelSig_V_INT.c ****     /* Stop the conversion if conversion mode is set to single sample and 
 190:.\Generated_Source\PSoC5/ADC_DelSig_V_INT.c ****        resolution is above 16 bits. 
 191:.\Generated_Source\PSoC5/ADC_DelSig_V_INT.c ****     */
 192:.\Generated_Source\PSoC5/ADC_DelSig_V_INT.c ****     #if(ADC_DelSig_V_CFG3_RESOLUTION > 16 && \
 193:.\Generated_Source\PSoC5/ADC_DelSig_V_INT.c ****         ADC_DelSig_V_CFG3_CONVMODE == ADC_DelSig_V_MODE_SINGLE_SAMPLE) 
 194:.\Generated_Source\PSoC5/ADC_DelSig_V_INT.c ****         ADC_DelSig_V_StopConvert(); 
 195:.\Generated_Source\PSoC5/ADC_DelSig_V_INT.c ****     #endif /* Single sample conversion mode with resolution above 16 bits */  
 196:.\Generated_Source\PSoC5/ADC_DelSig_V_INT.c **** }
 307              		.loc 1 196 0
 308 0004 BD46     		mov	sp, r7
 309 0006 80BC     		pop	{r7}
 310 0008 7047     		bx	lr
 311              		.cfi_endproc
 312              	.LFE2:
 313              		.size	ADC_DelSig_V_ISR3, .-ADC_DelSig_V_ISR3
ARM GAS  C:\Users\hoangp\AppData\Local\Temp\ccLgEkeB.s 			page 10


 314 000a 00BF     		.section	.text.ADC_DelSig_V_ISR4,"ax",%progbits
 315              		.align	2
 316              		.global	ADC_DelSig_V_ISR4
 317              		.thumb
 318              		.thumb_func
 319              		.type	ADC_DelSig_V_ISR4, %function
 320              	ADC_DelSig_V_ISR4:
 321              	.LFB3:
 197:.\Generated_Source\PSoC5/ADC_DelSig_V_INT.c **** 
 198:.\Generated_Source\PSoC5/ADC_DelSig_V_INT.c **** 
 199:.\Generated_Source\PSoC5/ADC_DelSig_V_INT.c **** /*****************************************************************************
 200:.\Generated_Source\PSoC5/ADC_DelSig_V_INT.c **** * Function Name: ADC_DelSig_V_ISR4
 201:.\Generated_Source\PSoC5/ADC_DelSig_V_INT.c **** ******************************************************************************
 202:.\Generated_Source\PSoC5/ADC_DelSig_V_INT.c **** *
 203:.\Generated_Source\PSoC5/ADC_DelSig_V_INT.c **** * Summary:
 204:.\Generated_Source\PSoC5/ADC_DelSig_V_INT.c **** *  Handle Interrupt Service Routine.  
 205:.\Generated_Source\PSoC5/ADC_DelSig_V_INT.c **** *
 206:.\Generated_Source\PSoC5/ADC_DelSig_V_INT.c **** * Parameters:  
 207:.\Generated_Source\PSoC5/ADC_DelSig_V_INT.c **** *  void
 208:.\Generated_Source\PSoC5/ADC_DelSig_V_INT.c **** *
 209:.\Generated_Source\PSoC5/ADC_DelSig_V_INT.c **** * Return: 
 210:.\Generated_Source\PSoC5/ADC_DelSig_V_INT.c **** *  void 
 211:.\Generated_Source\PSoC5/ADC_DelSig_V_INT.c **** *
 212:.\Generated_Source\PSoC5/ADC_DelSig_V_INT.c **** * Reentrant: 
 213:.\Generated_Source\PSoC5/ADC_DelSig_V_INT.c **** *  No
 214:.\Generated_Source\PSoC5/ADC_DelSig_V_INT.c **** *
 215:.\Generated_Source\PSoC5/ADC_DelSig_V_INT.c **** *****************************************************************************/
 216:.\Generated_Source\PSoC5/ADC_DelSig_V_INT.c **** CY_ISR( ADC_DelSig_V_ISR4)
 217:.\Generated_Source\PSoC5/ADC_DelSig_V_INT.c **** {
 322              		.loc 1 217 0
 323              		.cfi_startproc
 324              		@ args = 0, pretend = 0, frame = 0
 325              		@ frame_needed = 1, uses_anonymous_args = 0
 326              		@ link register save eliminated.
 327 0000 80B4     		push	{r7}
 328              	.LCFI6:
 329              		.cfi_def_cfa_offset 4
 330 0002 00AF     		add	r7, sp, #0
 331              		.cfi_offset 7, -4
 332              	.LCFI7:
 333              		.cfi_def_cfa_register 7
 218:.\Generated_Source\PSoC5/ADC_DelSig_V_INT.c ****     /***************************************************************************
 219:.\Generated_Source\PSoC5/ADC_DelSig_V_INT.c ****     *  Custom Code
 220:.\Generated_Source\PSoC5/ADC_DelSig_V_INT.c ****     *  - add user ISR code between the following #START and #END tags
 221:.\Generated_Source\PSoC5/ADC_DelSig_V_INT.c ****     **************************************************************************/
 222:.\Generated_Source\PSoC5/ADC_DelSig_V_INT.c ****     /* `#START MAIN_ADC_ISR4`  */
 223:.\Generated_Source\PSoC5/ADC_DelSig_V_INT.c **** 
 224:.\Generated_Source\PSoC5/ADC_DelSig_V_INT.c ****     /* `#END`  */
 225:.\Generated_Source\PSoC5/ADC_DelSig_V_INT.c ****     
 226:.\Generated_Source\PSoC5/ADC_DelSig_V_INT.c ****     /* Stop the conversion if conversion mode is set to single sample and 
 227:.\Generated_Source\PSoC5/ADC_DelSig_V_INT.c ****        resolution is above 16 bits. 
 228:.\Generated_Source\PSoC5/ADC_DelSig_V_INT.c ****     */
 229:.\Generated_Source\PSoC5/ADC_DelSig_V_INT.c ****     #if(ADC_DelSig_V_CFG4_RESOLUTION > 16 && \
 230:.\Generated_Source\PSoC5/ADC_DelSig_V_INT.c ****         ADC_DelSig_V_CFG4_CONVMODE == ADC_DelSig_V_MODE_SINGLE_SAMPLE) 
 231:.\Generated_Source\PSoC5/ADC_DelSig_V_INT.c ****         ADC_DelSig_V_StopConvert(); 
 232:.\Generated_Source\PSoC5/ADC_DelSig_V_INT.c ****     #endif /* Single sample conversion mode with resolution above 16 bits */
 233:.\Generated_Source\PSoC5/ADC_DelSig_V_INT.c **** }
ARM GAS  C:\Users\hoangp\AppData\Local\Temp\ccLgEkeB.s 			page 11


 334              		.loc 1 233 0
 335 0004 BD46     		mov	sp, r7
 336 0006 80BC     		pop	{r7}
 337 0008 7047     		bx	lr
 338              		.cfi_endproc
 339              	.LFE3:
 340              		.size	ADC_DelSig_V_ISR4, .-ADC_DelSig_V_ISR4
 341 000a 00BF     		.text
 342              	.Letext0: