ARM GAS  C:\Users\hoangp\AppData\Local\Temp\cc4n80oh.s 			page 1


   1              		.syntax unified
   2              		.cpu cortex-m3
   3              		.fpu softvfp
   4              		.eabi_attribute 20, 1
   5              		.eabi_attribute 21, 1
   6              		.eabi_attribute 23, 3
   7              		.eabi_attribute 24, 1
   8              		.eabi_attribute 25, 1
   9              		.eabi_attribute 26, 1
  10              		.eabi_attribute 30, 6
  11              		.eabi_attribute 18, 4
  12              		.thumb
  13              		.file	"ADC_DelSig_V.c"
  14              		.section	.debug_abbrev,"",%progbits
  15              	.Ldebug_abbrev0:
  16              		.section	.debug_info,"",%progbits
  17              	.Ldebug_info0:
  18              		.section	.debug_line,"",%progbits
  19              	.Ldebug_line0:
  20 0000 3E040000 		.text
  20      02007700 
  20      00000201 
  20      FB0E0D00 
  20      01010101 
  21              	.Ltext0:
  22              		.cfi_sections	.debug_frame
  23              		.global	ADC_DelSig_V_convDone
  24              		.bss
  25              		.type	ADC_DelSig_V_convDone, %object
  26              		.size	ADC_DelSig_V_convDone, 1
  27              	ADC_DelSig_V_convDone:
  28 0000 00       		.space	1
  29              		.global	ADC_DelSig_V_stopConversion
  30              		.type	ADC_DelSig_V_stopConversion, %object
  31              		.size	ADC_DelSig_V_stopConversion, 1
  32              	ADC_DelSig_V_stopConversion:
  33 0001 00       		.space	1
  34              		.global	ADC_DelSig_V_initVar
  35              		.type	ADC_DelSig_V_initVar, %object
  36              		.size	ADC_DelSig_V_initVar, 1
  37              	ADC_DelSig_V_initVar:
  38 0002 00       		.space	1
  39              		.global	ADC_DelSig_V_started
  40              		.type	ADC_DelSig_V_started, %object
  41              		.size	ADC_DelSig_V_started, 1
  42              	ADC_DelSig_V_started:
  43 0003 00       		.space	1
  44              		.global	ADC_DelSig_V_Config
  45              		.data
  46              		.type	ADC_DelSig_V_Config, %object
  47              		.size	ADC_DelSig_V_Config, 1
  48              	ADC_DelSig_V_Config:
  49 0000 01       		.byte	1
  50              		.global	ADC_DelSig_V_Offset
  51              		.bss
  52              		.align	2
  53              		.type	ADC_DelSig_V_Offset, %object
ARM GAS  C:\Users\hoangp\AppData\Local\Temp\cc4n80oh.s 			page 2


  54              		.size	ADC_DelSig_V_Offset, 4
  55              	ADC_DelSig_V_Offset:
  56 0004 00000000 		.space	4
  57              		.global	ADC_DelSig_V_CountsPerVolt
  58              		.data
  59 0001 000000   		.align	2
  60              		.type	ADC_DelSig_V_CountsPerVolt, %object
  61              		.size	ADC_DelSig_V_CountsPerVolt, 4
  62              	ADC_DelSig_V_CountsPerVolt:
  63 0004 66000000 		.word	102
  64              		.global	ADC_DelSig_V_restoreReg
  65              		.bss
  66              		.type	ADC_DelSig_V_restoreReg, %object
  67              		.size	ADC_DelSig_V_restoreReg, 1
  68              	ADC_DelSig_V_restoreReg:
  69 0008 00       		.space	1
  70 0009 000000   		.data
  71              		.align	2
  72              		.type	ADC_DelSig_V_powerModeBackup, %object
  73              		.size	ADC_DelSig_V_powerModeBackup, 9
  74              	ADC_DelSig_V_powerModeBackup:
  75 0008 02       		.byte	2
  76 0009 22       		.byte	34
  77 000a 28       		.byte	40
  78 000b EB       		.byte	-21
  79 000c 52       		.byte	82
  80 000d 05       		.byte	5
  81 000e 02       		.byte	2
  82 000f 18       		.byte	24
  83 0010 00       		.byte	0
  84 0011 000000   		.section	.text.ADC_DelSig_V_Init,"ax",%progbits
  85              		.align	2
  86              		.global	ADC_DelSig_V_Init
  87              		.thumb
  88              		.thumb_func
  89              		.type	ADC_DelSig_V_Init, %function
  90              	ADC_DelSig_V_Init:
  91              	.LFB0:
  92              		.file 1 ".\\Generated_Source\\PSoC5\\ADC_DelSig_V.c"
   1:.\Generated_Source\PSoC5/ADC_DelSig_V.c **** /*******************************************************************************
   2:.\Generated_Source\PSoC5/ADC_DelSig_V.c **** * File Name: ADC_DelSig_V.c  
   3:.\Generated_Source\PSoC5/ADC_DelSig_V.c **** * Version 2.30
   4:.\Generated_Source\PSoC5/ADC_DelSig_V.c **** *
   5:.\Generated_Source\PSoC5/ADC_DelSig_V.c **** * Description:
   6:.\Generated_Source\PSoC5/ADC_DelSig_V.c **** *  This file provides the source code to the API for the Delta-Sigma ADC
   7:.\Generated_Source\PSoC5/ADC_DelSig_V.c **** *  Component.
   8:.\Generated_Source\PSoC5/ADC_DelSig_V.c **** *
   9:.\Generated_Source\PSoC5/ADC_DelSig_V.c **** * Note:
  10:.\Generated_Source\PSoC5/ADC_DelSig_V.c **** *
  11:.\Generated_Source\PSoC5/ADC_DelSig_V.c **** *******************************************************************************
  12:.\Generated_Source\PSoC5/ADC_DelSig_V.c **** * Copyright 2008-2012, Cypress Semiconductor Corporation.  All rights reserved.
  13:.\Generated_Source\PSoC5/ADC_DelSig_V.c **** * You may use this file only in accordance with the license, terms, conditions, 
  14:.\Generated_Source\PSoC5/ADC_DelSig_V.c **** * disclaimers, and limitations in the end user license agreement accompanying 
  15:.\Generated_Source\PSoC5/ADC_DelSig_V.c **** * the software package with which this file was provided.
  16:.\Generated_Source\PSoC5/ADC_DelSig_V.c **** ********************************************************************************/
  17:.\Generated_Source\PSoC5/ADC_DelSig_V.c **** 
  18:.\Generated_Source\PSoC5/ADC_DelSig_V.c **** #include "ADC_DelSig_V.h"
ARM GAS  C:\Users\hoangp\AppData\Local\Temp\cc4n80oh.s 			page 3


  19:.\Generated_Source\PSoC5/ADC_DelSig_V.c **** 
  20:.\Generated_Source\PSoC5/ADC_DelSig_V.c **** #if(ADC_DelSig_V_DEFAULT_INTERNAL_CLK)
  21:.\Generated_Source\PSoC5/ADC_DelSig_V.c ****     #include "ADC_DelSig_V_theACLK.h"
  22:.\Generated_Source\PSoC5/ADC_DelSig_V.c **** #endif /* ADC_DelSig_V_DEFAULT_INTERNAL_CLK */
  23:.\Generated_Source\PSoC5/ADC_DelSig_V.c **** 
  24:.\Generated_Source\PSoC5/ADC_DelSig_V.c **** #include "ADC_DelSig_V_Ext_CP_Clk.h"
  25:.\Generated_Source\PSoC5/ADC_DelSig_V.c **** 
  26:.\Generated_Source\PSoC5/ADC_DelSig_V.c **** #if(ADC_DelSig_V_DEFAULT_INPUT_MODE)
  27:.\Generated_Source\PSoC5/ADC_DelSig_V.c ****     #include "ADC_DelSig_V_AMux.h"
  28:.\Generated_Source\PSoC5/ADC_DelSig_V.c **** #endif /* ADC_DelSig_V_DEFAULT_INPUT_MODE */
  29:.\Generated_Source\PSoC5/ADC_DelSig_V.c **** 
  30:.\Generated_Source\PSoC5/ADC_DelSig_V.c **** /* Software flag for checking conversion completed or not */
  31:.\Generated_Source\PSoC5/ADC_DelSig_V.c **** volatile uint8 ADC_DelSig_V_convDone = 0u;
  32:.\Generated_Source\PSoC5/ADC_DelSig_V.c **** 
  33:.\Generated_Source\PSoC5/ADC_DelSig_V.c **** /* Software flag to stop conversion for single sample conversion mode 
  34:.\Generated_Source\PSoC5/ADC_DelSig_V.c ****    with resolution above 16 bits */
  35:.\Generated_Source\PSoC5/ADC_DelSig_V.c **** volatile uint8 ADC_DelSig_V_stopConversion = 0u;
  36:.\Generated_Source\PSoC5/ADC_DelSig_V.c **** 
  37:.\Generated_Source\PSoC5/ADC_DelSig_V.c **** /* To run the initialization block only at the start up */
  38:.\Generated_Source\PSoC5/ADC_DelSig_V.c **** uint8 ADC_DelSig_V_initVar = 0u;
  39:.\Generated_Source\PSoC5/ADC_DelSig_V.c **** 
  40:.\Generated_Source\PSoC5/ADC_DelSig_V.c **** /* To check whether ADC started or not before switching the configuration */
  41:.\Generated_Source\PSoC5/ADC_DelSig_V.c **** volatile uint8 ADC_DelSig_V_started = 0u;
  42:.\Generated_Source\PSoC5/ADC_DelSig_V.c **** 
  43:.\Generated_Source\PSoC5/ADC_DelSig_V.c **** /* Flag to hold ADC config number. By default active config is 1. */
  44:.\Generated_Source\PSoC5/ADC_DelSig_V.c **** volatile uint8 ADC_DelSig_V_Config = 1u;
  45:.\Generated_Source\PSoC5/ADC_DelSig_V.c **** 
  46:.\Generated_Source\PSoC5/ADC_DelSig_V.c **** volatile int32 ADC_DelSig_V_Offset = 0u;
  47:.\Generated_Source\PSoC5/ADC_DelSig_V.c **** volatile int32 ADC_DelSig_V_CountsPerVolt = (uint32)ADC_DelSig_V_CFG1_COUNTS_PER_VOLT;
  48:.\Generated_Source\PSoC5/ADC_DelSig_V.c **** 
  49:.\Generated_Source\PSoC5/ADC_DelSig_V.c **** /* Only valid for PSoC5A */
  50:.\Generated_Source\PSoC5/ADC_DelSig_V.c **** /* Variable to decide whether or not to restore the register values from
  51:.\Generated_Source\PSoC5/ADC_DelSig_V.c ****     backup structure */
  52:.\Generated_Source\PSoC5/ADC_DelSig_V.c **** #if (CY_PSOC5A)
  53:.\Generated_Source\PSoC5/ADC_DelSig_V.c ****     uint8 ADC_DelSig_V_restoreReg = 0u;
  54:.\Generated_Source\PSoC5/ADC_DelSig_V.c **** #endif /* CY_PSOC5A */
  55:.\Generated_Source\PSoC5/ADC_DelSig_V.c **** 
  56:.\Generated_Source\PSoC5/ADC_DelSig_V.c **** /* Valid only for PSoC5A silicon */
  57:.\Generated_Source\PSoC5/ADC_DelSig_V.c **** #if (CY_PSOC5A)
  58:.\Generated_Source\PSoC5/ADC_DelSig_V.c ****     /* Backup struct for power mode registers */
  59:.\Generated_Source\PSoC5/ADC_DelSig_V.c ****     static ADC_DelSig_V_POWERMODE_BACKUP_STRUCT ADC_DelSig_V_powerModeBackup = 
  60:.\Generated_Source\PSoC5/ADC_DelSig_V.c ****     {
  61:.\Generated_Source\PSoC5/ADC_DelSig_V.c ****         /* Initializing the structure fields with power mode registers of 
  62:.\Generated_Source\PSoC5/ADC_DelSig_V.c ****            config1 */
  63:.\Generated_Source\PSoC5/ADC_DelSig_V.c ****         ADC_DelSig_V_CFG1_DSM_CR14,
  64:.\Generated_Source\PSoC5/ADC_DelSig_V.c ****         ADC_DelSig_V_CFG1_DSM_CR15,
  65:.\Generated_Source\PSoC5/ADC_DelSig_V.c ****         ADC_DelSig_V_CFG1_DSM_CR16,
  66:.\Generated_Source\PSoC5/ADC_DelSig_V.c ****         ADC_DelSig_V_CFG1_DSM_CR17,
  67:.\Generated_Source\PSoC5/ADC_DelSig_V.c ****         ADC_DelSig_V_CFG1_DSM_REF0,
  68:.\Generated_Source\PSoC5/ADC_DelSig_V.c ****         ADC_DelSig_V_CFG1_DSM_BUF0,
  69:.\Generated_Source\PSoC5/ADC_DelSig_V.c ****         ADC_DelSig_V_CFG1_DSM_BUF1,
  70:.\Generated_Source\PSoC5/ADC_DelSig_V.c ****         ADC_DelSig_V_CFG1_DSM_CLK,
  71:.\Generated_Source\PSoC5/ADC_DelSig_V.c ****         ADC_DelSig_V_BYPASS_DISABLED
  72:.\Generated_Source\PSoC5/ADC_DelSig_V.c ****     };
  73:.\Generated_Source\PSoC5/ADC_DelSig_V.c **** #endif /* CY_PSOC5A */
  74:.\Generated_Source\PSoC5/ADC_DelSig_V.c **** 
  75:.\Generated_Source\PSoC5/ADC_DelSig_V.c **** 
ARM GAS  C:\Users\hoangp\AppData\Local\Temp\cc4n80oh.s 			page 4


  76:.\Generated_Source\PSoC5/ADC_DelSig_V.c **** /****************************************************************************** 
  77:.\Generated_Source\PSoC5/ADC_DelSig_V.c **** * Function Name: ADC_DelSig_V_Init
  78:.\Generated_Source\PSoC5/ADC_DelSig_V.c **** *******************************************************************************
  79:.\Generated_Source\PSoC5/ADC_DelSig_V.c **** *
  80:.\Generated_Source\PSoC5/ADC_DelSig_V.c **** * Summary:
  81:.\Generated_Source\PSoC5/ADC_DelSig_V.c **** *  Initialize component's parameters to the parameters set by user in the 
  82:.\Generated_Source\PSoC5/ADC_DelSig_V.c **** *  customizer of the component placed onto schematic. Usually called in 
  83:.\Generated_Source\PSoC5/ADC_DelSig_V.c **** * ADC_DelSig_V_Start().
  84:.\Generated_Source\PSoC5/ADC_DelSig_V.c **** *  
  85:.\Generated_Source\PSoC5/ADC_DelSig_V.c **** *
  86:.\Generated_Source\PSoC5/ADC_DelSig_V.c **** * Parameters:  
  87:.\Generated_Source\PSoC5/ADC_DelSig_V.c **** *  void
  88:.\Generated_Source\PSoC5/ADC_DelSig_V.c **** *
  89:.\Generated_Source\PSoC5/ADC_DelSig_V.c **** * Return: 
  90:.\Generated_Source\PSoC5/ADC_DelSig_V.c **** *  void 
  91:.\Generated_Source\PSoC5/ADC_DelSig_V.c **** *
  92:.\Generated_Source\PSoC5/ADC_DelSig_V.c **** *******************************************************************************/
  93:.\Generated_Source\PSoC5/ADC_DelSig_V.c **** void ADC_DelSig_V_Init(void) 
  94:.\Generated_Source\PSoC5/ADC_DelSig_V.c **** {
  93              		.loc 1 94 0
  94              		.cfi_startproc
  95              		@ args = 0, pretend = 0, frame = 0
  96              		@ frame_needed = 1, uses_anonymous_args = 0
  97 0000 80B5     		push	{r7, lr}
  98              	.LCFI0:
  99              		.cfi_def_cfa_offset 8
 100 0002 00AF     		add	r7, sp, #0
 101              		.cfi_offset 14, -4
 102              		.cfi_offset 7, -8
 103              	.LCFI1:
 104              		.cfi_def_cfa_register 7
  95:.\Generated_Source\PSoC5/ADC_DelSig_V.c ****     /* Initialize the registers with default customizer settings for config1 */
  96:.\Generated_Source\PSoC5/ADC_DelSig_V.c ****     ADC_DelSig_V_InitConfig(1);
 105              		.loc 1 96 0
 106 0004 4FF00100 		mov	r0, #1
 107 0008 FFF7FEFF 		bl	ADC_DelSig_V_InitConfig
  97:.\Generated_Source\PSoC5/ADC_DelSig_V.c **** 
  98:.\Generated_Source\PSoC5/ADC_DelSig_V.c ****     /* This is only valid if there is an internal clock */
  99:.\Generated_Source\PSoC5/ADC_DelSig_V.c ****     #if(ADC_DelSig_V_DEFAULT_INTERNAL_CLK)
 100:.\Generated_Source\PSoC5/ADC_DelSig_V.c ****         ADC_DelSig_V_theACLK_SetMode(CYCLK_DUTY);
 108              		.loc 1 100 0
 109 000c 4FF01000 		mov	r0, #16
 110 0010 FFF7FEFF 		bl	ADC_DelSig_V_theACLK_SetModeRegister
 101:.\Generated_Source\PSoC5/ADC_DelSig_V.c ****     #endif /* ADC_DelSig_V_DEFAULT_INTERNAL_CLK */
 102:.\Generated_Source\PSoC5/ADC_DelSig_V.c ****     
 103:.\Generated_Source\PSoC5/ADC_DelSig_V.c ****     /* Set the duty cycle for charge pump clock */
 104:.\Generated_Source\PSoC5/ADC_DelSig_V.c ****     ADC_DelSig_V_Ext_CP_Clk_SetMode(CYCLK_DUTY);
 111              		.loc 1 104 0
 112 0014 4FF01000 		mov	r0, #16
 113 0018 FFF7FEFF 		bl	ADC_DelSig_V_Ext_CP_Clk_SetModeRegister
 105:.\Generated_Source\PSoC5/ADC_DelSig_V.c **** 
 106:.\Generated_Source\PSoC5/ADC_DelSig_V.c ****     /* To perform ADC calibration */
 107:.\Generated_Source\PSoC5/ADC_DelSig_V.c ****     ADC_DelSig_V_GainCompensation(ADC_DelSig_V_CFG1_RANGE, 
 114              		.loc 1 107 0
 115 001c 4FF00200 		mov	r0, #2
 116 0020 4FF41041 		mov	r1, #36864
 117 0024 46F60612 		movw	r2, #26886
ARM GAS  C:\Users\hoangp\AppData\Local\Temp\cc4n80oh.s 			page 5


 118 0028 4FF00903 		mov	r3, #9
 119 002c FFF7FEFF 		bl	ADC_DelSig_V_GainCompensation
 108:.\Generated_Source\PSoC5/ADC_DelSig_V.c ****                                       ADC_DelSig_V_CFG1_IDEAL_DEC_GAIN, 
 109:.\Generated_Source\PSoC5/ADC_DelSig_V.c ****                                       ADC_DelSig_V_CFG1_IDEAL_ODDDEC_GAIN, 
 110:.\Generated_Source\PSoC5/ADC_DelSig_V.c ****                                       ADC_DelSig_V_CFG1_RESOLUTION);        
 111:.\Generated_Source\PSoC5/ADC_DelSig_V.c **** }
 120              		.loc 1 111 0
 121 0030 80BD     		pop	{r7, pc}
 122              		.cfi_endproc
 123              	.LFE0:
 124              		.size	ADC_DelSig_V_Init, .-ADC_DelSig_V_Init
 125 0032 00BF     		.section	.text.ADC_DelSig_V_Enable,"ax",%progbits
 126              		.align	2
 127              		.global	ADC_DelSig_V_Enable
 128              		.thumb
 129              		.thumb_func
 130              		.type	ADC_DelSig_V_Enable, %function
 131              	ADC_DelSig_V_Enable:
 132              	.LFB1:
 112:.\Generated_Source\PSoC5/ADC_DelSig_V.c **** 
 113:.\Generated_Source\PSoC5/ADC_DelSig_V.c **** 
 114:.\Generated_Source\PSoC5/ADC_DelSig_V.c **** /******************************************************************************
 115:.\Generated_Source\PSoC5/ADC_DelSig_V.c **** * Function Name: ADC_DelSig_V_Enable
 116:.\Generated_Source\PSoC5/ADC_DelSig_V.c **** *******************************************************************************
 117:.\Generated_Source\PSoC5/ADC_DelSig_V.c **** *
 118:.\Generated_Source\PSoC5/ADC_DelSig_V.c **** * Summary: 
 119:.\Generated_Source\PSoC5/ADC_DelSig_V.c **** *  Enables the ADC DelSig block operation.
 120:.\Generated_Source\PSoC5/ADC_DelSig_V.c **** *  
 121:.\Generated_Source\PSoC5/ADC_DelSig_V.c **** *
 122:.\Generated_Source\PSoC5/ADC_DelSig_V.c **** * Parameters:  
 123:.\Generated_Source\PSoC5/ADC_DelSig_V.c **** *  void
 124:.\Generated_Source\PSoC5/ADC_DelSig_V.c **** *
 125:.\Generated_Source\PSoC5/ADC_DelSig_V.c **** * Return: 
 126:.\Generated_Source\PSoC5/ADC_DelSig_V.c **** *  void 
 127:.\Generated_Source\PSoC5/ADC_DelSig_V.c **** *
 128:.\Generated_Source\PSoC5/ADC_DelSig_V.c **** *******************************************************************************/
 129:.\Generated_Source\PSoC5/ADC_DelSig_V.c **** void ADC_DelSig_V_Enable(void) 
 130:.\Generated_Source\PSoC5/ADC_DelSig_V.c **** {
 133              		.loc 1 130 0
 134              		.cfi_startproc
 135              		@ args = 0, pretend = 0, frame = 0
 136              		@ frame_needed = 1, uses_anonymous_args = 0
 137 0000 80B5     		push	{r7, lr}
 138              	.LCFI2:
 139              		.cfi_def_cfa_offset 8
 140 0002 00AF     		add	r7, sp, #0
 141              		.cfi_offset 14, -4
 142              		.cfi_offset 7, -8
 143              	.LCFI3:
 144              		.cfi_def_cfa_register 7
 131:.\Generated_Source\PSoC5/ADC_DelSig_V.c ****     /* Restore the power registers if silicon used is PSoC5A */
 132:.\Generated_Source\PSoC5/ADC_DelSig_V.c ****     #if (CY_PSOC5A)
 133:.\Generated_Source\PSoC5/ADC_DelSig_V.c ****         if(ADC_DelSig_V_restoreReg && 
 145              		.loc 1 133 0
 146 0004 40F20003 		movw	r3, #:lower16:ADC_DelSig_V_restoreReg
 147 0008 C0F20003 		movt	r3, #:upper16:ADC_DelSig_V_restoreReg
 148 000c 1B78     		ldrb	r3, [r3, #0]	@ zero_extendqisi2
ARM GAS  C:\Users\hoangp\AppData\Local\Temp\cc4n80oh.s 			page 6


 149 000e 002B     		cmp	r3, #0
 150 0010 0FD0     		beq	.L4
 134:.\Generated_Source\PSoC5/ADC_DelSig_V.c ****            (!(ADC_DelSig_V_powerModeBackup.bypassRestore)))
 151              		.loc 1 134 0
 152 0012 40F20003 		movw	r3, #:lower16:ADC_DelSig_V_powerModeBackup
 153 0016 C0F20003 		movt	r3, #:upper16:ADC_DelSig_V_powerModeBackup
 154 001a 1B7A     		ldrb	r3, [r3, #8]	@ zero_extendqisi2
 155              		.loc 1 133 0
 156 001c 002B     		cmp	r3, #0
 157 001e 08D1     		bne	.L4
 135:.\Generated_Source\PSoC5/ADC_DelSig_V.c ****         {
 136:.\Generated_Source\PSoC5/ADC_DelSig_V.c ****             ADC_DelSig_V_RestorePowerRegisters();
 158              		.loc 1 136 0
 159 0020 FFF7FEFF 		bl	ADC_DelSig_V_RestorePowerRegisters
 137:.\Generated_Source\PSoC5/ADC_DelSig_V.c ****             ADC_DelSig_V_restoreReg = 0u;
 160              		.loc 1 137 0
 161 0024 40F20003 		movw	r3, #:lower16:ADC_DelSig_V_restoreReg
 162 0028 C0F20003 		movt	r3, #:upper16:ADC_DelSig_V_restoreReg
 163 002c 4FF00002 		mov	r2, #0
 164 0030 1A70     		strb	r2, [r3, #0]
 165              	.L4:
 138:.\Generated_Source\PSoC5/ADC_DelSig_V.c ****         }
 139:.\Generated_Source\PSoC5/ADC_DelSig_V.c ****         ADC_DelSig_V_powerModeBackup.bypassRestore = ADC_DelSig_V_BYPASS_DISABLED;
 166              		.loc 1 139 0
 167 0032 40F20003 		movw	r3, #:lower16:ADC_DelSig_V_powerModeBackup
 168 0036 C0F20003 		movt	r3, #:upper16:ADC_DelSig_V_powerModeBackup
 169 003a 4FF00002 		mov	r2, #0
 170 003e 1A72     		strb	r2, [r3, #8]
 140:.\Generated_Source\PSoC5/ADC_DelSig_V.c ****     #endif /* CY_PSOC5A */
 141:.\Generated_Source\PSoC5/ADC_DelSig_V.c **** 
 142:.\Generated_Source\PSoC5/ADC_DelSig_V.c ****     /* Enable active mode power for ADC */
 143:.\Generated_Source\PSoC5/ADC_DelSig_V.c ****     ADC_DelSig_V_PWRMGR_DEC_REG |= ADC_DelSig_V_ACT_PWR_DEC_EN;
 171              		.loc 1 143 0
 172 0040 44F2AA33 		movw	r3, #:lower16:1073759146
 173 0044 C4F20003 		movt	r3, #:upper16:1073759146
 174 0048 44F2AA32 		movw	r2, #:lower16:1073759146
 175 004c C4F20002 		movt	r2, #:upper16:1073759146
 176 0050 1278     		ldrb	r2, [r2, #0]
 177 0052 D2B2     		uxtb	r2, r2
 178 0054 42F00102 		orr	r2, r2, #1
 179 0058 D2B2     		uxtb	r2, r2
 180 005a 1A70     		strb	r2, [r3, #0]
 144:.\Generated_Source\PSoC5/ADC_DelSig_V.c ****     ADC_DelSig_V_PWRMGR_DSM_REG |= ADC_DelSig_V_ACT_PWR_DSM_EN;
 181              		.loc 1 144 0
 182 005c 44F2C533 		movw	r3, #:lower16:1073759173
 183 0060 C4F20003 		movt	r3, #:upper16:1073759173
 184 0064 44F2C532 		movw	r2, #:lower16:1073759173
 185 0068 C4F20002 		movt	r2, #:upper16:1073759173
 186 006c 1278     		ldrb	r2, [r2, #0]
 187 006e D2B2     		uxtb	r2, r2
 188 0070 42F00102 		orr	r2, r2, #1
 189 0074 D2B2     		uxtb	r2, r2
 190 0076 1A70     		strb	r2, [r3, #0]
 145:.\Generated_Source\PSoC5/ADC_DelSig_V.c ****     
 146:.\Generated_Source\PSoC5/ADC_DelSig_V.c ****      /* Enable alternative active mode power for ADC */
 147:.\Generated_Source\PSoC5/ADC_DelSig_V.c ****     ADC_DelSig_V_STBY_PWRMGR_DEC_REG |= ADC_DelSig_V_STBY_PWR_DEC_EN;
 191              		.loc 1 147 0
ARM GAS  C:\Users\hoangp\AppData\Local\Temp\cc4n80oh.s 			page 7


 192 0078 44F2BA33 		movw	r3, #:lower16:1073759162
 193 007c C4F20003 		movt	r3, #:upper16:1073759162
 194 0080 44F2BA32 		movw	r2, #:lower16:1073759162
 195 0084 C4F20002 		movt	r2, #:upper16:1073759162
 196 0088 1278     		ldrb	r2, [r2, #0]
 197 008a D2B2     		uxtb	r2, r2
 198 008c 42F00102 		orr	r2, r2, #1
 199 0090 D2B2     		uxtb	r2, r2
 200 0092 1A70     		strb	r2, [r3, #0]
 148:.\Generated_Source\PSoC5/ADC_DelSig_V.c ****     #if (CY_PSOC3 || CY_PSOC5LP)
 149:.\Generated_Source\PSoC5/ADC_DelSig_V.c ****     ADC_DelSig_V_STBY_PWRMGR_DSM_REG |= ADC_DelSig_V_STBY_PWR_DSM_EN;
 150:.\Generated_Source\PSoC5/ADC_DelSig_V.c ****     #endif /* CY_PSOC3 || CY_PSOC5LP */
 151:.\Generated_Source\PSoC5/ADC_DelSig_V.c **** 
 152:.\Generated_Source\PSoC5/ADC_DelSig_V.c ****     /* Config selected is 1, then before enablign the REFBUF0, REFBUF1 and 
 153:.\Generated_Source\PSoC5/ADC_DelSig_V.c **** 	   VCMBUF's enable and press circuit and then after a delay of 3
 154:.\Generated_Source\PSoC5/ADC_DelSig_V.c **** 	   microseconds, disable the press circuit. */
 155:.\Generated_Source\PSoC5/ADC_DelSig_V.c ****     if (ADC_DelSig_V_Config == 1u)
 201              		.loc 1 155 0
 202 0094 40F20003 		movw	r3, #:lower16:ADC_DelSig_V_Config
 203 0098 C0F20003 		movt	r3, #:upper16:ADC_DelSig_V_Config
 204 009c 1B78     		ldrb	r3, [r3, #0]
 205 009e DBB2     		uxtb	r3, r3
 206 00a0 012B     		cmp	r3, #1
 207 00a2 47D1     		bne	.L5
 156:.\Generated_Source\PSoC5/ADC_DelSig_V.c **** 	{
 157:.\Generated_Source\PSoC5/ADC_DelSig_V.c **** 	    /* Disable PRES, Enable power to VCMBUF0, REFBUF0 and REFBUF1, enable 
 158:.\Generated_Source\PSoC5/ADC_DelSig_V.c **** 	       PRES */
 159:.\Generated_Source\PSoC5/ADC_DelSig_V.c **** 	    #if (CY_PSOC3 || CY_PSOC5LP)
 160:.\Generated_Source\PSoC5/ADC_DelSig_V.c **** 	        ADC_DelSig_V_RESET_CR4_REG |= ADC_DelSig_V_IGNORE_PRESA1;
 161:.\Generated_Source\PSoC5/ADC_DelSig_V.c **** 	        ADC_DelSig_V_RESET_CR5_REG |= ADC_DelSig_V_IGNORE_PRESA2;
 162:.\Generated_Source\PSoC5/ADC_DelSig_V.c **** 	    #elif (CY_PSOC5A)
 163:.\Generated_Source\PSoC5/ADC_DelSig_V.c **** 	        ADC_DelSig_V_RESET_CR1_REG |= ADC_DelSig_V_DIS_PRES1;
 208              		.loc 1 163 0
 209 00a4 44F2F563 		movw	r3, #:lower16:1073759989
 210 00a8 C4F20003 		movt	r3, #:upper16:1073759989
 211 00ac 44F2F562 		movw	r2, #:lower16:1073759989
 212 00b0 C4F20002 		movt	r2, #:upper16:1073759989
 213 00b4 1278     		ldrb	r2, [r2, #0]
 214 00b6 D2B2     		uxtb	r2, r2
 215 00b8 42F01002 		orr	r2, r2, #16
 216 00bc D2B2     		uxtb	r2, r2
 217 00be 1A70     		strb	r2, [r3, #0]
 164:.\Generated_Source\PSoC5/ADC_DelSig_V.c **** 	        ADC_DelSig_V_RESET_CR3_REG |= ADC_DelSig_V_DIS_PRES2;
 218              		.loc 1 164 0
 219 00c0 44F2F763 		movw	r3, #:lower16:1073759991
 220 00c4 C4F20003 		movt	r3, #:upper16:1073759991
 221 00c8 44F2F762 		movw	r2, #:lower16:1073759991
 222 00cc C4F20002 		movt	r2, #:upper16:1073759991
 223 00d0 1278     		ldrb	r2, [r2, #0]
 224 00d2 D2B2     		uxtb	r2, r2
 225 00d4 42F00802 		orr	r2, r2, #8
 226 00d8 D2B2     		uxtb	r2, r2
 227 00da 1A70     		strb	r2, [r3, #0]
 165:.\Generated_Source\PSoC5/ADC_DelSig_V.c **** 	    #endif /* CY_PSOC5A */
 166:.\Generated_Source\PSoC5/ADC_DelSig_V.c **** 	    
 167:.\Generated_Source\PSoC5/ADC_DelSig_V.c **** 	    ADC_DelSig_V_DSM_CR17_REG |= (ADC_DelSig_V_DSM_EN_BUF_VREF | ADC_DelSig_V_DSM_EN_BUF_VCM);
 228              		.loc 1 167 0
ARM GAS  C:\Users\hoangp\AppData\Local\Temp\cc4n80oh.s 			page 8


 229 00dc 45F69103 		movw	r3, #:lower16:1073764497
 230 00e0 C4F20003 		movt	r3, #:upper16:1073764497
 231 00e4 45F69102 		movw	r2, #:lower16:1073764497
 232 00e8 C4F20002 		movt	r2, #:upper16:1073764497
 233 00ec 1278     		ldrb	r2, [r2, #0]
 234 00ee D2B2     		uxtb	r2, r2
 235 00f0 42F00302 		orr	r2, r2, #3
 236 00f4 D2B2     		uxtb	r2, r2
 237 00f6 1A70     		strb	r2, [r3, #0]
 168:.\Generated_Source\PSoC5/ADC_DelSig_V.c **** 	    #if ((ADC_DelSig_V_CFG1_REFERENCE == ADC_DelSig_V_EXT_REF_ON_P03) || \
 169:.\Generated_Source\PSoC5/ADC_DelSig_V.c **** 	         (ADC_DelSig_V_CFG1_REFERENCE == ADC_DelSig_V_EXT_REF_ON_P32))
 170:.\Generated_Source\PSoC5/ADC_DelSig_V.c **** 	        ADC_DelSig_V_DSM_CR17_REG &= ~ADC_DelSig_V_DSM_EN_BUF_VREF;
 171:.\Generated_Source\PSoC5/ADC_DelSig_V.c **** 	    #endif /* Check for exteranl reference option */
 172:.\Generated_Source\PSoC5/ADC_DelSig_V.c **** 	    #if ((ADC_DelSig_V_CFG1_RANGE == ADC_DelSig_V_IR_VSSA_TO_2VREF) && \
 173:.\Generated_Source\PSoC5/ADC_DelSig_V.c **** 	          (CY_PSOC3 || CY_PSOC5LP) && \
 174:.\Generated_Source\PSoC5/ADC_DelSig_V.c **** 	          ((ADC_DelSig_V_CFG1_REFERENCE != ADC_DelSig_V_EXT_REF_ON_P03) && \
 175:.\Generated_Source\PSoC5/ADC_DelSig_V.c **** 	         (ADC_DelSig_V_CFG1_REFERENCE != ADC_DelSig_V_EXT_REF_ON_P32)))
 176:.\Generated_Source\PSoC5/ADC_DelSig_V.c **** 	        ADC_DelSig_V_DSM_REF0_REG |= ADC_DelSig_V_DSM_EN_BUF_VREF_INN;
 177:.\Generated_Source\PSoC5/ADC_DelSig_V.c **** 	    #endif /* ADC_DelSig_V_IR_VSSA_TO_2VREF */
 178:.\Generated_Source\PSoC5/ADC_DelSig_V.c **** 	    
 179:.\Generated_Source\PSoC5/ADC_DelSig_V.c **** 	        /* Wait for 3 microseconds */
 180:.\Generated_Source\PSoC5/ADC_DelSig_V.c **** 	    CyDelayUs(3);
 238              		.loc 1 180 0
 239 00f8 4FF00300 		mov	r0, #3
 240 00fc FFF7FEFF 		bl	CyDelayUs
 181:.\Generated_Source\PSoC5/ADC_DelSig_V.c ****         /* Enable the press circuit */
 182:.\Generated_Source\PSoC5/ADC_DelSig_V.c **** 	    #if (CY_PSOC3 || CY_PSOC5LP)
 183:.\Generated_Source\PSoC5/ADC_DelSig_V.c **** 	        ADC_DelSig_V_RESET_CR4_REG &= ~ADC_DelSig_V_IGNORE_PRESA1;
 184:.\Generated_Source\PSoC5/ADC_DelSig_V.c **** 	        ADC_DelSig_V_RESET_CR5_REG &= ~ADC_DelSig_V_IGNORE_PRESA2;
 185:.\Generated_Source\PSoC5/ADC_DelSig_V.c **** 	    #elif (CY_PSOC5A)
 186:.\Generated_Source\PSoC5/ADC_DelSig_V.c **** 	        ADC_DelSig_V_RESET_CR1_REG &= ~ADC_DelSig_V_DIS_PRES1;
 241              		.loc 1 186 0
 242 0100 44F2F563 		movw	r3, #:lower16:1073759989
 243 0104 C4F20003 		movt	r3, #:upper16:1073759989
 244 0108 44F2F562 		movw	r2, #:lower16:1073759989
 245 010c C4F20002 		movt	r2, #:upper16:1073759989
 246 0110 1278     		ldrb	r2, [r2, #0]
 247 0112 D2B2     		uxtb	r2, r2
 248 0114 02F0EF02 		and	r2, r2, #239
 249 0118 1A70     		strb	r2, [r3, #0]
 187:.\Generated_Source\PSoC5/ADC_DelSig_V.c **** 	        ADC_DelSig_V_RESET_CR3_REG &= ~ADC_DelSig_V_DIS_PRES2;
 250              		.loc 1 187 0
 251 011a 44F2F763 		movw	r3, #:lower16:1073759991
 252 011e C4F20003 		movt	r3, #:upper16:1073759991
 253 0122 44F2F762 		movw	r2, #:lower16:1073759991
 254 0126 C4F20002 		movt	r2, #:upper16:1073759991
 255 012a 1278     		ldrb	r2, [r2, #0]
 256 012c D2B2     		uxtb	r2, r2
 257 012e 02F0F702 		and	r2, r2, #247
 258 0132 1A70     		strb	r2, [r3, #0]
 259              	.L5:
 188:.\Generated_Source\PSoC5/ADC_DelSig_V.c **** 	    #endif /* CY_PSOC5A */
 189:.\Generated_Source\PSoC5/ADC_DelSig_V.c **** 	}
 190:.\Generated_Source\PSoC5/ADC_DelSig_V.c ****     
 191:.\Generated_Source\PSoC5/ADC_DelSig_V.c ****     /* Enable negative pumps for DSM  */
 192:.\Generated_Source\PSoC5/ADC_DelSig_V.c ****     ADC_DelSig_V_PUMP_CR1_REG  |= ( ADC_DelSig_V_PUMP_CR1_CLKSEL | ADC_DelSig_V_PUMP_CR1_FORCE );
 260              		.loc 1 192 0
ARM GAS  C:\Users\hoangp\AppData\Local\Temp\cc4n80oh.s 			page 9


 261 0134 45F67703 		movw	r3, #:lower16:1073764471
 262 0138 C4F20003 		movt	r3, #:upper16:1073764471
 263 013c 45F67702 		movw	r2, #:lower16:1073764471
 264 0140 C4F20002 		movt	r2, #:upper16:1073764471
 265 0144 1278     		ldrb	r2, [r2, #0]
 266 0146 D2B2     		uxtb	r2, r2
 267 0148 42F00602 		orr	r2, r2, #6
 268 014c D2B2     		uxtb	r2, r2
 269 014e 1A70     		strb	r2, [r3, #0]
 193:.\Generated_Source\PSoC5/ADC_DelSig_V.c ****  
 194:.\Generated_Source\PSoC5/ADC_DelSig_V.c ****     /* This is only valid if there is an internal clock */
 195:.\Generated_Source\PSoC5/ADC_DelSig_V.c ****     #if(ADC_DelSig_V_DEFAULT_INTERNAL_CLK)
 196:.\Generated_Source\PSoC5/ADC_DelSig_V.c ****         ADC_DelSig_V_PWRMGR_CLK_REG |= ADC_DelSig_V_ACT_PWR_CLK_EN;        
 270              		.loc 1 196 0
 271 0150 44F2A133 		movw	r3, #:lower16:1073759137
 272 0154 C4F20003 		movt	r3, #:upper16:1073759137
 273 0158 44F2A132 		movw	r2, #:lower16:1073759137
 274 015c C4F20002 		movt	r2, #:upper16:1073759137
 275 0160 1278     		ldrb	r2, [r2, #0]
 276 0162 D2B2     		uxtb	r2, r2
 277 0164 42F00102 		orr	r2, r2, #1
 278 0168 D2B2     		uxtb	r2, r2
 279 016a 1A70     		strb	r2, [r3, #0]
 197:.\Generated_Source\PSoC5/ADC_DelSig_V.c ****         ADC_DelSig_V_STBY_PWRMGR_CLK_REG |= ADC_DelSig_V_STBY_PWR_CLK_EN;
 280              		.loc 1 197 0
 281 016c 44F2B133 		movw	r3, #:lower16:1073759153
 282 0170 C4F20003 		movt	r3, #:upper16:1073759153
 283 0174 44F2B132 		movw	r2, #:lower16:1073759153
 284 0178 C4F20002 		movt	r2, #:upper16:1073759153
 285 017c 1278     		ldrb	r2, [r2, #0]
 286 017e D2B2     		uxtb	r2, r2
 287 0180 42F00102 		orr	r2, r2, #1
 288 0184 D2B2     		uxtb	r2, r2
 289 0186 1A70     		strb	r2, [r3, #0]
 198:.\Generated_Source\PSoC5/ADC_DelSig_V.c ****     #endif /* ADC_DelSig_V_DEFAULT_INTERNAL_CLK */
 199:.\Generated_Source\PSoC5/ADC_DelSig_V.c ****     
 200:.\Generated_Source\PSoC5/ADC_DelSig_V.c ****     /* Enable the active and alternate active power for charge pump clock */
 201:.\Generated_Source\PSoC5/ADC_DelSig_V.c ****     ADC_DelSig_V_PWRMGR_CHARGE_PUMP_CLK_REG |= ADC_DelSig_V_ACT_PWR_CHARGE_PUMP_CLK_EN;
 290              		.loc 1 201 0
 291 0188 44F2A233 		movw	r3, #:lower16:1073759138
 292 018c C4F20003 		movt	r3, #:upper16:1073759138
 293 0190 44F2A232 		movw	r2, #:lower16:1073759138
 294 0194 C4F20002 		movt	r2, #:upper16:1073759138
 295 0198 1278     		ldrb	r2, [r2, #0]
 296 019a D2B2     		uxtb	r2, r2
 297 019c 42F00202 		orr	r2, r2, #2
 298 01a0 D2B2     		uxtb	r2, r2
 299 01a2 1A70     		strb	r2, [r3, #0]
 202:.\Generated_Source\PSoC5/ADC_DelSig_V.c ****     ADC_DelSig_V_STBY_PWRMGR_CHARGE_PUMP_CLK_REG |= ADC_DelSig_V_STBY_PWR_CHARGE_PUMP_CLK_EN;
 300              		.loc 1 202 0
 301 01a4 44F2B233 		movw	r3, #:lower16:1073759154
 302 01a8 C4F20003 		movt	r3, #:upper16:1073759154
 303 01ac 44F2B232 		movw	r2, #:lower16:1073759154
 304 01b0 C4F20002 		movt	r2, #:upper16:1073759154
 305 01b4 1278     		ldrb	r2, [r2, #0]
 306 01b6 D2B2     		uxtb	r2, r2
 307 01b8 42F00202 		orr	r2, r2, #2
ARM GAS  C:\Users\hoangp\AppData\Local\Temp\cc4n80oh.s 			page 10


 308 01bc D2B2     		uxtb	r2, r2
 309 01be 1A70     		strb	r2, [r3, #0]
 203:.\Generated_Source\PSoC5/ADC_DelSig_V.c ****         
 204:.\Generated_Source\PSoC5/ADC_DelSig_V.c **** }
 310              		.loc 1 204 0
 311 01c0 80BD     		pop	{r7, pc}
 312              		.cfi_endproc
 313              	.LFE1:
 314              		.size	ADC_DelSig_V_Enable, .-ADC_DelSig_V_Enable
 315 01c2 00BF     		.section	.text.ADC_DelSig_V_RestorePowerRegisters,"ax",%progbits
 316              		.align	2
 317              		.global	ADC_DelSig_V_RestorePowerRegisters
 318              		.thumb
 319              		.thumb_func
 320              		.type	ADC_DelSig_V_RestorePowerRegisters, %function
 321              	ADC_DelSig_V_RestorePowerRegisters:
 322              	.LFB2:
 205:.\Generated_Source\PSoC5/ADC_DelSig_V.c **** 
 206:.\Generated_Source\PSoC5/ADC_DelSig_V.c **** 
 207:.\Generated_Source\PSoC5/ADC_DelSig_V.c **** #if (CY_PSOC5A) /* valid only for PSoC5A silicon */
 208:.\Generated_Source\PSoC5/ADC_DelSig_V.c ****     /******************************************************************************* 
 209:.\Generated_Source\PSoC5/ADC_DelSig_V.c ****     * Function Name: ADC_DelSig_V_RestorePowerRegisters
 210:.\Generated_Source\PSoC5/ADC_DelSig_V.c ****     ********************************************************************************
 211:.\Generated_Source\PSoC5/ADC_DelSig_V.c ****     *
 212:.\Generated_Source\PSoC5/ADC_DelSig_V.c ****     * Summary: 
 213:.\Generated_Source\PSoC5/ADC_DelSig_V.c ****     *  Restores the power registers on calling Start() API. This API is only 
 214:.\Generated_Source\PSoC5/ADC_DelSig_V.c ****     *   for internal use and valid only for PSoC5A.
 215:.\Generated_Source\PSoC5/ADC_DelSig_V.c ****     *  
 216:.\Generated_Source\PSoC5/ADC_DelSig_V.c ****     *
 217:.\Generated_Source\PSoC5/ADC_DelSig_V.c ****     * Parameters:  
 218:.\Generated_Source\PSoC5/ADC_DelSig_V.c ****     *  void
 219:.\Generated_Source\PSoC5/ADC_DelSig_V.c ****     *
 220:.\Generated_Source\PSoC5/ADC_DelSig_V.c ****     * Return: 
 221:.\Generated_Source\PSoC5/ADC_DelSig_V.c ****     *  void 
 222:.\Generated_Source\PSoC5/ADC_DelSig_V.c ****     *
 223:.\Generated_Source\PSoC5/ADC_DelSig_V.c ****     ***************************************************************************/
 224:.\Generated_Source\PSoC5/ADC_DelSig_V.c ****     void ADC_DelSig_V_RestorePowerRegisters(void) 
 225:.\Generated_Source\PSoC5/ADC_DelSig_V.c ****     {
 323              		.loc 1 225 0
 324              		.cfi_startproc
 325              		@ args = 0, pretend = 0, frame = 0
 326              		@ frame_needed = 1, uses_anonymous_args = 0
 327              		@ link register save eliminated.
 328 0000 80B4     		push	{r7}
 329              	.LCFI4:
 330              		.cfi_def_cfa_offset 4
 331 0002 00AF     		add	r7, sp, #0
 332              		.cfi_offset 7, -4
 333              	.LCFI5:
 334              		.cfi_def_cfa_register 7
 226:.\Generated_Source\PSoC5/ADC_DelSig_V.c ****         ADC_DelSig_V_DSM_CR14_REG = ADC_DelSig_V_powerModeBackup.DSM_CR_14;
 335              		.loc 1 226 0
 336 0004 45F68E03 		movw	r3, #:lower16:1073764494
 337 0008 C4F20003 		movt	r3, #:upper16:1073764494
 338 000c 40F20002 		movw	r2, #:lower16:ADC_DelSig_V_powerModeBackup
 339 0010 C0F20002 		movt	r2, #:upper16:ADC_DelSig_V_powerModeBackup
 340 0014 1278     		ldrb	r2, [r2, #0]	@ zero_extendqisi2
ARM GAS  C:\Users\hoangp\AppData\Local\Temp\cc4n80oh.s 			page 11


 341 0016 1A70     		strb	r2, [r3, #0]
 227:.\Generated_Source\PSoC5/ADC_DelSig_V.c ****         ADC_DelSig_V_DSM_CR15_REG = ADC_DelSig_V_powerModeBackup.DSM_CR_15;
 342              		.loc 1 227 0
 343 0018 45F68F03 		movw	r3, #:lower16:1073764495
 344 001c C4F20003 		movt	r3, #:upper16:1073764495
 345 0020 40F20002 		movw	r2, #:lower16:ADC_DelSig_V_powerModeBackup
 346 0024 C0F20002 		movt	r2, #:upper16:ADC_DelSig_V_powerModeBackup
 347 0028 5278     		ldrb	r2, [r2, #1]	@ zero_extendqisi2
 348 002a 1A70     		strb	r2, [r3, #0]
 228:.\Generated_Source\PSoC5/ADC_DelSig_V.c ****         ADC_DelSig_V_DSM_CR16_REG = ADC_DelSig_V_powerModeBackup.DSM_CR_16;
 349              		.loc 1 228 0
 350 002c 45F69003 		movw	r3, #:lower16:1073764496
 351 0030 C4F20003 		movt	r3, #:upper16:1073764496
 352 0034 40F20002 		movw	r2, #:lower16:ADC_DelSig_V_powerModeBackup
 353 0038 C0F20002 		movt	r2, #:upper16:ADC_DelSig_V_powerModeBackup
 354 003c 9278     		ldrb	r2, [r2, #2]	@ zero_extendqisi2
 355 003e 1A70     		strb	r2, [r3, #0]
 229:.\Generated_Source\PSoC5/ADC_DelSig_V.c ****         ADC_DelSig_V_DSM_CR17_REG = ADC_DelSig_V_powerModeBackup.DSM_CR_17;
 356              		.loc 1 229 0
 357 0040 45F69103 		movw	r3, #:lower16:1073764497
 358 0044 C4F20003 		movt	r3, #:upper16:1073764497
 359 0048 40F20002 		movw	r2, #:lower16:ADC_DelSig_V_powerModeBackup
 360 004c C0F20002 		movt	r2, #:upper16:ADC_DelSig_V_powerModeBackup
 361 0050 D278     		ldrb	r2, [r2, #3]	@ zero_extendqisi2
 362 0052 1A70     		strb	r2, [r3, #0]
 230:.\Generated_Source\PSoC5/ADC_DelSig_V.c ****         ADC_DelSig_V_DSM_REF0_REG = ADC_DelSig_V_powerModeBackup.DSM_REF0;
 363              		.loc 1 230 0
 364 0054 45F69203 		movw	r3, #:lower16:1073764498
 365 0058 C4F20003 		movt	r3, #:upper16:1073764498
 366 005c 40F20002 		movw	r2, #:lower16:ADC_DelSig_V_powerModeBackup
 367 0060 C0F20002 		movt	r2, #:upper16:ADC_DelSig_V_powerModeBackup
 368 0064 1279     		ldrb	r2, [r2, #4]	@ zero_extendqisi2
 369 0066 1A70     		strb	r2, [r3, #0]
 231:.\Generated_Source\PSoC5/ADC_DelSig_V.c ****         ADC_DelSig_V_DSM_BUF0_REG = ADC_DelSig_V_powerModeBackup.DSM_BUF0;
 370              		.loc 1 231 0
 371 0068 45F69A03 		movw	r3, #:lower16:1073764506
 372 006c C4F20003 		movt	r3, #:upper16:1073764506
 373 0070 40F20002 		movw	r2, #:lower16:ADC_DelSig_V_powerModeBackup
 374 0074 C0F20002 		movt	r2, #:upper16:ADC_DelSig_V_powerModeBackup
 375 0078 5279     		ldrb	r2, [r2, #5]	@ zero_extendqisi2
 376 007a 1A70     		strb	r2, [r3, #0]
 232:.\Generated_Source\PSoC5/ADC_DelSig_V.c ****         ADC_DelSig_V_DSM_BUF1_REG = ADC_DelSig_V_powerModeBackup.DSM_BUF1;
 377              		.loc 1 232 0
 378 007c 45F69B03 		movw	r3, #:lower16:1073764507
 379 0080 C4F20003 		movt	r3, #:upper16:1073764507
 380 0084 40F20002 		movw	r2, #:lower16:ADC_DelSig_V_powerModeBackup
 381 0088 C0F20002 		movt	r2, #:upper16:ADC_DelSig_V_powerModeBackup
 382 008c 9279     		ldrb	r2, [r2, #6]	@ zero_extendqisi2
 383 008e 1A70     		strb	r2, [r3, #0]
 233:.\Generated_Source\PSoC5/ADC_DelSig_V.c ****         ADC_DelSig_V_DSM_CLK_REG = ADC_DelSig_V_powerModeBackup.DSM_CLK;
 384              		.loc 1 233 0
 385 0090 45F60733 		movw	r3, #:lower16:1073765127
 386 0094 C4F20003 		movt	r3, #:upper16:1073765127
 387 0098 40F20002 		movw	r2, #:lower16:ADC_DelSig_V_powerModeBackup
 388 009c C0F20002 		movt	r2, #:upper16:ADC_DelSig_V_powerModeBackup
 389 00a0 D279     		ldrb	r2, [r2, #7]	@ zero_extendqisi2
 390 00a2 1A70     		strb	r2, [r3, #0]
ARM GAS  C:\Users\hoangp\AppData\Local\Temp\cc4n80oh.s 			page 12


 234:.\Generated_Source\PSoC5/ADC_DelSig_V.c ****     }
 391              		.loc 1 234 0
 392 00a4 BD46     		mov	sp, r7
 393 00a6 80BC     		pop	{r7}
 394 00a8 7047     		bx	lr
 395              		.cfi_endproc
 396              	.LFE2:
 397              		.size	ADC_DelSig_V_RestorePowerRegisters, .-ADC_DelSig_V_RestorePowerRegisters
 398 00aa 00BF     		.section	.text.ADC_DelSig_V_SavePowerRegisters,"ax",%progbits
 399              		.align	2
 400              		.global	ADC_DelSig_V_SavePowerRegisters
 401              		.thumb
 402              		.thumb_func
 403              		.type	ADC_DelSig_V_SavePowerRegisters, %function
 404              	ADC_DelSig_V_SavePowerRegisters:
 405              	.LFB3:
 235:.\Generated_Source\PSoC5/ADC_DelSig_V.c **** 
 236:.\Generated_Source\PSoC5/ADC_DelSig_V.c **** 
 237:.\Generated_Source\PSoC5/ADC_DelSig_V.c ****     /************************************************************************** 
 238:.\Generated_Source\PSoC5/ADC_DelSig_V.c ****     * Function Name: ADC_DelSig_V_SavePowerRegisters
 239:.\Generated_Source\PSoC5/ADC_DelSig_V.c ****     ***************************************************************************
 240:.\Generated_Source\PSoC5/ADC_DelSig_V.c ****     *
 241:.\Generated_Source\PSoC5/ADC_DelSig_V.c ****     * Summary: 
 242:.\Generated_Source\PSoC5/ADC_DelSig_V.c ****     *  Save the power registers before stopping the block operation. This is 
 243:.\Generated_Source\PSoC5/ADC_DelSig_V.c ****     *  called by Stop() API. This API is only for internal use and valid only 
 244:.\Generated_Source\PSoC5/ADC_DelSig_V.c ****     *  for PSoC5A.
 245:.\Generated_Source\PSoC5/ADC_DelSig_V.c ****     *  
 246:.\Generated_Source\PSoC5/ADC_DelSig_V.c ****     *
 247:.\Generated_Source\PSoC5/ADC_DelSig_V.c ****     * Parameters:  
 248:.\Generated_Source\PSoC5/ADC_DelSig_V.c ****     *  void
 249:.\Generated_Source\PSoC5/ADC_DelSig_V.c ****     *
 250:.\Generated_Source\PSoC5/ADC_DelSig_V.c ****     * Return: 
 251:.\Generated_Source\PSoC5/ADC_DelSig_V.c ****     *  void 
 252:.\Generated_Source\PSoC5/ADC_DelSig_V.c ****     *
 253:.\Generated_Source\PSoC5/ADC_DelSig_V.c ****     **************************************************************************/
 254:.\Generated_Source\PSoC5/ADC_DelSig_V.c ****     void ADC_DelSig_V_SavePowerRegisters(void) 
 255:.\Generated_Source\PSoC5/ADC_DelSig_V.c ****     {
 406              		.loc 1 255 0
 407              		.cfi_startproc
 408              		@ args = 0, pretend = 0, frame = 0
 409              		@ frame_needed = 1, uses_anonymous_args = 0
 410              		@ link register save eliminated.
 411 0000 80B4     		push	{r7}
 412              	.LCFI6:
 413              		.cfi_def_cfa_offset 4
 414 0002 00AF     		add	r7, sp, #0
 415              		.cfi_offset 7, -4
 416              	.LCFI7:
 417              		.cfi_def_cfa_register 7
 256:.\Generated_Source\PSoC5/ADC_DelSig_V.c ****         ADC_DelSig_V_powerModeBackup.DSM_CR_14 = ADC_DelSig_V_DSM_CR14_REG;
 418              		.loc 1 256 0
 419 0004 45F68E03 		movw	r3, #:lower16:1073764494
 420 0008 C4F20003 		movt	r3, #:upper16:1073764494
 421 000c 1B78     		ldrb	r3, [r3, #0]
 422 000e DAB2     		uxtb	r2, r3
 423 0010 40F20003 		movw	r3, #:lower16:ADC_DelSig_V_powerModeBackup
 424 0014 C0F20003 		movt	r3, #:upper16:ADC_DelSig_V_powerModeBackup
ARM GAS  C:\Users\hoangp\AppData\Local\Temp\cc4n80oh.s 			page 13


 425 0018 1A70     		strb	r2, [r3, #0]
 257:.\Generated_Source\PSoC5/ADC_DelSig_V.c ****         ADC_DelSig_V_powerModeBackup.DSM_CR_15 = ADC_DelSig_V_DSM_CR15_REG;
 426              		.loc 1 257 0
 427 001a 45F68F03 		movw	r3, #:lower16:1073764495
 428 001e C4F20003 		movt	r3, #:upper16:1073764495
 429 0022 1B78     		ldrb	r3, [r3, #0]
 430 0024 DAB2     		uxtb	r2, r3
 431 0026 40F20003 		movw	r3, #:lower16:ADC_DelSig_V_powerModeBackup
 432 002a C0F20003 		movt	r3, #:upper16:ADC_DelSig_V_powerModeBackup
 433 002e 5A70     		strb	r2, [r3, #1]
 258:.\Generated_Source\PSoC5/ADC_DelSig_V.c ****         ADC_DelSig_V_powerModeBackup.DSM_CR_16 = ADC_DelSig_V_DSM_CR16_REG;
 434              		.loc 1 258 0
 435 0030 45F69003 		movw	r3, #:lower16:1073764496
 436 0034 C4F20003 		movt	r3, #:upper16:1073764496
 437 0038 1B78     		ldrb	r3, [r3, #0]
 438 003a DAB2     		uxtb	r2, r3
 439 003c 40F20003 		movw	r3, #:lower16:ADC_DelSig_V_powerModeBackup
 440 0040 C0F20003 		movt	r3, #:upper16:ADC_DelSig_V_powerModeBackup
 441 0044 9A70     		strb	r2, [r3, #2]
 259:.\Generated_Source\PSoC5/ADC_DelSig_V.c ****         ADC_DelSig_V_powerModeBackup.DSM_CR_17 = ADC_DelSig_V_DSM_CR17_REG;
 442              		.loc 1 259 0
 443 0046 45F69103 		movw	r3, #:lower16:1073764497
 444 004a C4F20003 		movt	r3, #:upper16:1073764497
 445 004e 1B78     		ldrb	r3, [r3, #0]
 446 0050 DAB2     		uxtb	r2, r3
 447 0052 40F20003 		movw	r3, #:lower16:ADC_DelSig_V_powerModeBackup
 448 0056 C0F20003 		movt	r3, #:upper16:ADC_DelSig_V_powerModeBackup
 449 005a DA70     		strb	r2, [r3, #3]
 260:.\Generated_Source\PSoC5/ADC_DelSig_V.c ****         ADC_DelSig_V_powerModeBackup.DSM_REF0 = ADC_DelSig_V_DSM_REF0_REG;
 450              		.loc 1 260 0
 451 005c 45F69203 		movw	r3, #:lower16:1073764498
 452 0060 C4F20003 		movt	r3, #:upper16:1073764498
 453 0064 1B78     		ldrb	r3, [r3, #0]
 454 0066 DAB2     		uxtb	r2, r3
 455 0068 40F20003 		movw	r3, #:lower16:ADC_DelSig_V_powerModeBackup
 456 006c C0F20003 		movt	r3, #:upper16:ADC_DelSig_V_powerModeBackup
 457 0070 1A71     		strb	r2, [r3, #4]
 261:.\Generated_Source\PSoC5/ADC_DelSig_V.c ****         ADC_DelSig_V_powerModeBackup.DSM_BUF0 = ADC_DelSig_V_DSM_BUF0_REG;
 458              		.loc 1 261 0
 459 0072 45F69A03 		movw	r3, #:lower16:1073764506
 460 0076 C4F20003 		movt	r3, #:upper16:1073764506
 461 007a 1B78     		ldrb	r3, [r3, #0]
 462 007c DAB2     		uxtb	r2, r3
 463 007e 40F20003 		movw	r3, #:lower16:ADC_DelSig_V_powerModeBackup
 464 0082 C0F20003 		movt	r3, #:upper16:ADC_DelSig_V_powerModeBackup
 465 0086 5A71     		strb	r2, [r3, #5]
 262:.\Generated_Source\PSoC5/ADC_DelSig_V.c ****         ADC_DelSig_V_powerModeBackup.DSM_BUF1 = ADC_DelSig_V_DSM_BUF1_REG;
 466              		.loc 1 262 0
 467 0088 45F69B03 		movw	r3, #:lower16:1073764507
 468 008c C4F20003 		movt	r3, #:upper16:1073764507
 469 0090 1B78     		ldrb	r3, [r3, #0]
 470 0092 DAB2     		uxtb	r2, r3
 471 0094 40F20003 		movw	r3, #:lower16:ADC_DelSig_V_powerModeBackup
 472 0098 C0F20003 		movt	r3, #:upper16:ADC_DelSig_V_powerModeBackup
 473 009c 9A71     		strb	r2, [r3, #6]
 263:.\Generated_Source\PSoC5/ADC_DelSig_V.c ****         ADC_DelSig_V_powerModeBackup.DSM_CLK = ADC_DelSig_V_DSM_CLK_REG;
 474              		.loc 1 263 0
ARM GAS  C:\Users\hoangp\AppData\Local\Temp\cc4n80oh.s 			page 14


 475 009e 45F60733 		movw	r3, #:lower16:1073765127
 476 00a2 C4F20003 		movt	r3, #:upper16:1073765127
 477 00a6 1B78     		ldrb	r3, [r3, #0]
 478 00a8 DAB2     		uxtb	r2, r3
 479 00aa 40F20003 		movw	r3, #:lower16:ADC_DelSig_V_powerModeBackup
 480 00ae C0F20003 		movt	r3, #:upper16:ADC_DelSig_V_powerModeBackup
 481 00b2 DA71     		strb	r2, [r3, #7]
 264:.\Generated_Source\PSoC5/ADC_DelSig_V.c ****     }
 482              		.loc 1 264 0
 483 00b4 BD46     		mov	sp, r7
 484 00b6 80BC     		pop	{r7}
 485 00b8 7047     		bx	lr
 486              		.cfi_endproc
 487              	.LFE3:
 488              		.size	ADC_DelSig_V_SavePowerRegisters, .-ADC_DelSig_V_SavePowerRegisters
 489 00ba 00BF     		.section	.text.ADC_DelSig_V_SetLowPower,"ax",%progbits
 490              		.align	2
 491              		.global	ADC_DelSig_V_SetLowPower
 492              		.thumb
 493              		.thumb_func
 494              		.type	ADC_DelSig_V_SetLowPower, %function
 495              	ADC_DelSig_V_SetLowPower:
 496              	.LFB4:
 265:.\Generated_Source\PSoC5/ADC_DelSig_V.c **** 
 266:.\Generated_Source\PSoC5/ADC_DelSig_V.c **** 
 267:.\Generated_Source\PSoC5/ADC_DelSig_V.c ****     /************************************************************************* 
 268:.\Generated_Source\PSoC5/ADC_DelSig_V.c ****     * Function Name: ADC_DelSig_V_SetLowPower
 269:.\Generated_Source\PSoC5/ADC_DelSig_V.c ****     ***************************************************************************
 270:.\Generated_Source\PSoC5/ADC_DelSig_V.c ****     *
 271:.\Generated_Source\PSoC5/ADC_DelSig_V.c ****     * Summary: 
 272:.\Generated_Source\PSoC5/ADC_DelSig_V.c ****     *  Set all the power registers of DSM block to low power mode. This API is
 273:.\Generated_Source\PSoC5/ADC_DelSig_V.c ****     *   called by Stop() API. This API is only for internal use and valid for 
 274:.\Generated_Source\PSoC5/ADC_DelSig_V.c ****     *   only PSoC5A.
 275:.\Generated_Source\PSoC5/ADC_DelSig_V.c ****     *  
 276:.\Generated_Source\PSoC5/ADC_DelSig_V.c ****     *
 277:.\Generated_Source\PSoC5/ADC_DelSig_V.c ****     * Parameters:  
 278:.\Generated_Source\PSoC5/ADC_DelSig_V.c ****     *  void
 279:.\Generated_Source\PSoC5/ADC_DelSig_V.c ****     *
 280:.\Generated_Source\PSoC5/ADC_DelSig_V.c ****     * Return: 
 281:.\Generated_Source\PSoC5/ADC_DelSig_V.c ****     *  void 
 282:.\Generated_Source\PSoC5/ADC_DelSig_V.c ****     *
 283:.\Generated_Source\PSoC5/ADC_DelSig_V.c ****     ***************************************************************************/
 284:.\Generated_Source\PSoC5/ADC_DelSig_V.c ****     void ADC_DelSig_V_SetLowPower(void) 
 285:.\Generated_Source\PSoC5/ADC_DelSig_V.c ****     {
 497              		.loc 1 285 0
 498              		.cfi_startproc
 499              		@ args = 0, pretend = 0, frame = 0
 500              		@ frame_needed = 1, uses_anonymous_args = 0
 501              		@ link register save eliminated.
 502 0000 80B4     		push	{r7}
 503              	.LCFI8:
 504              		.cfi_def_cfa_offset 4
 505 0002 00AF     		add	r7, sp, #0
 506              		.cfi_offset 7, -4
 507              	.LCFI9:
 508              		.cfi_def_cfa_register 7
 286:.\Generated_Source\PSoC5/ADC_DelSig_V.c ****         ADC_DelSig_V_DSM_CR14_REG &= ~ADC_DelSig_V_DSM_POWER1_MASK;
ARM GAS  C:\Users\hoangp\AppData\Local\Temp\cc4n80oh.s 			page 15


 509              		.loc 1 286 0
 510 0004 45F68E03 		movw	r3, #:lower16:1073764494
 511 0008 C4F20003 		movt	r3, #:upper16:1073764494
 512 000c 45F68E02 		movw	r2, #:lower16:1073764494
 513 0010 C4F20002 		movt	r2, #:upper16:1073764494
 514 0014 1278     		ldrb	r2, [r2, #0]
 515 0016 D2B2     		uxtb	r2, r2
 516 0018 02F0F802 		and	r2, r2, #248
 517 001c 1A70     		strb	r2, [r3, #0]
 287:.\Generated_Source\PSoC5/ADC_DelSig_V.c ****         ADC_DelSig_V_DSM_CR14_REG |= ADC_DelSig_V_DSM_POWER1_44UA;
 518              		.loc 1 287 0
 519 001e 45F68E03 		movw	r3, #:lower16:1073764494
 520 0022 C4F20003 		movt	r3, #:upper16:1073764494
 521 0026 45F68E02 		movw	r2, #:lower16:1073764494
 522 002a C4F20002 		movt	r2, #:upper16:1073764494
 523 002e 1278     		ldrb	r2, [r2, #0]
 524 0030 D2B2     		uxtb	r2, r2
 525 0032 1A70     		strb	r2, [r3, #0]
 288:.\Generated_Source\PSoC5/ADC_DelSig_V.c ****         
 289:.\Generated_Source\PSoC5/ADC_DelSig_V.c ****         ADC_DelSig_V_DSM_CR15_REG &= ~(ADC_DelSig_V_DSM_POWER2_3_MASK | ADC_DelSig_V_DSM_POWER_COMP
 526              		.loc 1 289 0
 527 0034 45F68F03 		movw	r3, #:lower16:1073764495
 528 0038 C4F20003 		movt	r3, #:upper16:1073764495
 529 003c 45F68F02 		movw	r2, #:lower16:1073764495
 530 0040 C4F20002 		movt	r2, #:upper16:1073764495
 531 0044 1278     		ldrb	r2, [r2, #0]
 532 0046 D2B2     		uxtb	r2, r2
 533 0048 02F0C802 		and	r2, r2, #200
 534 004c 1A70     		strb	r2, [r3, #0]
 290:.\Generated_Source\PSoC5/ADC_DelSig_V.c ****         ADC_DelSig_V_DSM_CR15_REG |= (ADC_DelSig_V_DSM_POWER2_3_LOW | ADC_DelSig_V_DSM_POWER_VERYLO
 535              		.loc 1 290 0
 536 004e 45F68F03 		movw	r3, #:lower16:1073764495
 537 0052 C4F20003 		movt	r3, #:upper16:1073764495
 538 0056 45F68F02 		movw	r2, #:lower16:1073764495
 539 005a C4F20002 		movt	r2, #:upper16:1073764495
 540 005e 1278     		ldrb	r2, [r2, #0]
 541 0060 D2B2     		uxtb	r2, r2
 542 0062 1A70     		strb	r2, [r3, #0]
 291:.\Generated_Source\PSoC5/ADC_DelSig_V.c ****         
 292:.\Generated_Source\PSoC5/ADC_DelSig_V.c ****         ADC_DelSig_V_DSM_CR16_REG &= ~(ADC_DelSig_V_DSM_CP_PWRCTL_MASK | ADC_DelSig_V_DSM_POWER_SUM
 543              		.loc 1 292 0
 544 0064 45F69003 		movw	r3, #:lower16:1073764496
 545 0068 C4F20003 		movt	r3, #:upper16:1073764496
 546 006c 45F69002 		movw	r2, #:lower16:1073764496
 547 0070 C4F20002 		movt	r2, #:upper16:1073764496
 548 0074 1278     		ldrb	r2, [r2, #0]
 549 0076 D2B2     		uxtb	r2, r2
 550 0078 02F08002 		and	r2, r2, #128
 551 007c 1A70     		strb	r2, [r3, #0]
 293:.\Generated_Source\PSoC5/ADC_DelSig_V.c ****                                            ADC_DelSig_V_DSM_CP_ENABLE);
 294:.\Generated_Source\PSoC5/ADC_DelSig_V.c ****         ADC_DelSig_V_DSM_CR16_REG |= (ADC_DelSig_V_DSM_POWER_SUM_LOW | ADC_DelSig_V_DSM_CP_PWRCTL_L
 552              		.loc 1 294 0
 553 007e 45F69003 		movw	r3, #:lower16:1073764496
 554 0082 C4F20003 		movt	r3, #:upper16:1073764496
 555 0086 45F69002 		movw	r2, #:lower16:1073764496
 556 008a C4F20002 		movt	r2, #:upper16:1073764496
 557 008e 1278     		ldrb	r2, [r2, #0]
ARM GAS  C:\Users\hoangp\AppData\Local\Temp\cc4n80oh.s 			page 16


 558 0090 D2B2     		uxtb	r2, r2
 559 0092 42F00402 		orr	r2, r2, #4
 560 0096 D2B2     		uxtb	r2, r2
 561 0098 1A70     		strb	r2, [r3, #0]
 295:.\Generated_Source\PSoC5/ADC_DelSig_V.c ****         
 296:.\Generated_Source\PSoC5/ADC_DelSig_V.c ****         ADC_DelSig_V_DSM_CR17_REG &= ~(ADC_DelSig_V_DSM_EN_BUF_VREF | ADC_DelSig_V_DSM_PWR_CTRL_VCM
 562              		.loc 1 296 0
 563 009a 45F69103 		movw	r3, #:lower16:1073764497
 564 009e C4F20003 		movt	r3, #:upper16:1073764497
 565 00a2 1B78     		ldrb	r3, [r3, #0]
 566 00a4 45F69103 		movw	r3, #:lower16:1073764497
 567 00a8 C4F20003 		movt	r3, #:upper16:1073764497
 568 00ac 4FF00002 		mov	r2, #0
 569 00b0 1A70     		strb	r2, [r3, #0]
 297:.\Generated_Source\PSoC5/ADC_DelSig_V.c ****                                            ADC_DelSig_V_DSM_PWR_CTRL_VREF_MASK | ADC_DelSig_V_DSM_E
 298:.\Generated_Source\PSoC5/ADC_DelSig_V.c ****                                            ADC_DelSig_V_DSM_PWR_CTRL_VREF_INN_MASK);
 299:.\Generated_Source\PSoC5/ADC_DelSig_V.c ****         ADC_DelSig_V_DSM_CR17_REG |= (ADC_DelSig_V_DSM_PWR_CTRL_VREF_0 | ADC_DelSig_V_DSM_PWR_CTRL_
 570              		.loc 1 299 0
 571 00b2 45F69103 		movw	r3, #:lower16:1073764497
 572 00b6 C4F20003 		movt	r3, #:upper16:1073764497
 573 00ba 45F69102 		movw	r2, #:lower16:1073764497
 574 00be C4F20002 		movt	r2, #:upper16:1073764497
 575 00c2 1278     		ldrb	r2, [r2, #0]
 576 00c4 D2B2     		uxtb	r2, r2
 577 00c6 1A70     		strb	r2, [r3, #0]
 300:.\Generated_Source\PSoC5/ADC_DelSig_V.c ****                                            ADC_DelSig_V_DSM_PWR_CTRL_VREF_INN_0);
 301:.\Generated_Source\PSoC5/ADC_DelSig_V.c ****         
 302:.\Generated_Source\PSoC5/ADC_DelSig_V.c ****         /* Disable reference buffers */
 303:.\Generated_Source\PSoC5/ADC_DelSig_V.c ****         ADC_DelSig_V_DSM_REF0_REG &= ~(ADC_DelSig_V_DSM_EN_BUF_VREF_INN | ADC_DelSig_V_DSM_VREF_RES
 578              		.loc 1 303 0
 579 00c8 45F69203 		movw	r3, #:lower16:1073764498
 580 00cc C4F20003 		movt	r3, #:upper16:1073764498
 581 00d0 45F69202 		movw	r2, #:lower16:1073764498
 582 00d4 C4F20002 		movt	r2, #:upper16:1073764498
 583 00d8 1278     		ldrb	r2, [r2, #0]
 584 00da D2B2     		uxtb	r2, r2
 585 00dc 02F0C702 		and	r2, r2, #199
 586 00e0 1A70     		strb	r2, [r3, #0]
 304:.\Generated_Source\PSoC5/ADC_DelSig_V.c ****                                            ADC_DelSig_V_DSM_VCM_RES_DIV_EN);
 305:.\Generated_Source\PSoC5/ADC_DelSig_V.c ****             
 306:.\Generated_Source\PSoC5/ADC_DelSig_V.c ****         /* Disable the positive input buffer */
 307:.\Generated_Source\PSoC5/ADC_DelSig_V.c ****         ADC_DelSig_V_DSM_BUF0_REG &= ~ADC_DelSig_V_DSM_ENABLE_P;
 587              		.loc 1 307 0
 588 00e2 45F69A03 		movw	r3, #:lower16:1073764506
 589 00e6 C4F20003 		movt	r3, #:upper16:1073764506
 590 00ea 45F69A02 		movw	r2, #:lower16:1073764506
 591 00ee C4F20002 		movt	r2, #:upper16:1073764506
 592 00f2 1278     		ldrb	r2, [r2, #0]
 593 00f4 D2B2     		uxtb	r2, r2
 594 00f6 02F0FE02 		and	r2, r2, #254
 595 00fa 1A70     		strb	r2, [r3, #0]
 308:.\Generated_Source\PSoC5/ADC_DelSig_V.c ****         /* Disable the negative input buffer */
 309:.\Generated_Source\PSoC5/ADC_DelSig_V.c ****         ADC_DelSig_V_DSM_BUF1_REG &= ~ADC_DelSig_V_DSM_ENABLE_N;
 596              		.loc 1 309 0
 597 00fc 45F69B03 		movw	r3, #:lower16:1073764507
 598 0100 C4F20003 		movt	r3, #:upper16:1073764507
 599 0104 45F69B02 		movw	r2, #:lower16:1073764507
ARM GAS  C:\Users\hoangp\AppData\Local\Temp\cc4n80oh.s 			page 17


 600 0108 C4F20002 		movt	r2, #:upper16:1073764507
 601 010c 1278     		ldrb	r2, [r2, #0]
 602 010e D2B2     		uxtb	r2, r2
 603 0110 02F0FE02 		and	r2, r2, #254
 604 0114 1A70     		strb	r2, [r3, #0]
 310:.\Generated_Source\PSoC5/ADC_DelSig_V.c ****         /* Disable the clock to DSM */
 311:.\Generated_Source\PSoC5/ADC_DelSig_V.c ****         ADC_DelSig_V_DSM_CLK_REG &= ~(ADC_DelSig_V_DSM_CLK_CLK_EN | ADC_DelSig_V_DSM_CLK_BYPASS_SYN
 605              		.loc 1 311 0
 606 0116 45F60733 		movw	r3, #:lower16:1073765127
 607 011a C4F20003 		movt	r3, #:upper16:1073765127
 608 011e 45F60732 		movw	r2, #:lower16:1073765127
 609 0122 C4F20002 		movt	r2, #:upper16:1073765127
 610 0126 1278     		ldrb	r2, [r2, #0]
 611 0128 D2B2     		uxtb	r2, r2
 612 012a 02F0E702 		and	r2, r2, #231
 613 012e 1A70     		strb	r2, [r3, #0]
 312:.\Generated_Source\PSoC5/ADC_DelSig_V.c ****     }
 614              		.loc 1 312 0
 615 0130 BD46     		mov	sp, r7
 616 0132 80BC     		pop	{r7}
 617 0134 7047     		bx	lr
 618              		.cfi_endproc
 619              	.LFE4:
 620              		.size	ADC_DelSig_V_SetLowPower, .-ADC_DelSig_V_SetLowPower
 621 0136 00BF     		.section	.text.ADC_DelSig_V_Start,"ax",%progbits
 622              		.align	2
 623              		.global	ADC_DelSig_V_Start
 624              		.thumb
 625              		.thumb_func
 626              		.type	ADC_DelSig_V_Start, %function
 627              	ADC_DelSig_V_Start:
 628              	.LFB5:
 313:.\Generated_Source\PSoC5/ADC_DelSig_V.c **** #endif /* CY_PSOC5A */
 314:.\Generated_Source\PSoC5/ADC_DelSig_V.c **** 
 315:.\Generated_Source\PSoC5/ADC_DelSig_V.c **** 
 316:.\Generated_Source\PSoC5/ADC_DelSig_V.c **** /******************************************************************************* 
 317:.\Generated_Source\PSoC5/ADC_DelSig_V.c **** * Function Name: ADC_DelSig_V_Start
 318:.\Generated_Source\PSoC5/ADC_DelSig_V.c **** ********************************************************************************
 319:.\Generated_Source\PSoC5/ADC_DelSig_V.c **** *
 320:.\Generated_Source\PSoC5/ADC_DelSig_V.c **** * Summary:
 321:.\Generated_Source\PSoC5/ADC_DelSig_V.c **** *  The start function initializes the Delta Sigma Modulator with the default  
 322:.\Generated_Source\PSoC5/ADC_DelSig_V.c **** *  values, and sets the power to the given level.  A power level of 0, is the 
 323:.\Generated_Source\PSoC5/ADC_DelSig_V.c **** *  same as executing the stop function.
 324:.\Generated_Source\PSoC5/ADC_DelSig_V.c **** *
 325:.\Generated_Source\PSoC5/ADC_DelSig_V.c **** * Parameters:  
 326:.\Generated_Source\PSoC5/ADC_DelSig_V.c **** *  None
 327:.\Generated_Source\PSoC5/ADC_DelSig_V.c **** *
 328:.\Generated_Source\PSoC5/ADC_DelSig_V.c **** * Return: 
 329:.\Generated_Source\PSoC5/ADC_DelSig_V.c **** *  void 
 330:.\Generated_Source\PSoC5/ADC_DelSig_V.c **** *
 331:.\Generated_Source\PSoC5/ADC_DelSig_V.c **** * Global variables:
 332:.\Generated_Source\PSoC5/ADC_DelSig_V.c **** *  ADC_DelSig_V_initVar:  Used to check the initial configuration,
 333:.\Generated_Source\PSoC5/ADC_DelSig_V.c **** *  modified when this function is called for the first time.
 334:.\Generated_Source\PSoC5/ADC_DelSig_V.c **** *
 335:.\Generated_Source\PSoC5/ADC_DelSig_V.c **** *******************************************************************************/
 336:.\Generated_Source\PSoC5/ADC_DelSig_V.c **** void ADC_DelSig_V_Start() 
 337:.\Generated_Source\PSoC5/ADC_DelSig_V.c **** {
ARM GAS  C:\Users\hoangp\AppData\Local\Temp\cc4n80oh.s 			page 18


 629              		.loc 1 337 0
 630              		.cfi_startproc
 631              		@ args = 0, pretend = 0, frame = 0
 632              		@ frame_needed = 1, uses_anonymous_args = 0
 633 0000 80B5     		push	{r7, lr}
 634              	.LCFI10:
 635              		.cfi_def_cfa_offset 8
 636 0002 00AF     		add	r7, sp, #0
 637              		.cfi_offset 14, -4
 638              		.cfi_offset 7, -8
 639              	.LCFI11:
 640              		.cfi_def_cfa_register 7
 338:.\Generated_Source\PSoC5/ADC_DelSig_V.c ****     if(ADC_DelSig_V_initVar == 0u)
 641              		.loc 1 338 0
 642 0004 40F20003 		movw	r3, #:lower16:ADC_DelSig_V_initVar
 643 0008 C0F20003 		movt	r3, #:upper16:ADC_DelSig_V_initVar
 644 000c 1B78     		ldrb	r3, [r3, #0]	@ zero_extendqisi2
 645 000e 002B     		cmp	r3, #0
 646 0010 10D1     		bne	.L14
 339:.\Generated_Source\PSoC5/ADC_DelSig_V.c ****     {
 340:.\Generated_Source\PSoC5/ADC_DelSig_V.c ****         if(!(ADC_DelSig_V_started))
 647              		.loc 1 340 0
 648 0012 40F20003 		movw	r3, #:lower16:ADC_DelSig_V_started
 649 0016 C0F20003 		movt	r3, #:upper16:ADC_DelSig_V_started
 650 001a 1B78     		ldrb	r3, [r3, #0]
 651 001c DBB2     		uxtb	r3, r3
 652 001e 002B     		cmp	r3, #0
 653 0020 01D1     		bne	.L15
 341:.\Generated_Source\PSoC5/ADC_DelSig_V.c ****         {
 342:.\Generated_Source\PSoC5/ADC_DelSig_V.c ****             ADC_DelSig_V_Init();
 654              		.loc 1 342 0
 655 0022 FFF7FEFF 		bl	ADC_DelSig_V_Init
 656              	.L15:
 343:.\Generated_Source\PSoC5/ADC_DelSig_V.c ****         }
 344:.\Generated_Source\PSoC5/ADC_DelSig_V.c ****         ADC_DelSig_V_initVar = 1u;
 657              		.loc 1 344 0
 658 0026 40F20003 		movw	r3, #:lower16:ADC_DelSig_V_initVar
 659 002a C0F20003 		movt	r3, #:upper16:ADC_DelSig_V_initVar
 660 002e 4FF00102 		mov	r2, #1
 661 0032 1A70     		strb	r2, [r3, #0]
 662              	.L14:
 345:.\Generated_Source\PSoC5/ADC_DelSig_V.c ****     }
 346:.\Generated_Source\PSoC5/ADC_DelSig_V.c **** 
 347:.\Generated_Source\PSoC5/ADC_DelSig_V.c ****     /* Enable the ADC */
 348:.\Generated_Source\PSoC5/ADC_DelSig_V.c ****     ADC_DelSig_V_Enable();
 663              		.loc 1 348 0
 664 0034 FFF7FEFF 		bl	ADC_DelSig_V_Enable
 349:.\Generated_Source\PSoC5/ADC_DelSig_V.c **** }
 665              		.loc 1 349 0
 666 0038 80BD     		pop	{r7, pc}
 667              		.cfi_endproc
 668              	.LFE5:
 669              		.size	ADC_DelSig_V_Start, .-ADC_DelSig_V_Start
 670 003a 00BF     		.section	.text.ADC_DelSig_V_Stop,"ax",%progbits
 671              		.align	2
 672              		.global	ADC_DelSig_V_Stop
 673              		.thumb
ARM GAS  C:\Users\hoangp\AppData\Local\Temp\cc4n80oh.s 			page 19


 674              		.thumb_func
 675              		.type	ADC_DelSig_V_Stop, %function
 676              	ADC_DelSig_V_Stop:
 677              	.LFB6:
 350:.\Generated_Source\PSoC5/ADC_DelSig_V.c **** 
 351:.\Generated_Source\PSoC5/ADC_DelSig_V.c **** 
 352:.\Generated_Source\PSoC5/ADC_DelSig_V.c **** /*******************************************************************************
 353:.\Generated_Source\PSoC5/ADC_DelSig_V.c **** * Function Name: ADC_DelSig_V_Stop
 354:.\Generated_Source\PSoC5/ADC_DelSig_V.c **** ********************************************************************************
 355:.\Generated_Source\PSoC5/ADC_DelSig_V.c **** *
 356:.\Generated_Source\PSoC5/ADC_DelSig_V.c **** * Summary:
 357:.\Generated_Source\PSoC5/ADC_DelSig_V.c **** *  Stops and powers down ADC to lowest power state.
 358:.\Generated_Source\PSoC5/ADC_DelSig_V.c **** *
 359:.\Generated_Source\PSoC5/ADC_DelSig_V.c **** * Parameters:  
 360:.\Generated_Source\PSoC5/ADC_DelSig_V.c **** *  void
 361:.\Generated_Source\PSoC5/ADC_DelSig_V.c **** *
 362:.\Generated_Source\PSoC5/ADC_DelSig_V.c **** * Return: 
 363:.\Generated_Source\PSoC5/ADC_DelSig_V.c **** *  void 
 364:.\Generated_Source\PSoC5/ADC_DelSig_V.c **** *
 365:.\Generated_Source\PSoC5/ADC_DelSig_V.c **** *******************************************************************************/
 366:.\Generated_Source\PSoC5/ADC_DelSig_V.c **** void ADC_DelSig_V_Stop(void) 
 367:.\Generated_Source\PSoC5/ADC_DelSig_V.c **** {
 678              		.loc 1 367 0
 679              		.cfi_startproc
 680              		@ args = 0, pretend = 0, frame = 0
 681              		@ frame_needed = 1, uses_anonymous_args = 0
 682 0000 80B5     		push	{r7, lr}
 683              	.LCFI12:
 684              		.cfi_def_cfa_offset 8
 685 0002 00AF     		add	r7, sp, #0
 686              		.cfi_offset 14, -4
 687              		.cfi_offset 7, -8
 688              	.LCFI13:
 689              		.cfi_def_cfa_register 7
 368:.\Generated_Source\PSoC5/ADC_DelSig_V.c ****     /* Stop conversions */
 369:.\Generated_Source\PSoC5/ADC_DelSig_V.c ****     ADC_DelSig_V_DEC_CR_REG &= ~ADC_DelSig_V_DEC_START_CONV;
 690              		.loc 1 369 0
 691 0004 44F60063 		movw	r3, #:lower16:1073761792
 692 0008 C4F20003 		movt	r3, #:upper16:1073761792
 693 000c 44F60062 		movw	r2, #:lower16:1073761792
 694 0010 C4F20002 		movt	r2, #:upper16:1073761792
 695 0014 1278     		ldrb	r2, [r2, #0]
 696 0016 D2B2     		uxtb	r2, r2
 697 0018 02F0FE02 		and	r2, r2, #254
 698 001c 1A70     		strb	r2, [r3, #0]
 370:.\Generated_Source\PSoC5/ADC_DelSig_V.c ****     ADC_DelSig_V_DEC_SR_REG |=  ADC_DelSig_V_DEC_INTR_CLEAR;
 699              		.loc 1 370 0
 700 001e 44F60163 		movw	r3, #:lower16:1073761793
 701 0022 C4F20003 		movt	r3, #:upper16:1073761793
 702 0026 44F60162 		movw	r2, #:lower16:1073761793
 703 002a C4F20002 		movt	r2, #:upper16:1073761793
 704 002e 1278     		ldrb	r2, [r2, #0]
 705 0030 D2B2     		uxtb	r2, r2
 706 0032 42F00402 		orr	r2, r2, #4
 707 0036 D2B2     		uxtb	r2, r2
 708 0038 1A70     		strb	r2, [r3, #0]
 371:.\Generated_Source\PSoC5/ADC_DelSig_V.c ****     
ARM GAS  C:\Users\hoangp\AppData\Local\Temp\cc4n80oh.s 			page 20


 372:.\Generated_Source\PSoC5/ADC_DelSig_V.c ****     /* Disable PRES, Disable power to VCMBUF0, REFBUF0 and REFBUF1, 
 373:.\Generated_Source\PSoC5/ADC_DelSig_V.c ****        enable PRES */
 374:.\Generated_Source\PSoC5/ADC_DelSig_V.c ****     #if (CY_PSOC3 || CY_PSOC5LP)
 375:.\Generated_Source\PSoC5/ADC_DelSig_V.c ****         ADC_DelSig_V_RESET_CR4_REG |= ADC_DelSig_V_IGNORE_PRESA1;
 376:.\Generated_Source\PSoC5/ADC_DelSig_V.c ****         ADC_DelSig_V_RESET_CR5_REG |= ADC_DelSig_V_IGNORE_PRESA2;
 377:.\Generated_Source\PSoC5/ADC_DelSig_V.c ****     #elif (CY_PSOC5A)
 378:.\Generated_Source\PSoC5/ADC_DelSig_V.c ****         ADC_DelSig_V_RESET_CR1_REG |= ADC_DelSig_V_DIS_PRES1;
 709              		.loc 1 378 0
 710 003a 44F2F563 		movw	r3, #:lower16:1073759989
 711 003e C4F20003 		movt	r3, #:upper16:1073759989
 712 0042 44F2F562 		movw	r2, #:lower16:1073759989
 713 0046 C4F20002 		movt	r2, #:upper16:1073759989
 714 004a 1278     		ldrb	r2, [r2, #0]
 715 004c D2B2     		uxtb	r2, r2
 716 004e 42F01002 		orr	r2, r2, #16
 717 0052 D2B2     		uxtb	r2, r2
 718 0054 1A70     		strb	r2, [r3, #0]
 379:.\Generated_Source\PSoC5/ADC_DelSig_V.c ****         ADC_DelSig_V_RESET_CR3_REG |= ADC_DelSig_V_DIS_PRES2;
 719              		.loc 1 379 0
 720 0056 44F2F763 		movw	r3, #:lower16:1073759991
 721 005a C4F20003 		movt	r3, #:upper16:1073759991
 722 005e 44F2F762 		movw	r2, #:lower16:1073759991
 723 0062 C4F20002 		movt	r2, #:upper16:1073759991
 724 0066 1278     		ldrb	r2, [r2, #0]
 725 0068 D2B2     		uxtb	r2, r2
 726 006a 42F00802 		orr	r2, r2, #8
 727 006e D2B2     		uxtb	r2, r2
 728 0070 1A70     		strb	r2, [r3, #0]
 380:.\Generated_Source\PSoC5/ADC_DelSig_V.c ****     #endif /* CY_PSOC5A */
 381:.\Generated_Source\PSoC5/ADC_DelSig_V.c ****     
 382:.\Generated_Source\PSoC5/ADC_DelSig_V.c ****     ADC_DelSig_V_DSM_CR17_REG &= ~(ADC_DelSig_V_DSM_EN_BUF_VREF | ADC_DelSig_V_DSM_EN_BUF_VCM);
 729              		.loc 1 382 0
 730 0072 45F69103 		movw	r3, #:lower16:1073764497
 731 0076 C4F20003 		movt	r3, #:upper16:1073764497
 732 007a 45F69102 		movw	r2, #:lower16:1073764497
 733 007e C4F20002 		movt	r2, #:upper16:1073764497
 734 0082 1278     		ldrb	r2, [r2, #0]
 735 0084 D2B2     		uxtb	r2, r2
 736 0086 02F0FC02 		and	r2, r2, #252
 737 008a 1A70     		strb	r2, [r3, #0]
 383:.\Generated_Source\PSoC5/ADC_DelSig_V.c ****     ADC_DelSig_V_DSM_REF0_REG &= ~ADC_DelSig_V_DSM_EN_BUF_VREF_INN;
 738              		.loc 1 383 0
 739 008c 45F69203 		movw	r3, #:lower16:1073764498
 740 0090 C4F20003 		movt	r3, #:upper16:1073764498
 741 0094 45F69202 		movw	r2, #:lower16:1073764498
 742 0098 C4F20002 		movt	r2, #:upper16:1073764498
 743 009c 1278     		ldrb	r2, [r2, #0]
 744 009e D2B2     		uxtb	r2, r2
 745 00a0 02F0F702 		and	r2, r2, #247
 746 00a4 1A70     		strb	r2, [r3, #0]
 384:.\Generated_Source\PSoC5/ADC_DelSig_V.c ****     
 385:.\Generated_Source\PSoC5/ADC_DelSig_V.c ****     /* Wait for 3 microseconds. */
 386:.\Generated_Source\PSoC5/ADC_DelSig_V.c ****     CyDelayUs(3);
 747              		.loc 1 386 0
 748 00a6 4FF00300 		mov	r0, #3
 749 00aa FFF7FEFF 		bl	CyDelayUs
 387:.\Generated_Source\PSoC5/ADC_DelSig_V.c ****     
ARM GAS  C:\Users\hoangp\AppData\Local\Temp\cc4n80oh.s 			page 21


 388:.\Generated_Source\PSoC5/ADC_DelSig_V.c **** 	/* Enable the press circuit */
 389:.\Generated_Source\PSoC5/ADC_DelSig_V.c ****     #if (CY_PSOC3 || CY_PSOC5LP)
 390:.\Generated_Source\PSoC5/ADC_DelSig_V.c ****         ADC_DelSig_V_RESET_CR4_REG &= ~ADC_DelSig_V_IGNORE_PRESA1;
 391:.\Generated_Source\PSoC5/ADC_DelSig_V.c ****         ADC_DelSig_V_RESET_CR5_REG &= ~ADC_DelSig_V_IGNORE_PRESA2;
 392:.\Generated_Source\PSoC5/ADC_DelSig_V.c ****     #elif (CY_PSOC5A)
 393:.\Generated_Source\PSoC5/ADC_DelSig_V.c ****         ADC_DelSig_V_RESET_CR1_REG &= ~ADC_DelSig_V_DIS_PRES1;
 750              		.loc 1 393 0
 751 00ae 44F2F563 		movw	r3, #:lower16:1073759989
 752 00b2 C4F20003 		movt	r3, #:upper16:1073759989
 753 00b6 44F2F562 		movw	r2, #:lower16:1073759989
 754 00ba C4F20002 		movt	r2, #:upper16:1073759989
 755 00be 1278     		ldrb	r2, [r2, #0]
 756 00c0 D2B2     		uxtb	r2, r2
 757 00c2 02F0EF02 		and	r2, r2, #239
 758 00c6 1A70     		strb	r2, [r3, #0]
 394:.\Generated_Source\PSoC5/ADC_DelSig_V.c ****         ADC_DelSig_V_RESET_CR3_REG &= ~ADC_DelSig_V_DIS_PRES2;
 759              		.loc 1 394 0
 760 00c8 44F2F763 		movw	r3, #:lower16:1073759991
 761 00cc C4F20003 		movt	r3, #:upper16:1073759991
 762 00d0 44F2F762 		movw	r2, #:lower16:1073759991
 763 00d4 C4F20002 		movt	r2, #:upper16:1073759991
 764 00d8 1278     		ldrb	r2, [r2, #0]
 765 00da D2B2     		uxtb	r2, r2
 766 00dc 02F0F702 		and	r2, r2, #247
 767 00e0 1A70     		strb	r2, [r3, #0]
 395:.\Generated_Source\PSoC5/ADC_DelSig_V.c ****     #endif /* CY_PSOC5A */
 396:.\Generated_Source\PSoC5/ADC_DelSig_V.c ****     
 397:.\Generated_Source\PSoC5/ADC_DelSig_V.c ****     /* If PSoC5A then don't disable the power instead put the block to  
 398:.\Generated_Source\PSoC5/ADC_DelSig_V.c ****        low power mode. Also, save current state of all the power configuration 
 399:.\Generated_Source\PSoC5/ADC_DelSig_V.c ****        registers before putting block to low power mode */
 400:.\Generated_Source\PSoC5/ADC_DelSig_V.c ****     #if (CY_PSOC5A)
 401:.\Generated_Source\PSoC5/ADC_DelSig_V.c ****         
 402:.\Generated_Source\PSoC5/ADC_DelSig_V.c ****         /* set the flag */
 403:.\Generated_Source\PSoC5/ADC_DelSig_V.c ****         ADC_DelSig_V_restoreReg = 1u;
 768              		.loc 1 403 0
 769 00e2 40F20003 		movw	r3, #:lower16:ADC_DelSig_V_restoreReg
 770 00e6 C0F20003 		movt	r3, #:upper16:ADC_DelSig_V_restoreReg
 771 00ea 4FF00102 		mov	r2, #1
 772 00ee 1A70     		strb	r2, [r3, #0]
 404:.\Generated_Source\PSoC5/ADC_DelSig_V.c ****         
 405:.\Generated_Source\PSoC5/ADC_DelSig_V.c ****         ADC_DelSig_V_SavePowerRegisters();
 773              		.loc 1 405 0
 774 00f0 FFF7FEFF 		bl	ADC_DelSig_V_SavePowerRegisters
 406:.\Generated_Source\PSoC5/ADC_DelSig_V.c ****         ADC_DelSig_V_SetLowPower();
 775              		.loc 1 406 0
 776 00f4 FFF7FEFF 		bl	ADC_DelSig_V_SetLowPower
 407:.\Generated_Source\PSoC5/ADC_DelSig_V.c ****     #else    
 408:.\Generated_Source\PSoC5/ADC_DelSig_V.c ****         /* Disable power to the ADC */
 409:.\Generated_Source\PSoC5/ADC_DelSig_V.c ****         ADC_DelSig_V_PWRMGR_DSM_REG &= ~ADC_DelSig_V_ACT_PWR_DSM_EN;
 410:.\Generated_Source\PSoC5/ADC_DelSig_V.c ****     #endif /* CY_PSOC5A */
 411:.\Generated_Source\PSoC5/ADC_DelSig_V.c ****     
 412:.\Generated_Source\PSoC5/ADC_DelSig_V.c ****     /* Disable power to Decimator block */
 413:.\Generated_Source\PSoC5/ADC_DelSig_V.c ****     ADC_DelSig_V_PWRMGR_DEC_REG &= ~ADC_DelSig_V_ACT_PWR_DEC_EN;
 777              		.loc 1 413 0
 778 00f8 44F2AA33 		movw	r3, #:lower16:1073759146
 779 00fc C4F20003 		movt	r3, #:upper16:1073759146
 780 0100 44F2AA32 		movw	r2, #:lower16:1073759146
ARM GAS  C:\Users\hoangp\AppData\Local\Temp\cc4n80oh.s 			page 22


 781 0104 C4F20002 		movt	r2, #:upper16:1073759146
 782 0108 1278     		ldrb	r2, [r2, #0]
 783 010a D2B2     		uxtb	r2, r2
 784 010c 02F0FE02 		and	r2, r2, #254
 785 0110 1A70     		strb	r2, [r3, #0]
 414:.\Generated_Source\PSoC5/ADC_DelSig_V.c ****     
 415:.\Generated_Source\PSoC5/ADC_DelSig_V.c ****     /* Disable alternative active power to the ADC */
 416:.\Generated_Source\PSoC5/ADC_DelSig_V.c ****     ADC_DelSig_V_STBY_PWRMGR_DEC_REG &= ~ADC_DelSig_V_STBY_PWR_DEC_EN;
 786              		.loc 1 416 0
 787 0112 44F2BA33 		movw	r3, #:lower16:1073759162
 788 0116 C4F20003 		movt	r3, #:upper16:1073759162
 789 011a 44F2BA32 		movw	r2, #:lower16:1073759162
 790 011e C4F20002 		movt	r2, #:upper16:1073759162
 791 0122 1278     		ldrb	r2, [r2, #0]
 792 0124 D2B2     		uxtb	r2, r2
 793 0126 02F0FE02 		and	r2, r2, #254
 794 012a 1A70     		strb	r2, [r3, #0]
 417:.\Generated_Source\PSoC5/ADC_DelSig_V.c ****     #if (CY_PSOC3 || CY_PSOC5LP)
 418:.\Generated_Source\PSoC5/ADC_DelSig_V.c ****     ADC_DelSig_V_STBY_PWRMGR_DSM_REG &= ~ADC_DelSig_V_STBY_PWR_DSM_EN;
 419:.\Generated_Source\PSoC5/ADC_DelSig_V.c ****     #endif /* CY_PSOC3 || CY_PSOC5LP */
 420:.\Generated_Source\PSoC5/ADC_DelSig_V.c **** 
 421:.\Generated_Source\PSoC5/ADC_DelSig_V.c ****    /* Disable negative pumps for DSM  */
 422:.\Generated_Source\PSoC5/ADC_DelSig_V.c ****     ADC_DelSig_V_PUMP_CR1_REG &= ~(ADC_DelSig_V_PUMP_CR1_CLKSEL | ADC_DelSig_V_PUMP_CR1_FORCE );
 795              		.loc 1 422 0
 796 012c 45F67703 		movw	r3, #:lower16:1073764471
 797 0130 C4F20003 		movt	r3, #:upper16:1073764471
 798 0134 45F67702 		movw	r2, #:lower16:1073764471
 799 0138 C4F20002 		movt	r2, #:upper16:1073764471
 800 013c 1278     		ldrb	r2, [r2, #0]
 801 013e D2B2     		uxtb	r2, r2
 802 0140 02F0F902 		and	r2, r2, #249
 803 0144 1A70     		strb	r2, [r3, #0]
 423:.\Generated_Source\PSoC5/ADC_DelSig_V.c ****     
 424:.\Generated_Source\PSoC5/ADC_DelSig_V.c ****     /* This is only valid if there is an internal clock */
 425:.\Generated_Source\PSoC5/ADC_DelSig_V.c ****     #if(ADC_DelSig_V_DEFAULT_INTERNAL_CLK)
 426:.\Generated_Source\PSoC5/ADC_DelSig_V.c ****         ADC_DelSig_V_PWRMGR_CLK_REG &= ~ADC_DelSig_V_ACT_PWR_CLK_EN;
 804              		.loc 1 426 0
 805 0146 44F2A133 		movw	r3, #:lower16:1073759137
 806 014a C4F20003 		movt	r3, #:upper16:1073759137
 807 014e 44F2A132 		movw	r2, #:lower16:1073759137
 808 0152 C4F20002 		movt	r2, #:upper16:1073759137
 809 0156 1278     		ldrb	r2, [r2, #0]
 810 0158 D2B2     		uxtb	r2, r2
 811 015a 02F0FE02 		and	r2, r2, #254
 812 015e 1A70     		strb	r2, [r3, #0]
 427:.\Generated_Source\PSoC5/ADC_DelSig_V.c ****         ADC_DelSig_V_STBY_PWRMGR_CLK_REG &= ~ADC_DelSig_V_STBY_PWR_CLK_EN;
 813              		.loc 1 427 0
 814 0160 44F2B133 		movw	r3, #:lower16:1073759153
 815 0164 C4F20003 		movt	r3, #:upper16:1073759153
 816 0168 44F2B132 		movw	r2, #:lower16:1073759153
 817 016c C4F20002 		movt	r2, #:upper16:1073759153
 818 0170 1278     		ldrb	r2, [r2, #0]
 819 0172 D2B2     		uxtb	r2, r2
 820 0174 02F0FE02 		and	r2, r2, #254
 821 0178 1A70     		strb	r2, [r3, #0]
 428:.\Generated_Source\PSoC5/ADC_DelSig_V.c ****     #endif /* ADC_DelSig_V_DEFAULT_INTERNAL_CLK */
 429:.\Generated_Source\PSoC5/ADC_DelSig_V.c ****     
ARM GAS  C:\Users\hoangp\AppData\Local\Temp\cc4n80oh.s 			page 23


 430:.\Generated_Source\PSoC5/ADC_DelSig_V.c ****     /* Disable power to charge pump clock */
 431:.\Generated_Source\PSoC5/ADC_DelSig_V.c ****     ADC_DelSig_V_PWRMGR_CHARGE_PUMP_CLK_REG &= ~ADC_DelSig_V_ACT_PWR_CHARGE_PUMP_CLK_EN;
 822              		.loc 1 431 0
 823 017a 44F2A233 		movw	r3, #:lower16:1073759138
 824 017e C4F20003 		movt	r3, #:upper16:1073759138
 825 0182 44F2A232 		movw	r2, #:lower16:1073759138
 826 0186 C4F20002 		movt	r2, #:upper16:1073759138
 827 018a 1278     		ldrb	r2, [r2, #0]
 828 018c D2B2     		uxtb	r2, r2
 829 018e 02F0FD02 		and	r2, r2, #253
 830 0192 1A70     		strb	r2, [r3, #0]
 432:.\Generated_Source\PSoC5/ADC_DelSig_V.c ****     ADC_DelSig_V_STBY_PWRMGR_CHARGE_PUMP_CLK_REG &= ~ADC_DelSig_V_STBY_PWR_CHARGE_PUMP_CLK_EN;
 831              		.loc 1 432 0
 832 0194 44F2B233 		movw	r3, #:lower16:1073759154
 833 0198 C4F20003 		movt	r3, #:upper16:1073759154
 834 019c 44F2B232 		movw	r2, #:lower16:1073759154
 835 01a0 C4F20002 		movt	r2, #:upper16:1073759154
 836 01a4 1278     		ldrb	r2, [r2, #0]
 837 01a6 D2B2     		uxtb	r2, r2
 838 01a8 02F0FD02 		and	r2, r2, #253
 839 01ac 1A70     		strb	r2, [r3, #0]
 433:.\Generated_Source\PSoC5/ADC_DelSig_V.c **** }
 840              		.loc 1 433 0
 841 01ae 80BD     		pop	{r7, pc}
 842              		.cfi_endproc
 843              	.LFE6:
 844              		.size	ADC_DelSig_V_Stop, .-ADC_DelSig_V_Stop
 845              		.section	.text.ADC_DelSig_V_SetBufferGain,"ax",%progbits
 846              		.align	2
 847              		.global	ADC_DelSig_V_SetBufferGain
 848              		.thumb
 849              		.thumb_func
 850              		.type	ADC_DelSig_V_SetBufferGain, %function
 851              	ADC_DelSig_V_SetBufferGain:
 852              	.LFB7:
 434:.\Generated_Source\PSoC5/ADC_DelSig_V.c **** 
 435:.\Generated_Source\PSoC5/ADC_DelSig_V.c **** 
 436:.\Generated_Source\PSoC5/ADC_DelSig_V.c **** /*******************************************************************************
 437:.\Generated_Source\PSoC5/ADC_DelSig_V.c **** * Function Name: ADC_DelSig_V_SetBufferGain
 438:.\Generated_Source\PSoC5/ADC_DelSig_V.c **** ********************************************************************************
 439:.\Generated_Source\PSoC5/ADC_DelSig_V.c **** *
 440:.\Generated_Source\PSoC5/ADC_DelSig_V.c **** * Summary:
 441:.\Generated_Source\PSoC5/ADC_DelSig_V.c **** *  Set input buffer range.
 442:.\Generated_Source\PSoC5/ADC_DelSig_V.c **** *
 443:.\Generated_Source\PSoC5/ADC_DelSig_V.c **** * Parameters:  
 444:.\Generated_Source\PSoC5/ADC_DelSig_V.c **** *  gain:  Two bit value to select a gain of 1, 2, 4, or 8.
 445:.\Generated_Source\PSoC5/ADC_DelSig_V.c **** *
 446:.\Generated_Source\PSoC5/ADC_DelSig_V.c **** * Return: 
 447:.\Generated_Source\PSoC5/ADC_DelSig_V.c **** *  void
 448:.\Generated_Source\PSoC5/ADC_DelSig_V.c **** *
 449:.\Generated_Source\PSoC5/ADC_DelSig_V.c **** *******************************************************************************/
 450:.\Generated_Source\PSoC5/ADC_DelSig_V.c **** void ADC_DelSig_V_SetBufferGain(uint8 gain) 
 451:.\Generated_Source\PSoC5/ADC_DelSig_V.c **** {
 853              		.loc 1 451 0
 854              		.cfi_startproc
 855              		@ args = 0, pretend = 0, frame = 16
 856              		@ frame_needed = 1, uses_anonymous_args = 0
ARM GAS  C:\Users\hoangp\AppData\Local\Temp\cc4n80oh.s 			page 24


 857              		@ link register save eliminated.
 858 0000 80B4     		push	{r7}
 859              	.LCFI14:
 860              		.cfi_def_cfa_offset 4
 861 0002 85B0     		sub	sp, sp, #20
 862              	.LCFI15:
 863              		.cfi_def_cfa_offset 24
 864 0004 00AF     		add	r7, sp, #0
 865              		.cfi_offset 7, -4
 866              	.LCFI16:
 867              		.cfi_def_cfa_register 7
 868 0006 0346     		mov	r3, r0
 869 0008 FB71     		strb	r3, [r7, #7]
 452:.\Generated_Source\PSoC5/ADC_DelSig_V.c ****     uint8 tmpReg;
 453:.\Generated_Source\PSoC5/ADC_DelSig_V.c ****     tmpReg = ADC_DelSig_V_DSM_BUF1_REG & ~ADC_DelSig_V_DSM_GAIN_MASK;
 870              		.loc 1 453 0
 871 000a 45F69B03 		movw	r3, #:lower16:1073764507
 872 000e C4F20003 		movt	r3, #:upper16:1073764507
 873 0012 1B78     		ldrb	r3, [r3, #0]
 874 0014 DBB2     		uxtb	r3, r3
 875 0016 23F00C03 		bic	r3, r3, #12
 876 001a FB73     		strb	r3, [r7, #15]
 454:.\Generated_Source\PSoC5/ADC_DelSig_V.c ****     tmpReg |= (gain << 2);
 877              		.loc 1 454 0
 878 001c FB79     		ldrb	r3, [r7, #7]	@ zero_extendqisi2
 879 001e 4FEA8303 		lsl	r3, r3, #2
 880 0022 DAB2     		uxtb	r2, r3
 881 0024 FB7B     		ldrb	r3, [r7, #15]	@ zero_extendqisi2
 882 0026 42EA0303 		orr	r3, r2, r3
 883 002a DBB2     		uxtb	r3, r3
 884 002c FB73     		strb	r3, [r7, #15]
 455:.\Generated_Source\PSoC5/ADC_DelSig_V.c ****     ADC_DelSig_V_DSM_BUF1_REG = tmpReg;
 885              		.loc 1 455 0
 886 002e 45F69B03 		movw	r3, #:lower16:1073764507
 887 0032 C4F20003 		movt	r3, #:upper16:1073764507
 888 0036 FA7B     		ldrb	r2, [r7, #15]
 889 0038 1A70     		strb	r2, [r3, #0]
 456:.\Generated_Source\PSoC5/ADC_DelSig_V.c **** }
 890              		.loc 1 456 0
 891 003a 07F11407 		add	r7, r7, #20
 892 003e BD46     		mov	sp, r7
 893 0040 80BC     		pop	{r7}
 894 0042 7047     		bx	lr
 895              		.cfi_endproc
 896              	.LFE7:
 897              		.size	ADC_DelSig_V_SetBufferGain, .-ADC_DelSig_V_SetBufferGain
 898              		.section	.text.ADC_DelSig_V_SetCoherency,"ax",%progbits
 899              		.align	2
 900              		.global	ADC_DelSig_V_SetCoherency
 901              		.thumb
 902              		.thumb_func
 903              		.type	ADC_DelSig_V_SetCoherency, %function
 904              	ADC_DelSig_V_SetCoherency:
 905              	.LFB8:
 457:.\Generated_Source\PSoC5/ADC_DelSig_V.c **** 
 458:.\Generated_Source\PSoC5/ADC_DelSig_V.c **** 
 459:.\Generated_Source\PSoC5/ADC_DelSig_V.c **** /*******************************************************************************
ARM GAS  C:\Users\hoangp\AppData\Local\Temp\cc4n80oh.s 			page 25


 460:.\Generated_Source\PSoC5/ADC_DelSig_V.c **** * Function Name: ADC_DelSig_V_SetCoherency
 461:.\Generated_Source\PSoC5/ADC_DelSig_V.c **** ********************************************************************************
 462:.\Generated_Source\PSoC5/ADC_DelSig_V.c **** *
 463:.\Generated_Source\PSoC5/ADC_DelSig_V.c **** * Summary:
 464:.\Generated_Source\PSoC5/ADC_DelSig_V.c **** *  Sets the ADC output register coherency bit.
 465:.\Generated_Source\PSoC5/ADC_DelSig_V.c **** *
 466:.\Generated_Source\PSoC5/ADC_DelSig_V.c **** * Parameters:  
 467:.\Generated_Source\PSoC5/ADC_DelSig_V.c **** *  gain:  Two bit value to set the coherency bit.
 468:.\Generated_Source\PSoC5/ADC_DelSig_V.c ****           00-Coherency checking off
 469:.\Generated_Source\PSoC5/ADC_DelSig_V.c ****           01-low byte is key byte
 470:.\Generated_Source\PSoC5/ADC_DelSig_V.c ****           02-middle byte is the key byte
 471:.\Generated_Source\PSoC5/ADC_DelSig_V.c ****           03-high byte is the key byte
 472:.\Generated_Source\PSoC5/ADC_DelSig_V.c **** *
 473:.\Generated_Source\PSoC5/ADC_DelSig_V.c **** * Return: 
 474:.\Generated_Source\PSoC5/ADC_DelSig_V.c **** *  void
 475:.\Generated_Source\PSoC5/ADC_DelSig_V.c **** *
 476:.\Generated_Source\PSoC5/ADC_DelSig_V.c **** * Side Effects:  If the coherency is changed, for any reason, it should be 
 477:.\Generated_Source\PSoC5/ADC_DelSig_V.c **** *                changed back to the LSB when the provided "GetResult" API 
 478:.\Generated_Source\PSoC5/ADC_DelSig_V.c **** *                is used.
 479:.\Generated_Source\PSoC5/ADC_DelSig_V.c **** *
 480:.\Generated_Source\PSoC5/ADC_DelSig_V.c **** *******************************************************************************/
 481:.\Generated_Source\PSoC5/ADC_DelSig_V.c **** void ADC_DelSig_V_SetCoherency(uint8 coherency) 
 482:.\Generated_Source\PSoC5/ADC_DelSig_V.c **** {
 906              		.loc 1 482 0
 907              		.cfi_startproc
 908              		@ args = 0, pretend = 0, frame = 16
 909              		@ frame_needed = 1, uses_anonymous_args = 0
 910              		@ link register save eliminated.
 911 0000 80B4     		push	{r7}
 912              	.LCFI17:
 913              		.cfi_def_cfa_offset 4
 914 0002 85B0     		sub	sp, sp, #20
 915              	.LCFI18:
 916              		.cfi_def_cfa_offset 24
 917 0004 00AF     		add	r7, sp, #0
 918              		.cfi_offset 7, -4
 919              	.LCFI19:
 920              		.cfi_def_cfa_register 7
 921 0006 0346     		mov	r3, r0
 922 0008 FB71     		strb	r3, [r7, #7]
 483:.\Generated_Source\PSoC5/ADC_DelSig_V.c ****     uint8 tmpReg;    
 484:.\Generated_Source\PSoC5/ADC_DelSig_V.c ****     tmpReg = ADC_DelSig_V_DEC_COHER_REG & ~ADC_DelSig_V_DEC_SAMP_KEY_MASK;
 923              		.loc 1 484 0
 924 000a 44F61463 		movw	r3, #:lower16:1073761812
 925 000e C4F20003 		movt	r3, #:upper16:1073761812
 926 0012 1B78     		ldrb	r3, [r3, #0]
 927 0014 DBB2     		uxtb	r3, r3
 928 0016 23F00303 		bic	r3, r3, #3
 929 001a FB73     		strb	r3, [r7, #15]
 485:.\Generated_Source\PSoC5/ADC_DelSig_V.c ****     tmpReg |= coherency;
 930              		.loc 1 485 0
 931 001c FA7B     		ldrb	r2, [r7, #15]
 932 001e FB79     		ldrb	r3, [r7, #7]
 933 0020 42EA0303 		orr	r3, r2, r3
 934 0024 FB73     		strb	r3, [r7, #15]
 486:.\Generated_Source\PSoC5/ADC_DelSig_V.c ****     ADC_DelSig_V_DEC_COHER_REG = tmpReg;
 935              		.loc 1 486 0
ARM GAS  C:\Users\hoangp\AppData\Local\Temp\cc4n80oh.s 			page 26


 936 0026 44F61463 		movw	r3, #:lower16:1073761812
 937 002a C4F20003 		movt	r3, #:upper16:1073761812
 938 002e FA7B     		ldrb	r2, [r7, #15]
 939 0030 1A70     		strb	r2, [r3, #0]
 487:.\Generated_Source\PSoC5/ADC_DelSig_V.c **** }
 940              		.loc 1 487 0
 941 0032 07F11407 		add	r7, r7, #20
 942 0036 BD46     		mov	sp, r7
 943 0038 80BC     		pop	{r7}
 944 003a 7047     		bx	lr
 945              		.cfi_endproc
 946              	.LFE8:
 947              		.size	ADC_DelSig_V_SetCoherency, .-ADC_DelSig_V_SetCoherency
 948              		.global	__aeabi_ui2f
 949              		.global	__aeabi_fdiv
 950              		.global	__aeabi_fmul
 951              		.global	__aeabi_f2d
 952              		.global	__aeabi_dcmpgt
 953              		.global	__aeabi_f2uiz
 954              		.section	.text.ADC_DelSig_V_SetGCOR,"ax",%progbits
 955              		.align	2
 956              		.global	ADC_DelSig_V_SetGCOR
 957              		.thumb
 958              		.thumb_func
 959              		.type	ADC_DelSig_V_SetGCOR, %function
 960              	ADC_DelSig_V_SetGCOR:
 961              	.LFB9:
 488:.\Generated_Source\PSoC5/ADC_DelSig_V.c **** 
 489:.\Generated_Source\PSoC5/ADC_DelSig_V.c **** 
 490:.\Generated_Source\PSoC5/ADC_DelSig_V.c **** /*******************************************************************************
 491:.\Generated_Source\PSoC5/ADC_DelSig_V.c **** * Function Name: ADC_DelSig_V_SetGCOR
 492:.\Generated_Source\PSoC5/ADC_DelSig_V.c **** ********************************************************************************
 493:.\Generated_Source\PSoC5/ADC_DelSig_V.c **** *
 494:.\Generated_Source\PSoC5/ADC_DelSig_V.c **** * Summary:
 495:.\Generated_Source\PSoC5/ADC_DelSig_V.c **** *  Calculates a new GCOR value and writes it into the GCOR register.
 496:.\Generated_Source\PSoC5/ADC_DelSig_V.c **** *
 497:.\Generated_Source\PSoC5/ADC_DelSig_V.c **** * Parameters:  
 498:.\Generated_Source\PSoC5/ADC_DelSig_V.c **** *  gainAdjust:  floating point value to set GCOR registers.
 499:.\Generated_Source\PSoC5/ADC_DelSig_V.c **** *
 500:.\Generated_Source\PSoC5/ADC_DelSig_V.c **** * Return: 
 501:.\Generated_Source\PSoC5/ADC_DelSig_V.c **** *  uint8:  0-if GCOR value is within the expected range.
 502:.\Generated_Source\PSoC5/ADC_DelSig_V.c ****            1- if GCOR is outside the expected range.
 503:.\Generated_Source\PSoC5/ADC_DelSig_V.c **** *
 504:.\Generated_Source\PSoC5/ADC_DelSig_V.c **** * Side Effects:  The GVAL register is set to the amount of valid bits in the
 505:.\Generated_Source\PSoC5/ADC_DelSig_V.c **** *                GCOR  register minus one. If GVAL is 15 (0x0F), all 16 bits
 506:.\Generated_Source\PSoC5/ADC_DelSig_V.c **** *                of the GCOR registers will be valid. If for example GVAL is 
 507:.\Generated_Source\PSoC5/ADC_DelSig_V.c **** *                11 (0x0B) only 12 bits will be valid. The least 4 bits will
 508:.\Generated_Source\PSoC5/ADC_DelSig_V.c **** *                be lost when the GCOR value is shifted 4 places to the right.
 509:.\Generated_Source\PSoC5/ADC_DelSig_V.c **** *
 510:.\Generated_Source\PSoC5/ADC_DelSig_V.c **** ******************************************************************************/
 511:.\Generated_Source\PSoC5/ADC_DelSig_V.c **** uint8 ADC_DelSig_V_SetGCOR(float gainAdjust) 
 512:.\Generated_Source\PSoC5/ADC_DelSig_V.c **** {
 962              		.loc 1 512 0
 963              		.cfi_startproc
 964              		@ args = 0, pretend = 0, frame = 16
 965              		@ frame_needed = 1, uses_anonymous_args = 0
 966 0000 90B5     		push	{r4, r7, lr}
ARM GAS  C:\Users\hoangp\AppData\Local\Temp\cc4n80oh.s 			page 27


 967              	.LCFI20:
 968              		.cfi_def_cfa_offset 12
 969 0002 85B0     		sub	sp, sp, #20
 970              	.LCFI21:
 971              		.cfi_def_cfa_offset 32
 972 0004 00AF     		add	r7, sp, #0
 973              		.cfi_offset 14, -4
 974              		.cfi_offset 7, -8
 975              		.cfi_offset 4, -12
 976              	.LCFI22:
 977              		.cfi_def_cfa_register 7
 978 0006 7860     		str	r0, [r7, #4]	@ float
 513:.\Generated_Source\PSoC5/ADC_DelSig_V.c ****     uint16 tmpReg;
 514:.\Generated_Source\PSoC5/ADC_DelSig_V.c ****     uint8 status;
 515:.\Generated_Source\PSoC5/ADC_DelSig_V.c ****     float tmpValue;
 516:.\Generated_Source\PSoC5/ADC_DelSig_V.c ****     
 517:.\Generated_Source\PSoC5/ADC_DelSig_V.c ****     tmpReg = ADC_DelSig_V_DEC_GCORH_REG;
 979              		.loc 1 517 0
 980 0008 44F60D63 		movw	r3, #:lower16:1073761805
 981 000c C4F20003 		movt	r3, #:upper16:1073761805
 982 0010 1B78     		ldrb	r3, [r3, #0]
 983 0012 DBB2     		uxtb	r3, r3
 984 0014 3B81     		strh	r3, [r7, #8]	@ movhi
 518:.\Generated_Source\PSoC5/ADC_DelSig_V.c ****     tmpReg = (tmpReg << 8) | ADC_DelSig_V_DEC_GCOR_REG;
 985              		.loc 1 518 0
 986 0016 3B89     		ldrh	r3, [r7, #8]
 987 0018 4FEA0323 		lsl	r3, r3, #8
 988 001c 9AB2     		uxth	r2, r3
 989 001e 44F60C63 		movw	r3, #:lower16:1073761804
 990 0022 C4F20003 		movt	r3, #:upper16:1073761804
 991 0026 1B78     		ldrb	r3, [r3, #0]
 992 0028 DBB2     		uxtb	r3, r3
 993 002a 42EA0303 		orr	r3, r2, r3
 994 002e 9BB2     		uxth	r3, r3
 995 0030 3B81     		strh	r3, [r7, #8]	@ movhi
 519:.\Generated_Source\PSoC5/ADC_DelSig_V.c ****     tmpValue = ((float)tmpReg / ADC_DelSig_V_IDEAL_GAIN_CONST);
 996              		.loc 1 519 0
 997 0032 3B89     		ldrh	r3, [r7, #8]
 998 0034 1846     		mov	r0, r3
 999 0036 FFF7FEFF 		bl	__aeabi_ui2f
 1000 003a 0346     		mov	r3, r0
 1001 003c 1846     		mov	r0, r3
 1002 003e 2849     		ldr	r1, .L29+8	@ float
 1003 0040 FFF7FEFF 		bl	__aeabi_fdiv
 1004 0044 0346     		mov	r3, r0
 1005 0046 FB60     		str	r3, [r7, #12]	@ float
 520:.\Generated_Source\PSoC5/ADC_DelSig_V.c ****     tmpValue = tmpValue * gainAdjust;
 1006              		.loc 1 520 0
 1007 0048 F868     		ldr	r0, [r7, #12]	@ float
 1008 004a 7968     		ldr	r1, [r7, #4]	@ float
 1009 004c FFF7FEFF 		bl	__aeabi_fmul
 1010 0050 0346     		mov	r3, r0
 1011 0052 FB60     		str	r3, [r7, #12]	@ float
 521:.\Generated_Source\PSoC5/ADC_DelSig_V.c ****     
 522:.\Generated_Source\PSoC5/ADC_DelSig_V.c ****     if (tmpValue > 1.9999)
 1012              		.loc 1 522 0
 1013 0054 F868     		ldr	r0, [r7, #12]	@ float
ARM GAS  C:\Users\hoangp\AppData\Local\Temp\cc4n80oh.s 			page 28


 1014 0056 FFF7FEFF 		bl	__aeabi_f2d
 1015 005a 0246     		mov	r2, r0
 1016 005c 0B46     		mov	r3, r1
 1017 005e 4FF00001 		mov	r1, #0
 1018 0062 0C46     		mov	r4, r1
 1019 0064 1046     		mov	r0, r2
 1020 0066 1946     		mov	r1, r3
 1021 0068 1BA3     		adr	r3, .L29
 1022 006a D3E90023 		ldrd	r2, [r3]
 1023 006e FFF7FEFF 		bl	__aeabi_dcmpgt
 1024 0072 0346     		mov	r3, r0
 1025 0074 002B     		cmp	r3, #0
 1026 0076 02D0     		beq	.L24
 1027              	.L25:
 1028 0078 4FF00103 		mov	r3, #1
 1029 007c 1C46     		mov	r4, r3
 1030              	.L24:
 1031 007e E3B2     		uxtb	r3, r4
 1032 0080 002B     		cmp	r3, #0
 1033 0082 03D0     		beq	.L26
 523:.\Generated_Source\PSoC5/ADC_DelSig_V.c ****     {
 524:.\Generated_Source\PSoC5/ADC_DelSig_V.c ****         status = 1;
 1034              		.loc 1 524 0
 1035 0084 4FF00103 		mov	r3, #1
 1036 0088 FB72     		strb	r3, [r7, #11]
 1037 008a 1DE0     		b	.L27
 1038              	.L26:
 525:.\Generated_Source\PSoC5/ADC_DelSig_V.c ****     }
 526:.\Generated_Source\PSoC5/ADC_DelSig_V.c ****     else
 527:.\Generated_Source\PSoC5/ADC_DelSig_V.c ****     {
 528:.\Generated_Source\PSoC5/ADC_DelSig_V.c ****         tmpReg = (uint16)(tmpValue * ADC_DelSig_V_IDEAL_GAIN_CONST);
 1039              		.loc 1 528 0
 1040 008c F868     		ldr	r0, [r7, #12]	@ float
 1041 008e 1449     		ldr	r1, .L29+8	@ float
 1042 0090 FFF7FEFF 		bl	__aeabi_fmul
 1043 0094 0346     		mov	r3, r0
 1044 0096 1846     		mov	r0, r3
 1045 0098 FFF7FEFF 		bl	__aeabi_f2uiz
 1046 009c 0346     		mov	r3, r0
 1047 009e 3B81     		strh	r3, [r7, #8]	@ movhi
 529:.\Generated_Source\PSoC5/ADC_DelSig_V.c ****         ADC_DelSig_V_DEC_GCOR_REG = (uint8)tmpReg;
 1048              		.loc 1 529 0
 1049 00a0 44F60C63 		movw	r3, #:lower16:1073761804
 1050 00a4 C4F20003 		movt	r3, #:upper16:1073761804
 1051 00a8 3A89     		ldrh	r2, [r7, #8]	@ movhi
 1052 00aa D2B2     		uxtb	r2, r2
 1053 00ac 1A70     		strb	r2, [r3, #0]
 530:.\Generated_Source\PSoC5/ADC_DelSig_V.c ****         ADC_DelSig_V_DEC_GCORH_REG = (uint8) (tmpReg >> 8);
 1054              		.loc 1 530 0
 1055 00ae 44F60D63 		movw	r3, #:lower16:1073761805
 1056 00b2 C4F20003 		movt	r3, #:upper16:1073761805
 1057 00b6 3A89     		ldrh	r2, [r7, #8]
 1058 00b8 4FEA1222 		lsr	r2, r2, #8
 1059 00bc 92B2     		uxth	r2, r2
 1060 00be D2B2     		uxtb	r2, r2
 1061 00c0 1A70     		strb	r2, [r3, #0]
 531:.\Generated_Source\PSoC5/ADC_DelSig_V.c ****         status = 0;
ARM GAS  C:\Users\hoangp\AppData\Local\Temp\cc4n80oh.s 			page 29


 1062              		.loc 1 531 0
 1063 00c2 4FF00003 		mov	r3, #0
 1064 00c6 FB72     		strb	r3, [r7, #11]
 1065              	.L27:
 532:.\Generated_Source\PSoC5/ADC_DelSig_V.c ****     }
 533:.\Generated_Source\PSoC5/ADC_DelSig_V.c ****     
 534:.\Generated_Source\PSoC5/ADC_DelSig_V.c ****     return status;
 1066              		.loc 1 534 0
 1067 00c8 FB7A     		ldrb	r3, [r7, #11]	@ zero_extendqisi2
 535:.\Generated_Source\PSoC5/ADC_DelSig_V.c **** }
 1068              		.loc 1 535 0
 1069 00ca 1846     		mov	r0, r3
 1070 00cc 07F11407 		add	r7, r7, #20
 1071 00d0 BD46     		mov	sp, r7
 1072 00d2 90BD     		pop	{r4, r7, pc}
 1073              	.L30:
 1074 00d4 AFF30080 		.align	3
 1075              	.L29:
 1076 00d8 8F537424 		.word	611603343
 1077 00dc 97FFFF3F 		.word	1073741719
 1078 00e0 00000047 		.word	1191182336
 1079              		.cfi_endproc
 1080              	.LFE9:
 1081              		.size	ADC_DelSig_V_SetGCOR, .-ADC_DelSig_V_SetGCOR
 1082 00e4 AFF30080 		.section	.text.ADC_DelSig_V_ReadGCOR,"ax",%progbits
 1083              		.align	2
 1084              		.global	ADC_DelSig_V_ReadGCOR
 1085              		.thumb
 1086              		.thumb_func
 1087              		.type	ADC_DelSig_V_ReadGCOR, %function
 1088              	ADC_DelSig_V_ReadGCOR:
 1089              	.LFB10:
 536:.\Generated_Source\PSoC5/ADC_DelSig_V.c **** 
 537:.\Generated_Source\PSoC5/ADC_DelSig_V.c **** 
 538:.\Generated_Source\PSoC5/ADC_DelSig_V.c **** /******************************************************************************
 539:.\Generated_Source\PSoC5/ADC_DelSig_V.c **** * Function Name: ADC_DelSig_V_ReadGCOR
 540:.\Generated_Source\PSoC5/ADC_DelSig_V.c **** *******************************************************************************
 541:.\Generated_Source\PSoC5/ADC_DelSig_V.c **** *
 542:.\Generated_Source\PSoC5/ADC_DelSig_V.c **** * Summary:
 543:.\Generated_Source\PSoC5/ADC_DelSig_V.c **** *  This API returns the current GCOR register value, normalized based on the 
 544:.\Generated_Source\PSoC5/ADC_DelSig_V.c **** *  GVAL register settings.
 545:.\Generated_Source\PSoC5/ADC_DelSig_V.c **** *
 546:.\Generated_Source\PSoC5/ADC_DelSig_V.c **** * Parameters:  
 547:.\Generated_Source\PSoC5/ADC_DelSig_V.c **** *  void
 548:.\Generated_Source\PSoC5/ADC_DelSig_V.c **** *
 549:.\Generated_Source\PSoC5/ADC_DelSig_V.c **** * Return: 
 550:.\Generated_Source\PSoC5/ADC_DelSig_V.c **** *  uint16:  Normalized GCOR value.
 551:.\Generated_Source\PSoC5/ADC_DelSig_V.c **** *
 552:.\Generated_Source\PSoC5/ADC_DelSig_V.c **** * Side Effects:  If the GVAL register is set to a value greater than 0x0F, then
 553:.\Generated_Source\PSoC5/ADC_DelSig_V.c ****                  it gives unexpected value.
 554:.\Generated_Source\PSoC5/ADC_DelSig_V.c **** *
 555:.\Generated_Source\PSoC5/ADC_DelSig_V.c **** *******************************************************************************/
 556:.\Generated_Source\PSoC5/ADC_DelSig_V.c **** uint16 ADC_DelSig_V_ReadGCOR(void) 
 557:.\Generated_Source\PSoC5/ADC_DelSig_V.c **** {
 1090              		.loc 1 557 0
 1091              		.cfi_startproc
 1092              		@ args = 0, pretend = 0, frame = 8
ARM GAS  C:\Users\hoangp\AppData\Local\Temp\cc4n80oh.s 			page 30


 1093              		@ frame_needed = 1, uses_anonymous_args = 0
 1094              		@ link register save eliminated.
 1095 0000 80B4     		push	{r7}
 1096              	.LCFI23:
 1097              		.cfi_def_cfa_offset 4
 1098 0002 83B0     		sub	sp, sp, #12
 1099              	.LCFI24:
 1100              		.cfi_def_cfa_offset 16
 1101 0004 00AF     		add	r7, sp, #0
 1102              		.cfi_offset 7, -4
 1103              	.LCFI25:
 1104              		.cfi_def_cfa_register 7
 558:.\Generated_Source\PSoC5/ADC_DelSig_V.c ****     uint8 gValue;
 559:.\Generated_Source\PSoC5/ADC_DelSig_V.c ****     uint16 gcorValue, gcorRegValue;
 560:.\Generated_Source\PSoC5/ADC_DelSig_V.c ****     
 561:.\Generated_Source\PSoC5/ADC_DelSig_V.c ****     gValue = ADC_DelSig_V_DEC_GVAL_REG;
 1105              		.loc 1 561 0
 1106 0006 44F60E63 		movw	r3, #:lower16:1073761806
 1107 000a C4F20003 		movt	r3, #:upper16:1073761806
 1108 000e 1B78     		ldrb	r3, [r3, #0]
 1109 0010 FB70     		strb	r3, [r7, #3]
 562:.\Generated_Source\PSoC5/ADC_DelSig_V.c ****     gcorRegValue = CY_GET_REG16(ADC_DelSig_V_DEC_GCOR_PTR);
 1110              		.loc 1 562 0
 1111 0012 44F60C63 		movw	r3, #:lower16:1073761804
 1112 0016 C4F20003 		movt	r3, #:upper16:1073761804
 1113 001a 1B88     		ldrh	r3, [r3, #0]	@ movhi
 1114 001c FB80     		strh	r3, [r7, #6]	@ movhi
 563:.\Generated_Source\PSoC5/ADC_DelSig_V.c ****     
 564:.\Generated_Source\PSoC5/ADC_DelSig_V.c ****     switch (gValue)
 1115              		.loc 1 564 0
 1116 001e FB78     		ldrb	r3, [r7, #3]	@ zero_extendqisi2
 1117 0020 A3F10903 		sub	r3, r3, #9
 1118 0024 052B     		cmp	r3, #5
 1119 0026 3FD8     		bhi	.L32
 1120 0028 01A2     		adr	r2, .L39
 1121 002a 52F823F0 		ldr	pc, [r2, r3, lsl #2]
 1122 002e 00BF     		.align	2
 1123              	.L39:
 1124 0030 49000000 		.word	.L33+1
 1125 0034 59000000 		.word	.L34+1
 1126 0038 69000000 		.word	.L35+1
 1127 003c 79000000 		.word	.L36+1
 1128 0040 89000000 		.word	.L37+1
 1129 0044 99000000 		.word	.L38+1
 1130              	.L33:
 565:.\Generated_Source\PSoC5/ADC_DelSig_V.c ****     {
 566:.\Generated_Source\PSoC5/ADC_DelSig_V.c ****         case ADC_DelSig_V_GVAL_RESOLUTIN_8:
 567:.\Generated_Source\PSoC5/ADC_DelSig_V.c ****             gcorValue = gcorRegValue << (ADC_DelSig_V_MAX_GVAL - gValue);
 1131              		.loc 1 567 0
 1132 0048 FA88     		ldrh	r2, [r7, #6]
 1133 004a FB78     		ldrb	r3, [r7, #3]	@ zero_extendqisi2
 1134 004c C3F10F03 		rsb	r3, r3, #15
 1135 0050 02FA03F3 		lsl	r3, r2, r3
 1136 0054 BB80     		strh	r3, [r7, #4]	@ movhi
 568:.\Generated_Source\PSoC5/ADC_DelSig_V.c ****             break;
 1137              		.loc 1 568 0
 1138 0056 29E0     		b	.L40
ARM GAS  C:\Users\hoangp\AppData\Local\Temp\cc4n80oh.s 			page 31


 1139              	.L34:
 569:.\Generated_Source\PSoC5/ADC_DelSig_V.c ****         
 570:.\Generated_Source\PSoC5/ADC_DelSig_V.c ****         case ADC_DelSig_V_GVAL_RESOLUTIN_9:
 571:.\Generated_Source\PSoC5/ADC_DelSig_V.c ****             gcorValue = gcorRegValue << (ADC_DelSig_V_MAX_GVAL - gValue);
 1140              		.loc 1 571 0
 1141 0058 FA88     		ldrh	r2, [r7, #6]
 1142 005a FB78     		ldrb	r3, [r7, #3]	@ zero_extendqisi2
 1143 005c C3F10F03 		rsb	r3, r3, #15
 1144 0060 02FA03F3 		lsl	r3, r2, r3
 1145 0064 BB80     		strh	r3, [r7, #4]	@ movhi
 572:.\Generated_Source\PSoC5/ADC_DelSig_V.c ****             break;
 1146              		.loc 1 572 0
 1147 0066 21E0     		b	.L40
 1148              	.L35:
 573:.\Generated_Source\PSoC5/ADC_DelSig_V.c ****             
 574:.\Generated_Source\PSoC5/ADC_DelSig_V.c ****         case ADC_DelSig_V_GVAL_RESOLUTIN_10:
 575:.\Generated_Source\PSoC5/ADC_DelSig_V.c ****             gcorValue = gcorRegValue << (ADC_DelSig_V_MAX_GVAL - gValue);
 1149              		.loc 1 575 0
 1150 0068 FA88     		ldrh	r2, [r7, #6]
 1151 006a FB78     		ldrb	r3, [r7, #3]	@ zero_extendqisi2
 1152 006c C3F10F03 		rsb	r3, r3, #15
 1153 0070 02FA03F3 		lsl	r3, r2, r3
 1154 0074 BB80     		strh	r3, [r7, #4]	@ movhi
 576:.\Generated_Source\PSoC5/ADC_DelSig_V.c ****             break;
 1155              		.loc 1 576 0
 1156 0076 19E0     		b	.L40
 1157              	.L36:
 577:.\Generated_Source\PSoC5/ADC_DelSig_V.c ****             
 578:.\Generated_Source\PSoC5/ADC_DelSig_V.c ****         case ADC_DelSig_V_GVAL_RESOLUTIN_11:
 579:.\Generated_Source\PSoC5/ADC_DelSig_V.c ****             gcorValue = gcorRegValue << (ADC_DelSig_V_MAX_GVAL - gValue);
 1158              		.loc 1 579 0
 1159 0078 FA88     		ldrh	r2, [r7, #6]
 1160 007a FB78     		ldrb	r3, [r7, #3]	@ zero_extendqisi2
 1161 007c C3F10F03 		rsb	r3, r3, #15
 1162 0080 02FA03F3 		lsl	r3, r2, r3
 1163 0084 BB80     		strh	r3, [r7, #4]	@ movhi
 580:.\Generated_Source\PSoC5/ADC_DelSig_V.c ****             break;
 1164              		.loc 1 580 0
 1165 0086 11E0     		b	.L40
 1166              	.L37:
 581:.\Generated_Source\PSoC5/ADC_DelSig_V.c ****             
 582:.\Generated_Source\PSoC5/ADC_DelSig_V.c ****         case ADC_DelSig_V_GVAL_RESOLUTIN_12:
 583:.\Generated_Source\PSoC5/ADC_DelSig_V.c ****             gcorValue = gcorRegValue << (ADC_DelSig_V_MAX_GVAL - gValue);
 1167              		.loc 1 583 0
 1168 0088 FA88     		ldrh	r2, [r7, #6]
 1169 008a FB78     		ldrb	r3, [r7, #3]	@ zero_extendqisi2
 1170 008c C3F10F03 		rsb	r3, r3, #15
 1171 0090 02FA03F3 		lsl	r3, r2, r3
 1172 0094 BB80     		strh	r3, [r7, #4]	@ movhi
 584:.\Generated_Source\PSoC5/ADC_DelSig_V.c ****             break;
 1173              		.loc 1 584 0
 1174 0096 09E0     		b	.L40
 1175              	.L38:
 585:.\Generated_Source\PSoC5/ADC_DelSig_V.c ****             
 586:.\Generated_Source\PSoC5/ADC_DelSig_V.c ****         case ADC_DelSig_V_GVAL_RESOLUTIN_13:
 587:.\Generated_Source\PSoC5/ADC_DelSig_V.c ****             gcorValue = gcorRegValue << (ADC_DelSig_V_MAX_GVAL - gValue);
 1176              		.loc 1 587 0
ARM GAS  C:\Users\hoangp\AppData\Local\Temp\cc4n80oh.s 			page 32


 1177 0098 FA88     		ldrh	r2, [r7, #6]
 1178 009a FB78     		ldrb	r3, [r7, #3]	@ zero_extendqisi2
 1179 009c C3F10F03 		rsb	r3, r3, #15
 1180 00a0 02FA03F3 		lsl	r3, r2, r3
 1181 00a4 BB80     		strh	r3, [r7, #4]	@ movhi
 588:.\Generated_Source\PSoC5/ADC_DelSig_V.c ****             break;
 1182              		.loc 1 588 0
 1183 00a6 01E0     		b	.L40
 1184              	.L32:
 589:.\Generated_Source\PSoC5/ADC_DelSig_V.c ****             
 590:.\Generated_Source\PSoC5/ADC_DelSig_V.c ****         default:
 591:.\Generated_Source\PSoC5/ADC_DelSig_V.c ****             gcorValue = gcorRegValue;
 1185              		.loc 1 591 0
 1186 00a8 FB88     		ldrh	r3, [r7, #6]	@ movhi
 1187 00aa BB80     		strh	r3, [r7, #4]	@ movhi
 1188              	.L40:
 592:.\Generated_Source\PSoC5/ADC_DelSig_V.c ****             break;
 593:.\Generated_Source\PSoC5/ADC_DelSig_V.c ****     }
 594:.\Generated_Source\PSoC5/ADC_DelSig_V.c ****         
 595:.\Generated_Source\PSoC5/ADC_DelSig_V.c ****     return gcorValue;
 1189              		.loc 1 595 0
 1190 00ac BB88     		ldrh	r3, [r7, #4]
 596:.\Generated_Source\PSoC5/ADC_DelSig_V.c **** }
 1191              		.loc 1 596 0
 1192 00ae 1846     		mov	r0, r3
 1193 00b0 07F10C07 		add	r7, r7, #12
 1194 00b4 BD46     		mov	sp, r7
 1195 00b6 80BC     		pop	{r7}
 1196 00b8 7047     		bx	lr
 1197              		.cfi_endproc
 1198              	.LFE10:
 1199              		.size	ADC_DelSig_V_ReadGCOR, .-ADC_DelSig_V_ReadGCOR
 1200 00ba 00BF     		.section	.text.ADC_DelSig_V_SetBufferChop,"ax",%progbits
 1201              		.align	2
 1202              		.global	ADC_DelSig_V_SetBufferChop
 1203              		.thumb
 1204              		.thumb_func
 1205              		.type	ADC_DelSig_V_SetBufferChop, %function
 1206              	ADC_DelSig_V_SetBufferChop:
 1207              	.LFB11:
 597:.\Generated_Source\PSoC5/ADC_DelSig_V.c **** 
 598:.\Generated_Source\PSoC5/ADC_DelSig_V.c **** 
 599:.\Generated_Source\PSoC5/ADC_DelSig_V.c **** /*******************************************************************************
 600:.\Generated_Source\PSoC5/ADC_DelSig_V.c **** * Function Name: ADC_DelSig_V_SetBufferChop
 601:.\Generated_Source\PSoC5/ADC_DelSig_V.c **** ********************************************************************************
 602:.\Generated_Source\PSoC5/ADC_DelSig_V.c **** *
 603:.\Generated_Source\PSoC5/ADC_DelSig_V.c **** * Summary:
 604:.\Generated_Source\PSoC5/ADC_DelSig_V.c **** *  Sets the Delta Sigma Modulator Buffer chopper mode.
 605:.\Generated_Source\PSoC5/ADC_DelSig_V.c **** *
 606:.\Generated_Source\PSoC5/ADC_DelSig_V.c **** * Parameters:  
 607:.\Generated_Source\PSoC5/ADC_DelSig_V.c **** *  chopen:  If non-zero set the chopper mode.
 608:.\Generated_Source\PSoC5/ADC_DelSig_V.c **** *  chopFreq:  Chop frequency value.
 609:.\Generated_Source\PSoC5/ADC_DelSig_V.c **** *
 610:.\Generated_Source\PSoC5/ADC_DelSig_V.c **** * Return: 
 611:.\Generated_Source\PSoC5/ADC_DelSig_V.c **** *  void
 612:.\Generated_Source\PSoC5/ADC_DelSig_V.c **** *
 613:.\Generated_Source\PSoC5/ADC_DelSig_V.c **** *******************************************************************************/
ARM GAS  C:\Users\hoangp\AppData\Local\Temp\cc4n80oh.s 			page 33


 614:.\Generated_Source\PSoC5/ADC_DelSig_V.c **** void ADC_DelSig_V_SetBufferChop(uint8 chopen, uint8 chopFreq) 
 615:.\Generated_Source\PSoC5/ADC_DelSig_V.c **** {
 1208              		.loc 1 615 0
 1209              		.cfi_startproc
 1210              		@ args = 0, pretend = 0, frame = 8
 1211              		@ frame_needed = 1, uses_anonymous_args = 0
 1212              		@ link register save eliminated.
 1213 0000 80B4     		push	{r7}
 1214              	.LCFI26:
 1215              		.cfi_def_cfa_offset 4
 1216 0002 83B0     		sub	sp, sp, #12
 1217              	.LCFI27:
 1218              		.cfi_def_cfa_offset 16
 1219 0004 00AF     		add	r7, sp, #0
 1220              		.cfi_offset 7, -4
 1221              	.LCFI28:
 1222              		.cfi_def_cfa_register 7
 1223 0006 0246     		mov	r2, r0
 1224 0008 0B46     		mov	r3, r1
 1225 000a FA71     		strb	r2, [r7, #7]
 1226 000c BB71     		strb	r3, [r7, #6]
 616:.\Generated_Source\PSoC5/ADC_DelSig_V.c ****     if(chopen != 0u)
 1227              		.loc 1 616 0
 1228 000e FB79     		ldrb	r3, [r7, #7]	@ zero_extendqisi2
 1229 0010 002B     		cmp	r3, #0
 1230 0012 0BD0     		beq	.L43
 617:.\Generated_Source\PSoC5/ADC_DelSig_V.c ****     {
 618:.\Generated_Source\PSoC5/ADC_DelSig_V.c ****         ADC_DelSig_V_DSM_BUF2_REG = (ADC_DelSig_V_DSM_BUF_FCHOP_MASK & chopFreq) | \
 1231              		.loc 1 618 0
 1232 0014 45F69C03 		movw	r3, #:lower16:1073764508
 1233 0018 C4F20003 		movt	r3, #:upper16:1073764508
 1234 001c BA79     		ldrb	r2, [r7, #6]	@ zero_extendqisi2
 1235 001e 02F00702 		and	r2, r2, #7
 1236 0022 42F00802 		orr	r2, r2, #8
 1237 0026 D2B2     		uxtb	r2, r2
 1238 0028 1A70     		strb	r2, [r3, #0]
 1239 002a 06E0     		b	.L45
 1240              	.L43:
 619:.\Generated_Source\PSoC5/ADC_DelSig_V.c ****                                          ADC_DelSig_V_DSM_BUF_CHOP_EN;
 620:.\Generated_Source\PSoC5/ADC_DelSig_V.c ****     }
 621:.\Generated_Source\PSoC5/ADC_DelSig_V.c ****     else
 622:.\Generated_Source\PSoC5/ADC_DelSig_V.c ****     {
 623:.\Generated_Source\PSoC5/ADC_DelSig_V.c ****         ADC_DelSig_V_DSM_BUF2_REG = 0x00u;
 1241              		.loc 1 623 0
 1242 002c 45F69C03 		movw	r3, #:lower16:1073764508
 1243 0030 C4F20003 		movt	r3, #:upper16:1073764508
 1244 0034 4FF00002 		mov	r2, #0
 1245 0038 1A70     		strb	r2, [r3, #0]
 1246              	.L45:
 624:.\Generated_Source\PSoC5/ADC_DelSig_V.c ****     }
 625:.\Generated_Source\PSoC5/ADC_DelSig_V.c **** }
 1247              		.loc 1 625 0
 1248 003a 07F10C07 		add	r7, r7, #12
 1249 003e BD46     		mov	sp, r7
 1250 0040 80BC     		pop	{r7}
 1251 0042 7047     		bx	lr
 1252              		.cfi_endproc
ARM GAS  C:\Users\hoangp\AppData\Local\Temp\cc4n80oh.s 			page 34


 1253              	.LFE11:
 1254              		.size	ADC_DelSig_V_SetBufferChop, .-ADC_DelSig_V_SetBufferChop
 1255              		.section	.text.ADC_DelSig_V_StartConvert,"ax",%progbits
 1256              		.align	2
 1257              		.global	ADC_DelSig_V_StartConvert
 1258              		.thumb
 1259              		.thumb_func
 1260              		.type	ADC_DelSig_V_StartConvert, %function
 1261              	ADC_DelSig_V_StartConvert:
 1262              	.LFB12:
 626:.\Generated_Source\PSoC5/ADC_DelSig_V.c **** 
 627:.\Generated_Source\PSoC5/ADC_DelSig_V.c **** 
 628:.\Generated_Source\PSoC5/ADC_DelSig_V.c **** /*******************************************************************************
 629:.\Generated_Source\PSoC5/ADC_DelSig_V.c **** * Function Name: ADC_DelSig_V_StartConvert
 630:.\Generated_Source\PSoC5/ADC_DelSig_V.c **** ********************************************************************************
 631:.\Generated_Source\PSoC5/ADC_DelSig_V.c **** *
 632:.\Generated_Source\PSoC5/ADC_DelSig_V.c **** * Summary:
 633:.\Generated_Source\PSoC5/ADC_DelSig_V.c **** *  Starts ADC conversion using the given mode.
 634:.\Generated_Source\PSoC5/ADC_DelSig_V.c **** *
 635:.\Generated_Source\PSoC5/ADC_DelSig_V.c **** * Parameters:  
 636:.\Generated_Source\PSoC5/ADC_DelSig_V.c **** *  void
 637:.\Generated_Source\PSoC5/ADC_DelSig_V.c **** *
 638:.\Generated_Source\PSoC5/ADC_DelSig_V.c **** * Return: 
 639:.\Generated_Source\PSoC5/ADC_DelSig_V.c **** *  void 
 640:.\Generated_Source\PSoC5/ADC_DelSig_V.c **** *
 641:.\Generated_Source\PSoC5/ADC_DelSig_V.c **** *******************************************************************************/
 642:.\Generated_Source\PSoC5/ADC_DelSig_V.c **** void ADC_DelSig_V_StartConvert(void) 
 643:.\Generated_Source\PSoC5/ADC_DelSig_V.c **** {
 1263              		.loc 1 643 0
 1264              		.cfi_startproc
 1265              		@ args = 0, pretend = 0, frame = 0
 1266              		@ frame_needed = 1, uses_anonymous_args = 0
 1267              		@ link register save eliminated.
 1268 0000 80B4     		push	{r7}
 1269              	.LCFI29:
 1270              		.cfi_def_cfa_offset 4
 1271 0002 00AF     		add	r7, sp, #0
 1272              		.cfi_offset 7, -4
 1273              	.LCFI30:
 1274              		.cfi_def_cfa_register 7
 644:.\Generated_Source\PSoC5/ADC_DelSig_V.c ****     /* Start the conversion */
 645:.\Generated_Source\PSoC5/ADC_DelSig_V.c ****     ADC_DelSig_V_DEC_CR_REG |= ADC_DelSig_V_DEC_START_CONV;  
 1275              		.loc 1 645 0
 1276 0004 44F60063 		movw	r3, #:lower16:1073761792
 1277 0008 C4F20003 		movt	r3, #:upper16:1073761792
 1278 000c 44F60062 		movw	r2, #:lower16:1073761792
 1279 0010 C4F20002 		movt	r2, #:upper16:1073761792
 1280 0014 1278     		ldrb	r2, [r2, #0]
 1281 0016 D2B2     		uxtb	r2, r2
 1282 0018 42F00102 		orr	r2, r2, #1
 1283 001c D2B2     		uxtb	r2, r2
 1284 001e 1A70     		strb	r2, [r3, #0]
 646:.\Generated_Source\PSoC5/ADC_DelSig_V.c **** }
 1285              		.loc 1 646 0
 1286 0020 BD46     		mov	sp, r7
 1287 0022 80BC     		pop	{r7}
 1288 0024 7047     		bx	lr
ARM GAS  C:\Users\hoangp\AppData\Local\Temp\cc4n80oh.s 			page 35


 1289              		.cfi_endproc
 1290              	.LFE12:
 1291              		.size	ADC_DelSig_V_StartConvert, .-ADC_DelSig_V_StartConvert
 1292 0026 00BF     		.section	.text.ADC_DelSig_V_StopConvert,"ax",%progbits
 1293              		.align	2
 1294              		.global	ADC_DelSig_V_StopConvert
 1295              		.thumb
 1296              		.thumb_func
 1297              		.type	ADC_DelSig_V_StopConvert, %function
 1298              	ADC_DelSig_V_StopConvert:
 1299              	.LFB13:
 647:.\Generated_Source\PSoC5/ADC_DelSig_V.c **** 
 648:.\Generated_Source\PSoC5/ADC_DelSig_V.c **** 
 649:.\Generated_Source\PSoC5/ADC_DelSig_V.c **** /*******************************************************************************
 650:.\Generated_Source\PSoC5/ADC_DelSig_V.c **** * Function Name: ADC_DelSig_V_StopConvert
 651:.\Generated_Source\PSoC5/ADC_DelSig_V.c **** ********************************************************************************
 652:.\Generated_Source\PSoC5/ADC_DelSig_V.c **** *
 653:.\Generated_Source\PSoC5/ADC_DelSig_V.c **** * Summary:
 654:.\Generated_Source\PSoC5/ADC_DelSig_V.c **** *  Starts ADC conversion using the given mode.
 655:.\Generated_Source\PSoC5/ADC_DelSig_V.c **** *
 656:.\Generated_Source\PSoC5/ADC_DelSig_V.c **** * Parameters:  
 657:.\Generated_Source\PSoC5/ADC_DelSig_V.c **** *  void
 658:.\Generated_Source\PSoC5/ADC_DelSig_V.c **** *
 659:.\Generated_Source\PSoC5/ADC_DelSig_V.c **** * Return: 
 660:.\Generated_Source\PSoC5/ADC_DelSig_V.c **** *  void
 661:.\Generated_Source\PSoC5/ADC_DelSig_V.c **** *
 662:.\Generated_Source\PSoC5/ADC_DelSig_V.c **** * Global variables:
 663:.\Generated_Source\PSoC5/ADC_DelSig_V.c **** *  ADC_DelSig_V_convDone:  Modified when conversion is complete for single
 664:.\Generated_Source\PSoC5/ADC_DelSig_V.c **** *   sample mode with resolution is above 16.
 665:.\Generated_Source\PSoC5/ADC_DelSig_V.c **** *
 666:.\Generated_Source\PSoC5/ADC_DelSig_V.c **** *******************************************************************************/
 667:.\Generated_Source\PSoC5/ADC_DelSig_V.c **** void ADC_DelSig_V_StopConvert(void) 
 668:.\Generated_Source\PSoC5/ADC_DelSig_V.c **** {
 1300              		.loc 1 668 0
 1301              		.cfi_startproc
 1302              		@ args = 0, pretend = 0, frame = 0
 1303              		@ frame_needed = 1, uses_anonymous_args = 0
 1304              		@ link register save eliminated.
 1305 0000 80B4     		push	{r7}
 1306              	.LCFI31:
 1307              		.cfi_def_cfa_offset 4
 1308 0002 00AF     		add	r7, sp, #0
 1309              		.cfi_offset 7, -4
 1310              	.LCFI32:
 1311              		.cfi_def_cfa_register 7
 669:.\Generated_Source\PSoC5/ADC_DelSig_V.c ****     /* Stop all conversions */
 670:.\Generated_Source\PSoC5/ADC_DelSig_V.c ****     ADC_DelSig_V_DEC_CR_REG &= ~ADC_DelSig_V_DEC_START_CONV; 
 1312              		.loc 1 670 0
 1313 0004 44F60063 		movw	r3, #:lower16:1073761792
 1314 0008 C4F20003 		movt	r3, #:upper16:1073761792
 1315 000c 44F60062 		movw	r2, #:lower16:1073761792
 1316 0010 C4F20002 		movt	r2, #:upper16:1073761792
 1317 0014 1278     		ldrb	r2, [r2, #0]
 1318 0016 D2B2     		uxtb	r2, r2
 1319 0018 02F0FE02 		and	r2, r2, #254
 1320 001c 1A70     		strb	r2, [r3, #0]
 671:.\Generated_Source\PSoC5/ADC_DelSig_V.c ****     
ARM GAS  C:\Users\hoangp\AppData\Local\Temp\cc4n80oh.s 			page 36


 672:.\Generated_Source\PSoC5/ADC_DelSig_V.c ****     /* Software flag for checking conversion complete or not. Will be used when
 673:.\Generated_Source\PSoC5/ADC_DelSig_V.c ****        resolution is above 16 bits and conversion mode is single sample */
 674:.\Generated_Source\PSoC5/ADC_DelSig_V.c ****     ADC_DelSig_V_convDone = 1u;
 1321              		.loc 1 674 0
 1322 001e 40F20003 		movw	r3, #:lower16:ADC_DelSig_V_convDone
 1323 0022 C0F20003 		movt	r3, #:upper16:ADC_DelSig_V_convDone
 1324 0026 4FF00102 		mov	r2, #1
 1325 002a 1A70     		strb	r2, [r3, #0]
 675:.\Generated_Source\PSoC5/ADC_DelSig_V.c **** }
 1326              		.loc 1 675 0
 1327 002c BD46     		mov	sp, r7
 1328 002e 80BC     		pop	{r7}
 1329 0030 7047     		bx	lr
 1330              		.cfi_endproc
 1331              	.LFE13:
 1332              		.size	ADC_DelSig_V_StopConvert, .-ADC_DelSig_V_StopConvert
 1333 0032 00BF     		.section	.text.ADC_DelSig_V_IsEndConversion,"ax",%progbits
 1334              		.align	2
 1335              		.global	ADC_DelSig_V_IsEndConversion
 1336              		.thumb
 1337              		.thumb_func
 1338              		.type	ADC_DelSig_V_IsEndConversion, %function
 1339              	ADC_DelSig_V_IsEndConversion:
 1340              	.LFB14:
 676:.\Generated_Source\PSoC5/ADC_DelSig_V.c **** 
 677:.\Generated_Source\PSoC5/ADC_DelSig_V.c **** 
 678:.\Generated_Source\PSoC5/ADC_DelSig_V.c **** /*******************************************************************************
 679:.\Generated_Source\PSoC5/ADC_DelSig_V.c **** * Function Name: ADC_DelSig_V_IsEndConversion
 680:.\Generated_Source\PSoC5/ADC_DelSig_V.c **** ********************************************************************************
 681:.\Generated_Source\PSoC5/ADC_DelSig_V.c **** *
 682:.\Generated_Source\PSoC5/ADC_DelSig_V.c **** * Summary:
 683:.\Generated_Source\PSoC5/ADC_DelSig_V.c **** *  Queries the ADC to see if conversion is complete
 684:.\Generated_Source\PSoC5/ADC_DelSig_V.c **** *
 685:.\Generated_Source\PSoC5/ADC_DelSig_V.c **** * Parameters:  
 686:.\Generated_Source\PSoC5/ADC_DelSig_V.c **** *  wMode:  Wait mode, 0 if return with answer immediately.
 687:.\Generated_Source\PSoC5/ADC_DelSig_V.c **** *                     1 if wait until conversion is complete, then return.
 688:.\Generated_Source\PSoC5/ADC_DelSig_V.c **** *
 689:.\Generated_Source\PSoC5/ADC_DelSig_V.c **** * Return: 
 690:.\Generated_Source\PSoC5/ADC_DelSig_V.c **** *  uint8 status:  0 =>  Conversion not complete.
 691:.\Generated_Source\PSoC5/ADC_DelSig_V.c **** *                 1 =>  Conversion complete.
 692:.\Generated_Source\PSoC5/ADC_DelSig_V.c **** *
 693:.\Generated_Source\PSoC5/ADC_DelSig_V.c **** * Global variables:
 694:.\Generated_Source\PSoC5/ADC_DelSig_V.c **** *  ADC_DelSig_V_convDone:  Used to check whether conversion is complete
 695:.\Generated_Source\PSoC5/ADC_DelSig_V.c **** *  or not for single sample mode with resolution is above 16
 696:.\Generated_Source\PSoC5/ADC_DelSig_V.c **** *
 697:.\Generated_Source\PSoC5/ADC_DelSig_V.c **** *******************************************************************************/
 698:.\Generated_Source\PSoC5/ADC_DelSig_V.c **** uint8 ADC_DelSig_V_IsEndConversion(uint8 wMode) 
 699:.\Generated_Source\PSoC5/ADC_DelSig_V.c **** {
 1341              		.loc 1 699 0
 1342              		.cfi_startproc
 1343              		@ args = 0, pretend = 0, frame = 16
 1344              		@ frame_needed = 1, uses_anonymous_args = 0
 1345              		@ link register save eliminated.
 1346 0000 80B4     		push	{r7}
 1347              	.LCFI33:
 1348              		.cfi_def_cfa_offset 4
 1349 0002 85B0     		sub	sp, sp, #20
ARM GAS  C:\Users\hoangp\AppData\Local\Temp\cc4n80oh.s 			page 37


 1350              	.LCFI34:
 1351              		.cfi_def_cfa_offset 24
 1352 0004 00AF     		add	r7, sp, #0
 1353              		.cfi_offset 7, -4
 1354              	.LCFI35:
 1355              		.cfi_def_cfa_register 7
 1356 0006 0346     		mov	r3, r0
 1357 0008 FB71     		strb	r3, [r7, #7]
 700:.\Generated_Source\PSoC5/ADC_DelSig_V.c ****     uint8 status;
 701:.\Generated_Source\PSoC5/ADC_DelSig_V.c ****         
 702:.\Generated_Source\PSoC5/ADC_DelSig_V.c ****     /* Check for stop convert if conversion mode is Single Sample with 
 703:.\Generated_Source\PSoC5/ADC_DelSig_V.c ****        resolution above 16 bit */
 704:.\Generated_Source\PSoC5/ADC_DelSig_V.c ****     if(ADC_DelSig_V_stopConversion == 1u)
 1358              		.loc 1 704 0
 1359 000a 40F20003 		movw	r3, #:lower16:ADC_DelSig_V_stopConversion
 1360 000e C0F20003 		movt	r3, #:upper16:ADC_DelSig_V_stopConversion
 1361 0012 1B78     		ldrb	r3, [r3, #0]
 1362 0014 DBB2     		uxtb	r3, r3
 1363 0016 012B     		cmp	r3, #1
 1364 0018 0CD1     		bne	.L51
 1365              	.L53:
 705:.\Generated_Source\PSoC5/ADC_DelSig_V.c ****     {
 706:.\Generated_Source\PSoC5/ADC_DelSig_V.c ****         do
 707:.\Generated_Source\PSoC5/ADC_DelSig_V.c ****         {
 708:.\Generated_Source\PSoC5/ADC_DelSig_V.c ****             status = ADC_DelSig_V_convDone;
 1366              		.loc 1 708 0
 1367 001a 40F20003 		movw	r3, #:lower16:ADC_DelSig_V_convDone
 1368 001e C0F20003 		movt	r3, #:upper16:ADC_DelSig_V_convDone
 1369 0022 1B78     		ldrb	r3, [r3, #0]
 1370 0024 FB73     		strb	r3, [r7, #15]
 709:.\Generated_Source\PSoC5/ADC_DelSig_V.c ****         } while((status != ADC_DelSig_V_DEC_CONV_DONE) && (wMode == ADC_DelSig_V_WAIT_FOR_RESULT));
 1371              		.loc 1 709 0
 1372 0026 FB7B     		ldrb	r3, [r7, #15]	@ zero_extendqisi2
 1373 0028 012B     		cmp	r3, #1
 1374 002a 12D0     		beq	.L54
 1375 002c FB79     		ldrb	r3, [r7, #7]	@ zero_extendqisi2
 1376 002e 002B     		cmp	r3, #0
 1377 0030 F3D0     		beq	.L53
 1378 0032 0EE0     		b	.L54
 1379              	.L51:
 710:.\Generated_Source\PSoC5/ADC_DelSig_V.c ****     }
 711:.\Generated_Source\PSoC5/ADC_DelSig_V.c ****     else
 712:.\Generated_Source\PSoC5/ADC_DelSig_V.c ****     {
 713:.\Generated_Source\PSoC5/ADC_DelSig_V.c ****         do 
 714:.\Generated_Source\PSoC5/ADC_DelSig_V.c ****         {
 715:.\Generated_Source\PSoC5/ADC_DelSig_V.c ****             status = ADC_DelSig_V_DEC_SR_REG & ADC_DelSig_V_DEC_CONV_DONE;
 1380              		.loc 1 715 0
 1381 0034 44F60163 		movw	r3, #:lower16:1073761793
 1382 0038 C4F20003 		movt	r3, #:upper16:1073761793
 1383 003c 1B78     		ldrb	r3, [r3, #0]
 1384 003e DBB2     		uxtb	r3, r3
 1385 0040 03F00103 		and	r3, r3, #1
 1386 0044 FB73     		strb	r3, [r7, #15]
 716:.\Generated_Source\PSoC5/ADC_DelSig_V.c ****         } while((status != ADC_DelSig_V_DEC_CONV_DONE) && (wMode == ADC_DelSig_V_WAIT_FOR_RESULT));
 1387              		.loc 1 716 0
 1388 0046 FB7B     		ldrb	r3, [r7, #15]	@ zero_extendqisi2
 1389 0048 012B     		cmp	r3, #1
ARM GAS  C:\Users\hoangp\AppData\Local\Temp\cc4n80oh.s 			page 38


 1390 004a 02D0     		beq	.L54
 1391 004c FB79     		ldrb	r3, [r7, #7]	@ zero_extendqisi2
 1392 004e 002B     		cmp	r3, #0
 1393 0050 F0D0     		beq	.L51
 1394              	.L54:
 717:.\Generated_Source\PSoC5/ADC_DelSig_V.c ****     }
 718:.\Generated_Source\PSoC5/ADC_DelSig_V.c ****     return(status);
 1395              		.loc 1 718 0
 1396 0052 FB7B     		ldrb	r3, [r7, #15]	@ zero_extendqisi2
 719:.\Generated_Source\PSoC5/ADC_DelSig_V.c **** }
 1397              		.loc 1 719 0
 1398 0054 1846     		mov	r0, r3
 1399 0056 07F11407 		add	r7, r7, #20
 1400 005a BD46     		mov	sp, r7
 1401 005c 80BC     		pop	{r7}
 1402 005e 7047     		bx	lr
 1403              		.cfi_endproc
 1404              	.LFE14:
 1405              		.size	ADC_DelSig_V_IsEndConversion, .-ADC_DelSig_V_IsEndConversion
 1406              		.section	.text.ADC_DelSig_V_GetResult8,"ax",%progbits
 1407              		.align	2
 1408              		.global	ADC_DelSig_V_GetResult8
 1409              		.thumb
 1410              		.thumb_func
 1411              		.type	ADC_DelSig_V_GetResult8, %function
 1412              	ADC_DelSig_V_GetResult8:
 1413              	.LFB15:
 720:.\Generated_Source\PSoC5/ADC_DelSig_V.c **** 
 721:.\Generated_Source\PSoC5/ADC_DelSig_V.c **** 
 722:.\Generated_Source\PSoC5/ADC_DelSig_V.c **** /*******************************************************************************
 723:.\Generated_Source\PSoC5/ADC_DelSig_V.c **** * Function Name: ADC_DelSig_V_GetResult8
 724:.\Generated_Source\PSoC5/ADC_DelSig_V.c **** ********************************************************************************
 725:.\Generated_Source\PSoC5/ADC_DelSig_V.c **** *
 726:.\Generated_Source\PSoC5/ADC_DelSig_V.c **** * Summary:
 727:.\Generated_Source\PSoC5/ADC_DelSig_V.c **** *  Returns an 8-bit result or the LSB of the last conversion.
 728:.\Generated_Source\PSoC5/ADC_DelSig_V.c **** *
 729:.\Generated_Source\PSoC5/ADC_DelSig_V.c **** * Parameters:  
 730:.\Generated_Source\PSoC5/ADC_DelSig_V.c **** *  void
 731:.\Generated_Source\PSoC5/ADC_DelSig_V.c **** *
 732:.\Generated_Source\PSoC5/ADC_DelSig_V.c **** * Return: 
 733:.\Generated_Source\PSoC5/ADC_DelSig_V.c **** *  int8:  ADC result.
 734:.\Generated_Source\PSoC5/ADC_DelSig_V.c **** *
 735:.\Generated_Source\PSoC5/ADC_DelSig_V.c **** *******************************************************************************/
 736:.\Generated_Source\PSoC5/ADC_DelSig_V.c **** int8 ADC_DelSig_V_GetResult8( void ) 
 737:.\Generated_Source\PSoC5/ADC_DelSig_V.c **** {
 1414              		.loc 1 737 0
 1415              		.cfi_startproc
 1416              		@ args = 0, pretend = 0, frame = 0
 1417              		@ frame_needed = 1, uses_anonymous_args = 0
 1418              		@ link register save eliminated.
 1419 0000 80B4     		push	{r7}
 1420              	.LCFI36:
 1421              		.cfi_def_cfa_offset 4
 1422 0002 00AF     		add	r7, sp, #0
 1423              		.cfi_offset 7, -4
 1424              	.LCFI37:
 1425              		.cfi_def_cfa_register 7
ARM GAS  C:\Users\hoangp\AppData\Local\Temp\cc4n80oh.s 			page 39


 738:.\Generated_Source\PSoC5/ADC_DelSig_V.c ****      return( ADC_DelSig_V_DEC_SAMP_REG );
 1426              		.loc 1 738 0
 1427 0004 44F61063 		movw	r3, #:lower16:1073761808
 1428 0008 C4F20003 		movt	r3, #:upper16:1073761808
 1429 000c 1B78     		ldrb	r3, [r3, #0]
 1430 000e DBB2     		uxtb	r3, r3
 1431 0010 5BB2     		sxtb	r3, r3
 739:.\Generated_Source\PSoC5/ADC_DelSig_V.c **** }
 1432              		.loc 1 739 0
 1433 0012 1846     		mov	r0, r3
 1434 0014 BD46     		mov	sp, r7
 1435 0016 80BC     		pop	{r7}
 1436 0018 7047     		bx	lr
 1437              		.cfi_endproc
 1438              	.LFE15:
 1439              		.size	ADC_DelSig_V_GetResult8, .-ADC_DelSig_V_GetResult8
 1440 001a 00BF     		.section	.text.ADC_DelSig_V_GetResult16,"ax",%progbits
 1441              		.align	2
 1442              		.global	ADC_DelSig_V_GetResult16
 1443              		.thumb
 1444              		.thumb_func
 1445              		.type	ADC_DelSig_V_GetResult16, %function
 1446              	ADC_DelSig_V_GetResult16:
 1447              	.LFB16:
 740:.\Generated_Source\PSoC5/ADC_DelSig_V.c **** 
 741:.\Generated_Source\PSoC5/ADC_DelSig_V.c **** 
 742:.\Generated_Source\PSoC5/ADC_DelSig_V.c **** /*******************************************************************************
 743:.\Generated_Source\PSoC5/ADC_DelSig_V.c **** * Function Name: ADC_DelSig_V_GetResult16
 744:.\Generated_Source\PSoC5/ADC_DelSig_V.c **** ********************************************************************************
 745:.\Generated_Source\PSoC5/ADC_DelSig_V.c **** *
 746:.\Generated_Source\PSoC5/ADC_DelSig_V.c **** * Summary:
 747:.\Generated_Source\PSoC5/ADC_DelSig_V.c **** *  Returns a 16-bit result from the last ADC conversion.
 748:.\Generated_Source\PSoC5/ADC_DelSig_V.c **** *
 749:.\Generated_Source\PSoC5/ADC_DelSig_V.c **** * Parameters:  
 750:.\Generated_Source\PSoC5/ADC_DelSig_V.c **** *   void
 751:.\Generated_Source\PSoC5/ADC_DelSig_V.c **** *
 752:.\Generated_Source\PSoC5/ADC_DelSig_V.c **** * Return: 
 753:.\Generated_Source\PSoC5/ADC_DelSig_V.c **** *  int16:  ADC result.
 754:.\Generated_Source\PSoC5/ADC_DelSig_V.c **** *
 755:.\Generated_Source\PSoC5/ADC_DelSig_V.c **** *******************************************************************************/
 756:.\Generated_Source\PSoC5/ADC_DelSig_V.c **** int16 ADC_DelSig_V_GetResult16(void) 
 757:.\Generated_Source\PSoC5/ADC_DelSig_V.c **** {
 1448              		.loc 1 757 0
 1449              		.cfi_startproc
 1450              		@ args = 0, pretend = 0, frame = 8
 1451              		@ frame_needed = 1, uses_anonymous_args = 0
 1452              		@ link register save eliminated.
 1453 0000 80B4     		push	{r7}
 1454              	.LCFI38:
 1455              		.cfi_def_cfa_offset 4
 1456 0002 83B0     		sub	sp, sp, #12
 1457              	.LCFI39:
 1458              		.cfi_def_cfa_offset 16
 1459 0004 00AF     		add	r7, sp, #0
 1460              		.cfi_offset 7, -4
 1461              	.LCFI40:
 1462              		.cfi_def_cfa_register 7
ARM GAS  C:\Users\hoangp\AppData\Local\Temp\cc4n80oh.s 			page 40


 758:.\Generated_Source\PSoC5/ADC_DelSig_V.c ****     uint16 result;
 759:.\Generated_Source\PSoC5/ADC_DelSig_V.c ****     
 760:.\Generated_Source\PSoC5/ADC_DelSig_V.c ****     #if (CY_PSOC3)
 761:.\Generated_Source\PSoC5/ADC_DelSig_V.c ****         result = ADC_DelSig_V_DEC_SAMPM_REG ;
 762:.\Generated_Source\PSoC5/ADC_DelSig_V.c ****         result = (result << 8 ) | ADC_DelSig_V_DEC_SAMP_REG;
 763:.\Generated_Source\PSoC5/ADC_DelSig_V.c ****     #else
 764:.\Generated_Source\PSoC5/ADC_DelSig_V.c ****         result = (CY_GET_REG16(ADC_DelSig_V_DEC_SAMP_PTR));
 1463              		.loc 1 764 0
 1464 0006 44F61063 		movw	r3, #:lower16:1073761808
 1465 000a C4F20003 		movt	r3, #:upper16:1073761808
 1466 000e 1B88     		ldrh	r3, [r3, #0]	@ movhi
 1467 0010 FB80     		strh	r3, [r7, #6]	@ movhi
 765:.\Generated_Source\PSoC5/ADC_DelSig_V.c ****     #endif /* CY_PSOC3 */
 766:.\Generated_Source\PSoC5/ADC_DelSig_V.c ****     
 767:.\Generated_Source\PSoC5/ADC_DelSig_V.c ****     return result;
 1468              		.loc 1 767 0
 1469 0012 FB88     		ldrh	r3, [r7, #6]
 1470 0014 1BB2     		sxth	r3, r3
 768:.\Generated_Source\PSoC5/ADC_DelSig_V.c **** }
 1471              		.loc 1 768 0
 1472 0016 1846     		mov	r0, r3
 1473 0018 07F10C07 		add	r7, r7, #12
 1474 001c BD46     		mov	sp, r7
 1475 001e 80BC     		pop	{r7}
 1476 0020 7047     		bx	lr
 1477              		.cfi_endproc
 1478              	.LFE16:
 1479              		.size	ADC_DelSig_V_GetResult16, .-ADC_DelSig_V_GetResult16
 1480 0022 00BF     		.section	.text.ADC_DelSig_V_GetResult32,"ax",%progbits
 1481              		.align	2
 1482              		.global	ADC_DelSig_V_GetResult32
 1483              		.thumb
 1484              		.thumb_func
 1485              		.type	ADC_DelSig_V_GetResult32, %function
 1486              	ADC_DelSig_V_GetResult32:
 1487              	.LFB17:
 769:.\Generated_Source\PSoC5/ADC_DelSig_V.c **** 
 770:.\Generated_Source\PSoC5/ADC_DelSig_V.c **** 
 771:.\Generated_Source\PSoC5/ADC_DelSig_V.c **** /*******************************************************************************
 772:.\Generated_Source\PSoC5/ADC_DelSig_V.c **** * Function Name: ADC_DelSig_V_GetResult32
 773:.\Generated_Source\PSoC5/ADC_DelSig_V.c **** ********************************************************************************
 774:.\Generated_Source\PSoC5/ADC_DelSig_V.c **** *
 775:.\Generated_Source\PSoC5/ADC_DelSig_V.c **** * Summary:
 776:.\Generated_Source\PSoC5/ADC_DelSig_V.c **** *  Returns an 32-bit result from ADC
 777:.\Generated_Source\PSoC5/ADC_DelSig_V.c **** *
 778:.\Generated_Source\PSoC5/ADC_DelSig_V.c **** * Parameters:  
 779:.\Generated_Source\PSoC5/ADC_DelSig_V.c **** *  void
 780:.\Generated_Source\PSoC5/ADC_DelSig_V.c **** *
 781:.\Generated_Source\PSoC5/ADC_DelSig_V.c **** * Return: 
 782:.\Generated_Source\PSoC5/ADC_DelSig_V.c **** *  int32:  ADC result.
 783:.\Generated_Source\PSoC5/ADC_DelSig_V.c **** *
 784:.\Generated_Source\PSoC5/ADC_DelSig_V.c **** *******************************************************************************/
 785:.\Generated_Source\PSoC5/ADC_DelSig_V.c **** int32 ADC_DelSig_V_GetResult32(void) 
 786:.\Generated_Source\PSoC5/ADC_DelSig_V.c **** {
 1488              		.loc 1 786 0
 1489              		.cfi_startproc
 1490              		@ args = 0, pretend = 0, frame = 8
ARM GAS  C:\Users\hoangp\AppData\Local\Temp\cc4n80oh.s 			page 41


 1491              		@ frame_needed = 1, uses_anonymous_args = 0
 1492              		@ link register save eliminated.
 1493 0000 80B4     		push	{r7}
 1494              	.LCFI41:
 1495              		.cfi_def_cfa_offset 4
 1496 0002 83B0     		sub	sp, sp, #12
 1497              	.LCFI42:
 1498              		.cfi_def_cfa_offset 16
 1499 0004 00AF     		add	r7, sp, #0
 1500              		.cfi_offset 7, -4
 1501              	.LCFI43:
 1502              		.cfi_def_cfa_register 7
 787:.\Generated_Source\PSoC5/ADC_DelSig_V.c ****     uint32 result;
 788:.\Generated_Source\PSoC5/ADC_DelSig_V.c **** 
 789:.\Generated_Source\PSoC5/ADC_DelSig_V.c ****     #if (CY_PSOC3)
 790:.\Generated_Source\PSoC5/ADC_DelSig_V.c ****         /* to make upper bits fo result to 0 */
 791:.\Generated_Source\PSoC5/ADC_DelSig_V.c ****         result = (int8) (0xff & ADC_DelSig_V_DEC_SAMPH_REG); 
 792:.\Generated_Source\PSoC5/ADC_DelSig_V.c ****         result = (result << 8) | ADC_DelSig_V_DEC_SAMPM_REG;
 793:.\Generated_Source\PSoC5/ADC_DelSig_V.c ****         result = (result << 8) | ADC_DelSig_V_DEC_SAMP_REG;
 794:.\Generated_Source\PSoC5/ADC_DelSig_V.c ****     #else
 795:.\Generated_Source\PSoC5/ADC_DelSig_V.c ****         result = CY_GET_REG16(ADC_DelSig_V_DEC_SAMPH_PTR);
 1503              		.loc 1 795 0
 1504 0006 44F61263 		movw	r3, #:lower16:1073761810
 1505 000a C4F20003 		movt	r3, #:upper16:1073761810
 1506 000e 1B88     		ldrh	r3, [r3, #0]	@ movhi
 1507 0010 9BB2     		uxth	r3, r3
 1508 0012 7B60     		str	r3, [r7, #4]
 796:.\Generated_Source\PSoC5/ADC_DelSig_V.c ****         result = (result << 16) | (CY_GET_REG16(ADC_DelSig_V_DEC_SAMP_PTR));
 1509              		.loc 1 796 0
 1510 0014 7B68     		ldr	r3, [r7, #4]
 1511 0016 4FEA0342 		lsl	r2, r3, #16
 1512 001a 44F61063 		movw	r3, #:lower16:1073761808
 1513 001e C4F20003 		movt	r3, #:upper16:1073761808
 1514 0022 1B88     		ldrh	r3, [r3, #0]	@ movhi
 1515 0024 9BB2     		uxth	r3, r3
 1516 0026 42EA0303 		orr	r3, r2, r3
 1517 002a 7B60     		str	r3, [r7, #4]
 797:.\Generated_Source\PSoC5/ADC_DelSig_V.c ****     #endif /* CY_PSOC3 */
 798:.\Generated_Source\PSoC5/ADC_DelSig_V.c ****     
 799:.\Generated_Source\PSoC5/ADC_DelSig_V.c ****     return result;
 1518              		.loc 1 799 0
 1519 002c 7B68     		ldr	r3, [r7, #4]
 800:.\Generated_Source\PSoC5/ADC_DelSig_V.c **** }
 1520              		.loc 1 800 0
 1521 002e 1846     		mov	r0, r3
 1522 0030 07F10C07 		add	r7, r7, #12
 1523 0034 BD46     		mov	sp, r7
 1524 0036 80BC     		pop	{r7}
 1525 0038 7047     		bx	lr
 1526              		.cfi_endproc
 1527              	.LFE17:
 1528              		.size	ADC_DelSig_V_GetResult32, .-ADC_DelSig_V_GetResult32
 1529 003a 00BF     		.section	.text.ADC_DelSig_V_SetOffset,"ax",%progbits
 1530              		.align	2
 1531              		.global	ADC_DelSig_V_SetOffset
 1532              		.thumb
 1533              		.thumb_func
ARM GAS  C:\Users\hoangp\AppData\Local\Temp\cc4n80oh.s 			page 42


 1534              		.type	ADC_DelSig_V_SetOffset, %function
 1535              	ADC_DelSig_V_SetOffset:
 1536              	.LFB18:
 801:.\Generated_Source\PSoC5/ADC_DelSig_V.c **** 
 802:.\Generated_Source\PSoC5/ADC_DelSig_V.c **** 
 803:.\Generated_Source\PSoC5/ADC_DelSig_V.c **** /*******************************************************************************
 804:.\Generated_Source\PSoC5/ADC_DelSig_V.c **** * Function Name: ADC_DelSig_V_SetOffset
 805:.\Generated_Source\PSoC5/ADC_DelSig_V.c **** ********************************************************************************
 806:.\Generated_Source\PSoC5/ADC_DelSig_V.c **** *
 807:.\Generated_Source\PSoC5/ADC_DelSig_V.c **** * Summary:
 808:.\Generated_Source\PSoC5/ADC_DelSig_V.c **** *  This function sets the offset for voltage readings.
 809:.\Generated_Source\PSoC5/ADC_DelSig_V.c **** *
 810:.\Generated_Source\PSoC5/ADC_DelSig_V.c **** * Parameters:  
 811:.\Generated_Source\PSoC5/ADC_DelSig_V.c **** *  int32:  offset  Offset in counts
 812:.\Generated_Source\PSoC5/ADC_DelSig_V.c **** *
 813:.\Generated_Source\PSoC5/ADC_DelSig_V.c **** * Return: 
 814:.\Generated_Source\PSoC5/ADC_DelSig_V.c **** *  void
 815:.\Generated_Source\PSoC5/ADC_DelSig_V.c **** *
 816:.\Generated_Source\PSoC5/ADC_DelSig_V.c **** * Global variables:
 817:.\Generated_Source\PSoC5/ADC_DelSig_V.c **** *  ADC_DelSig_V_Offset:  Modified to set the user provided offset. This 
 818:.\Generated_Source\PSoC5/ADC_DelSig_V.c **** *  variable is used for offset calibration purpose.
 819:.\Generated_Source\PSoC5/ADC_DelSig_V.c **** *  Affects the ADC_DelSig_V_CountsTo_Volts, 
 820:.\Generated_Source\PSoC5/ADC_DelSig_V.c **** *  ADC_DelSig_V_CountsTo_mVolts, ADC_DelSig_V_CountsTo_uVolts functions 
 821:.\Generated_Source\PSoC5/ADC_DelSig_V.c **** *  by subtracting the given offset. 
 822:.\Generated_Source\PSoC5/ADC_DelSig_V.c **** *
 823:.\Generated_Source\PSoC5/ADC_DelSig_V.c **** *******************************************************************************/
 824:.\Generated_Source\PSoC5/ADC_DelSig_V.c **** void ADC_DelSig_V_SetOffset(int32 offset) 
 825:.\Generated_Source\PSoC5/ADC_DelSig_V.c **** {
 1537              		.loc 1 825 0
 1538              		.cfi_startproc
 1539              		@ args = 0, pretend = 0, frame = 8
 1540              		@ frame_needed = 1, uses_anonymous_args = 0
 1541              		@ link register save eliminated.
 1542 0000 80B4     		push	{r7}
 1543              	.LCFI44:
 1544              		.cfi_def_cfa_offset 4
 1545 0002 83B0     		sub	sp, sp, #12
 1546              	.LCFI45:
 1547              		.cfi_def_cfa_offset 16
 1548 0004 00AF     		add	r7, sp, #0
 1549              		.cfi_offset 7, -4
 1550              	.LCFI46:
 1551              		.cfi_def_cfa_register 7
 1552 0006 7860     		str	r0, [r7, #4]
 826:.\Generated_Source\PSoC5/ADC_DelSig_V.c ****  
 827:.\Generated_Source\PSoC5/ADC_DelSig_V.c ****     ADC_DelSig_V_Offset = offset;
 1553              		.loc 1 827 0
 1554 0008 40F20003 		movw	r3, #:lower16:ADC_DelSig_V_Offset
 1555 000c C0F20003 		movt	r3, #:upper16:ADC_DelSig_V_Offset
 1556 0010 7A68     		ldr	r2, [r7, #4]
 1557 0012 1A60     		str	r2, [r3, #0]
 828:.\Generated_Source\PSoC5/ADC_DelSig_V.c **** }
 1558              		.loc 1 828 0
 1559 0014 07F10C07 		add	r7, r7, #12
 1560 0018 BD46     		mov	sp, r7
 1561 001a 80BC     		pop	{r7}
 1562 001c 7047     		bx	lr
ARM GAS  C:\Users\hoangp\AppData\Local\Temp\cc4n80oh.s 			page 43


 1563              		.cfi_endproc
 1564              	.LFE18:
 1565              		.size	ADC_DelSig_V_SetOffset, .-ADC_DelSig_V_SetOffset
 1566 001e 00BF     		.section	.text.ADC_DelSig_V_SetGain,"ax",%progbits
 1567              		.align	2
 1568              		.global	ADC_DelSig_V_SetGain
 1569              		.thumb
 1570              		.thumb_func
 1571              		.type	ADC_DelSig_V_SetGain, %function
 1572              	ADC_DelSig_V_SetGain:
 1573              	.LFB19:
 829:.\Generated_Source\PSoC5/ADC_DelSig_V.c **** 
 830:.\Generated_Source\PSoC5/ADC_DelSig_V.c **** 
 831:.\Generated_Source\PSoC5/ADC_DelSig_V.c **** /*******************************************************************************
 832:.\Generated_Source\PSoC5/ADC_DelSig_V.c **** * Function Name: ADC_DelSig_V_SetGain
 833:.\Generated_Source\PSoC5/ADC_DelSig_V.c **** ********************************************************************************
 834:.\Generated_Source\PSoC5/ADC_DelSig_V.c **** *
 835:.\Generated_Source\PSoC5/ADC_DelSig_V.c **** * Summary:
 836:.\Generated_Source\PSoC5/ADC_DelSig_V.c **** *  This function sets the ADC gain in counts per volt.
 837:.\Generated_Source\PSoC5/ADC_DelSig_V.c **** *
 838:.\Generated_Source\PSoC5/ADC_DelSig_V.c **** * Parameters:  
 839:.\Generated_Source\PSoC5/ADC_DelSig_V.c **** *  int32:  offset  Offset in counts
 840:.\Generated_Source\PSoC5/ADC_DelSig_V.c **** *
 841:.\Generated_Source\PSoC5/ADC_DelSig_V.c **** * Return: 
 842:.\Generated_Source\PSoC5/ADC_DelSig_V.c **** *  void 
 843:.\Generated_Source\PSoC5/ADC_DelSig_V.c **** *
 844:.\Generated_Source\PSoC5/ADC_DelSig_V.c **** * Global variables:
 845:.\Generated_Source\PSoC5/ADC_DelSig_V.c **** *  ADC_DelSig_V_CountsPerVolt:  modified to set the ADC gain in counts 
 846:.\Generated_Source\PSoC5/ADC_DelSig_V.c **** *   per volt.
 847:.\Generated_Source\PSoC5/ADC_DelSig_V.c **** *
 848:.\Generated_Source\PSoC5/ADC_DelSig_V.c **** *******************************************************************************/
 849:.\Generated_Source\PSoC5/ADC_DelSig_V.c **** void ADC_DelSig_V_SetGain(int32 adcGain) 
 850:.\Generated_Source\PSoC5/ADC_DelSig_V.c **** {
 1574              		.loc 1 850 0
 1575              		.cfi_startproc
 1576              		@ args = 0, pretend = 0, frame = 8
 1577              		@ frame_needed = 1, uses_anonymous_args = 0
 1578              		@ link register save eliminated.
 1579 0000 80B4     		push	{r7}
 1580              	.LCFI47:
 1581              		.cfi_def_cfa_offset 4
 1582 0002 83B0     		sub	sp, sp, #12
 1583              	.LCFI48:
 1584              		.cfi_def_cfa_offset 16
 1585 0004 00AF     		add	r7, sp, #0
 1586              		.cfi_offset 7, -4
 1587              	.LCFI49:
 1588              		.cfi_def_cfa_register 7
 1589 0006 7860     		str	r0, [r7, #4]
 851:.\Generated_Source\PSoC5/ADC_DelSig_V.c ****  
 852:.\Generated_Source\PSoC5/ADC_DelSig_V.c ****     ADC_DelSig_V_CountsPerVolt = adcGain;
 1590              		.loc 1 852 0
 1591 0008 40F20003 		movw	r3, #:lower16:ADC_DelSig_V_CountsPerVolt
 1592 000c C0F20003 		movt	r3, #:upper16:ADC_DelSig_V_CountsPerVolt
 1593 0010 7A68     		ldr	r2, [r7, #4]
 1594 0012 1A60     		str	r2, [r3, #0]
 853:.\Generated_Source\PSoC5/ADC_DelSig_V.c **** }
ARM GAS  C:\Users\hoangp\AppData\Local\Temp\cc4n80oh.s 			page 44


 1595              		.loc 1 853 0
 1596 0014 07F10C07 		add	r7, r7, #12
 1597 0018 BD46     		mov	sp, r7
 1598 001a 80BC     		pop	{r7}
 1599 001c 7047     		bx	lr
 1600              		.cfi_endproc
 1601              	.LFE19:
 1602              		.size	ADC_DelSig_V_SetGain, .-ADC_DelSig_V_SetGain
 1603 001e 00BF     		.section	.text.ADC_DelSig_V_CountsTo_mVolts,"ax",%progbits
 1604              		.align	2
 1605              		.global	ADC_DelSig_V_CountsTo_mVolts
 1606              		.thumb
 1607              		.thumb_func
 1608              		.type	ADC_DelSig_V_CountsTo_mVolts, %function
 1609              	ADC_DelSig_V_CountsTo_mVolts:
 1610              	.LFB20:
 854:.\Generated_Source\PSoC5/ADC_DelSig_V.c **** 
 855:.\Generated_Source\PSoC5/ADC_DelSig_V.c **** 
 856:.\Generated_Source\PSoC5/ADC_DelSig_V.c **** /*******************************************************************************
 857:.\Generated_Source\PSoC5/ADC_DelSig_V.c **** * Function Name: ADC_DelSig_V_CountsTo_mVolts
 858:.\Generated_Source\PSoC5/ADC_DelSig_V.c **** ********************************************************************************
 859:.\Generated_Source\PSoC5/ADC_DelSig_V.c **** *
 860:.\Generated_Source\PSoC5/ADC_DelSig_V.c **** * Summary:
 861:.\Generated_Source\PSoC5/ADC_DelSig_V.c **** *  This function converts ADC counts to mVolts.
 862:.\Generated_Source\PSoC5/ADC_DelSig_V.c **** *
 863:.\Generated_Source\PSoC5/ADC_DelSig_V.c **** * Parameters:  
 864:.\Generated_Source\PSoC5/ADC_DelSig_V.c **** *  int32:  adcCounts   Reading from ADC.
 865:.\Generated_Source\PSoC5/ADC_DelSig_V.c **** *
 866:.\Generated_Source\PSoC5/ADC_DelSig_V.c **** * Return: 
 867:.\Generated_Source\PSoC5/ADC_DelSig_V.c **** *  int32:  Result in mVolts
 868:.\Generated_Source\PSoC5/ADC_DelSig_V.c **** *
 869:.\Generated_Source\PSoC5/ADC_DelSig_V.c **** * Global variables:
 870:.\Generated_Source\PSoC5/ADC_DelSig_V.c **** *  ADC_DelSig_V_CountsPerVolt:  used to convert ADC counts to mVolts.
 871:.\Generated_Source\PSoC5/ADC_DelSig_V.c **** *  ADC_DelSig_V_Offset:  Used as the offset while converting ADC counts 
 872:.\Generated_Source\PSoC5/ADC_DelSig_V.c **** *   to mVolts.
 873:.\Generated_Source\PSoC5/ADC_DelSig_V.c **** *
 874:.\Generated_Source\PSoC5/ADC_DelSig_V.c **** *******************************************************************************/
 875:.\Generated_Source\PSoC5/ADC_DelSig_V.c **** int16 ADC_DelSig_V_CountsTo_mVolts( int32 adcCounts) 
 876:.\Generated_Source\PSoC5/ADC_DelSig_V.c **** {
 1611              		.loc 1 876 0
 1612              		.cfi_startproc
 1613              		@ args = 0, pretend = 0, frame = 24
 1614              		@ frame_needed = 1, uses_anonymous_args = 0
 1615              		@ link register save eliminated.
 1616 0000 80B4     		push	{r7}
 1617              	.LCFI50:
 1618              		.cfi_def_cfa_offset 4
 1619 0002 87B0     		sub	sp, sp, #28
 1620              	.LCFI51:
 1621              		.cfi_def_cfa_offset 32
 1622 0004 00AF     		add	r7, sp, #0
 1623              		.cfi_offset 7, -4
 1624              	.LCFI52:
 1625              		.cfi_def_cfa_register 7
 1626 0006 7860     		str	r0, [r7, #4]
 877:.\Generated_Source\PSoC5/ADC_DelSig_V.c **** 
 878:.\Generated_Source\PSoC5/ADC_DelSig_V.c ****     int32 mVolts = 0;
ARM GAS  C:\Users\hoangp\AppData\Local\Temp\cc4n80oh.s 			page 45


 1627              		.loc 1 878 0
 1628 0008 4FF00003 		mov	r3, #0
 1629 000c BB60     		str	r3, [r7, #8]
 879:.\Generated_Source\PSoC5/ADC_DelSig_V.c ****     int32 A, B;
 880:.\Generated_Source\PSoC5/ADC_DelSig_V.c **** 	uint8 resolution = 16;
 1630              		.loc 1 880 0
 1631 000e 4FF01003 		mov	r3, #16
 1632 0012 FB75     		strb	r3, [r7, #23]
 881:.\Generated_Source\PSoC5/ADC_DelSig_V.c **** 
 882:.\Generated_Source\PSoC5/ADC_DelSig_V.c ****     /* Subtract ADC offset */
 883:.\Generated_Source\PSoC5/ADC_DelSig_V.c ****     adcCounts -= ADC_DelSig_V_Offset;
 1633              		.loc 1 883 0
 1634 0014 40F20003 		movw	r3, #:lower16:ADC_DelSig_V_Offset
 1635 0018 C0F20003 		movt	r3, #:upper16:ADC_DelSig_V_Offset
 1636 001c 1B68     		ldr	r3, [r3, #0]
 1637 001e 7A68     		ldr	r2, [r7, #4]
 1638 0020 C3EB0203 		rsb	r3, r3, r2
 1639 0024 7B60     		str	r3, [r7, #4]
 884:.\Generated_Source\PSoC5/ADC_DelSig_V.c **** 	
 885:.\Generated_Source\PSoC5/ADC_DelSig_V.c **** 	/* Set the resolution based on the configuration */
 886:.\Generated_Source\PSoC5/ADC_DelSig_V.c **** 	if (ADC_DelSig_V_Config == ADC_DelSig_V_CFG1)
 1640              		.loc 1 886 0
 1641 0026 40F20003 		movw	r3, #:lower16:ADC_DelSig_V_Config
 1642 002a C0F20003 		movt	r3, #:upper16:ADC_DelSig_V_Config
 1643 002e 1B78     		ldrb	r3, [r3, #0]
 1644 0030 DBB2     		uxtb	r3, r3
 1645 0032 012B     		cmp	r3, #1
 1646 0034 03D1     		bne	.L67
 887:.\Generated_Source\PSoC5/ADC_DelSig_V.c **** 	{
 888:.\Generated_Source\PSoC5/ADC_DelSig_V.c ****         resolution = ADC_DelSig_V_CFG1_RESOLUTION;
 1647              		.loc 1 888 0
 1648 0036 4FF00903 		mov	r3, #9
 1649 003a FB75     		strb	r3, [r7, #23]
 1650 003c 1AE0     		b	.L68
 1651              	.L67:
 889:.\Generated_Source\PSoC5/ADC_DelSig_V.c **** 	}	
 890:.\Generated_Source\PSoC5/ADC_DelSig_V.c **** 	else if (ADC_DelSig_V_Config == ADC_DelSig_V_CFG2)
 1652              		.loc 1 890 0
 1653 003e 40F20003 		movw	r3, #:lower16:ADC_DelSig_V_Config
 1654 0042 C0F20003 		movt	r3, #:upper16:ADC_DelSig_V_Config
 1655 0046 1B78     		ldrb	r3, [r3, #0]
 1656 0048 DBB2     		uxtb	r3, r3
 1657 004a 022B     		cmp	r3, #2
 1658 004c 03D1     		bne	.L69
 891:.\Generated_Source\PSoC5/ADC_DelSig_V.c **** 	{
 892:.\Generated_Source\PSoC5/ADC_DelSig_V.c **** 	    resolution = ADC_DelSig_V_CFG2_RESOLUTION;
 1659              		.loc 1 892 0
 1660 004e 4FF01003 		mov	r3, #16
 1661 0052 FB75     		strb	r3, [r7, #23]
 1662 0054 0EE0     		b	.L68
 1663              	.L69:
 893:.\Generated_Source\PSoC5/ADC_DelSig_V.c **** 	}
 894:.\Generated_Source\PSoC5/ADC_DelSig_V.c **** 	else if (ADC_DelSig_V_Config == ADC_DelSig_V_CFG3)
 1664              		.loc 1 894 0
 1665 0056 40F20003 		movw	r3, #:lower16:ADC_DelSig_V_Config
 1666 005a C0F20003 		movt	r3, #:upper16:ADC_DelSig_V_Config
 1667 005e 1B78     		ldrb	r3, [r3, #0]
ARM GAS  C:\Users\hoangp\AppData\Local\Temp\cc4n80oh.s 			page 46


 1668 0060 DBB2     		uxtb	r3, r3
 1669 0062 032B     		cmp	r3, #3
 1670 0064 03D1     		bne	.L70
 895:.\Generated_Source\PSoC5/ADC_DelSig_V.c **** 	{
 896:.\Generated_Source\PSoC5/ADC_DelSig_V.c **** 	    resolution = ADC_DelSig_V_CFG3_RESOLUTION;
 1671              		.loc 1 896 0
 1672 0066 4FF01003 		mov	r3, #16
 1673 006a FB75     		strb	r3, [r7, #23]
 1674 006c 02E0     		b	.L68
 1675              	.L70:
 897:.\Generated_Source\PSoC5/ADC_DelSig_V.c **** 	}
 898:.\Generated_Source\PSoC5/ADC_DelSig_V.c **** 	else
 899:.\Generated_Source\PSoC5/ADC_DelSig_V.c **** 	{
 900:.\Generated_Source\PSoC5/ADC_DelSig_V.c **** 	    resolution = ADC_DelSig_V_CFG4_RESOLUTION;
 1676              		.loc 1 900 0
 1677 006e 4FF01003 		mov	r3, #16
 1678 0072 FB75     		strb	r3, [r7, #23]
 1679              	.L68:
 901:.\Generated_Source\PSoC5/ADC_DelSig_V.c **** 	}
 902:.\Generated_Source\PSoC5/ADC_DelSig_V.c **** 	
 903:.\Generated_Source\PSoC5/ADC_DelSig_V.c ****     if(resolution < 17)
 1680              		.loc 1 903 0
 1681 0074 FB7D     		ldrb	r3, [r7, #23]	@ zero_extendqisi2
 1682 0076 102B     		cmp	r3, #16
 1683 0078 06D8     		bhi	.L71
 904:.\Generated_Source\PSoC5/ADC_DelSig_V.c ****     {
 905:.\Generated_Source\PSoC5/ADC_DelSig_V.c ****         A = 1000;
 1684              		.loc 1 905 0
 1685 007a 4FF47A73 		mov	r3, #1000
 1686 007e FB60     		str	r3, [r7, #12]
 906:.\Generated_Source\PSoC5/ADC_DelSig_V.c ****         B = 1;
 1687              		.loc 1 906 0
 1688 0080 4FF00103 		mov	r3, #1
 1689 0084 3B61     		str	r3, [r7, #16]
 1690 0086 05E0     		b	.L72
 1691              	.L71:
 907:.\Generated_Source\PSoC5/ADC_DelSig_V.c ****     }
 908:.\Generated_Source\PSoC5/ADC_DelSig_V.c ****     else
 909:.\Generated_Source\PSoC5/ADC_DelSig_V.c ****     {
 910:.\Generated_Source\PSoC5/ADC_DelSig_V.c ****         A = 100;
 1692              		.loc 1 910 0
 1693 0088 4FF06403 		mov	r3, #100
 1694 008c FB60     		str	r3, [r7, #12]
 911:.\Generated_Source\PSoC5/ADC_DelSig_V.c ****         B = 10;
 1695              		.loc 1 911 0
 1696 008e 4FF00A03 		mov	r3, #10
 1697 0092 3B61     		str	r3, [r7, #16]
 1698              	.L72:
 912:.\Generated_Source\PSoC5/ADC_DelSig_V.c ****     }
 913:.\Generated_Source\PSoC5/ADC_DelSig_V.c **** 
 914:.\Generated_Source\PSoC5/ADC_DelSig_V.c ****     mVolts = ((A * adcCounts) / ((int32)ADC_DelSig_V_CountsPerVolt/B)) ;   
 1699              		.loc 1 914 0
 1700 0094 FB68     		ldr	r3, [r7, #12]
 1701 0096 7A68     		ldr	r2, [r7, #4]
 1702 0098 02FB03F2 		mul	r2, r2, r3
 1703 009c 40F20003 		movw	r3, #:lower16:ADC_DelSig_V_CountsPerVolt
 1704 00a0 C0F20003 		movt	r3, #:upper16:ADC_DelSig_V_CountsPerVolt
ARM GAS  C:\Users\hoangp\AppData\Local\Temp\cc4n80oh.s 			page 47


 1705 00a4 1968     		ldr	r1, [r3, #0]
 1706 00a6 3B69     		ldr	r3, [r7, #16]
 1707 00a8 91FBF3F3 		sdiv	r3, r1, r3
 1708 00ac 92FBF3F3 		sdiv	r3, r2, r3
 1709 00b0 BB60     		str	r3, [r7, #8]
 915:.\Generated_Source\PSoC5/ADC_DelSig_V.c **** 
 916:.\Generated_Source\PSoC5/ADC_DelSig_V.c ****     return( (int16)mVolts );
 1710              		.loc 1 916 0
 1711 00b2 BB68     		ldr	r3, [r7, #8]
 1712 00b4 9BB2     		uxth	r3, r3
 1713 00b6 1BB2     		sxth	r3, r3
 917:.\Generated_Source\PSoC5/ADC_DelSig_V.c **** }
 1714              		.loc 1 917 0
 1715 00b8 1846     		mov	r0, r3
 1716 00ba 07F11C07 		add	r7, r7, #28
 1717 00be BD46     		mov	sp, r7
 1718 00c0 80BC     		pop	{r7}
 1719 00c2 7047     		bx	lr
 1720              		.cfi_endproc
 1721              	.LFE20:
 1722              		.size	ADC_DelSig_V_CountsTo_mVolts, .-ADC_DelSig_V_CountsTo_mVolts
 1723              		.global	__aeabi_i2f
 1724              		.section	.text.ADC_DelSig_V_CountsTo_Volts,"ax",%progbits
 1725              		.align	2
 1726              		.global	ADC_DelSig_V_CountsTo_Volts
 1727              		.thumb
 1728              		.thumb_func
 1729              		.type	ADC_DelSig_V_CountsTo_Volts, %function
 1730              	ADC_DelSig_V_CountsTo_Volts:
 1731              	.LFB21:
 918:.\Generated_Source\PSoC5/ADC_DelSig_V.c **** 
 919:.\Generated_Source\PSoC5/ADC_DelSig_V.c **** 
 920:.\Generated_Source\PSoC5/ADC_DelSig_V.c **** /*******************************************************************************
 921:.\Generated_Source\PSoC5/ADC_DelSig_V.c **** * Function Name: ADC_DelSig_V_CountsTo_Volts
 922:.\Generated_Source\PSoC5/ADC_DelSig_V.c **** ********************************************************************************
 923:.\Generated_Source\PSoC5/ADC_DelSig_V.c **** *
 924:.\Generated_Source\PSoC5/ADC_DelSig_V.c **** * Summary:
 925:.\Generated_Source\PSoC5/ADC_DelSig_V.c **** *  This function converts ADC counts to Volts
 926:.\Generated_Source\PSoC5/ADC_DelSig_V.c **** *
 927:.\Generated_Source\PSoC5/ADC_DelSig_V.c **** * Parameters:  
 928:.\Generated_Source\PSoC5/ADC_DelSig_V.c **** *  int32:  adcCounts   Reading from ADC.
 929:.\Generated_Source\PSoC5/ADC_DelSig_V.c **** *
 930:.\Generated_Source\PSoC5/ADC_DelSig_V.c **** * Return: 
 931:.\Generated_Source\PSoC5/ADC_DelSig_V.c **** *  float:  Result in Volts
 932:.\Generated_Source\PSoC5/ADC_DelSig_V.c **** *
 933:.\Generated_Source\PSoC5/ADC_DelSig_V.c **** * Global variables:
 934:.\Generated_Source\PSoC5/ADC_DelSig_V.c **** *  ADC_DelSig_V_CountsPerVolt:  used to convert to Volts.
 935:.\Generated_Source\PSoC5/ADC_DelSig_V.c **** *  ADC_DelSig_V_Offset:  Used as the offset while converting ADC counts 
 936:.\Generated_Source\PSoC5/ADC_DelSig_V.c **** *   to Volts.
 937:.\Generated_Source\PSoC5/ADC_DelSig_V.c **** *
 938:.\Generated_Source\PSoC5/ADC_DelSig_V.c **** *******************************************************************************/
 939:.\Generated_Source\PSoC5/ADC_DelSig_V.c **** float ADC_DelSig_V_CountsTo_Volts( int32 adcCounts) 
 940:.\Generated_Source\PSoC5/ADC_DelSig_V.c **** {
 1732              		.loc 1 940 0
 1733              		.cfi_startproc
 1734              		@ args = 0, pretend = 0, frame = 16
 1735              		@ frame_needed = 1, uses_anonymous_args = 0
ARM GAS  C:\Users\hoangp\AppData\Local\Temp\cc4n80oh.s 			page 48


 1736 0000 90B5     		push	{r4, r7, lr}
 1737              	.LCFI53:
 1738              		.cfi_def_cfa_offset 12
 1739 0002 85B0     		sub	sp, sp, #20
 1740              	.LCFI54:
 1741              		.cfi_def_cfa_offset 32
 1742 0004 00AF     		add	r7, sp, #0
 1743              		.cfi_offset 14, -4
 1744              		.cfi_offset 7, -8
 1745              		.cfi_offset 4, -12
 1746              	.LCFI55:
 1747              		.cfi_def_cfa_register 7
 1748 0006 7860     		str	r0, [r7, #4]
 941:.\Generated_Source\PSoC5/ADC_DelSig_V.c **** 
 942:.\Generated_Source\PSoC5/ADC_DelSig_V.c ****     float Volts = 0;
 1749              		.loc 1 942 0
 1750 0008 114B     		ldr	r3, .L76	@ float
 1751 000a FB60     		str	r3, [r7, #12]	@ float
 943:.\Generated_Source\PSoC5/ADC_DelSig_V.c **** 
 944:.\Generated_Source\PSoC5/ADC_DelSig_V.c ****     /* Subtract ADC offset */
 945:.\Generated_Source\PSoC5/ADC_DelSig_V.c ****     adcCounts -= ADC_DelSig_V_Offset;
 1752              		.loc 1 945 0
 1753 000c 40F20003 		movw	r3, #:lower16:ADC_DelSig_V_Offset
 1754 0010 C0F20003 		movt	r3, #:upper16:ADC_DelSig_V_Offset
 1755 0014 1B68     		ldr	r3, [r3, #0]
 1756 0016 7A68     		ldr	r2, [r7, #4]
 1757 0018 C3EB0203 		rsb	r3, r3, r2
 1758 001c 7B60     		str	r3, [r7, #4]
 946:.\Generated_Source\PSoC5/ADC_DelSig_V.c **** 
 947:.\Generated_Source\PSoC5/ADC_DelSig_V.c ****     Volts = (float)adcCounts / (float)ADC_DelSig_V_CountsPerVolt;   
 1759              		.loc 1 947 0
 1760 001e 7868     		ldr	r0, [r7, #4]
 1761 0020 FFF7FEFF 		bl	__aeabi_i2f
 1762 0024 0446     		mov	r4, r0
 1763 0026 40F20003 		movw	r3, #:lower16:ADC_DelSig_V_CountsPerVolt
 1764 002a C0F20003 		movt	r3, #:upper16:ADC_DelSig_V_CountsPerVolt
 1765 002e 1B68     		ldr	r3, [r3, #0]
 1766 0030 1846     		mov	r0, r3
 1767 0032 FFF7FEFF 		bl	__aeabi_i2f
 1768 0036 0346     		mov	r3, r0
 1769 0038 2046     		mov	r0, r4
 1770 003a 1946     		mov	r1, r3
 1771 003c FFF7FEFF 		bl	__aeabi_fdiv
 1772 0040 0346     		mov	r3, r0
 1773 0042 FB60     		str	r3, [r7, #12]	@ float
 948:.\Generated_Source\PSoC5/ADC_DelSig_V.c ****     
 949:.\Generated_Source\PSoC5/ADC_DelSig_V.c ****     return( Volts );
 1774              		.loc 1 949 0
 1775 0044 FB68     		ldr	r3, [r7, #12]	@ float
 950:.\Generated_Source\PSoC5/ADC_DelSig_V.c **** }
 1776              		.loc 1 950 0
 1777 0046 1846     		mov	r0, r3
 1778 0048 07F11407 		add	r7, r7, #20
 1779 004c BD46     		mov	sp, r7
 1780 004e 90BD     		pop	{r4, r7, pc}
 1781              	.L77:
 1782              		.align	2
ARM GAS  C:\Users\hoangp\AppData\Local\Temp\cc4n80oh.s 			page 49


 1783              	.L76:
 1784 0050 00000000 		.word	0
 1785              		.cfi_endproc
 1786              	.LFE21:
 1787              		.size	ADC_DelSig_V_CountsTo_Volts, .-ADC_DelSig_V_CountsTo_Volts
 1788              		.section	.text.ADC_DelSig_V_CountsTo_uVolts,"ax",%progbits
 1789              		.align	2
 1790              		.global	ADC_DelSig_V_CountsTo_uVolts
 1791              		.thumb
 1792              		.thumb_func
 1793              		.type	ADC_DelSig_V_CountsTo_uVolts, %function
 1794              	ADC_DelSig_V_CountsTo_uVolts:
 1795              	.LFB22:
 951:.\Generated_Source\PSoC5/ADC_DelSig_V.c **** 
 952:.\Generated_Source\PSoC5/ADC_DelSig_V.c **** 
 953:.\Generated_Source\PSoC5/ADC_DelSig_V.c **** /*******************************************************************************
 954:.\Generated_Source\PSoC5/ADC_DelSig_V.c **** * Function Name: ADC_DelSig_V_CountsTo_uVolts
 955:.\Generated_Source\PSoC5/ADC_DelSig_V.c **** ********************************************************************************
 956:.\Generated_Source\PSoC5/ADC_DelSig_V.c **** *
 957:.\Generated_Source\PSoC5/ADC_DelSig_V.c **** * Summary:
 958:.\Generated_Source\PSoC5/ADC_DelSig_V.c **** *  This function converts ADC counts to uVolts
 959:.\Generated_Source\PSoC5/ADC_DelSig_V.c **** *
 960:.\Generated_Source\PSoC5/ADC_DelSig_V.c **** * Parameters:  
 961:.\Generated_Source\PSoC5/ADC_DelSig_V.c **** *  int32:  adcCounts   Reading from ADC.
 962:.\Generated_Source\PSoC5/ADC_DelSig_V.c **** *
 963:.\Generated_Source\PSoC5/ADC_DelSig_V.c **** * Return: 
 964:.\Generated_Source\PSoC5/ADC_DelSig_V.c **** *  int32:  Result in uVolts
 965:.\Generated_Source\PSoC5/ADC_DelSig_V.c **** *
 966:.\Generated_Source\PSoC5/ADC_DelSig_V.c **** * Global variables:
 967:.\Generated_Source\PSoC5/ADC_DelSig_V.c **** *  ADC_DelSig_V_CountsPerVolt:  used to convert ADC counts to mVolts.
 968:.\Generated_Source\PSoC5/ADC_DelSig_V.c **** *  ADC_DelSig_V_Offset:  Used as the offset while converting ADC counts 
 969:.\Generated_Source\PSoC5/ADC_DelSig_V.c **** *   to mVolts.
 970:.\Generated_Source\PSoC5/ADC_DelSig_V.c **** *
 971:.\Generated_Source\PSoC5/ADC_DelSig_V.c **** * Theory: 
 972:.\Generated_Source\PSoC5/ADC_DelSig_V.c **** * Care must be taken to not exceed the maximum value for a 32 bit signed
 973:.\Generated_Source\PSoC5/ADC_DelSig_V.c **** * number in the conversion to uVolts and at the same time not loose 
 974:.\Generated_Source\PSoC5/ADC_DelSig_V.c **** * resolution.
 975:.\Generated_Source\PSoC5/ADC_DelSig_V.c **** *
 976:.\Generated_Source\PSoC5/ADC_DelSig_V.c **** * uVolts = ((A * adcCounts) / ((int32)ADC_DelSig_V_CountsPerVolt/B)) ;   
 977:.\Generated_Source\PSoC5/ADC_DelSig_V.c **** *
 978:.\Generated_Source\PSoC5/ADC_DelSig_V.c **** *  Resolution       A           B
 979:.\Generated_Source\PSoC5/ADC_DelSig_V.c **** *   8 - 11      1,000,000         1
 980:.\Generated_Source\PSoC5/ADC_DelSig_V.c **** *  12 - 14        100,000        10
 981:.\Generated_Source\PSoC5/ADC_DelSig_V.c **** *  15 - 17         10,000       100
 982:.\Generated_Source\PSoC5/ADC_DelSig_V.c **** *  18 - 20           1000      1000
 983:.\Generated_Source\PSoC5/ADC_DelSig_V.c **** *
 984:.\Generated_Source\PSoC5/ADC_DelSig_V.c **** *******************************************************************************/
 985:.\Generated_Source\PSoC5/ADC_DelSig_V.c **** int32 ADC_DelSig_V_CountsTo_uVolts( int32 adcCounts) 
 986:.\Generated_Source\PSoC5/ADC_DelSig_V.c **** {
 1796              		.loc 1 986 0
 1797              		.cfi_startproc
 1798              		@ args = 0, pretend = 0, frame = 24
 1799              		@ frame_needed = 1, uses_anonymous_args = 0
 1800              		@ link register save eliminated.
 1801 0000 80B4     		push	{r7}
 1802              	.LCFI56:
 1803              		.cfi_def_cfa_offset 4
ARM GAS  C:\Users\hoangp\AppData\Local\Temp\cc4n80oh.s 			page 50


 1804 0002 87B0     		sub	sp, sp, #28
 1805              	.LCFI57:
 1806              		.cfi_def_cfa_offset 32
 1807 0004 00AF     		add	r7, sp, #0
 1808              		.cfi_offset 7, -4
 1809              	.LCFI58:
 1810              		.cfi_def_cfa_register 7
 1811 0006 7860     		str	r0, [r7, #4]
 987:.\Generated_Source\PSoC5/ADC_DelSig_V.c **** 
 988:.\Generated_Source\PSoC5/ADC_DelSig_V.c ****     int32 uVolts = 0;
 1812              		.loc 1 988 0
 1813 0008 4FF00003 		mov	r3, #0
 1814 000c BB60     		str	r3, [r7, #8]
 989:.\Generated_Source\PSoC5/ADC_DelSig_V.c ****     int32 A, B;
 990:.\Generated_Source\PSoC5/ADC_DelSig_V.c **** 	uint8 resolution = 16;
 1815              		.loc 1 990 0
 1816 000e 4FF01003 		mov	r3, #16
 1817 0012 FB75     		strb	r3, [r7, #23]
 991:.\Generated_Source\PSoC5/ADC_DelSig_V.c **** 	
 992:.\Generated_Source\PSoC5/ADC_DelSig_V.c **** 	/* Set the resolution based on the configuration */
 993:.\Generated_Source\PSoC5/ADC_DelSig_V.c **** 	if (ADC_DelSig_V_Config == ADC_DelSig_V_CFG1)
 1818              		.loc 1 993 0
 1819 0014 40F20003 		movw	r3, #:lower16:ADC_DelSig_V_Config
 1820 0018 C0F20003 		movt	r3, #:upper16:ADC_DelSig_V_Config
 1821 001c 1B78     		ldrb	r3, [r3, #0]
 1822 001e DBB2     		uxtb	r3, r3
 1823 0020 012B     		cmp	r3, #1
 1824 0022 03D1     		bne	.L79
 994:.\Generated_Source\PSoC5/ADC_DelSig_V.c **** 	{
 995:.\Generated_Source\PSoC5/ADC_DelSig_V.c ****         resolution = ADC_DelSig_V_CFG1_RESOLUTION;
 1825              		.loc 1 995 0
 1826 0024 4FF00903 		mov	r3, #9
 1827 0028 FB75     		strb	r3, [r7, #23]
 1828 002a 1AE0     		b	.L80
 1829              	.L79:
 996:.\Generated_Source\PSoC5/ADC_DelSig_V.c **** 	}	
 997:.\Generated_Source\PSoC5/ADC_DelSig_V.c **** 	else if (ADC_DelSig_V_Config == ADC_DelSig_V_CFG2)
 1830              		.loc 1 997 0
 1831 002c 40F20003 		movw	r3, #:lower16:ADC_DelSig_V_Config
 1832 0030 C0F20003 		movt	r3, #:upper16:ADC_DelSig_V_Config
 1833 0034 1B78     		ldrb	r3, [r3, #0]
 1834 0036 DBB2     		uxtb	r3, r3
 1835 0038 022B     		cmp	r3, #2
 1836 003a 03D1     		bne	.L81
 998:.\Generated_Source\PSoC5/ADC_DelSig_V.c **** 	{
 999:.\Generated_Source\PSoC5/ADC_DelSig_V.c **** 	    resolution = ADC_DelSig_V_CFG2_RESOLUTION;
 1837              		.loc 1 999 0
 1838 003c 4FF01003 		mov	r3, #16
 1839 0040 FB75     		strb	r3, [r7, #23]
 1840 0042 0EE0     		b	.L80
 1841              	.L81:
1000:.\Generated_Source\PSoC5/ADC_DelSig_V.c **** 	}
1001:.\Generated_Source\PSoC5/ADC_DelSig_V.c **** 	else if (ADC_DelSig_V_Config == ADC_DelSig_V_CFG3)
 1842              		.loc 1 1001 0
 1843 0044 40F20003 		movw	r3, #:lower16:ADC_DelSig_V_Config
 1844 0048 C0F20003 		movt	r3, #:upper16:ADC_DelSig_V_Config
 1845 004c 1B78     		ldrb	r3, [r3, #0]
ARM GAS  C:\Users\hoangp\AppData\Local\Temp\cc4n80oh.s 			page 51


 1846 004e DBB2     		uxtb	r3, r3
 1847 0050 032B     		cmp	r3, #3
 1848 0052 03D1     		bne	.L82
1002:.\Generated_Source\PSoC5/ADC_DelSig_V.c **** 	{
1003:.\Generated_Source\PSoC5/ADC_DelSig_V.c **** 	    resolution = ADC_DelSig_V_CFG3_RESOLUTION;
 1849              		.loc 1 1003 0
 1850 0054 4FF01003 		mov	r3, #16
 1851 0058 FB75     		strb	r3, [r7, #23]
 1852 005a 02E0     		b	.L80
 1853              	.L82:
1004:.\Generated_Source\PSoC5/ADC_DelSig_V.c **** 	}
1005:.\Generated_Source\PSoC5/ADC_DelSig_V.c **** 	else
1006:.\Generated_Source\PSoC5/ADC_DelSig_V.c **** 	{
1007:.\Generated_Source\PSoC5/ADC_DelSig_V.c **** 	    resolution = ADC_DelSig_V_CFG4_RESOLUTION;
 1854              		.loc 1 1007 0
 1855 005c 4FF01003 		mov	r3, #16
 1856 0060 FB75     		strb	r3, [r7, #23]
 1857              	.L80:
1008:.\Generated_Source\PSoC5/ADC_DelSig_V.c **** 	}
1009:.\Generated_Source\PSoC5/ADC_DelSig_V.c ****     
1010:.\Generated_Source\PSoC5/ADC_DelSig_V.c ****     if(resolution < 12)
 1858              		.loc 1 1010 0
 1859 0062 FB7D     		ldrb	r3, [r7, #23]	@ zero_extendqisi2
 1860 0064 0B2B     		cmp	r3, #11
 1861 0066 08D8     		bhi	.L83
1011:.\Generated_Source\PSoC5/ADC_DelSig_V.c ****     {
1012:.\Generated_Source\PSoC5/ADC_DelSig_V.c ****         A = 1000000;
 1862              		.loc 1 1012 0
 1863 0068 44F24023 		movw	r3, #:lower16:1000000
 1864 006c C0F20F03 		movt	r3, #:upper16:1000000
 1865 0070 FB60     		str	r3, [r7, #12]
1013:.\Generated_Source\PSoC5/ADC_DelSig_V.c ****         B = 1;
 1866              		.loc 1 1013 0
 1867 0072 4FF00103 		mov	r3, #1
 1868 0076 3B61     		str	r3, [r7, #16]
 1869 0078 1BE0     		b	.L84
 1870              	.L83:
1014:.\Generated_Source\PSoC5/ADC_DelSig_V.c ****     }
1015:.\Generated_Source\PSoC5/ADC_DelSig_V.c ****     else if(resolution < 15)
 1871              		.loc 1 1015 0
 1872 007a FB7D     		ldrb	r3, [r7, #23]	@ zero_extendqisi2
 1873 007c 0E2B     		cmp	r3, #14
 1874 007e 08D8     		bhi	.L85
1016:.\Generated_Source\PSoC5/ADC_DelSig_V.c ****     {
1017:.\Generated_Source\PSoC5/ADC_DelSig_V.c ****         A = 100000;
 1875              		.loc 1 1017 0
 1876 0080 48F2A063 		movw	r3, #:lower16:100000
 1877 0084 C0F20103 		movt	r3, #:upper16:100000
 1878 0088 FB60     		str	r3, [r7, #12]
1018:.\Generated_Source\PSoC5/ADC_DelSig_V.c ****         B = 10;
 1879              		.loc 1 1018 0
 1880 008a 4FF00A03 		mov	r3, #10
 1881 008e 3B61     		str	r3, [r7, #16]
 1882 0090 0FE0     		b	.L84
 1883              	.L85:
1019:.\Generated_Source\PSoC5/ADC_DelSig_V.c ****     }
1020:.\Generated_Source\PSoC5/ADC_DelSig_V.c ****     else if(resolution < 18)
ARM GAS  C:\Users\hoangp\AppData\Local\Temp\cc4n80oh.s 			page 52


 1884              		.loc 1 1020 0
 1885 0092 FB7D     		ldrb	r3, [r7, #23]	@ zero_extendqisi2
 1886 0094 112B     		cmp	r3, #17
 1887 0096 06D8     		bhi	.L86
1021:.\Generated_Source\PSoC5/ADC_DelSig_V.c ****     {
1022:.\Generated_Source\PSoC5/ADC_DelSig_V.c ****         A = 10000;
 1888              		.loc 1 1022 0
 1889 0098 42F21073 		movw	r3, #10000
 1890 009c FB60     		str	r3, [r7, #12]
1023:.\Generated_Source\PSoC5/ADC_DelSig_V.c ****         B = 100;
 1891              		.loc 1 1023 0
 1892 009e 4FF06403 		mov	r3, #100
 1893 00a2 3B61     		str	r3, [r7, #16]
 1894 00a4 05E0     		b	.L84
 1895              	.L86:
1024:.\Generated_Source\PSoC5/ADC_DelSig_V.c ****     }
1025:.\Generated_Source\PSoC5/ADC_DelSig_V.c ****     else
1026:.\Generated_Source\PSoC5/ADC_DelSig_V.c ****     {
1027:.\Generated_Source\PSoC5/ADC_DelSig_V.c ****         A = 1000;
 1896              		.loc 1 1027 0
 1897 00a6 4FF47A73 		mov	r3, #1000
 1898 00aa FB60     		str	r3, [r7, #12]
1028:.\Generated_Source\PSoC5/ADC_DelSig_V.c ****         B = 1000;
 1899              		.loc 1 1028 0
 1900 00ac 4FF47A73 		mov	r3, #1000
 1901 00b0 3B61     		str	r3, [r7, #16]
 1902              	.L84:
1029:.\Generated_Source\PSoC5/ADC_DelSig_V.c ****     }
1030:.\Generated_Source\PSoC5/ADC_DelSig_V.c **** 
1031:.\Generated_Source\PSoC5/ADC_DelSig_V.c ****     /* Subtract ADC offset */
1032:.\Generated_Source\PSoC5/ADC_DelSig_V.c ****     adcCounts -= ADC_DelSig_V_Offset;
 1903              		.loc 1 1032 0
 1904 00b2 40F20003 		movw	r3, #:lower16:ADC_DelSig_V_Offset
 1905 00b6 C0F20003 		movt	r3, #:upper16:ADC_DelSig_V_Offset
 1906 00ba 1B68     		ldr	r3, [r3, #0]
 1907 00bc 7A68     		ldr	r2, [r7, #4]
 1908 00be C3EB0203 		rsb	r3, r3, r2
 1909 00c2 7B60     		str	r3, [r7, #4]
1033:.\Generated_Source\PSoC5/ADC_DelSig_V.c **** 
1034:.\Generated_Source\PSoC5/ADC_DelSig_V.c ****     uVolts = ((A * adcCounts) / ((int32)ADC_DelSig_V_CountsPerVolt/B)) ;   
 1910              		.loc 1 1034 0
 1911 00c4 FB68     		ldr	r3, [r7, #12]
 1912 00c6 7A68     		ldr	r2, [r7, #4]
 1913 00c8 02FB03F2 		mul	r2, r2, r3
 1914 00cc 40F20003 		movw	r3, #:lower16:ADC_DelSig_V_CountsPerVolt
 1915 00d0 C0F20003 		movt	r3, #:upper16:ADC_DelSig_V_CountsPerVolt
 1916 00d4 1968     		ldr	r1, [r3, #0]
 1917 00d6 3B69     		ldr	r3, [r7, #16]
 1918 00d8 91FBF3F3 		sdiv	r3, r1, r3
 1919 00dc 92FBF3F3 		sdiv	r3, r2, r3
 1920 00e0 BB60     		str	r3, [r7, #8]
1035:.\Generated_Source\PSoC5/ADC_DelSig_V.c ****   
1036:.\Generated_Source\PSoC5/ADC_DelSig_V.c ****     return( uVolts );
 1921              		.loc 1 1036 0
 1922 00e2 BB68     		ldr	r3, [r7, #8]
1037:.\Generated_Source\PSoC5/ADC_DelSig_V.c **** }
 1923              		.loc 1 1037 0
ARM GAS  C:\Users\hoangp\AppData\Local\Temp\cc4n80oh.s 			page 53


 1924 00e4 1846     		mov	r0, r3
 1925 00e6 07F11C07 		add	r7, r7, #28
 1926 00ea BD46     		mov	sp, r7
 1927 00ec 80BC     		pop	{r7}
 1928 00ee 7047     		bx	lr
 1929              		.cfi_endproc
 1930              	.LFE22:
 1931              		.size	ADC_DelSig_V_CountsTo_uVolts, .-ADC_DelSig_V_CountsTo_uVolts
 1932              		.section	.text.ADC_DelSig_V_IRQ_Start,"ax",%progbits
 1933              		.align	2
 1934              		.global	ADC_DelSig_V_IRQ_Start
 1935              		.thumb
 1936              		.thumb_func
 1937              		.type	ADC_DelSig_V_IRQ_Start, %function
 1938              	ADC_DelSig_V_IRQ_Start:
 1939              	.LFB23:
1038:.\Generated_Source\PSoC5/ADC_DelSig_V.c **** 
1039:.\Generated_Source\PSoC5/ADC_DelSig_V.c **** 
1040:.\Generated_Source\PSoC5/ADC_DelSig_V.c **** /*******************************************************************************
1041:.\Generated_Source\PSoC5/ADC_DelSig_V.c **** * Function Name: ADC_DelSig_V_IRQ_Start(void)
1042:.\Generated_Source\PSoC5/ADC_DelSig_V.c **** ********************************************************************************
1043:.\Generated_Source\PSoC5/ADC_DelSig_V.c **** *
1044:.\Generated_Source\PSoC5/ADC_DelSig_V.c **** * Summary:
1045:.\Generated_Source\PSoC5/ADC_DelSig_V.c **** *  Set up the interrupt and enable it. The IRQ_Start() API is included to 
1046:.\Generated_Source\PSoC5/ADC_DelSig_V.c **** *  support legacy code. The routine has been replaced by the library source 
1047:.\Generated_Source\PSoC5/ADC_DelSig_V.c **** *  code for interrupts. IRQ_Start() should not be used in new designs.
1048:.\Generated_Source\PSoC5/ADC_DelSig_V.c **** * 
1049:.\Generated_Source\PSoC5/ADC_DelSig_V.c **** * Parameters:  
1050:.\Generated_Source\PSoC5/ADC_DelSig_V.c **** *   void.
1051:.\Generated_Source\PSoC5/ADC_DelSig_V.c **** *
1052:.\Generated_Source\PSoC5/ADC_DelSig_V.c **** * Return:
1053:.\Generated_Source\PSoC5/ADC_DelSig_V.c **** *   void.
1054:.\Generated_Source\PSoC5/ADC_DelSig_V.c **** *
1055:.\Generated_Source\PSoC5/ADC_DelSig_V.c **** *******************************************************************************/
1056:.\Generated_Source\PSoC5/ADC_DelSig_V.c **** void ADC_DelSig_V_IRQ_Start(void) 
1057:.\Generated_Source\PSoC5/ADC_DelSig_V.c **** {
 1940              		.loc 1 1057 0
 1941              		.cfi_startproc
 1942              		@ args = 0, pretend = 0, frame = 0
 1943              		@ frame_needed = 1, uses_anonymous_args = 0
 1944 0000 80B5     		push	{r7, lr}
 1945              	.LCFI59:
 1946              		.cfi_def_cfa_offset 8
 1947 0002 00AF     		add	r7, sp, #0
 1948              		.cfi_offset 14, -4
 1949              		.cfi_offset 7, -8
 1950              	.LCFI60:
 1951              		.cfi_def_cfa_register 7
1058:.\Generated_Source\PSoC5/ADC_DelSig_V.c ****     /* For all we know the interrupt is active. */
1059:.\Generated_Source\PSoC5/ADC_DelSig_V.c ****     CyIntDisable(ADC_DelSig_V_IRQ__INTC_NUMBER );
 1952              		.loc 1 1059 0
 1953 0004 4EF28013 		movw	r3, #:lower16:-536813184
 1954 0008 CEF20003 		movt	r3, #:upper16:-536813184
 1955 000c 4FF00052 		mov	r2, #536870912
 1956 0010 1A60     		str	r2, [r3, #0]
1060:.\Generated_Source\PSoC5/ADC_DelSig_V.c **** 
1061:.\Generated_Source\PSoC5/ADC_DelSig_V.c ****     /* Set the ISR to point to the ADC_DelSig_1_IRQ Interrupt. */
ARM GAS  C:\Users\hoangp\AppData\Local\Temp\cc4n80oh.s 			page 54


1062:.\Generated_Source\PSoC5/ADC_DelSig_V.c ****     CyIntSetVector(ADC_DelSig_V_IRQ__INTC_NUMBER, ADC_DelSig_V_ISR1);
 1957              		.loc 1 1062 0
 1958 0012 4FF01D00 		mov	r0, #29
 1959 0016 40F20001 		movw	r1, #:lower16:ADC_DelSig_V_ISR1
 1960 001a C0F20001 		movt	r1, #:upper16:ADC_DelSig_V_ISR1
 1961 001e FFF7FEFF 		bl	CyIntSetVector
1063:.\Generated_Source\PSoC5/ADC_DelSig_V.c **** 
1064:.\Generated_Source\PSoC5/ADC_DelSig_V.c ****     /* Set the priority. */
1065:.\Generated_Source\PSoC5/ADC_DelSig_V.c ****     CyIntSetPriority(ADC_DelSig_V_IRQ__INTC_NUMBER, ADC_DelSig_V_IRQ_INTC_PRIOR_NUMBER);
 1962              		.loc 1 1065 0
 1963 0022 4FF01D00 		mov	r0, #29
 1964 0026 4FF00701 		mov	r1, #7
 1965 002a FFF7FEFF 		bl	CyIntSetPriority
1066:.\Generated_Source\PSoC5/ADC_DelSig_V.c **** 
1067:.\Generated_Source\PSoC5/ADC_DelSig_V.c ****     /* Enable interrupt. */
1068:.\Generated_Source\PSoC5/ADC_DelSig_V.c ****     CyIntEnable(ADC_DelSig_V_IRQ__INTC_NUMBER);
 1966              		.loc 1 1068 0
 1967 002e 4EF20013 		movw	r3, #:lower16:-536813312
 1968 0032 CEF20003 		movt	r3, #:upper16:-536813312
 1969 0036 4FF00052 		mov	r2, #536870912
 1970 003a 1A60     		str	r2, [r3, #0]
1069:.\Generated_Source\PSoC5/ADC_DelSig_V.c **** }
 1971              		.loc 1 1069 0
 1972 003c 80BD     		pop	{r7, pc}
 1973              		.cfi_endproc
 1974              	.LFE23:
 1975              		.size	ADC_DelSig_V_IRQ_Start, .-ADC_DelSig_V_IRQ_Start
 1976 003e 00BF     		.section	.text.ADC_DelSig_V_InitConfig,"ax",%progbits
 1977              		.align	2
 1978              		.global	ADC_DelSig_V_InitConfig
 1979              		.thumb
 1980              		.thumb_func
 1981              		.type	ADC_DelSig_V_InitConfig, %function
 1982              	ADC_DelSig_V_InitConfig:
 1983              	.LFB24:
1070:.\Generated_Source\PSoC5/ADC_DelSig_V.c **** 
1071:.\Generated_Source\PSoC5/ADC_DelSig_V.c **** 
1072:.\Generated_Source\PSoC5/ADC_DelSig_V.c **** /*******************************************************************************
1073:.\Generated_Source\PSoC5/ADC_DelSig_V.c **** * Function Name: ADC_DelSig_V_InitConfig(uint8 config)
1074:.\Generated_Source\PSoC5/ADC_DelSig_V.c **** ********************************************************************************
1075:.\Generated_Source\PSoC5/ADC_DelSig_V.c **** *
1076:.\Generated_Source\PSoC5/ADC_DelSig_V.c **** * Summary:
1077:.\Generated_Source\PSoC5/ADC_DelSig_V.c **** *  Initializes all registers based on customizer settings
1078:.\Generated_Source\PSoC5/ADC_DelSig_V.c **** *
1079:.\Generated_Source\PSoC5/ADC_DelSig_V.c **** * Parameters:  
1080:.\Generated_Source\PSoC5/ADC_DelSig_V.c **** *   void
1081:.\Generated_Source\PSoC5/ADC_DelSig_V.c **** *
1082:.\Generated_Source\PSoC5/ADC_DelSig_V.c **** * Return: 
1083:.\Generated_Source\PSoC5/ADC_DelSig_V.c **** *  void
1084:.\Generated_Source\PSoC5/ADC_DelSig_V.c **** *
1085:.\Generated_Source\PSoC5/ADC_DelSig_V.c **** * Global variables:
1086:.\Generated_Source\PSoC5/ADC_DelSig_V.c **** *  ADC_DelSig_V_initVar:  used to set the common registers in the beginning.
1087:.\Generated_Source\PSoC5/ADC_DelSig_V.c **** *  ADC_DelSig_V_CountsPerVolt:  Used to set the default counts per volt.
1088:.\Generated_Source\PSoC5/ADC_DelSig_V.c **** *
1089:.\Generated_Source\PSoC5/ADC_DelSig_V.c **** *******************************************************************************/
1090:.\Generated_Source\PSoC5/ADC_DelSig_V.c **** void ADC_DelSig_V_InitConfig(uint8 config) 
1091:.\Generated_Source\PSoC5/ADC_DelSig_V.c **** {
ARM GAS  C:\Users\hoangp\AppData\Local\Temp\cc4n80oh.s 			page 55


 1984              		.loc 1 1091 0
 1985              		.cfi_startproc
 1986              		@ args = 0, pretend = 0, frame = 8
 1987              		@ frame_needed = 1, uses_anonymous_args = 0
 1988 0000 80B5     		push	{r7, lr}
 1989              	.LCFI61:
 1990              		.cfi_def_cfa_offset 8
 1991 0002 82B0     		sub	sp, sp, #8
 1992              	.LCFI62:
 1993              		.cfi_def_cfa_offset 16
 1994 0004 00AF     		add	r7, sp, #0
 1995              		.cfi_offset 14, -4
 1996              		.cfi_offset 7, -8
 1997              	.LCFI63:
 1998              		.cfi_def_cfa_register 7
 1999 0006 0346     		mov	r3, r0
 2000 0008 FB71     		strb	r3, [r7, #7]
1092:.\Generated_Source\PSoC5/ADC_DelSig_V.c ****     ADC_DelSig_V_stopConversion = 0u;
 2001              		.loc 1 1092 0
 2002 000a 40F20003 		movw	r3, #:lower16:ADC_DelSig_V_stopConversion
 2003 000e C0F20003 		movt	r3, #:upper16:ADC_DelSig_V_stopConversion
 2004 0012 4FF00002 		mov	r2, #0
 2005 0016 1A70     		strb	r2, [r3, #0]
1093:.\Generated_Source\PSoC5/ADC_DelSig_V.c ****     
1094:.\Generated_Source\PSoC5/ADC_DelSig_V.c ****     if(ADC_DelSig_V_initVar == 0u)
 2006              		.loc 1 1094 0
 2007 0018 40F20003 		movw	r3, #:lower16:ADC_DelSig_V_initVar
 2008 001c C0F20003 		movt	r3, #:upper16:ADC_DelSig_V_initVar
 2009 0020 1B78     		ldrb	r3, [r3, #0]	@ zero_extendqisi2
 2010 0022 002B     		cmp	r3, #0
 2011 0024 68D1     		bne	.L91
1095:.\Generated_Source\PSoC5/ADC_DelSig_V.c ****         {
1096:.\Generated_Source\PSoC5/ADC_DelSig_V.c ****             ADC_DelSig_V_DSM_DEM0_REG    = ADC_DelSig_V_CFG1_DSM_DEM0;    
 2012              		.loc 1 1096 0
 2013 0026 45F69603 		movw	r3, #:lower16:1073764502
 2014 002a C4F20003 		movt	r3, #:upper16:1073764502
 2015 002e 4FF00702 		mov	r2, #7
 2016 0032 1A70     		strb	r2, [r3, #0]
1097:.\Generated_Source\PSoC5/ADC_DelSig_V.c ****             ADC_DelSig_V_DSM_DEM1_REG    = ADC_DelSig_V_CFG1_DSM_DEM1;    
 2017              		.loc 1 1097 0
 2018 0034 45F69703 		movw	r3, #:lower16:1073764503
 2019 0038 C4F20003 		movt	r3, #:upper16:1073764503
 2020 003c 4FF00002 		mov	r2, #0
 2021 0040 1A70     		strb	r2, [r3, #0]
1098:.\Generated_Source\PSoC5/ADC_DelSig_V.c ****             ADC_DelSig_V_DSM_MISC_REG    = ADC_DelSig_V_CFG1_DSM_MISC;    
 2022              		.loc 1 1098 0
 2023 0042 45F69E03 		movw	r3, #:lower16:1073764510
 2024 0046 C4F20003 		movt	r3, #:upper16:1073764510
 2025 004a 4FF00002 		mov	r2, #0
 2026 004e 1A70     		strb	r2, [r3, #0]
1099:.\Generated_Source\PSoC5/ADC_DelSig_V.c ****             ADC_DelSig_V_DSM_CLK_REG    |= ADC_DelSig_V_CFG1_DSM_CLK; 
 2027              		.loc 1 1099 0
 2028 0050 45F60733 		movw	r3, #:lower16:1073765127
 2029 0054 C4F20003 		movt	r3, #:upper16:1073765127
 2030 0058 45F60732 		movw	r2, #:lower16:1073765127
 2031 005c C4F20002 		movt	r2, #:upper16:1073765127
 2032 0060 1278     		ldrb	r2, [r2, #0]
ARM GAS  C:\Users\hoangp\AppData\Local\Temp\cc4n80oh.s 			page 56


 2033 0062 D2B2     		uxtb	r2, r2
 2034 0064 42F01802 		orr	r2, r2, #24
 2035 0068 D2B2     		uxtb	r2, r2
 2036 006a 1A70     		strb	r2, [r3, #0]
1100:.\Generated_Source\PSoC5/ADC_DelSig_V.c ****             ADC_DelSig_V_DSM_REF1_REG    = ADC_DelSig_V_CFG1_DSM_REF1;    
 2037              		.loc 1 1100 0
 2038 006c 45F69303 		movw	r3, #:lower16:1073764499
 2039 0070 C4F20003 		movt	r3, #:upper16:1073764499
 2040 0074 4FF00002 		mov	r2, #0
 2041 0078 1A70     		strb	r2, [r3, #0]
1101:.\Generated_Source\PSoC5/ADC_DelSig_V.c ****         
1102:.\Generated_Source\PSoC5/ADC_DelSig_V.c ****             ADC_DelSig_V_DSM_OUT0_REG    = ADC_DelSig_V_CFG1_DSM_OUT0;    
 2042              		.loc 1 1102 0
 2043 007a 45F68833 		movw	r3, #:lower16:1073765256
 2044 007e C4F20003 		movt	r3, #:upper16:1073765256
 2045 0082 4FF00002 		mov	r2, #0
 2046 0086 1A70     		strb	r2, [r3, #0]
1103:.\Generated_Source\PSoC5/ADC_DelSig_V.c ****             ADC_DelSig_V_DSM_OUT1_REG    = ADC_DelSig_V_CFG1_DSM_OUT1;   
 2047              		.loc 1 1103 0
 2048 0088 45F68933 		movw	r3, #:lower16:1073765257
 2049 008c C4F20003 		movt	r3, #:upper16:1073765257
 2050 0090 4FF00002 		mov	r2, #0
 2051 0094 1A70     		strb	r2, [r3, #0]
1104:.\Generated_Source\PSoC5/ADC_DelSig_V.c ****         
1105:.\Generated_Source\PSoC5/ADC_DelSig_V.c ****             ADC_DelSig_V_DSM_CR0_REG     = ADC_DelSig_V_CFG1_DSM_CR0;     
 2052              		.loc 1 1105 0
 2053 0096 45F68003 		movw	r3, #:lower16:1073764480
 2054 009a C4F20003 		movt	r3, #:upper16:1073764480
 2055 009e 4FF00A02 		mov	r2, #10
 2056 00a2 1A70     		strb	r2, [r3, #0]
1106:.\Generated_Source\PSoC5/ADC_DelSig_V.c ****             ADC_DelSig_V_DSM_CR1_REG     = ADC_DelSig_V_CFG1_DSM_CR1;     
 2057              		.loc 1 1106 0
 2058 00a4 45F68103 		movw	r3, #:lower16:1073764481
 2059 00a8 C4F20003 		movt	r3, #:upper16:1073764481
 2060 00ac 4FF00002 		mov	r2, #0
 2061 00b0 1A70     		strb	r2, [r3, #0]
1107:.\Generated_Source\PSoC5/ADC_DelSig_V.c ****             ADC_DelSig_V_DSM_CR2_REG     = ADC_DelSig_V_CFG1_DSM_CR2;     
 2062              		.loc 1 1107 0
 2063 00b2 45F68203 		movw	r3, #:lower16:1073764482
 2064 00b6 C4F20003 		movt	r3, #:upper16:1073764482
 2065 00ba 4FF07A02 		mov	r2, #122
 2066 00be 1A70     		strb	r2, [r3, #0]
1108:.\Generated_Source\PSoC5/ADC_DelSig_V.c ****             ADC_DelSig_V_DSM_CR3_REG     = ADC_DelSig_V_CFG1_DSM_CR3;     
 2067              		.loc 1 1108 0
 2068 00c0 45F68303 		movw	r3, #:lower16:1073764483
 2069 00c4 C4F20003 		movt	r3, #:upper16:1073764483
 2070 00c8 4FF00002 		mov	r2, #0
 2071 00cc 1A70     		strb	r2, [r3, #0]
1109:.\Generated_Source\PSoC5/ADC_DelSig_V.c ****             ADC_DelSig_V_DSM_CR13_REG    = ADC_DelSig_V_CFG1_DSM_CR13;     
 2072              		.loc 1 1109 0
 2073 00ce 45F68D03 		movw	r3, #:lower16:1073764493
 2074 00d2 C4F20003 		movt	r3, #:upper16:1073764493
 2075 00d6 4FF00002 		mov	r2, #0
 2076 00da 1A70     		strb	r2, [r3, #0]
1110:.\Generated_Source\PSoC5/ADC_DelSig_V.c ****             
1111:.\Generated_Source\PSoC5/ADC_DelSig_V.c ****             ADC_DelSig_V_DEC_SR_REG      = ADC_DelSig_V_CFG1_DEC_SR;      
 2077              		.loc 1 1111 0
ARM GAS  C:\Users\hoangp\AppData\Local\Temp\cc4n80oh.s 			page 57


 2078 00dc 44F60163 		movw	r3, #:lower16:1073761793
 2079 00e0 C4F20003 		movt	r3, #:upper16:1073761793
 2080 00e4 4FF01402 		mov	r2, #20
 2081 00e8 1A70     		strb	r2, [r3, #0]
1112:.\Generated_Source\PSoC5/ADC_DelSig_V.c ****             ADC_DelSig_V_DEC_COHER_REG   = ADC_DelSig_V_CFG1_DEC_COHER;   
 2082              		.loc 1 1112 0
 2083 00ea 44F61463 		movw	r3, #:lower16:1073761812
 2084 00ee C4F20003 		movt	r3, #:upper16:1073761812
 2085 00f2 4FF00102 		mov	r2, #1
 2086 00f6 1A70     		strb	r2, [r3, #0]
 2087              	.L91:
1113:.\Generated_Source\PSoC5/ADC_DelSig_V.c ****         }
1114:.\Generated_Source\PSoC5/ADC_DelSig_V.c **** 
1115:.\Generated_Source\PSoC5/ADC_DelSig_V.c ****     if (config == 1u)
 2088              		.loc 1 1115 0
 2089 00f8 FB79     		ldrb	r3, [r7, #7]	@ zero_extendqisi2
 2090 00fa 012B     		cmp	r3, #1
 2091 00fc 40F0F680 		bne	.L92
1116:.\Generated_Source\PSoC5/ADC_DelSig_V.c ****     {
1117:.\Generated_Source\PSoC5/ADC_DelSig_V.c ****         /* Default Config */   
1118:.\Generated_Source\PSoC5/ADC_DelSig_V.c ****         ADC_DelSig_V_DEC_CR_REG      = ADC_DelSig_V_CFG1_DEC_CR;      
 2092              		.loc 1 1118 0
 2093 0100 44F60063 		movw	r3, #:lower16:1073761792
 2094 0104 C4F20003 		movt	r3, #:upper16:1073761792
 2095 0108 4FF03802 		mov	r2, #56
 2096 010c 1A70     		strb	r2, [r3, #0]
1119:.\Generated_Source\PSoC5/ADC_DelSig_V.c ****         ADC_DelSig_V_DEC_SHIFT1_REG  = ADC_DelSig_V_CFG1_DEC_SHIFT1;  
 2097              		.loc 1 1119 0
 2098 010e 44F60263 		movw	r3, #:lower16:1073761794
 2099 0112 C4F20003 		movt	r3, #:upper16:1073761794
 2100 0116 4FF00402 		mov	r2, #4
 2101 011a 1A70     		strb	r2, [r3, #0]
1120:.\Generated_Source\PSoC5/ADC_DelSig_V.c ****         ADC_DelSig_V_DEC_SHIFT2_REG  = ADC_DelSig_V_CFG1_DEC_SHIFT2;  
 2102              		.loc 1 1120 0
 2103 011c 44F60363 		movw	r3, #:lower16:1073761795
 2104 0120 C4F20003 		movt	r3, #:upper16:1073761795
 2105 0124 4FF00602 		mov	r2, #6
 2106 0128 1A70     		strb	r2, [r3, #0]
1121:.\Generated_Source\PSoC5/ADC_DelSig_V.c ****         ADC_DelSig_V_DEC_DR2_REG     = ADC_DelSig_V_CFG1_DEC_DR2;     
 2107              		.loc 1 1121 0
 2108 012a 44F60463 		movw	r3, #:lower16:1073761796
 2109 012e C4F20003 		movt	r3, #:upper16:1073761796
 2110 0132 4FF00002 		mov	r2, #0
 2111 0136 1A70     		strb	r2, [r3, #0]
1122:.\Generated_Source\PSoC5/ADC_DelSig_V.c ****         ADC_DelSig_V_DEC_DR2H_REG    = ADC_DelSig_V_CFG1_DEC_DR2H;    
 2112              		.loc 1 1122 0
 2113 0138 44F60563 		movw	r3, #:lower16:1073761797
 2114 013c C4F20003 		movt	r3, #:upper16:1073761797
 2115 0140 4FF00002 		mov	r2, #0
 2116 0144 1A70     		strb	r2, [r3, #0]
1123:.\Generated_Source\PSoC5/ADC_DelSig_V.c ****         ADC_DelSig_V_DEC_DR1_REG     = ADC_DelSig_V_CFG1_DEC_DR1;     
 2117              		.loc 1 1123 0
 2118 0146 44F60663 		movw	r3, #:lower16:1073761798
 2119 014a C4F20003 		movt	r3, #:upper16:1073761798
 2120 014e 4FF01302 		mov	r2, #19
 2121 0152 1A70     		strb	r2, [r3, #0]
1124:.\Generated_Source\PSoC5/ADC_DelSig_V.c ****         ADC_DelSig_V_DEC_OCOR_REG    = ADC_DelSig_V_CFG1_DEC_OCOR;    
ARM GAS  C:\Users\hoangp\AppData\Local\Temp\cc4n80oh.s 			page 58


 2122              		.loc 1 1124 0
 2123 0154 44F60863 		movw	r3, #:lower16:1073761800
 2124 0158 C4F20003 		movt	r3, #:upper16:1073761800
 2125 015c 4FF00002 		mov	r2, #0
 2126 0160 1A70     		strb	r2, [r3, #0]
1125:.\Generated_Source\PSoC5/ADC_DelSig_V.c ****         ADC_DelSig_V_DEC_OCORM_REG   = ADC_DelSig_V_CFG1_DEC_OCORM;   
 2127              		.loc 1 1125 0
 2128 0162 44F60963 		movw	r3, #:lower16:1073761801
 2129 0166 C4F20003 		movt	r3, #:upper16:1073761801
 2130 016a 4FF00002 		mov	r2, #0
 2131 016e 1A70     		strb	r2, [r3, #0]
1126:.\Generated_Source\PSoC5/ADC_DelSig_V.c ****         ADC_DelSig_V_DEC_OCORH_REG   = ADC_DelSig_V_CFG1_DEC_OCORH;   
 2132              		.loc 1 1126 0
 2133 0170 44F60A63 		movw	r3, #:lower16:1073761802
 2134 0174 C4F20003 		movt	r3, #:upper16:1073761802
 2135 0178 4FF00002 		mov	r2, #0
 2136 017c 1A70     		strb	r2, [r3, #0]
1127:.\Generated_Source\PSoC5/ADC_DelSig_V.c ****         
1128:.\Generated_Source\PSoC5/ADC_DelSig_V.c ****         ADC_DelSig_V_DSM_CR4_REG     = ADC_DelSig_V_CFG1_DSM_CR4;     
 2137              		.loc 1 1128 0
 2138 017e 45F68403 		movw	r3, #:lower16:1073764484
 2139 0182 C4F20003 		movt	r3, #:upper16:1073764484
 2140 0186 4FF01402 		mov	r2, #20
 2141 018a 1A70     		strb	r2, [r3, #0]
1129:.\Generated_Source\PSoC5/ADC_DelSig_V.c ****         ADC_DelSig_V_DSM_CR5_REG     = ADC_DelSig_V_CFG1_DSM_CR5;     
 2142              		.loc 1 1129 0
 2143 018c 45F68503 		movw	r3, #:lower16:1073764485
 2144 0190 C4F20003 		movt	r3, #:upper16:1073764485
 2145 0194 4FF00B02 		mov	r2, #11
 2146 0198 1A70     		strb	r2, [r3, #0]
1130:.\Generated_Source\PSoC5/ADC_DelSig_V.c ****         ADC_DelSig_V_DSM_CR6_REG     = ADC_DelSig_V_CFG1_DSM_CR6;     
 2147              		.loc 1 1130 0
 2148 019a 45F68603 		movw	r3, #:lower16:1073764486
 2149 019e C4F20003 		movt	r3, #:upper16:1073764486
 2150 01a2 4FF03102 		mov	r2, #49
 2151 01a6 1A70     		strb	r2, [r3, #0]
1131:.\Generated_Source\PSoC5/ADC_DelSig_V.c ****         ADC_DelSig_V_DSM_CR7_REG     = ADC_DelSig_V_CFG1_DSM_CR7;     
 2152              		.loc 1 1131 0
 2153 01a8 45F68703 		movw	r3, #:lower16:1073764487
 2154 01ac C4F20003 		movt	r3, #:upper16:1073764487
 2155 01b0 4FF00002 		mov	r2, #0
 2156 01b4 1A70     		strb	r2, [r3, #0]
1132:.\Generated_Source\PSoC5/ADC_DelSig_V.c ****         ADC_DelSig_V_DSM_CR8_REG     = ADC_DelSig_V_CFG1_DSM_CR8;     
 2157              		.loc 1 1132 0
 2158 01b6 45F68803 		movw	r3, #:lower16:1073764488
 2159 01ba C4F20003 		movt	r3, #:upper16:1073764488
 2160 01be 4FF01202 		mov	r2, #18
 2161 01c2 1A70     		strb	r2, [r3, #0]
1133:.\Generated_Source\PSoC5/ADC_DelSig_V.c ****         ADC_DelSig_V_DSM_CR9_REG     = ADC_DelSig_V_CFG1_DSM_CR9;     
 2162              		.loc 1 1133 0
 2163 01c4 45F68903 		movw	r3, #:lower16:1073764489
 2164 01c8 C4F20003 		movt	r3, #:upper16:1073764489
 2165 01cc 4FF01302 		mov	r2, #19
 2166 01d0 1A70     		strb	r2, [r3, #0]
1134:.\Generated_Source\PSoC5/ADC_DelSig_V.c ****         ADC_DelSig_V_DSM_CR10_REG    = ADC_DelSig_V_CFG1_DSM_CR10;    
 2167              		.loc 1 1134 0
 2168 01d2 45F68A03 		movw	r3, #:lower16:1073764490
ARM GAS  C:\Users\hoangp\AppData\Local\Temp\cc4n80oh.s 			page 59


 2169 01d6 C4F20003 		movt	r3, #:upper16:1073764490
 2170 01da 4FF04402 		mov	r2, #68
 2171 01de 1A70     		strb	r2, [r3, #0]
1135:.\Generated_Source\PSoC5/ADC_DelSig_V.c ****         ADC_DelSig_V_DSM_CR11_REG    = ADC_DelSig_V_CFG1_DSM_CR11;    
 2172              		.loc 1 1135 0
 2173 01e0 45F68B03 		movw	r3, #:lower16:1073764491
 2174 01e4 C4F20003 		movt	r3, #:upper16:1073764491
 2175 01e8 4FF04802 		mov	r2, #72
 2176 01ec 1A70     		strb	r2, [r3, #0]
1136:.\Generated_Source\PSoC5/ADC_DelSig_V.c ****         ADC_DelSig_V_DSM_CR12_REG    = ADC_DelSig_V_CFG1_DSM_CR12;    
 2177              		.loc 1 1136 0
 2178 01ee 45F68C03 		movw	r3, #:lower16:1073764492
 2179 01f2 C4F20003 		movt	r3, #:upper16:1073764492
 2180 01f6 4FF00102 		mov	r2, #1
 2181 01fa 1A70     		strb	r2, [r3, #0]
1137:.\Generated_Source\PSoC5/ADC_DelSig_V.c ****         ADC_DelSig_V_DSM_CR14_REG    = ADC_DelSig_V_CFG1_DSM_CR14;    
 2182              		.loc 1 1137 0
 2183 01fc 45F68E03 		movw	r3, #:lower16:1073764494
 2184 0200 C4F20003 		movt	r3, #:upper16:1073764494
 2185 0204 4FF00202 		mov	r2, #2
 2186 0208 1A70     		strb	r2, [r3, #0]
1138:.\Generated_Source\PSoC5/ADC_DelSig_V.c ****         ADC_DelSig_V_DSM_CR15_REG    = ADC_DelSig_V_CFG1_DSM_CR15;    
 2187              		.loc 1 1138 0
 2188 020a 45F68F03 		movw	r3, #:lower16:1073764495
 2189 020e C4F20003 		movt	r3, #:upper16:1073764495
 2190 0212 4FF02202 		mov	r2, #34
 2191 0216 1A70     		strb	r2, [r3, #0]
1139:.\Generated_Source\PSoC5/ADC_DelSig_V.c ****         ADC_DelSig_V_DSM_CR16_REG    = ADC_DelSig_V_CFG1_DSM_CR16;    
 2192              		.loc 1 1139 0
 2193 0218 45F69003 		movw	r3, #:lower16:1073764496
 2194 021c C4F20003 		movt	r3, #:upper16:1073764496
 2195 0220 4FF02802 		mov	r2, #40
 2196 0224 1A70     		strb	r2, [r3, #0]
1140:.\Generated_Source\PSoC5/ADC_DelSig_V.c ****         ADC_DelSig_V_DSM_CR17_REG    = ADC_DelSig_V_CFG1_DSM_CR17;
 2197              		.loc 1 1140 0
 2198 0226 45F69103 		movw	r3, #:lower16:1073764497
 2199 022a C4F20003 		movt	r3, #:upper16:1073764497
 2200 022e 6FF01402 		mvn	r2, #20
 2201 0232 1A70     		strb	r2, [r3, #0]
1141:.\Generated_Source\PSoC5/ADC_DelSig_V.c **** 		/* Set DSM_REF0_REG by disabling and enabling the PRESS cirucit */
1142:.\Generated_Source\PSoC5/ADC_DelSig_V.c **** 		ADC_DelSig_V_SetDSMRef0Reg(ADC_DelSig_V_CFG1_DSM_REF0);
 2202              		.loc 1 1142 0
 2203 0234 4FF05200 		mov	r0, #82
 2204 0238 FFF7FEFF 		bl	ADC_DelSig_V_SetDSMRef0Reg
1143:.\Generated_Source\PSoC5/ADC_DelSig_V.c ****         ADC_DelSig_V_DSM_REF2_REG    = ADC_DelSig_V_CFG1_DSM_REF2;    
 2205              		.loc 1 1143 0
 2206 023c 45F69403 		movw	r3, #:lower16:1073764500
 2207 0240 C4F20003 		movt	r3, #:upper16:1073764500
 2208 0244 4FF05802 		mov	r2, #88
 2209 0248 1A70     		strb	r2, [r3, #0]
1144:.\Generated_Source\PSoC5/ADC_DelSig_V.c ****         ADC_DelSig_V_DSM_REF3_REG    = ADC_DelSig_V_CFG1_DSM_REF3;    
 2210              		.loc 1 1144 0
 2211 024a 45F69503 		movw	r3, #:lower16:1073764501
 2212 024e C4F20003 		movt	r3, #:upper16:1073764501
 2213 0252 4FF00002 		mov	r2, #0
 2214 0256 1A70     		strb	r2, [r3, #0]
1145:.\Generated_Source\PSoC5/ADC_DelSig_V.c ****         
ARM GAS  C:\Users\hoangp\AppData\Local\Temp\cc4n80oh.s 			page 60


1146:.\Generated_Source\PSoC5/ADC_DelSig_V.c ****         ADC_DelSig_V_DSM_BUF0_REG    = ADC_DelSig_V_CFG1_DSM_BUF0;    
 2215              		.loc 1 1146 0
 2216 0258 45F69A03 		movw	r3, #:lower16:1073764506
 2217 025c C4F20003 		movt	r3, #:upper16:1073764506
 2218 0260 4FF00502 		mov	r2, #5
 2219 0264 1A70     		strb	r2, [r3, #0]
1147:.\Generated_Source\PSoC5/ADC_DelSig_V.c ****         ADC_DelSig_V_DSM_BUF1_REG    = ADC_DelSig_V_CFG1_DSM_BUF1;    
 2220              		.loc 1 1147 0
 2221 0266 45F69B03 		movw	r3, #:lower16:1073764507
 2222 026a C4F20003 		movt	r3, #:upper16:1073764507
 2223 026e 4FF00202 		mov	r2, #2
 2224 0272 1A70     		strb	r2, [r3, #0]
1148:.\Generated_Source\PSoC5/ADC_DelSig_V.c ****         ADC_DelSig_V_DSM_BUF2_REG    = ADC_DelSig_V_CFG1_DSM_BUF2;   
 2225              		.loc 1 1148 0
 2226 0274 45F69C03 		movw	r3, #:lower16:1073764508
 2227 0278 C4F20003 		movt	r3, #:upper16:1073764508
 2228 027c 4FF00002 		mov	r2, #0
 2229 0280 1A70     		strb	r2, [r3, #0]
1149:.\Generated_Source\PSoC5/ADC_DelSig_V.c ****         ADC_DelSig_V_DSM_BUF3_REG    = ADC_DelSig_V_CFG1_DSM_BUF3;
 2230              		.loc 1 1149 0
 2231 0282 45F69D03 		movw	r3, #:lower16:1073764509
 2232 0286 C4F20003 		movt	r3, #:upper16:1073764509
 2233 028a 4FF00002 		mov	r2, #0
 2234 028e 1A70     		strb	r2, [r3, #0]
1150:.\Generated_Source\PSoC5/ADC_DelSig_V.c ****         #if (CY_PSOC5A)
1151:.\Generated_Source\PSoC5/ADC_DelSig_V.c ****             ADC_DelSig_V_DSM_CLK_REG    |= ADC_DelSig_V_CFG1_DSM_CLK; 
 2235              		.loc 1 1151 0
 2236 0290 45F60733 		movw	r3, #:lower16:1073765127
 2237 0294 C4F20003 		movt	r3, #:upper16:1073765127
 2238 0298 45F60732 		movw	r2, #:lower16:1073765127
 2239 029c C4F20002 		movt	r2, #:upper16:1073765127
 2240 02a0 1278     		ldrb	r2, [r2, #0]
 2241 02a2 D2B2     		uxtb	r2, r2
 2242 02a4 42F01802 		orr	r2, r2, #24
 2243 02a8 D2B2     		uxtb	r2, r2
 2244 02aa 1A70     		strb	r2, [r3, #0]
1152:.\Generated_Source\PSoC5/ADC_DelSig_V.c ****         #endif /* CY_PSOC5A */
1153:.\Generated_Source\PSoC5/ADC_DelSig_V.c ****         
1154:.\Generated_Source\PSoC5/ADC_DelSig_V.c ****         /* To select either Vssa or Vref to -ve input of DSM depending on 
1155:.\Generated_Source\PSoC5/ADC_DelSig_V.c ****           the input  range selected.
1156:.\Generated_Source\PSoC5/ADC_DelSig_V.c ****         */
1157:.\Generated_Source\PSoC5/ADC_DelSig_V.c ****         
1158:.\Generated_Source\PSoC5/ADC_DelSig_V.c ****         #if(ADC_DelSig_V_DEFAULT_INPUT_MODE)
1159:.\Generated_Source\PSoC5/ADC_DelSig_V.c ****             #if (CY_PSOC3 || CY_PSOC5LP)
1160:.\Generated_Source\PSoC5/ADC_DelSig_V.c ****                 #if (ADC_DelSig_V_CFG1_RANGE == ADC_DelSig_V_IR_VSSA_TO_2VREF)
1161:.\Generated_Source\PSoC5/ADC_DelSig_V.c ****                     ADC_DelSig_V_AMux_Select(1);
1162:.\Generated_Source\PSoC5/ADC_DelSig_V.c ****                 #else
1163:.\Generated_Source\PSoC5/ADC_DelSig_V.c ****                     ADC_DelSig_V_AMux_Select(0);
1164:.\Generated_Source\PSoC5/ADC_DelSig_V.c ****                 #endif /* ADC_DelSig_V_IR_VSSA_TO_2VREF) */
1165:.\Generated_Source\PSoC5/ADC_DelSig_V.c ****             #elif (CY_PSOC5A)
1166:.\Generated_Source\PSoC5/ADC_DelSig_V.c ****                 ADC_DelSig_V_AMux_Select(0);
 2245              		.loc 1 1166 0
 2246 02ac 4FF00000 		mov	r0, #0
 2247 02b0 FFF7FEFF 		bl	ADC_DelSig_V_AMux_Select
1167:.\Generated_Source\PSoC5/ADC_DelSig_V.c ****             #endif /* CY_PSOC3 || CY_PSOC5LP */
1168:.\Generated_Source\PSoC5/ADC_DelSig_V.c ****         #endif /* ADC_DelSig_V_DEFAULT_INPUT_MODE */
1169:.\Generated_Source\PSoC5/ADC_DelSig_V.c ****         
ARM GAS  C:\Users\hoangp\AppData\Local\Temp\cc4n80oh.s 			page 61


1170:.\Generated_Source\PSoC5/ADC_DelSig_V.c ****         /* Set the Conversion stop if resolution is above 16 bit and conversion 
1171:.\Generated_Source\PSoC5/ADC_DelSig_V.c ****            mode is Single sample */
1172:.\Generated_Source\PSoC5/ADC_DelSig_V.c ****         #if(ADC_DelSig_V_CFG1_RESOLUTION > 16 && \
1173:.\Generated_Source\PSoC5/ADC_DelSig_V.c ****             ADC_DelSig_V_CFG1_CONV_MODE == ADC_DelSig_V_MODE_SINGLE_SAMPLE) 
1174:.\Generated_Source\PSoC5/ADC_DelSig_V.c ****             ADC_DelSig_V_stopConversion = 1;
1175:.\Generated_Source\PSoC5/ADC_DelSig_V.c ****         #endif /* Single sample with resolution above 16 bits. */
1176:.\Generated_Source\PSoC5/ADC_DelSig_V.c ****         ADC_DelSig_V_CountsPerVolt = (uint32)ADC_DelSig_V_CFG1_COUNTS_PER_VOLT;
 2248              		.loc 1 1176 0
 2249 02b4 40F20003 		movw	r3, #:lower16:ADC_DelSig_V_CountsPerVolt
 2250 02b8 C0F20003 		movt	r3, #:upper16:ADC_DelSig_V_CountsPerVolt
 2251 02bc 4FF06602 		mov	r2, #102
 2252 02c0 1A60     		str	r2, [r3, #0]
1177:.\Generated_Source\PSoC5/ADC_DelSig_V.c ****         
1178:.\Generated_Source\PSoC5/ADC_DelSig_V.c ****         /* Start and set interrupt vector */
1179:.\Generated_Source\PSoC5/ADC_DelSig_V.c ****         CyIntSetPriority(ADC_DelSig_V_IRQ__INTC_NUMBER, ADC_DelSig_V_IRQ_INTC_PRIOR_NUMBER);
 2253              		.loc 1 1179 0
 2254 02c2 4FF01D00 		mov	r0, #29
 2255 02c6 4FF00701 		mov	r1, #7
 2256 02ca FFF7FEFF 		bl	CyIntSetPriority
1180:.\Generated_Source\PSoC5/ADC_DelSig_V.c ****         CyIntSetVector(ADC_DelSig_V_IRQ__INTC_NUMBER, ADC_DelSig_V_ISR1 );
 2257              		.loc 1 1180 0
 2258 02ce 4FF01D00 		mov	r0, #29
 2259 02d2 40F20001 		movw	r1, #:lower16:ADC_DelSig_V_ISR1
 2260 02d6 C0F20001 		movt	r1, #:upper16:ADC_DelSig_V_ISR1
 2261 02da FFF7FEFF 		bl	CyIntSetVector
1181:.\Generated_Source\PSoC5/ADC_DelSig_V.c ****         CyIntEnable(ADC_DelSig_V_IRQ__INTC_NUMBER);
 2262              		.loc 1 1181 0
 2263 02de 4EF20013 		movw	r3, #:lower16:-536813312
 2264 02e2 CEF20003 		movt	r3, #:upper16:-536813312
 2265 02e6 4FF00052 		mov	r2, #536870912
 2266 02ea 1A60     		str	r2, [r3, #0]
 2267              	.L92:
1182:.\Generated_Source\PSoC5/ADC_DelSig_V.c ****     }
1183:.\Generated_Source\PSoC5/ADC_DelSig_V.c ****     
1184:.\Generated_Source\PSoC5/ADC_DelSig_V.c ****     #if(ADC_DelSig_V_DEFAULT_NUM_CONFIGS > 1)
1185:.\Generated_Source\PSoC5/ADC_DelSig_V.c ****         if(config == 2u)
 2268              		.loc 1 1185 0
 2269 02ec FB79     		ldrb	r3, [r7, #7]	@ zero_extendqisi2
 2270 02ee 022B     		cmp	r3, #2
 2271 02f0 40F0F680 		bne	.L93
1186:.\Generated_Source\PSoC5/ADC_DelSig_V.c ****         {
1187:.\Generated_Source\PSoC5/ADC_DelSig_V.c ****             /* Second Config */
1188:.\Generated_Source\PSoC5/ADC_DelSig_V.c ****             ADC_DelSig_V_DEC_CR_REG      = ADC_DelSig_V_CFG2_DEC_CR;      
 2272              		.loc 1 1188 0
 2273 02f4 44F60063 		movw	r3, #:lower16:1073761792
 2274 02f8 C4F20003 		movt	r3, #:upper16:1073761792
 2275 02fc 4FF03802 		mov	r2, #56
 2276 0300 1A70     		strb	r2, [r3, #0]
1189:.\Generated_Source\PSoC5/ADC_DelSig_V.c ****             ADC_DelSig_V_DEC_SHIFT1_REG  = ADC_DelSig_V_CFG2_DEC_SHIFT1;  
 2277              		.loc 1 1189 0
 2278 0302 44F60263 		movw	r3, #:lower16:1073761794
 2279 0306 C4F20003 		movt	r3, #:upper16:1073761794
 2280 030a 4FF00402 		mov	r2, #4
 2281 030e 1A70     		strb	r2, [r3, #0]
1190:.\Generated_Source\PSoC5/ADC_DelSig_V.c ****             ADC_DelSig_V_DEC_SHIFT2_REG  = ADC_DelSig_V_CFG2_DEC_SHIFT2;  
 2282              		.loc 1 1190 0
 2283 0310 44F60363 		movw	r3, #:lower16:1073761795
ARM GAS  C:\Users\hoangp\AppData\Local\Temp\cc4n80oh.s 			page 62


 2284 0314 C4F20003 		movt	r3, #:upper16:1073761795
 2285 0318 4FF00602 		mov	r2, #6
 2286 031c 1A70     		strb	r2, [r3, #0]
1191:.\Generated_Source\PSoC5/ADC_DelSig_V.c ****             ADC_DelSig_V_DEC_DR2_REG     = ADC_DelSig_V_CFG2_DEC_DR2;     
 2287              		.loc 1 1191 0
 2288 031e 44F60463 		movw	r3, #:lower16:1073761796
 2289 0322 C4F20003 		movt	r3, #:upper16:1073761796
 2290 0326 4FF00002 		mov	r2, #0
 2291 032a 1A70     		strb	r2, [r3, #0]
1192:.\Generated_Source\PSoC5/ADC_DelSig_V.c ****             ADC_DelSig_V_DEC_DR2H_REG    = ADC_DelSig_V_CFG2_DEC_DR2H;    
 2292              		.loc 1 1192 0
 2293 032c 44F60563 		movw	r3, #:lower16:1073761797
 2294 0330 C4F20003 		movt	r3, #:upper16:1073761797
 2295 0334 4FF00002 		mov	r2, #0
 2296 0338 1A70     		strb	r2, [r3, #0]
1193:.\Generated_Source\PSoC5/ADC_DelSig_V.c ****             ADC_DelSig_V_DEC_DR1_REG     = ADC_DelSig_V_CFG2_DEC_DR1;     
 2297              		.loc 1 1193 0
 2298 033a 44F60663 		movw	r3, #:lower16:1073761798
 2299 033e C4F20003 		movt	r3, #:upper16:1073761798
 2300 0342 4FF03F02 		mov	r2, #63
 2301 0346 1A70     		strb	r2, [r3, #0]
1194:.\Generated_Source\PSoC5/ADC_DelSig_V.c ****             ADC_DelSig_V_DEC_OCOR_REG    = ADC_DelSig_V_CFG2_DEC_OCOR;    
 2302              		.loc 1 1194 0
 2303 0348 44F60863 		movw	r3, #:lower16:1073761800
 2304 034c C4F20003 		movt	r3, #:upper16:1073761800
 2305 0350 4FF00002 		mov	r2, #0
 2306 0354 1A70     		strb	r2, [r3, #0]
1195:.\Generated_Source\PSoC5/ADC_DelSig_V.c ****             ADC_DelSig_V_DEC_OCORM_REG   = ADC_DelSig_V_CFG2_DEC_OCORM;   
 2307              		.loc 1 1195 0
 2308 0356 44F60963 		movw	r3, #:lower16:1073761801
 2309 035a C4F20003 		movt	r3, #:upper16:1073761801
 2310 035e 4FF00002 		mov	r2, #0
 2311 0362 1A70     		strb	r2, [r3, #0]
1196:.\Generated_Source\PSoC5/ADC_DelSig_V.c ****             ADC_DelSig_V_DEC_OCORH_REG   = ADC_DelSig_V_CFG2_DEC_OCORH;   
 2312              		.loc 1 1196 0
 2313 0364 44F60A63 		movw	r3, #:lower16:1073761802
 2314 0368 C4F20003 		movt	r3, #:upper16:1073761802
 2315 036c 4FF00002 		mov	r2, #0
 2316 0370 1A70     		strb	r2, [r3, #0]
1197:.\Generated_Source\PSoC5/ADC_DelSig_V.c ****         
1198:.\Generated_Source\PSoC5/ADC_DelSig_V.c ****             ADC_DelSig_V_DSM_CR4_REG     = ADC_DelSig_V_CFG2_DSM_CR4;     
 2317              		.loc 1 1198 0
 2318 0372 45F68403 		movw	r3, #:lower16:1073764484
 2319 0376 C4F20003 		movt	r3, #:upper16:1073764484
 2320 037a 4FF05002 		mov	r2, #80
 2321 037e 1A70     		strb	r2, [r3, #0]
1199:.\Generated_Source\PSoC5/ADC_DelSig_V.c ****             ADC_DelSig_V_DSM_CR5_REG     = ADC_DelSig_V_CFG2_DSM_CR5;     
 2322              		.loc 1 1199 0
 2323 0380 45F68503 		movw	r3, #:lower16:1073764485
 2324 0384 C4F20003 		movt	r3, #:upper16:1073764485
 2325 0388 4FF02702 		mov	r2, #39
 2326 038c 1A70     		strb	r2, [r3, #0]
1200:.\Generated_Source\PSoC5/ADC_DelSig_V.c ****             ADC_DelSig_V_DSM_CR6_REG     = ADC_DelSig_V_CFG2_DSM_CR6;     
 2327              		.loc 1 1200 0
 2328 038e 45F68603 		movw	r3, #:lower16:1073764486
 2329 0392 C4F20003 		movt	r3, #:upper16:1073764486
 2330 0396 4FF02C02 		mov	r2, #44
ARM GAS  C:\Users\hoangp\AppData\Local\Temp\cc4n80oh.s 			page 63


 2331 039a 1A70     		strb	r2, [r3, #0]
1201:.\Generated_Source\PSoC5/ADC_DelSig_V.c ****             ADC_DelSig_V_DSM_CR7_REG     = ADC_DelSig_V_CFG2_DSM_CR7;     
 2332              		.loc 1 1201 0
 2333 039c 45F68703 		movw	r3, #:lower16:1073764487
 2334 03a0 C4F20003 		movt	r3, #:upper16:1073764487
 2335 03a4 4FF00002 		mov	r2, #0
 2336 03a8 1A70     		strb	r2, [r3, #0]
1202:.\Generated_Source\PSoC5/ADC_DelSig_V.c ****             ADC_DelSig_V_DSM_CR8_REG     = ADC_DelSig_V_CFG2_DSM_CR8;     
 2337              		.loc 1 1202 0
 2338 03aa 45F68803 		movw	r3, #:lower16:1073764488
 2339 03ae C4F20003 		movt	r3, #:upper16:1073764488
 2340 03b2 4FF01202 		mov	r2, #18
 2341 03b6 1A70     		strb	r2, [r3, #0]
1203:.\Generated_Source\PSoC5/ADC_DelSig_V.c ****             ADC_DelSig_V_DSM_CR9_REG     = ADC_DelSig_V_CFG2_DSM_CR9;     
 2342              		.loc 1 1203 0
 2343 03b8 45F68903 		movw	r3, #:lower16:1073764489
 2344 03bc C4F20003 		movt	r3, #:upper16:1073764489
 2345 03c0 4FF01302 		mov	r2, #19
 2346 03c4 1A70     		strb	r2, [r3, #0]
1204:.\Generated_Source\PSoC5/ADC_DelSig_V.c ****             ADC_DelSig_V_DSM_CR10_REG    = ADC_DelSig_V_CFG2_DSM_CR10;    
 2347              		.loc 1 1204 0
 2348 03c6 45F68A03 		movw	r3, #:lower16:1073764490
 2349 03ca C4F20003 		movt	r3, #:upper16:1073764490
 2350 03ce 4FF05502 		mov	r2, #85
 2351 03d2 1A70     		strb	r2, [r3, #0]
1205:.\Generated_Source\PSoC5/ADC_DelSig_V.c ****             ADC_DelSig_V_DSM_CR11_REG    = ADC_DelSig_V_CFG2_DSM_CR11;    
 2352              		.loc 1 1205 0
 2353 03d4 45F68B03 		movw	r3, #:lower16:1073764491
 2354 03d8 C4F20003 		movt	r3, #:upper16:1073764491
 2355 03dc 4FF05A02 		mov	r2, #90
 2356 03e0 1A70     		strb	r2, [r3, #0]
1206:.\Generated_Source\PSoC5/ADC_DelSig_V.c ****             ADC_DelSig_V_DSM_CR12_REG    = ADC_DelSig_V_CFG2_DSM_CR12;    
 2357              		.loc 1 1206 0
 2358 03e2 45F68C03 		movw	r3, #:lower16:1073764492
 2359 03e6 C4F20003 		movt	r3, #:upper16:1073764492
 2360 03ea 4FF00502 		mov	r2, #5
 2361 03ee 1A70     		strb	r2, [r3, #0]
1207:.\Generated_Source\PSoC5/ADC_DelSig_V.c ****             ADC_DelSig_V_DSM_CR14_REG    = ADC_DelSig_V_CFG2_DSM_CR14;    
 2362              		.loc 1 1207 0
 2363 03f0 45F68E03 		movw	r3, #:lower16:1073764494
 2364 03f4 C4F20003 		movt	r3, #:upper16:1073764494
 2365 03f8 4FF00102 		mov	r2, #1
 2366 03fc 1A70     		strb	r2, [r3, #0]
1208:.\Generated_Source\PSoC5/ADC_DelSig_V.c ****             ADC_DelSig_V_DSM_CR15_REG    = ADC_DelSig_V_CFG2_DSM_CR15;    
 2367              		.loc 1 1208 0
 2368 03fe 45F68F03 		movw	r3, #:lower16:1073764495
 2369 0402 C4F20003 		movt	r3, #:upper16:1073764495
 2370 0406 4FF01102 		mov	r2, #17
 2371 040a 1A70     		strb	r2, [r3, #0]
1209:.\Generated_Source\PSoC5/ADC_DelSig_V.c ****             ADC_DelSig_V_DSM_CR16_REG    = ADC_DelSig_V_CFG2_DSM_CR16;    
 2372              		.loc 1 1209 0
 2373 040c 45F69003 		movw	r3, #:lower16:1073764496
 2374 0410 C4F20003 		movt	r3, #:upper16:1073764496
 2375 0414 4FF01902 		mov	r2, #25
 2376 0418 1A70     		strb	r2, [r3, #0]
1210:.\Generated_Source\PSoC5/ADC_DelSig_V.c ****             ADC_DelSig_V_DSM_CR17_REG    = ADC_DelSig_V_CFG2_DSM_CR17;    
 2377              		.loc 1 1210 0
ARM GAS  C:\Users\hoangp\AppData\Local\Temp\cc4n80oh.s 			page 64


 2378 041a 45F69103 		movw	r3, #:lower16:1073764497
 2379 041e C4F20003 		movt	r3, #:upper16:1073764497
 2380 0422 6FF06802 		mvn	r2, #104
 2381 0426 1A70     		strb	r2, [r3, #0]
1211:.\Generated_Source\PSoC5/ADC_DelSig_V.c **** 			/* Set DSM_REF0_REG by disabling and enabling the PRESS cirucit */
1212:.\Generated_Source\PSoC5/ADC_DelSig_V.c **** 			ADC_DelSig_V_SetDSMRef0Reg(ADC_DelSig_V_CFG2_DSM_REF0);
 2382              		.loc 1 1212 0
 2383 0428 4FF04400 		mov	r0, #68
 2384 042c FFF7FEFF 		bl	ADC_DelSig_V_SetDSMRef0Reg
1213:.\Generated_Source\PSoC5/ADC_DelSig_V.c ****             ADC_DelSig_V_DSM_REF2_REG    = ADC_DelSig_V_CFG2_DSM_REF2;    
 2385              		.loc 1 1213 0
 2386 0430 45F69403 		movw	r3, #:lower16:1073764500
 2387 0434 C4F20003 		movt	r3, #:upper16:1073764500
 2388 0438 4FF05802 		mov	r2, #88
 2389 043c 1A70     		strb	r2, [r3, #0]
1214:.\Generated_Source\PSoC5/ADC_DelSig_V.c ****             ADC_DelSig_V_DSM_REF3_REG    = ADC_DelSig_V_CFG2_DSM_REF3;    
 2390              		.loc 1 1214 0
 2391 043e 45F69503 		movw	r3, #:lower16:1073764501
 2392 0442 C4F20003 		movt	r3, #:upper16:1073764501
 2393 0446 4FF00002 		mov	r2, #0
 2394 044a 1A70     		strb	r2, [r3, #0]
1215:.\Generated_Source\PSoC5/ADC_DelSig_V.c ****         
1216:.\Generated_Source\PSoC5/ADC_DelSig_V.c ****             ADC_DelSig_V_DSM_BUF0_REG    = ADC_DelSig_V_CFG2_DSM_BUF0;    
 2395              		.loc 1 1216 0
 2396 044c 45F69A03 		movw	r3, #:lower16:1073764506
 2397 0450 C4F20003 		movt	r3, #:upper16:1073764506
 2398 0454 4FF00502 		mov	r2, #5
 2399 0458 1A70     		strb	r2, [r3, #0]
1217:.\Generated_Source\PSoC5/ADC_DelSig_V.c ****             ADC_DelSig_V_DSM_BUF1_REG    = ADC_DelSig_V_CFG2_DSM_BUF1;    
 2400              		.loc 1 1217 0
 2401 045a 45F69B03 		movw	r3, #:lower16:1073764507
 2402 045e C4F20003 		movt	r3, #:upper16:1073764507
 2403 0462 4FF00202 		mov	r2, #2
 2404 0466 1A70     		strb	r2, [r3, #0]
1218:.\Generated_Source\PSoC5/ADC_DelSig_V.c ****             ADC_DelSig_V_DSM_BUF2_REG    = ADC_DelSig_V_CFG2_DSM_BUF2;    
 2405              		.loc 1 1218 0
 2406 0468 45F69C03 		movw	r3, #:lower16:1073764508
 2407 046c C4F20003 		movt	r3, #:upper16:1073764508
 2408 0470 4FF00102 		mov	r2, #1
 2409 0474 1A70     		strb	r2, [r3, #0]
1219:.\Generated_Source\PSoC5/ADC_DelSig_V.c ****             ADC_DelSig_V_DSM_BUF3_REG    = ADC_DelSig_V_CFG2_DSM_BUF3; 
 2410              		.loc 1 1219 0
 2411 0476 45F69D03 		movw	r3, #:lower16:1073764509
 2412 047a C4F20003 		movt	r3, #:upper16:1073764509
 2413 047e 4FF00002 		mov	r2, #0
 2414 0482 1A70     		strb	r2, [r3, #0]
1220:.\Generated_Source\PSoC5/ADC_DelSig_V.c ****             #if (CY_PSOC5A)
1221:.\Generated_Source\PSoC5/ADC_DelSig_V.c ****                 ADC_DelSig_V_DSM_CLK_REG    |= ADC_DelSig_V_CFG1_DSM_CLK; 
 2415              		.loc 1 1221 0
 2416 0484 45F60733 		movw	r3, #:lower16:1073765127
 2417 0488 C4F20003 		movt	r3, #:upper16:1073765127
 2418 048c 45F60732 		movw	r2, #:lower16:1073765127
 2419 0490 C4F20002 		movt	r2, #:upper16:1073765127
 2420 0494 1278     		ldrb	r2, [r2, #0]
 2421 0496 D2B2     		uxtb	r2, r2
 2422 0498 42F01802 		orr	r2, r2, #24
 2423 049c D2B2     		uxtb	r2, r2
ARM GAS  C:\Users\hoangp\AppData\Local\Temp\cc4n80oh.s 			page 65


 2424 049e 1A70     		strb	r2, [r3, #0]
1222:.\Generated_Source\PSoC5/ADC_DelSig_V.c ****             #endif /* CY_PSOC5A */
1223:.\Generated_Source\PSoC5/ADC_DelSig_V.c ****             
1224:.\Generated_Source\PSoC5/ADC_DelSig_V.c ****             /* To select either Vssa or Vref to -ve input of DSM depending on 
1225:.\Generated_Source\PSoC5/ADC_DelSig_V.c ****                the input range selected.
1226:.\Generated_Source\PSoC5/ADC_DelSig_V.c ****             */
1227:.\Generated_Source\PSoC5/ADC_DelSig_V.c ****             
1228:.\Generated_Source\PSoC5/ADC_DelSig_V.c ****             #if(ADC_DelSig_V_DEFAULT_INPUT_MODE)
1229:.\Generated_Source\PSoC5/ADC_DelSig_V.c ****                 #if (CY_PSOC3 || CY_PSOC5LP)
1230:.\Generated_Source\PSoC5/ADC_DelSig_V.c ****                     #if (ADC_DelSig_V_CFG2_INPUT_RANGE == ADC_DelSig_V_IR_VSSA_TO_2VREF)
1231:.\Generated_Source\PSoC5/ADC_DelSig_V.c ****                         ADC_DelSig_V_AMux_Select(1);
1232:.\Generated_Source\PSoC5/ADC_DelSig_V.c ****                     #else
1233:.\Generated_Source\PSoC5/ADC_DelSig_V.c ****                         ADC_DelSig_V_AMux_Select(0);
1234:.\Generated_Source\PSoC5/ADC_DelSig_V.c ****                     #endif /* ADC_DelSig_V_IR_VSSA_TO_2VREF) */
1235:.\Generated_Source\PSoC5/ADC_DelSig_V.c ****                 #elif (CY_PSOC5A)
1236:.\Generated_Source\PSoC5/ADC_DelSig_V.c ****                     ADC_DelSig_V_AMux_Select(0);
 2425              		.loc 1 1236 0
 2426 04a0 4FF00000 		mov	r0, #0
 2427 04a4 FFF7FEFF 		bl	ADC_DelSig_V_AMux_Select
1237:.\Generated_Source\PSoC5/ADC_DelSig_V.c ****                 #endif /* CY_PSOC3 || CY_PSOC5LP */
1238:.\Generated_Source\PSoC5/ADC_DelSig_V.c ****             #endif /* ADC_DelSig_V_DEFAULT_INPUT_MODE */
1239:.\Generated_Source\PSoC5/ADC_DelSig_V.c ****             
1240:.\Generated_Source\PSoC5/ADC_DelSig_V.c ****             /* Set the Conversion stop if resolution is above 16 bit and 
1241:.\Generated_Source\PSoC5/ADC_DelSig_V.c ****                conversion mode is Single sample */
1242:.\Generated_Source\PSoC5/ADC_DelSig_V.c ****             #if(ADC_DelSig_V_CFG2_RESOLUTION > 16 && \
1243:.\Generated_Source\PSoC5/ADC_DelSig_V.c ****                 ADC_DelSig_V_CFG2_CONVMODE == ADC_DelSig_V_MODE_SINGLE_SAMPLE) 
1244:.\Generated_Source\PSoC5/ADC_DelSig_V.c ****                 ADC_DelSig_V_stopConversion = 1;
1245:.\Generated_Source\PSoC5/ADC_DelSig_V.c ****             #endif /* Single sample with resolution above 16 bits. */
1246:.\Generated_Source\PSoC5/ADC_DelSig_V.c ****             
1247:.\Generated_Source\PSoC5/ADC_DelSig_V.c ****             ADC_DelSig_V_CountsPerVolt = (uint32)ADC_DelSig_V_CFG2_COUNTS_PER_VOLT;
 2428              		.loc 1 1247 0
 2429 04a8 40F20003 		movw	r3, #:lower16:ADC_DelSig_V_CountsPerVolt
 2430 04ac C0F20003 		movt	r3, #:upper16:ADC_DelSig_V_CountsPerVolt
 2431 04b0 4FF47A42 		mov	r2, #64000
 2432 04b4 1A60     		str	r2, [r3, #0]
1248:.\Generated_Source\PSoC5/ADC_DelSig_V.c ****             
1249:.\Generated_Source\PSoC5/ADC_DelSig_V.c ****             /* Start and set interrupt vector */
1250:.\Generated_Source\PSoC5/ADC_DelSig_V.c ****             CyIntSetPriority(ADC_DelSig_V_IRQ__INTC_NUMBER, ADC_DelSig_V_IRQ_INTC_PRIOR_NUMBER);
 2433              		.loc 1 1250 0
 2434 04b6 4FF01D00 		mov	r0, #29
 2435 04ba 4FF00701 		mov	r1, #7
 2436 04be FFF7FEFF 		bl	CyIntSetPriority
1251:.\Generated_Source\PSoC5/ADC_DelSig_V.c ****             CyIntSetVector(ADC_DelSig_V_IRQ__INTC_NUMBER, ADC_DelSig_V_ISR2 );
 2437              		.loc 1 1251 0
 2438 04c2 4FF01D00 		mov	r0, #29
 2439 04c6 40F20001 		movw	r1, #:lower16:ADC_DelSig_V_ISR2
 2440 04ca C0F20001 		movt	r1, #:upper16:ADC_DelSig_V_ISR2
 2441 04ce FFF7FEFF 		bl	CyIntSetVector
1252:.\Generated_Source\PSoC5/ADC_DelSig_V.c ****             CyIntEnable(ADC_DelSig_V_IRQ__INTC_NUMBER);
 2442              		.loc 1 1252 0
 2443 04d2 4EF20013 		movw	r3, #:lower16:-536813312
 2444 04d6 CEF20003 		movt	r3, #:upper16:-536813312
 2445 04da 4FF00052 		mov	r2, #536870912
 2446 04de 1A60     		str	r2, [r3, #0]
 2447              	.L93:
1253:.\Generated_Source\PSoC5/ADC_DelSig_V.c ****         }
1254:.\Generated_Source\PSoC5/ADC_DelSig_V.c ****     #endif /* ADC_DelSig_V_DEFAULT_NUM_CONFIGS > 1 */
ARM GAS  C:\Users\hoangp\AppData\Local\Temp\cc4n80oh.s 			page 66


1255:.\Generated_Source\PSoC5/ADC_DelSig_V.c **** 
1256:.\Generated_Source\PSoC5/ADC_DelSig_V.c ****     #if(ADC_DelSig_V_DEFAULT_NUM_CONFIGS > 2)
1257:.\Generated_Source\PSoC5/ADC_DelSig_V.c ****         if(config == 3u)
 2448              		.loc 1 1257 0
 2449 04e0 FB79     		ldrb	r3, [r7, #7]	@ zero_extendqisi2
 2450 04e2 032B     		cmp	r3, #3
 2451 04e4 40F0F680 		bne	.L94
1258:.\Generated_Source\PSoC5/ADC_DelSig_V.c ****         {
1259:.\Generated_Source\PSoC5/ADC_DelSig_V.c ****             /* Third Config */
1260:.\Generated_Source\PSoC5/ADC_DelSig_V.c ****             ADC_DelSig_V_DEC_CR_REG      = ADC_DelSig_V_CFG3_DEC_CR;      
 2452              		.loc 1 1260 0
 2453 04e8 44F60063 		movw	r3, #:lower16:1073761792
 2454 04ec C4F20003 		movt	r3, #:upper16:1073761792
 2455 04f0 4FF03802 		mov	r2, #56
 2456 04f4 1A70     		strb	r2, [r3, #0]
1261:.\Generated_Source\PSoC5/ADC_DelSig_V.c ****             ADC_DelSig_V_DEC_SHIFT1_REG  = ADC_DelSig_V_CFG3_DEC_SHIFT1;  
 2457              		.loc 1 1261 0
 2458 04f6 44F60263 		movw	r3, #:lower16:1073761794
 2459 04fa C4F20003 		movt	r3, #:upper16:1073761794
 2460 04fe 4FF00402 		mov	r2, #4
 2461 0502 1A70     		strb	r2, [r3, #0]
1262:.\Generated_Source\PSoC5/ADC_DelSig_V.c ****             ADC_DelSig_V_DEC_SHIFT2_REG  = ADC_DelSig_V_CFG3_DEC_SHIFT2;  
 2462              		.loc 1 1262 0
 2463 0504 44F60363 		movw	r3, #:lower16:1073761795
 2464 0508 C4F20003 		movt	r3, #:upper16:1073761795
 2465 050c 4FF00602 		mov	r2, #6
 2466 0510 1A70     		strb	r2, [r3, #0]
1263:.\Generated_Source\PSoC5/ADC_DelSig_V.c ****             ADC_DelSig_V_DEC_DR2_REG     = ADC_DelSig_V_CFG3_DEC_DR2;     
 2467              		.loc 1 1263 0
 2468 0512 44F60463 		movw	r3, #:lower16:1073761796
 2469 0516 C4F20003 		movt	r3, #:upper16:1073761796
 2470 051a 4FF00002 		mov	r2, #0
 2471 051e 1A70     		strb	r2, [r3, #0]
1264:.\Generated_Source\PSoC5/ADC_DelSig_V.c ****             ADC_DelSig_V_DEC_DR2H_REG    = ADC_DelSig_V_CFG3_DEC_DR2H;    
 2472              		.loc 1 1264 0
 2473 0520 44F60563 		movw	r3, #:lower16:1073761797
 2474 0524 C4F20003 		movt	r3, #:upper16:1073761797
 2475 0528 4FF00002 		mov	r2, #0
 2476 052c 1A70     		strb	r2, [r3, #0]
1265:.\Generated_Source\PSoC5/ADC_DelSig_V.c ****             ADC_DelSig_V_DEC_DR1_REG     = ADC_DelSig_V_CFG3_DEC_DR1;     
 2477              		.loc 1 1265 0
 2478 052e 44F60663 		movw	r3, #:lower16:1073761798
 2479 0532 C4F20003 		movt	r3, #:upper16:1073761798
 2480 0536 4FF03F02 		mov	r2, #63
 2481 053a 1A70     		strb	r2, [r3, #0]
1266:.\Generated_Source\PSoC5/ADC_DelSig_V.c ****             ADC_DelSig_V_DEC_OCOR_REG    = ADC_DelSig_V_CFG3_DEC_OCOR;    
 2482              		.loc 1 1266 0
 2483 053c 44F60863 		movw	r3, #:lower16:1073761800
 2484 0540 C4F20003 		movt	r3, #:upper16:1073761800
 2485 0544 4FF00002 		mov	r2, #0
 2486 0548 1A70     		strb	r2, [r3, #0]
1267:.\Generated_Source\PSoC5/ADC_DelSig_V.c ****             ADC_DelSig_V_DEC_OCORM_REG   = ADC_DelSig_V_CFG3_DEC_OCORM;   
 2487              		.loc 1 1267 0
 2488 054a 44F60963 		movw	r3, #:lower16:1073761801
 2489 054e C4F20003 		movt	r3, #:upper16:1073761801
 2490 0552 4FF00002 		mov	r2, #0
 2491 0556 1A70     		strb	r2, [r3, #0]
ARM GAS  C:\Users\hoangp\AppData\Local\Temp\cc4n80oh.s 			page 67


1268:.\Generated_Source\PSoC5/ADC_DelSig_V.c ****             ADC_DelSig_V_DEC_OCORH_REG   = ADC_DelSig_V_CFG3_DEC_OCORH;   
 2492              		.loc 1 1268 0
 2493 0558 44F60A63 		movw	r3, #:lower16:1073761802
 2494 055c C4F20003 		movt	r3, #:upper16:1073761802
 2495 0560 4FF00002 		mov	r2, #0
 2496 0564 1A70     		strb	r2, [r3, #0]
1269:.\Generated_Source\PSoC5/ADC_DelSig_V.c ****          
1270:.\Generated_Source\PSoC5/ADC_DelSig_V.c ****             ADC_DelSig_V_DSM_CR4_REG     = ADC_DelSig_V_CFG3_DSM_CR4;     
 2497              		.loc 1 1270 0
 2498 0566 45F68403 		movw	r3, #:lower16:1073764484
 2499 056a C4F20003 		movt	r3, #:upper16:1073764484
 2500 056e 4FF05002 		mov	r2, #80
 2501 0572 1A70     		strb	r2, [r3, #0]
1271:.\Generated_Source\PSoC5/ADC_DelSig_V.c ****             ADC_DelSig_V_DSM_CR5_REG     = ADC_DelSig_V_CFG3_DSM_CR5;     
 2502              		.loc 1 1271 0
 2503 0574 45F68503 		movw	r3, #:lower16:1073764485
 2504 0578 C4F20003 		movt	r3, #:upper16:1073764485
 2505 057c 4FF02702 		mov	r2, #39
 2506 0580 1A70     		strb	r2, [r3, #0]
1272:.\Generated_Source\PSoC5/ADC_DelSig_V.c ****             ADC_DelSig_V_DSM_CR6_REG     = ADC_DelSig_V_CFG3_DSM_CR6;     
 2507              		.loc 1 1272 0
 2508 0582 45F68603 		movw	r3, #:lower16:1073764486
 2509 0586 C4F20003 		movt	r3, #:upper16:1073764486
 2510 058a 4FF02C02 		mov	r2, #44
 2511 058e 1A70     		strb	r2, [r3, #0]
1273:.\Generated_Source\PSoC5/ADC_DelSig_V.c ****             ADC_DelSig_V_DSM_CR7_REG     = ADC_DelSig_V_CFG3_DSM_CR7;     
 2512              		.loc 1 1273 0
 2513 0590 45F68703 		movw	r3, #:lower16:1073764487
 2514 0594 C4F20003 		movt	r3, #:upper16:1073764487
 2515 0598 4FF00002 		mov	r2, #0
 2516 059c 1A70     		strb	r2, [r3, #0]
1274:.\Generated_Source\PSoC5/ADC_DelSig_V.c ****             ADC_DelSig_V_DSM_CR8_REG     = ADC_DelSig_V_CFG3_DSM_CR8;     
 2517              		.loc 1 1274 0
 2518 059e 45F68803 		movw	r3, #:lower16:1073764488
 2519 05a2 C4F20003 		movt	r3, #:upper16:1073764488
 2520 05a6 4FF01202 		mov	r2, #18
 2521 05aa 1A70     		strb	r2, [r3, #0]
1275:.\Generated_Source\PSoC5/ADC_DelSig_V.c ****             ADC_DelSig_V_DSM_CR9_REG     = ADC_DelSig_V_CFG3_DSM_CR9;     
 2522              		.loc 1 1275 0
 2523 05ac 45F68903 		movw	r3, #:lower16:1073764489
 2524 05b0 C4F20003 		movt	r3, #:upper16:1073764489
 2525 05b4 4FF01302 		mov	r2, #19
 2526 05b8 1A70     		strb	r2, [r3, #0]
1276:.\Generated_Source\PSoC5/ADC_DelSig_V.c ****             ADC_DelSig_V_DSM_CR10_REG    = ADC_DelSig_V_CFG3_DSM_CR10;    
 2527              		.loc 1 1276 0
 2528 05ba 45F68A03 		movw	r3, #:lower16:1073764490
 2529 05be C4F20003 		movt	r3, #:upper16:1073764490
 2530 05c2 4FF05502 		mov	r2, #85
 2531 05c6 1A70     		strb	r2, [r3, #0]
1277:.\Generated_Source\PSoC5/ADC_DelSig_V.c ****             ADC_DelSig_V_DSM_CR11_REG    = ADC_DelSig_V_CFG3_DSM_CR11;    
 2532              		.loc 1 1277 0
 2533 05c8 45F68B03 		movw	r3, #:lower16:1073764491
 2534 05cc C4F20003 		movt	r3, #:upper16:1073764491
 2535 05d0 4FF05A02 		mov	r2, #90
 2536 05d4 1A70     		strb	r2, [r3, #0]
1278:.\Generated_Source\PSoC5/ADC_DelSig_V.c ****             ADC_DelSig_V_DSM_CR12_REG    = ADC_DelSig_V_CFG3_DSM_CR12;    
 2537              		.loc 1 1278 0
ARM GAS  C:\Users\hoangp\AppData\Local\Temp\cc4n80oh.s 			page 68


 2538 05d6 45F68C03 		movw	r3, #:lower16:1073764492
 2539 05da C4F20003 		movt	r3, #:upper16:1073764492
 2540 05de 4FF00502 		mov	r2, #5
 2541 05e2 1A70     		strb	r2, [r3, #0]
1279:.\Generated_Source\PSoC5/ADC_DelSig_V.c ****             ADC_DelSig_V_DSM_CR14_REG    = ADC_DelSig_V_CFG3_DSM_CR14;    
 2542              		.loc 1 1279 0
 2543 05e4 45F68E03 		movw	r3, #:lower16:1073764494
 2544 05e8 C4F20003 		movt	r3, #:upper16:1073764494
 2545 05ec 4FF00102 		mov	r2, #1
 2546 05f0 1A70     		strb	r2, [r3, #0]
1280:.\Generated_Source\PSoC5/ADC_DelSig_V.c ****             ADC_DelSig_V_DSM_CR15_REG    = ADC_DelSig_V_CFG3_DSM_CR15;    
 2547              		.loc 1 1280 0
 2548 05f2 45F68F03 		movw	r3, #:lower16:1073764495
 2549 05f6 C4F20003 		movt	r3, #:upper16:1073764495
 2550 05fa 4FF01102 		mov	r2, #17
 2551 05fe 1A70     		strb	r2, [r3, #0]
1281:.\Generated_Source\PSoC5/ADC_DelSig_V.c ****             ADC_DelSig_V_DSM_CR16_REG    = ADC_DelSig_V_CFG3_DSM_CR16;    
 2552              		.loc 1 1281 0
 2553 0600 45F69003 		movw	r3, #:lower16:1073764496
 2554 0604 C4F20003 		movt	r3, #:upper16:1073764496
 2555 0608 4FF01902 		mov	r2, #25
 2556 060c 1A70     		strb	r2, [r3, #0]
1282:.\Generated_Source\PSoC5/ADC_DelSig_V.c ****             ADC_DelSig_V_DSM_CR17_REG    = ADC_DelSig_V_CFG3_DSM_CR17;    
 2557              		.loc 1 1282 0
 2558 060e 45F69103 		movw	r3, #:lower16:1073764497
 2559 0612 C4F20003 		movt	r3, #:upper16:1073764497
 2560 0616 6FF06802 		mvn	r2, #104
 2561 061a 1A70     		strb	r2, [r3, #0]
1283:.\Generated_Source\PSoC5/ADC_DelSig_V.c **** 			/* Set DSM_REF0_REG by disabling and enabling the PRESS cirucit */
1284:.\Generated_Source\PSoC5/ADC_DelSig_V.c **** 			ADC_DelSig_V_SetDSMRef0Reg(ADC_DelSig_V_CFG3_DSM_REF0);
 2562              		.loc 1 1284 0
 2563 061c 4FF04400 		mov	r0, #68
 2564 0620 FFF7FEFF 		bl	ADC_DelSig_V_SetDSMRef0Reg
1285:.\Generated_Source\PSoC5/ADC_DelSig_V.c ****             ADC_DelSig_V_DSM_REF2_REG    = ADC_DelSig_V_CFG3_DSM_REF2;    
 2565              		.loc 1 1285 0
 2566 0624 45F69403 		movw	r3, #:lower16:1073764500
 2567 0628 C4F20003 		movt	r3, #:upper16:1073764500
 2568 062c 4FF05802 		mov	r2, #88
 2569 0630 1A70     		strb	r2, [r3, #0]
1286:.\Generated_Source\PSoC5/ADC_DelSig_V.c ****             ADC_DelSig_V_DSM_REF3_REG    = ADC_DelSig_V_CFG3_DSM_REF3;    
 2570              		.loc 1 1286 0
 2571 0632 45F69503 		movw	r3, #:lower16:1073764501
 2572 0636 C4F20003 		movt	r3, #:upper16:1073764501
 2573 063a 4FF00002 		mov	r2, #0
 2574 063e 1A70     		strb	r2, [r3, #0]
1287:.\Generated_Source\PSoC5/ADC_DelSig_V.c ****         
1288:.\Generated_Source\PSoC5/ADC_DelSig_V.c ****             ADC_DelSig_V_DSM_BUF0_REG    = ADC_DelSig_V_CFG3_DSM_BUF0;    
 2575              		.loc 1 1288 0
 2576 0640 45F69A03 		movw	r3, #:lower16:1073764506
 2577 0644 C4F20003 		movt	r3, #:upper16:1073764506
 2578 0648 4FF00502 		mov	r2, #5
 2579 064c 1A70     		strb	r2, [r3, #0]
1289:.\Generated_Source\PSoC5/ADC_DelSig_V.c ****             ADC_DelSig_V_DSM_BUF1_REG    = ADC_DelSig_V_CFG3_DSM_BUF1;    
 2580              		.loc 1 1289 0
 2581 064e 45F69B03 		movw	r3, #:lower16:1073764507
 2582 0652 C4F20003 		movt	r3, #:upper16:1073764507
 2583 0656 4FF00202 		mov	r2, #2
ARM GAS  C:\Users\hoangp\AppData\Local\Temp\cc4n80oh.s 			page 69


 2584 065a 1A70     		strb	r2, [r3, #0]
1290:.\Generated_Source\PSoC5/ADC_DelSig_V.c ****             ADC_DelSig_V_DSM_BUF2_REG    = ADC_DelSig_V_CFG3_DSM_BUF2;
 2585              		.loc 1 1290 0
 2586 065c 45F69C03 		movw	r3, #:lower16:1073764508
 2587 0660 C4F20003 		movt	r3, #:upper16:1073764508
 2588 0664 4FF00102 		mov	r2, #1
 2589 0668 1A70     		strb	r2, [r3, #0]
1291:.\Generated_Source\PSoC5/ADC_DelSig_V.c ****             ADC_DelSig_V_DSM_BUF3_REG    = ADC_DelSig_V_CFG3_DSM_BUF3;
 2590              		.loc 1 1291 0
 2591 066a 45F69D03 		movw	r3, #:lower16:1073764509
 2592 066e C4F20003 		movt	r3, #:upper16:1073764509
 2593 0672 4FF00002 		mov	r2, #0
 2594 0676 1A70     		strb	r2, [r3, #0]
1292:.\Generated_Source\PSoC5/ADC_DelSig_V.c ****             #if (CY_PSOC5A)
1293:.\Generated_Source\PSoC5/ADC_DelSig_V.c ****                 ADC_DelSig_V_DSM_CLK_REG    |= ADC_DelSig_V_CFG1_DSM_CLK; 
 2595              		.loc 1 1293 0
 2596 0678 45F60733 		movw	r3, #:lower16:1073765127
 2597 067c C4F20003 		movt	r3, #:upper16:1073765127
 2598 0680 45F60732 		movw	r2, #:lower16:1073765127
 2599 0684 C4F20002 		movt	r2, #:upper16:1073765127
 2600 0688 1278     		ldrb	r2, [r2, #0]
 2601 068a D2B2     		uxtb	r2, r2
 2602 068c 42F01802 		orr	r2, r2, #24
 2603 0690 D2B2     		uxtb	r2, r2
 2604 0692 1A70     		strb	r2, [r3, #0]
1294:.\Generated_Source\PSoC5/ADC_DelSig_V.c ****             #endif /* CY_PSOC5A */
1295:.\Generated_Source\PSoC5/ADC_DelSig_V.c ****             
1296:.\Generated_Source\PSoC5/ADC_DelSig_V.c ****             /* To select either Vssa or Vref to -ve input of DSM depending on 
1297:.\Generated_Source\PSoC5/ADC_DelSig_V.c ****                the input range selected.
1298:.\Generated_Source\PSoC5/ADC_DelSig_V.c ****             */
1299:.\Generated_Source\PSoC5/ADC_DelSig_V.c ****             
1300:.\Generated_Source\PSoC5/ADC_DelSig_V.c ****             #if(ADC_DelSig_V_DEFAULT_INPUT_MODE)
1301:.\Generated_Source\PSoC5/ADC_DelSig_V.c ****                 #if (CY_PSOC3 || CY_PSOC5LP)
1302:.\Generated_Source\PSoC5/ADC_DelSig_V.c ****                     #if (ADC_DelSig_V_CFG3_INPUT_RANGE == ADC_DelSig_V_IR_VSSA_TO_2VREF)
1303:.\Generated_Source\PSoC5/ADC_DelSig_V.c ****                         ADC_DelSig_V_AMux_Select(1);
1304:.\Generated_Source\PSoC5/ADC_DelSig_V.c ****                     #else
1305:.\Generated_Source\PSoC5/ADC_DelSig_V.c ****                         ADC_DelSig_V_AMux_Select(0);
1306:.\Generated_Source\PSoC5/ADC_DelSig_V.c ****                     #endif /* ADC_DelSig_V_IR_VSSA_TO_2VREF) */
1307:.\Generated_Source\PSoC5/ADC_DelSig_V.c ****                 #elif (CY_PSOC5A)
1308:.\Generated_Source\PSoC5/ADC_DelSig_V.c ****                     ADC_DelSig_V_AMux_Select(0);
 2605              		.loc 1 1308 0
 2606 0694 4FF00000 		mov	r0, #0
 2607 0698 FFF7FEFF 		bl	ADC_DelSig_V_AMux_Select
1309:.\Generated_Source\PSoC5/ADC_DelSig_V.c ****                 #endif /* CY_PSOC3 || CY_PSOC5LP */
1310:.\Generated_Source\PSoC5/ADC_DelSig_V.c ****             #endif /* ADC_DelSig_V_DEFAULT_INPUT_MODE */
1311:.\Generated_Source\PSoC5/ADC_DelSig_V.c ****                        
1312:.\Generated_Source\PSoC5/ADC_DelSig_V.c ****             /* Set the Conversion stop if resolution is above 16 bit and 
1313:.\Generated_Source\PSoC5/ADC_DelSig_V.c ****                conversion  mode is Single sample */
1314:.\Generated_Source\PSoC5/ADC_DelSig_V.c ****             #if(ADC_DelSig_V_CFG3_RESOLUTION > 16 && \
1315:.\Generated_Source\PSoC5/ADC_DelSig_V.c ****                 ADC_DelSig_V_CFG3_CONVMODE == ADC_DelSig_V_MODE_SINGLE_SAMPLE) 
1316:.\Generated_Source\PSoC5/ADC_DelSig_V.c ****                 ADC_DelSig_V_stopConversion = 1;
1317:.\Generated_Source\PSoC5/ADC_DelSig_V.c ****             #endif /* Single sample with resolution above 16 bits */
1318:.\Generated_Source\PSoC5/ADC_DelSig_V.c ****             
1319:.\Generated_Source\PSoC5/ADC_DelSig_V.c ****             ADC_DelSig_V_CountsPerVolt = (uint32)ADC_DelSig_V_CFG3_COUNTS_PER_VOLT;
 2608              		.loc 1 1319 0
 2609 069c 40F20003 		movw	r3, #:lower16:ADC_DelSig_V_CountsPerVolt
 2610 06a0 C0F20003 		movt	r3, #:upper16:ADC_DelSig_V_CountsPerVolt
ARM GAS  C:\Users\hoangp\AppData\Local\Temp\cc4n80oh.s 			page 70


 2611 06a4 4FF47A42 		mov	r2, #64000
 2612 06a8 1A60     		str	r2, [r3, #0]
1320:.\Generated_Source\PSoC5/ADC_DelSig_V.c ****             
1321:.\Generated_Source\PSoC5/ADC_DelSig_V.c ****             /* Start and set interrupt vector */
1322:.\Generated_Source\PSoC5/ADC_DelSig_V.c ****             CyIntSetPriority(ADC_DelSig_V_IRQ__INTC_NUMBER, ADC_DelSig_V_IRQ_INTC_PRIOR_NUMBER);
 2613              		.loc 1 1322 0
 2614 06aa 4FF01D00 		mov	r0, #29
 2615 06ae 4FF00701 		mov	r1, #7
 2616 06b2 FFF7FEFF 		bl	CyIntSetPriority
1323:.\Generated_Source\PSoC5/ADC_DelSig_V.c ****             CyIntSetVector(ADC_DelSig_V_IRQ__INTC_NUMBER, ADC_DelSig_V_ISR3 );
 2617              		.loc 1 1323 0
 2618 06b6 4FF01D00 		mov	r0, #29
 2619 06ba 40F20001 		movw	r1, #:lower16:ADC_DelSig_V_ISR3
 2620 06be C0F20001 		movt	r1, #:upper16:ADC_DelSig_V_ISR3
 2621 06c2 FFF7FEFF 		bl	CyIntSetVector
1324:.\Generated_Source\PSoC5/ADC_DelSig_V.c ****             CyIntEnable(ADC_DelSig_V_IRQ__INTC_NUMBER);
 2622              		.loc 1 1324 0
 2623 06c6 4EF20013 		movw	r3, #:lower16:-536813312
 2624 06ca CEF20003 		movt	r3, #:upper16:-536813312
 2625 06ce 4FF00052 		mov	r2, #536870912
 2626 06d2 1A60     		str	r2, [r3, #0]
 2627              	.L94:
1325:.\Generated_Source\PSoC5/ADC_DelSig_V.c ****         }
1326:.\Generated_Source\PSoC5/ADC_DelSig_V.c ****     #endif /* ADC_DelSig_V_DEFAULT_NUM_CONFIGS > 3 */
1327:.\Generated_Source\PSoC5/ADC_DelSig_V.c **** 
1328:.\Generated_Source\PSoC5/ADC_DelSig_V.c ****     #if(ADC_DelSig_V_DEFAULT_NUM_CONFIGS == 4)
1329:.\Generated_Source\PSoC5/ADC_DelSig_V.c ****         if (config == 4u)
 2628              		.loc 1 1329 0
 2629 06d4 FB79     		ldrb	r3, [r7, #7]	@ zero_extendqisi2
 2630 06d6 042B     		cmp	r3, #4
 2631 06d8 40F0F680 		bne	.L96
1330:.\Generated_Source\PSoC5/ADC_DelSig_V.c ****         {
1331:.\Generated_Source\PSoC5/ADC_DelSig_V.c ****             /* Fourth Config */
1332:.\Generated_Source\PSoC5/ADC_DelSig_V.c ****             ADC_DelSig_V_DEC_CR_REG      = ADC_DelSig_V_CFG4_DEC_CR;      
 2632              		.loc 1 1332 0
 2633 06dc 44F60063 		movw	r3, #:lower16:1073761792
 2634 06e0 C4F20003 		movt	r3, #:upper16:1073761792
 2635 06e4 4FF03802 		mov	r2, #56
 2636 06e8 1A70     		strb	r2, [r3, #0]
1333:.\Generated_Source\PSoC5/ADC_DelSig_V.c ****             ADC_DelSig_V_DEC_SHIFT1_REG  = ADC_DelSig_V_CFG4_DEC_SHIFT1;  
 2637              		.loc 1 1333 0
 2638 06ea 44F60263 		movw	r3, #:lower16:1073761794
 2639 06ee C4F20003 		movt	r3, #:upper16:1073761794
 2640 06f2 4FF00402 		mov	r2, #4
 2641 06f6 1A70     		strb	r2, [r3, #0]
1334:.\Generated_Source\PSoC5/ADC_DelSig_V.c ****             ADC_DelSig_V_DEC_SHIFT2_REG  = ADC_DelSig_V_CFG4_DEC_SHIFT2;  
 2642              		.loc 1 1334 0
 2643 06f8 44F60363 		movw	r3, #:lower16:1073761795
 2644 06fc C4F20003 		movt	r3, #:upper16:1073761795
 2645 0700 4FF00602 		mov	r2, #6
 2646 0704 1A70     		strb	r2, [r3, #0]
1335:.\Generated_Source\PSoC5/ADC_DelSig_V.c ****             ADC_DelSig_V_DEC_DR2_REG     = ADC_DelSig_V_CFG4_DEC_DR2;     
 2647              		.loc 1 1335 0
 2648 0706 44F60463 		movw	r3, #:lower16:1073761796
 2649 070a C4F20003 		movt	r3, #:upper16:1073761796
 2650 070e 4FF00002 		mov	r2, #0
 2651 0712 1A70     		strb	r2, [r3, #0]
ARM GAS  C:\Users\hoangp\AppData\Local\Temp\cc4n80oh.s 			page 71


1336:.\Generated_Source\PSoC5/ADC_DelSig_V.c ****             ADC_DelSig_V_DEC_DR2H_REG    = ADC_DelSig_V_CFG4_DEC_DR2H;    
 2652              		.loc 1 1336 0
 2653 0714 44F60563 		movw	r3, #:lower16:1073761797
 2654 0718 C4F20003 		movt	r3, #:upper16:1073761797
 2655 071c 4FF00002 		mov	r2, #0
 2656 0720 1A70     		strb	r2, [r3, #0]
1337:.\Generated_Source\PSoC5/ADC_DelSig_V.c ****             ADC_DelSig_V_DEC_DR1_REG     = ADC_DelSig_V_CFG4_DEC_DR1;     
 2657              		.loc 1 1337 0
 2658 0722 44F60663 		movw	r3, #:lower16:1073761798
 2659 0726 C4F20003 		movt	r3, #:upper16:1073761798
 2660 072a 4FF03F02 		mov	r2, #63
 2661 072e 1A70     		strb	r2, [r3, #0]
1338:.\Generated_Source\PSoC5/ADC_DelSig_V.c ****             ADC_DelSig_V_DEC_OCOR_REG    = ADC_DelSig_V_CFG4_DEC_OCOR;    
 2662              		.loc 1 1338 0
 2663 0730 44F60863 		movw	r3, #:lower16:1073761800
 2664 0734 C4F20003 		movt	r3, #:upper16:1073761800
 2665 0738 4FF00002 		mov	r2, #0
 2666 073c 1A70     		strb	r2, [r3, #0]
1339:.\Generated_Source\PSoC5/ADC_DelSig_V.c ****             ADC_DelSig_V_DEC_OCORM_REG   = ADC_DelSig_V_CFG4_DEC_OCORM;   
 2667              		.loc 1 1339 0
 2668 073e 44F60963 		movw	r3, #:lower16:1073761801
 2669 0742 C4F20003 		movt	r3, #:upper16:1073761801
 2670 0746 4FF00002 		mov	r2, #0
 2671 074a 1A70     		strb	r2, [r3, #0]
1340:.\Generated_Source\PSoC5/ADC_DelSig_V.c ****             ADC_DelSig_V_DEC_OCORH_REG   = ADC_DelSig_V_CFG4_DEC_OCORH;   
 2672              		.loc 1 1340 0
 2673 074c 44F60A63 		movw	r3, #:lower16:1073761802
 2674 0750 C4F20003 		movt	r3, #:upper16:1073761802
 2675 0754 4FF00002 		mov	r2, #0
 2676 0758 1A70     		strb	r2, [r3, #0]
1341:.\Generated_Source\PSoC5/ADC_DelSig_V.c **** 
1342:.\Generated_Source\PSoC5/ADC_DelSig_V.c ****             ADC_DelSig_V_DSM_CR4_REG     = ADC_DelSig_V_CFG4_DSM_CR4;     
 2677              		.loc 1 1342 0
 2678 075a 45F68403 		movw	r3, #:lower16:1073764484
 2679 075e C4F20003 		movt	r3, #:upper16:1073764484
 2680 0762 4FF05002 		mov	r2, #80
 2681 0766 1A70     		strb	r2, [r3, #0]
1343:.\Generated_Source\PSoC5/ADC_DelSig_V.c ****             ADC_DelSig_V_DSM_CR5_REG     = ADC_DelSig_V_CFG4_DSM_CR5;     
 2682              		.loc 1 1343 0
 2683 0768 45F68503 		movw	r3, #:lower16:1073764485
 2684 076c C4F20003 		movt	r3, #:upper16:1073764485
 2685 0770 4FF02702 		mov	r2, #39
 2686 0774 1A70     		strb	r2, [r3, #0]
1344:.\Generated_Source\PSoC5/ADC_DelSig_V.c ****             ADC_DelSig_V_DSM_CR6_REG     = ADC_DelSig_V_CFG4_DSM_CR6;     
 2687              		.loc 1 1344 0
 2688 0776 45F68603 		movw	r3, #:lower16:1073764486
 2689 077a C4F20003 		movt	r3, #:upper16:1073764486
 2690 077e 4FF02C02 		mov	r2, #44
 2691 0782 1A70     		strb	r2, [r3, #0]
1345:.\Generated_Source\PSoC5/ADC_DelSig_V.c ****             ADC_DelSig_V_DSM_CR7_REG     = ADC_DelSig_V_CFG4_DSM_CR7;     
 2692              		.loc 1 1345 0
 2693 0784 45F68703 		movw	r3, #:lower16:1073764487
 2694 0788 C4F20003 		movt	r3, #:upper16:1073764487
 2695 078c 4FF00002 		mov	r2, #0
 2696 0790 1A70     		strb	r2, [r3, #0]
1346:.\Generated_Source\PSoC5/ADC_DelSig_V.c ****             ADC_DelSig_V_DSM_CR8_REG     = ADC_DelSig_V_CFG4_DSM_CR8;     
 2697              		.loc 1 1346 0
ARM GAS  C:\Users\hoangp\AppData\Local\Temp\cc4n80oh.s 			page 72


 2698 0792 45F68803 		movw	r3, #:lower16:1073764488
 2699 0796 C4F20003 		movt	r3, #:upper16:1073764488
 2700 079a 4FF01202 		mov	r2, #18
 2701 079e 1A70     		strb	r2, [r3, #0]
1347:.\Generated_Source\PSoC5/ADC_DelSig_V.c ****             ADC_DelSig_V_DSM_CR9_REG     = ADC_DelSig_V_CFG4_DSM_CR9;     
 2702              		.loc 1 1347 0
 2703 07a0 45F68903 		movw	r3, #:lower16:1073764489
 2704 07a4 C4F20003 		movt	r3, #:upper16:1073764489
 2705 07a8 4FF01302 		mov	r2, #19
 2706 07ac 1A70     		strb	r2, [r3, #0]
1348:.\Generated_Source\PSoC5/ADC_DelSig_V.c ****             ADC_DelSig_V_DSM_CR10_REG    = ADC_DelSig_V_CFG4_DSM_CR10;    
 2707              		.loc 1 1348 0
 2708 07ae 45F68A03 		movw	r3, #:lower16:1073764490
 2709 07b2 C4F20003 		movt	r3, #:upper16:1073764490
 2710 07b6 4FF05502 		mov	r2, #85
 2711 07ba 1A70     		strb	r2, [r3, #0]
1349:.\Generated_Source\PSoC5/ADC_DelSig_V.c ****             ADC_DelSig_V_DSM_CR11_REG    = ADC_DelSig_V_CFG4_DSM_CR11;    
 2712              		.loc 1 1349 0
 2713 07bc 45F68B03 		movw	r3, #:lower16:1073764491
 2714 07c0 C4F20003 		movt	r3, #:upper16:1073764491
 2715 07c4 4FF05A02 		mov	r2, #90
 2716 07c8 1A70     		strb	r2, [r3, #0]
1350:.\Generated_Source\PSoC5/ADC_DelSig_V.c ****             ADC_DelSig_V_DSM_CR12_REG    = ADC_DelSig_V_CFG4_DSM_CR12;    
 2717              		.loc 1 1350 0
 2718 07ca 45F68C03 		movw	r3, #:lower16:1073764492
 2719 07ce C4F20003 		movt	r3, #:upper16:1073764492
 2720 07d2 4FF00502 		mov	r2, #5
 2721 07d6 1A70     		strb	r2, [r3, #0]
1351:.\Generated_Source\PSoC5/ADC_DelSig_V.c ****             ADC_DelSig_V_DSM_CR14_REG    = ADC_DelSig_V_CFG4_DSM_CR14;    
 2722              		.loc 1 1351 0
 2723 07d8 45F68E03 		movw	r3, #:lower16:1073764494
 2724 07dc C4F20003 		movt	r3, #:upper16:1073764494
 2725 07e0 4FF00102 		mov	r2, #1
 2726 07e4 1A70     		strb	r2, [r3, #0]
1352:.\Generated_Source\PSoC5/ADC_DelSig_V.c ****             ADC_DelSig_V_DSM_CR15_REG    = ADC_DelSig_V_CFG4_DSM_CR15;    
 2727              		.loc 1 1352 0
 2728 07e6 45F68F03 		movw	r3, #:lower16:1073764495
 2729 07ea C4F20003 		movt	r3, #:upper16:1073764495
 2730 07ee 4FF01102 		mov	r2, #17
 2731 07f2 1A70     		strb	r2, [r3, #0]
1353:.\Generated_Source\PSoC5/ADC_DelSig_V.c ****             ADC_DelSig_V_DSM_CR16_REG    = ADC_DelSig_V_CFG4_DSM_CR16;    
 2732              		.loc 1 1353 0
 2733 07f4 45F69003 		movw	r3, #:lower16:1073764496
 2734 07f8 C4F20003 		movt	r3, #:upper16:1073764496
 2735 07fc 4FF01902 		mov	r2, #25
 2736 0800 1A70     		strb	r2, [r3, #0]
1354:.\Generated_Source\PSoC5/ADC_DelSig_V.c ****             ADC_DelSig_V_DSM_CR17_REG    = ADC_DelSig_V_CFG4_DSM_CR17;
 2737              		.loc 1 1354 0
 2738 0802 45F69103 		movw	r3, #:lower16:1073764497
 2739 0806 C4F20003 		movt	r3, #:upper16:1073764497
 2740 080a 6FF06802 		mvn	r2, #104
 2741 080e 1A70     		strb	r2, [r3, #0]
1355:.\Generated_Source\PSoC5/ADC_DelSig_V.c **** 			/* Set DSM_REF0_REG by disabling and enabling the PRESS cirucit */
1356:.\Generated_Source\PSoC5/ADC_DelSig_V.c **** 			ADC_DelSig_V_SetDSMRef0Reg(ADC_DelSig_V_CFG4_DSM_REF0);
 2742              		.loc 1 1356 0
 2743 0810 4FF04400 		mov	r0, #68
 2744 0814 FFF7FEFF 		bl	ADC_DelSig_V_SetDSMRef0Reg
ARM GAS  C:\Users\hoangp\AppData\Local\Temp\cc4n80oh.s 			page 73


1357:.\Generated_Source\PSoC5/ADC_DelSig_V.c ****             ADC_DelSig_V_DSM_REF2_REG    = ADC_DelSig_V_CFG4_DSM_REF2;    
 2745              		.loc 1 1357 0
 2746 0818 45F69403 		movw	r3, #:lower16:1073764500
 2747 081c C4F20003 		movt	r3, #:upper16:1073764500
 2748 0820 4FF05802 		mov	r2, #88
 2749 0824 1A70     		strb	r2, [r3, #0]
1358:.\Generated_Source\PSoC5/ADC_DelSig_V.c ****             ADC_DelSig_V_DSM_REF3_REG    = ADC_DelSig_V_CFG4_DSM_REF3;    
 2750              		.loc 1 1358 0
 2751 0826 45F69503 		movw	r3, #:lower16:1073764501
 2752 082a C4F20003 		movt	r3, #:upper16:1073764501
 2753 082e 4FF00002 		mov	r2, #0
 2754 0832 1A70     		strb	r2, [r3, #0]
1359:.\Generated_Source\PSoC5/ADC_DelSig_V.c ****         
1360:.\Generated_Source\PSoC5/ADC_DelSig_V.c ****             ADC_DelSig_V_DSM_BUF0_REG    = ADC_DelSig_V_CFG4_DSM_BUF0;    
 2755              		.loc 1 1360 0
 2756 0834 45F69A03 		movw	r3, #:lower16:1073764506
 2757 0838 C4F20003 		movt	r3, #:upper16:1073764506
 2758 083c 4FF00502 		mov	r2, #5
 2759 0840 1A70     		strb	r2, [r3, #0]
1361:.\Generated_Source\PSoC5/ADC_DelSig_V.c ****             ADC_DelSig_V_DSM_BUF1_REG    = ADC_DelSig_V_CFG4_DSM_BUF1;    
 2760              		.loc 1 1361 0
 2761 0842 45F69B03 		movw	r3, #:lower16:1073764507
 2762 0846 C4F20003 		movt	r3, #:upper16:1073764507
 2763 084a 4FF00202 		mov	r2, #2
 2764 084e 1A70     		strb	r2, [r3, #0]
1362:.\Generated_Source\PSoC5/ADC_DelSig_V.c ****             ADC_DelSig_V_DSM_BUF2_REG    = ADC_DelSig_V_CFG4_DSM_BUF2;
 2765              		.loc 1 1362 0
 2766 0850 45F69C03 		movw	r3, #:lower16:1073764508
 2767 0854 C4F20003 		movt	r3, #:upper16:1073764508
 2768 0858 4FF00102 		mov	r2, #1
 2769 085c 1A70     		strb	r2, [r3, #0]
1363:.\Generated_Source\PSoC5/ADC_DelSig_V.c ****             ADC_DelSig_V_DSM_BUF3_REG    = ADC_DelSig_V_CFG4_DSM_BUF3;
 2770              		.loc 1 1363 0
 2771 085e 45F69D03 		movw	r3, #:lower16:1073764509
 2772 0862 C4F20003 		movt	r3, #:upper16:1073764509
 2773 0866 4FF00002 		mov	r2, #0
 2774 086a 1A70     		strb	r2, [r3, #0]
1364:.\Generated_Source\PSoC5/ADC_DelSig_V.c ****             #if (CY_PSOC5A)
1365:.\Generated_Source\PSoC5/ADC_DelSig_V.c ****                 ADC_DelSig_V_DSM_CLK_REG    |= ADC_DelSig_V_CFG1_DSM_CLK; 
 2775              		.loc 1 1365 0
 2776 086c 45F60733 		movw	r3, #:lower16:1073765127
 2777 0870 C4F20003 		movt	r3, #:upper16:1073765127
 2778 0874 45F60732 		movw	r2, #:lower16:1073765127
 2779 0878 C4F20002 		movt	r2, #:upper16:1073765127
 2780 087c 1278     		ldrb	r2, [r2, #0]
 2781 087e D2B2     		uxtb	r2, r2
 2782 0880 42F01802 		orr	r2, r2, #24
 2783 0884 D2B2     		uxtb	r2, r2
 2784 0886 1A70     		strb	r2, [r3, #0]
1366:.\Generated_Source\PSoC5/ADC_DelSig_V.c ****             #endif /* CY_PSOC5A */
1367:.\Generated_Source\PSoC5/ADC_DelSig_V.c ****             
1368:.\Generated_Source\PSoC5/ADC_DelSig_V.c ****             /* To select either Vssa or Vref to -ve input of DSM depending on 
1369:.\Generated_Source\PSoC5/ADC_DelSig_V.c ****                the input range selected.
1370:.\Generated_Source\PSoC5/ADC_DelSig_V.c ****             */
1371:.\Generated_Source\PSoC5/ADC_DelSig_V.c ****             
1372:.\Generated_Source\PSoC5/ADC_DelSig_V.c ****             #if(ADC_DelSig_V_DEFAULT_INPUT_MODE)
1373:.\Generated_Source\PSoC5/ADC_DelSig_V.c ****                 #if (CY_PSOC3 || CY_PSOC5LP)
ARM GAS  C:\Users\hoangp\AppData\Local\Temp\cc4n80oh.s 			page 74


1374:.\Generated_Source\PSoC5/ADC_DelSig_V.c ****                     #if (ADC_DelSig_V_CFG4_INPUT_RANGE == ADC_DelSig_V_IR_VSSA_TO_2VREF)
1375:.\Generated_Source\PSoC5/ADC_DelSig_V.c ****                         ADC_DelSig_V_AMux_Select(1);
1376:.\Generated_Source\PSoC5/ADC_DelSig_V.c ****                     #else
1377:.\Generated_Source\PSoC5/ADC_DelSig_V.c ****                         ADC_DelSig_V_AMux_Select(0);
1378:.\Generated_Source\PSoC5/ADC_DelSig_V.c ****                     #endif /* ADC_DelSig_V_IR_VSSA_TO_2VREF) */
1379:.\Generated_Source\PSoC5/ADC_DelSig_V.c ****                 #elif (CY_PSOC5A)
1380:.\Generated_Source\PSoC5/ADC_DelSig_V.c ****                     ADC_DelSig_V_AMux_Select(0);
 2785              		.loc 1 1380 0
 2786 0888 4FF00000 		mov	r0, #0
 2787 088c FFF7FEFF 		bl	ADC_DelSig_V_AMux_Select
1381:.\Generated_Source\PSoC5/ADC_DelSig_V.c ****                 #endif /* CY_PSOC3 || CY_PSOC5LP */
1382:.\Generated_Source\PSoC5/ADC_DelSig_V.c ****             #endif /* ADC_DelSig_V_DEFAULT_INPUT_MODE */
1383:.\Generated_Source\PSoC5/ADC_DelSig_V.c ****                        
1384:.\Generated_Source\PSoC5/ADC_DelSig_V.c ****             /* Set the Conversion stop if resolution is above 16 bit and 
1385:.\Generated_Source\PSoC5/ADC_DelSig_V.c ****                conversion mode is Single sample */
1386:.\Generated_Source\PSoC5/ADC_DelSig_V.c ****             #if(ADC_DelSig_V_CFG4_RESOLUTION > 16 && \
1387:.\Generated_Source\PSoC5/ADC_DelSig_V.c ****                 ADC_DelSig_V_CFG4_CONVMODE == ADC_DelSig_V_MODE_SINGLE_SAMPLE) 
1388:.\Generated_Source\PSoC5/ADC_DelSig_V.c ****                 ADC_DelSig_V_stopConversion = 1;
1389:.\Generated_Source\PSoC5/ADC_DelSig_V.c ****             #endif /* Single sample with resolution above 16 bits */
1390:.\Generated_Source\PSoC5/ADC_DelSig_V.c ****             
1391:.\Generated_Source\PSoC5/ADC_DelSig_V.c ****             ADC_DelSig_V_CountsPerVolt = (uint32)ADC_DelSig_V_CFG4_COUNTS_PER_VOLT;
 2788              		.loc 1 1391 0
 2789 0890 40F20003 		movw	r3, #:lower16:ADC_DelSig_V_CountsPerVolt
 2790 0894 C0F20003 		movt	r3, #:upper16:ADC_DelSig_V_CountsPerVolt
 2791 0898 4FF47A42 		mov	r2, #64000
 2792 089c 1A60     		str	r2, [r3, #0]
1392:.\Generated_Source\PSoC5/ADC_DelSig_V.c **** 
1393:.\Generated_Source\PSoC5/ADC_DelSig_V.c ****             /* Start and set interrupt vector */
1394:.\Generated_Source\PSoC5/ADC_DelSig_V.c ****             CyIntSetPriority(ADC_DelSig_V_IRQ__INTC_NUMBER, ADC_DelSig_V_IRQ_INTC_PRIOR_NUMBER);
 2793              		.loc 1 1394 0
 2794 089e 4FF01D00 		mov	r0, #29
 2795 08a2 4FF00701 		mov	r1, #7
 2796 08a6 FFF7FEFF 		bl	CyIntSetPriority
1395:.\Generated_Source\PSoC5/ADC_DelSig_V.c ****             CyIntSetVector(ADC_DelSig_V_IRQ__INTC_NUMBER, ADC_DelSig_V_ISR4 );
 2797              		.loc 1 1395 0
 2798 08aa 4FF01D00 		mov	r0, #29
 2799 08ae 40F20001 		movw	r1, #:lower16:ADC_DelSig_V_ISR4
 2800 08b2 C0F20001 		movt	r1, #:upper16:ADC_DelSig_V_ISR4
 2801 08b6 FFF7FEFF 		bl	CyIntSetVector
1396:.\Generated_Source\PSoC5/ADC_DelSig_V.c ****             CyIntEnable(ADC_DelSig_V_IRQ__INTC_NUMBER);
 2802              		.loc 1 1396 0
 2803 08ba 4EF20013 		movw	r3, #:lower16:-536813312
 2804 08be CEF20003 		movt	r3, #:upper16:-536813312
 2805 08c2 4FF00052 		mov	r2, #536870912
 2806 08c6 1A60     		str	r2, [r3, #0]
 2807              	.L96:
1397:.\Generated_Source\PSoC5/ADC_DelSig_V.c ****         }
1398:.\Generated_Source\PSoC5/ADC_DelSig_V.c ****     #endif /* ADC_DelSig_V_DEFAULT_NUM_CONFIGS > 4 */
1399:.\Generated_Source\PSoC5/ADC_DelSig_V.c **** }
 2808              		.loc 1 1399 0
 2809 08c8 07F10807 		add	r7, r7, #8
 2810 08cc BD46     		mov	sp, r7
 2811 08ce 80BD     		pop	{r7, pc}
 2812              		.cfi_endproc
 2813              	.LFE24:
 2814              		.size	ADC_DelSig_V_InitConfig, .-ADC_DelSig_V_InitConfig
 2815              		.section	.text.ADC_DelSig_V_RoundValue,"ax",%progbits
ARM GAS  C:\Users\hoangp\AppData\Local\Temp\cc4n80oh.s 			page 75


 2816              		.align	2
 2817              		.global	ADC_DelSig_V_RoundValue
 2818              		.thumb
 2819              		.thumb_func
 2820              		.type	ADC_DelSig_V_RoundValue, %function
 2821              	ADC_DelSig_V_RoundValue:
 2822              	.LFB25:
1400:.\Generated_Source\PSoC5/ADC_DelSig_V.c **** 
1401:.\Generated_Source\PSoC5/ADC_DelSig_V.c **** 
1402:.\Generated_Source\PSoC5/ADC_DelSig_V.c **** /*******************************************************************************
1403:.\Generated_Source\PSoC5/ADC_DelSig_V.c **** * Function Name: ADC_DelSig_V_RoundValue(uint32 busClockFreq, 
1404:.\Generated_Source\PSoC5/ADC_DelSig_V.c **** *                                            uint32 clockFreq)
1405:.\Generated_Source\PSoC5/ADC_DelSig_V.c **** ********************************************************************************
1406:.\Generated_Source\PSoC5/ADC_DelSig_V.c **** *
1407:.\Generated_Source\PSoC5/ADC_DelSig_V.c **** * Summary:
1408:.\Generated_Source\PSoC5/ADC_DelSig_V.c **** *  Function to round an integer value.
1409:.\Generated_Source\PSoC5/ADC_DelSig_V.c **** *
1410:.\Generated_Source\PSoC5/ADC_DelSig_V.c **** * Parameters:  
1411:.\Generated_Source\PSoC5/ADC_DelSig_V.c **** *  busClockFreq:  Frequency of the bus clock.
1412:.\Generated_Source\PSoC5/ADC_DelSig_V.c **** *  clockFreq:  Frequency of the component clock.
1413:.\Generated_Source\PSoC5/ADC_DelSig_V.c **** *
1414:.\Generated_Source\PSoC5/ADC_DelSig_V.c **** * Return: 
1415:.\Generated_Source\PSoC5/ADC_DelSig_V.c **** *  uint16: rounded integer value.
1416:.\Generated_Source\PSoC5/ADC_DelSig_V.c **** *
1417:.\Generated_Source\PSoC5/ADC_DelSig_V.c **** *******************************************************************************/
1418:.\Generated_Source\PSoC5/ADC_DelSig_V.c **** uint16 ADC_DelSig_V_RoundValue(uint32 busClockFreq, uint32 clockFreq) \
1419:.\Generated_Source\PSoC5/ADC_DelSig_V.c ****                                   
1420:.\Generated_Source\PSoC5/ADC_DelSig_V.c **** {
 2823              		.loc 1 1420 0
 2824              		.cfi_startproc
 2825              		@ args = 0, pretend = 0, frame = 16
 2826              		@ frame_needed = 1, uses_anonymous_args = 0
 2827              		@ link register save eliminated.
 2828 0000 80B4     		push	{r7}
 2829              	.LCFI64:
 2830              		.cfi_def_cfa_offset 4
 2831 0002 85B0     		sub	sp, sp, #20
 2832              	.LCFI65:
 2833              		.cfi_def_cfa_offset 24
 2834 0004 00AF     		add	r7, sp, #0
 2835              		.cfi_offset 7, -4
 2836              	.LCFI66:
 2837              		.cfi_def_cfa_register 7
 2838 0006 7860     		str	r0, [r7, #4]
 2839 0008 3960     		str	r1, [r7, #0]
1421:.\Generated_Source\PSoC5/ADC_DelSig_V.c ****     uint16 divider1, divider2;
1422:.\Generated_Source\PSoC5/ADC_DelSig_V.c ****     
1423:.\Generated_Source\PSoC5/ADC_DelSig_V.c ****     divider1 = ((busClockFreq * 10) / clockFreq);
 2840              		.loc 1 1423 0
 2841 000a 7A68     		ldr	r2, [r7, #4]
 2842 000c 1346     		mov	r3, r2
 2843 000e 4FEA8303 		lsl	r3, r3, #2
 2844 0012 1344     		add	r3, r3, r2
 2845 0014 4FEA4303 		lsl	r3, r3, #1
 2846 0018 1A46     		mov	r2, r3
 2847 001a 3B68     		ldr	r3, [r7, #0]
 2848 001c B2FBF3F3 		udiv	r3, r2, r3
ARM GAS  C:\Users\hoangp\AppData\Local\Temp\cc4n80oh.s 			page 76


 2849 0020 BB81     		strh	r3, [r7, #12]	@ movhi
1424:.\Generated_Source\PSoC5/ADC_DelSig_V.c ****     divider2 = (busClockFreq / clockFreq);
 2850              		.loc 1 1424 0
 2851 0022 7A68     		ldr	r2, [r7, #4]
 2852 0024 3B68     		ldr	r3, [r7, #0]
 2853 0026 B2FBF3F3 		udiv	r3, r2, r3
 2854 002a FB81     		strh	r3, [r7, #14]	@ movhi
1425:.\Generated_Source\PSoC5/ADC_DelSig_V.c ****     if ( divider1 - (divider2 * 10) >= 5)
 2855              		.loc 1 1425 0
 2856 002c BA89     		ldrh	r2, [r7, #12]
 2857 002e FB89     		ldrh	r3, [r7, #14]
 2858 0030 6FF00901 		mvn	r1, #9
 2859 0034 01FB03F3 		mul	r3, r1, r3
 2860 0038 1344     		add	r3, r2, r3
 2861 003a 042B     		cmp	r3, #4
 2862 003c 03DD     		ble	.L98
1426:.\Generated_Source\PSoC5/ADC_DelSig_V.c ****     {
1427:.\Generated_Source\PSoC5/ADC_DelSig_V.c ****         divider2 += 1;
 2863              		.loc 1 1427 0
 2864 003e FB89     		ldrh	r3, [r7, #14]	@ movhi
 2865 0040 03F10103 		add	r3, r3, #1
 2866 0044 FB81     		strh	r3, [r7, #14]	@ movhi
 2867              	.L98:
1428:.\Generated_Source\PSoC5/ADC_DelSig_V.c ****     }
1429:.\Generated_Source\PSoC5/ADC_DelSig_V.c ****     return divider2;
 2868              		.loc 1 1429 0
 2869 0046 FB89     		ldrh	r3, [r7, #14]
1430:.\Generated_Source\PSoC5/ADC_DelSig_V.c **** }
 2870              		.loc 1 1430 0
 2871 0048 1846     		mov	r0, r3
 2872 004a 07F11407 		add	r7, r7, #20
 2873 004e BD46     		mov	sp, r7
 2874 0050 80BC     		pop	{r7}
 2875 0052 7047     		bx	lr
 2876              		.cfi_endproc
 2877              	.LFE25:
 2878              		.size	ADC_DelSig_V_RoundValue, .-ADC_DelSig_V_RoundValue
 2879              		.section	.text.ADC_DelSig_V_SelectConfiguration,"ax",%progbits
 2880              		.align	2
 2881              		.global	ADC_DelSig_V_SelectConfiguration
 2882              		.thumb
 2883              		.thumb_func
 2884              		.type	ADC_DelSig_V_SelectConfiguration, %function
 2885              	ADC_DelSig_V_SelectConfiguration:
 2886              	.LFB26:
1431:.\Generated_Source\PSoC5/ADC_DelSig_V.c ****          
1432:.\Generated_Source\PSoC5/ADC_DelSig_V.c **** 
1433:.\Generated_Source\PSoC5/ADC_DelSig_V.c **** /*******************************************************************************
1434:.\Generated_Source\PSoC5/ADC_DelSig_V.c **** * Function Name: ADC_DelSig_V_SelectCofiguration(uint8 config, 
1435:.\Generated_Source\PSoC5/ADC_DelSig_V.c **** *                                                    uint8 restart)
1436:.\Generated_Source\PSoC5/ADC_DelSig_V.c **** ********************************************************************************
1437:.\Generated_Source\PSoC5/ADC_DelSig_V.c **** *
1438:.\Generated_Source\PSoC5/ADC_DelSig_V.c **** * Summary:
1439:.\Generated_Source\PSoC5/ADC_DelSig_V.c **** *  Selects the user defined configuration. This API first stops the current ADC
1440:.\Generated_Source\PSoC5/ADC_DelSig_V.c **** *  and then initializes the registers with the default values for that config. 
1441:.\Generated_Source\PSoC5/ADC_DelSig_V.c **** *  This also performs calibration by writing GCOR registers with trim values 
1442:.\Generated_Source\PSoC5/ADC_DelSig_V.c **** *  stored in the flash.
ARM GAS  C:\Users\hoangp\AppData\Local\Temp\cc4n80oh.s 			page 77


1443:.\Generated_Source\PSoC5/ADC_DelSig_V.c **** *
1444:.\Generated_Source\PSoC5/ADC_DelSig_V.c **** * Parameters:  
1445:.\Generated_Source\PSoC5/ADC_DelSig_V.c **** *  config:  configuration user wants to select.
1446:.\Generated_Source\PSoC5/ADC_DelSig_V.c **** *
1447:.\Generated_Source\PSoC5/ADC_DelSig_V.c **** * Return: 
1448:.\Generated_Source\PSoC5/ADC_DelSig_V.c **** *  void
1449:.\Generated_Source\PSoC5/ADC_DelSig_V.c **** *
1450:.\Generated_Source\PSoC5/ADC_DelSig_V.c **** *******************************************************************************/
1451:.\Generated_Source\PSoC5/ADC_DelSig_V.c **** void ADC_DelSig_V_SelectConfiguration(uint8 config, uint8 restart) \
1452:.\Generated_Source\PSoC5/ADC_DelSig_V.c ****                                               
1453:.\Generated_Source\PSoC5/ADC_DelSig_V.c **** {
 2887              		.loc 1 1453 0
 2888              		.cfi_startproc
 2889              		@ args = 0, pretend = 0, frame = 24
 2890              		@ frame_needed = 1, uses_anonymous_args = 0
 2891 0000 80B5     		push	{r7, lr}
 2892              	.LCFI67:
 2893              		.cfi_def_cfa_offset 8
 2894 0002 86B0     		sub	sp, sp, #24
 2895              	.LCFI68:
 2896              		.cfi_def_cfa_offset 32
 2897 0004 00AF     		add	r7, sp, #0
 2898              		.cfi_offset 14, -4
 2899              		.cfi_offset 7, -8
 2900              	.LCFI69:
 2901              		.cfi_def_cfa_register 7
 2902 0006 0246     		mov	r2, r0
 2903 0008 0B46     		mov	r3, r1
 2904 000a FA71     		strb	r2, [r7, #7]
 2905 000c BB71     		strb	r3, [r7, #6]
1454:.\Generated_Source\PSoC5/ADC_DelSig_V.c ****     uint8 inputRange = 0, resolution = 16;
 2906              		.loc 1 1454 0
 2907 000e 4FF00003 		mov	r3, #0
 2908 0012 BB73     		strb	r3, [r7, #14]
 2909 0014 4FF01003 		mov	r3, #16
 2910 0018 FB73     		strb	r3, [r7, #15]
1455:.\Generated_Source\PSoC5/ADC_DelSig_V.c ****     uint16 idealGain = 0, adcClockDivider = 1;    
 2911              		.loc 1 1455 0
 2912 001a 4FF00003 		mov	r3, #0
 2913 001e 3B82     		strh	r3, [r7, #16]	@ movhi
 2914 0020 4FF00103 		mov	r3, #1
 2915 0024 7B82     		strh	r3, [r7, #18]	@ movhi
1456:.\Generated_Source\PSoC5/ADC_DelSig_V.c ****     uint16 cpClockDivider = 1;
 2916              		.loc 1 1456 0
 2917 0026 4FF00103 		mov	r3, #1
 2918 002a BB82     		strh	r3, [r7, #20]	@ movhi
1457:.\Generated_Source\PSoC5/ADC_DelSig_V.c ****     uint16 idealOddGain = 0;
 2919              		.loc 1 1457 0
 2920 002c 4FF00003 		mov	r3, #0
 2921 0030 FB82     		strh	r3, [r7, #22]	@ movhi
1458:.\Generated_Source\PSoC5/ADC_DelSig_V.c ****     
1459:.\Generated_Source\PSoC5/ADC_DelSig_V.c ****     /* Check whether the config is valid or not */
1460:.\Generated_Source\PSoC5/ADC_DelSig_V.c ****     if( config <= ADC_DelSig_V_DEFAULT_NUM_CONFIGS)
 2922              		.loc 1 1460 0
 2923 0032 FB79     		ldrb	r3, [r7, #7]	@ zero_extendqisi2
 2924 0034 042B     		cmp	r3, #4
 2925 0036 00F2DE80 		bhi	.L107
ARM GAS  C:\Users\hoangp\AppData\Local\Temp\cc4n80oh.s 			page 78


1461:.\Generated_Source\PSoC5/ADC_DelSig_V.c ****     {   
1462:.\Generated_Source\PSoC5/ADC_DelSig_V.c ****        /* Set the flag to ensure start() API dont override the config
1463:.\Generated_Source\PSoC5/ADC_DelSig_V.c ****            selected if ADC is not already started */
1464:.\Generated_Source\PSoC5/ADC_DelSig_V.c ****         if(ADC_DelSig_V_initVar == 0u)
 2926              		.loc 1 1464 0
 2927 003a 40F20003 		movw	r3, #:lower16:ADC_DelSig_V_initVar
 2928 003e C0F20003 		movt	r3, #:upper16:ADC_DelSig_V_initVar
 2929 0042 1B78     		ldrb	r3, [r3, #0]	@ zero_extendqisi2
 2930 0044 002B     		cmp	r3, #0
 2931 0046 06D1     		bne	.L102
1465:.\Generated_Source\PSoC5/ADC_DelSig_V.c ****         {
1466:.\Generated_Source\PSoC5/ADC_DelSig_V.c ****             ADC_DelSig_V_started = 1u;
 2932              		.loc 1 1466 0
 2933 0048 40F20003 		movw	r3, #:lower16:ADC_DelSig_V_started
 2934 004c C0F20003 		movt	r3, #:upper16:ADC_DelSig_V_started
 2935 0050 4FF00102 		mov	r2, #1
 2936 0054 1A70     		strb	r2, [r3, #0]
 2937              	.L102:
1467:.\Generated_Source\PSoC5/ADC_DelSig_V.c ****         }
1468:.\Generated_Source\PSoC5/ADC_DelSig_V.c **** 		
1469:.\Generated_Source\PSoC5/ADC_DelSig_V.c **** 		/* Update the config flag */
1470:.\Generated_Source\PSoC5/ADC_DelSig_V.c **** 		ADC_DelSig_V_Config = config;
 2938              		.loc 1 1470 0
 2939 0056 40F20003 		movw	r3, #:lower16:ADC_DelSig_V_Config
 2940 005a C0F20003 		movt	r3, #:upper16:ADC_DelSig_V_Config
 2941 005e FA79     		ldrb	r2, [r7, #7]
 2942 0060 1A70     		strb	r2, [r3, #0]
1471:.\Generated_Source\PSoC5/ADC_DelSig_V.c ****        
1472:.\Generated_Source\PSoC5/ADC_DelSig_V.c ****         /* Stop the ADC  */
1473:.\Generated_Source\PSoC5/ADC_DelSig_V.c ****         ADC_DelSig_V_Stop();
 2943              		.loc 1 1473 0
 2944 0062 FFF7FEFF 		bl	ADC_DelSig_V_Stop
1474:.\Generated_Source\PSoC5/ADC_DelSig_V.c ****         
1475:.\Generated_Source\PSoC5/ADC_DelSig_V.c ****         #if (CY_PSOC5A)
1476:.\Generated_Source\PSoC5/ADC_DelSig_V.c ****             /* Set the structure field which checks whether or not to
1477:.\Generated_Source\PSoC5/ADC_DelSig_V.c ****                restore the power registers */
1478:.\Generated_Source\PSoC5/ADC_DelSig_V.c ****             ADC_DelSig_V_powerModeBackup.bypassRestore = ADC_DelSig_V_BYPASS_ENABLED;
 2945              		.loc 1 1478 0
 2946 0066 40F20003 		movw	r3, #:lower16:ADC_DelSig_V_powerModeBackup
 2947 006a C0F20003 		movt	r3, #:upper16:ADC_DelSig_V_powerModeBackup
 2948 006e 4FF00102 		mov	r2, #1
 2949 0072 1A72     		strb	r2, [r3, #8]
1479:.\Generated_Source\PSoC5/ADC_DelSig_V.c ****         #endif /* CY_PSOC5A */
1480:.\Generated_Source\PSoC5/ADC_DelSig_V.c ****         
1481:.\Generated_Source\PSoC5/ADC_DelSig_V.c ****         /* Set the  ADC registers based on the configuration */
1482:.\Generated_Source\PSoC5/ADC_DelSig_V.c ****         ADC_DelSig_V_InitConfig(config);
 2950              		.loc 1 1482 0
 2951 0074 FB79     		ldrb	r3, [r7, #7]	@ zero_extendqisi2
 2952 0076 1846     		mov	r0, r3
 2953 0078 FFF7FEFF 		bl	ADC_DelSig_V_InitConfig
1483:.\Generated_Source\PSoC5/ADC_DelSig_V.c ****         
1484:.\Generated_Source\PSoC5/ADC_DelSig_V.c ****         /* Trim value calculation */
1485:.\Generated_Source\PSoC5/ADC_DelSig_V.c ****         if(config == 1u)
 2954              		.loc 1 1485 0
 2955 007c FB79     		ldrb	r3, [r7, #7]	@ zero_extendqisi2
 2956 007e 012B     		cmp	r3, #1
 2957 0080 23D1     		bne	.L103
ARM GAS  C:\Users\hoangp\AppData\Local\Temp\cc4n80oh.s 			page 79


1486:.\Generated_Source\PSoC5/ADC_DelSig_V.c ****         {
1487:.\Generated_Source\PSoC5/ADC_DelSig_V.c ****             inputRange = ADC_DelSig_V_CFG1_RANGE;
 2958              		.loc 1 1487 0
 2959 0082 4FF00203 		mov	r3, #2
 2960 0086 BB73     		strb	r3, [r7, #14]
1488:.\Generated_Source\PSoC5/ADC_DelSig_V.c ****             resolution = ADC_DelSig_V_CFG1_RESOLUTION;
 2961              		.loc 1 1488 0
 2962 0088 4FF00903 		mov	r3, #9
 2963 008c FB73     		strb	r3, [r7, #15]
1489:.\Generated_Source\PSoC5/ADC_DelSig_V.c ****             idealGain = ADC_DelSig_V_CFG1_IDEAL_DEC_GAIN;
 2964              		.loc 1 1489 0
 2965 008e 4FF41043 		mov	r3, #36864
 2966 0092 3B82     		strh	r3, [r7, #16]	@ movhi
1490:.\Generated_Source\PSoC5/ADC_DelSig_V.c ****             idealOddGain = ADC_DelSig_V_CFG1_IDEAL_ODDDEC_GAIN;
 2967              		.loc 1 1490 0
 2968 0094 46F60613 		movw	r3, #26886
 2969 0098 FB82     		strh	r3, [r7, #22]	@ movhi
1491:.\Generated_Source\PSoC5/ADC_DelSig_V.c ****             adcClockDivider = ADC_DelSig_V_RoundValue((uint32)BCLK__BUS_CLK__HZ,
 2970              		.loc 1 1491 0
 2971 009a 43F20060 		movw	r0, #:lower16:24000000
 2972 009e C0F26E10 		movt	r0, #:upper16:24000000
 2973 00a2 49F2C011 		movw	r1, #:lower16:2200000
 2974 00a6 C0F22101 		movt	r1, #:upper16:2200000
 2975 00aa FFF7FEFF 		bl	ADC_DelSig_V_RoundValue
 2976 00ae 0346     		mov	r3, r0
 2977 00b0 7B82     		strh	r3, [r7, #18]	@ movhi
1492:.\Generated_Source\PSoC5/ADC_DelSig_V.c ****                                                        (uint32)ADC_DelSig_V_CFG1_CLOCK_FREQ);
1493:.\Generated_Source\PSoC5/ADC_DelSig_V.c ****             cpClockDivider = ADC_DelSig_V_RoundValue((uint32)BCLK__BUS_CLK__HZ,
 2978              		.loc 1 1493 0
 2979 00b2 43F20060 		movw	r0, #:lower16:24000000
 2980 00b6 C0F26E10 		movt	r0, #:upper16:24000000
 2981 00ba 44F20071 		movw	r1, #:lower16:8800000
 2982 00be C0F28601 		movt	r1, #:upper16:8800000
 2983 00c2 FFF7FEFF 		bl	ADC_DelSig_V_RoundValue
 2984 00c6 0346     		mov	r3, r0
 2985 00c8 BB82     		strh	r3, [r7, #20]	@ movhi
 2986              	.L103:
1494:.\Generated_Source\PSoC5/ADC_DelSig_V.c ****                                                        (uint32)ADC_DelSig_V_CFG1_CP_CLOCK_FREQ);
1495:.\Generated_Source\PSoC5/ADC_DelSig_V.c ****         }
1496:.\Generated_Source\PSoC5/ADC_DelSig_V.c **** 
1497:.\Generated_Source\PSoC5/ADC_DelSig_V.c ****         #if (ADC_DelSig_V_DEFAULT_NUM_CONFIGS > 1)
1498:.\Generated_Source\PSoC5/ADC_DelSig_V.c ****             if(config == 2u)
 2987              		.loc 1 1498 0
 2988 00ca FB79     		ldrb	r3, [r7, #7]	@ zero_extendqisi2
 2989 00cc 022B     		cmp	r3, #2
 2990 00ce 23D1     		bne	.L104
1499:.\Generated_Source\PSoC5/ADC_DelSig_V.c ****             {
1500:.\Generated_Source\PSoC5/ADC_DelSig_V.c ****                 inputRange = ADC_DelSig_V_CFG2_INPUT_RANGE;
 2991              		.loc 1 1500 0
 2992 00d0 4FF00003 		mov	r3, #0
 2993 00d4 BB73     		strb	r3, [r7, #14]
1501:.\Generated_Source\PSoC5/ADC_DelSig_V.c ****                 resolution = ADC_DelSig_V_CFG2_RESOLUTION;
 2994              		.loc 1 1501 0
 2995 00d6 4FF01003 		mov	r3, #16
 2996 00da FB73     		strb	r3, [r7, #15]
1502:.\Generated_Source\PSoC5/ADC_DelSig_V.c ****                 idealGain = ADC_DelSig_V_CFG2_IDEAL_DEC_GAIN;
 2997              		.loc 1 1502 0
ARM GAS  C:\Users\hoangp\AppData\Local\Temp\cc4n80oh.s 			page 80


 2998 00dc 49F2DB03 		movw	r3, #37083
 2999 00e0 3B82     		strh	r3, [r7, #16]	@ movhi
1503:.\Generated_Source\PSoC5/ADC_DelSig_V.c ****                 idealOddGain = ADC_DelSig_V_CFG2_IDEAL_ODDDEC_GAIN;
 3000              		.loc 1 1503 0
 3001 00e2 4FF40043 		mov	r3, #32768
 3002 00e6 FB82     		strh	r3, [r7, #22]	@ movhi
1504:.\Generated_Source\PSoC5/ADC_DelSig_V.c ****                 adcClockDivider = ADC_DelSig_V_RoundValue((uint32)BCLK__BUS_CLK__HZ,
 3003              		.loc 1 1504 0
 3004 00e8 43F20060 		movw	r0, #:lower16:24000000
 3005 00ec C0F26E10 		movt	r0, #:upper16:24000000
 3006 00f0 4CF20041 		movw	r1, #:lower16:640000
 3007 00f4 C0F20901 		movt	r1, #:upper16:640000
 3008 00f8 FFF7FEFF 		bl	ADC_DelSig_V_RoundValue
 3009 00fc 0346     		mov	r3, r0
 3010 00fe 7B82     		strh	r3, [r7, #18]	@ movhi
1505:.\Generated_Source\PSoC5/ADC_DelSig_V.c ****                                                             (uint32)ADC_DelSig_V_CFG2_CLOCK_FREQ);
1506:.\Generated_Source\PSoC5/ADC_DelSig_V.c ****                 cpClockDivider = ADC_DelSig_V_RoundValue((uint32)BCLK__BUS_CLK__HZ,
 3011              		.loc 1 1506 0
 3012 0100 43F20060 		movw	r0, #:lower16:24000000
 3013 0104 C0F26E10 		movt	r0, #:upper16:24000000
 3014 0108 41F20001 		movw	r1, #:lower16:2560000
 3015 010c C0F22701 		movt	r1, #:upper16:2560000
 3016 0110 FFF7FEFF 		bl	ADC_DelSig_V_RoundValue
 3017 0114 0346     		mov	r3, r0
 3018 0116 BB82     		strh	r3, [r7, #20]	@ movhi
 3019              	.L104:
1507:.\Generated_Source\PSoC5/ADC_DelSig_V.c ****                                                        (uint32)ADC_DelSig_V_CFG2_CP_CLOCK_FREQ);
1508:.\Generated_Source\PSoC5/ADC_DelSig_V.c ****             }
1509:.\Generated_Source\PSoC5/ADC_DelSig_V.c ****         #endif /* ADC_DelSig_V_DEFAULT_NUM_CONFIGS > 1 */
1510:.\Generated_Source\PSoC5/ADC_DelSig_V.c **** 
1511:.\Generated_Source\PSoC5/ADC_DelSig_V.c ****         #if(ADC_DelSig_V_DEFAULT_NUM_CONFIGS > 2)
1512:.\Generated_Source\PSoC5/ADC_DelSig_V.c ****             if(config == 3u)
 3020              		.loc 1 1512 0
 3021 0118 FB79     		ldrb	r3, [r7, #7]	@ zero_extendqisi2
 3022 011a 032B     		cmp	r3, #3
 3023 011c 23D1     		bne	.L105
1513:.\Generated_Source\PSoC5/ADC_DelSig_V.c ****             {
1514:.\Generated_Source\PSoC5/ADC_DelSig_V.c ****                 inputRange = ADC_DelSig_V_CFG3_INPUT_RANGE;
 3024              		.loc 1 1514 0
 3025 011e 4FF00003 		mov	r3, #0
 3026 0122 BB73     		strb	r3, [r7, #14]
1515:.\Generated_Source\PSoC5/ADC_DelSig_V.c ****                 resolution = ADC_DelSig_V_CFG3_RESOLUTION;
 3027              		.loc 1 1515 0
 3028 0124 4FF01003 		mov	r3, #16
 3029 0128 FB73     		strb	r3, [r7, #15]
1516:.\Generated_Source\PSoC5/ADC_DelSig_V.c ****                 idealGain = ADC_DelSig_V_CFG3_IDEAL_DEC_GAIN;
 3030              		.loc 1 1516 0
 3031 012a 49F2DB03 		movw	r3, #37083
 3032 012e 3B82     		strh	r3, [r7, #16]	@ movhi
1517:.\Generated_Source\PSoC5/ADC_DelSig_V.c ****                 idealOddGain = ADC_DelSig_V_CFG3_IDEAL_ODDDEC_GAIN;
 3033              		.loc 1 1517 0
 3034 0130 4FF40043 		mov	r3, #32768
 3035 0134 FB82     		strh	r3, [r7, #22]	@ movhi
1518:.\Generated_Source\PSoC5/ADC_DelSig_V.c ****                 adcClockDivider = ADC_DelSig_V_RoundValue((uint32)BCLK__BUS_CLK__HZ,
 3036              		.loc 1 1518 0
 3037 0136 43F20060 		movw	r0, #:lower16:24000000
 3038 013a C0F26E10 		movt	r0, #:upper16:24000000
ARM GAS  C:\Users\hoangp\AppData\Local\Temp\cc4n80oh.s 			page 81


 3039 013e 4CF20041 		movw	r1, #:lower16:640000
 3040 0142 C0F20901 		movt	r1, #:upper16:640000
 3041 0146 FFF7FEFF 		bl	ADC_DelSig_V_RoundValue
 3042 014a 0346     		mov	r3, r0
 3043 014c 7B82     		strh	r3, [r7, #18]	@ movhi
1519:.\Generated_Source\PSoC5/ADC_DelSig_V.c ****                                                             (uint32)ADC_DelSig_V_CFG3_CLOCK_FREQ);
1520:.\Generated_Source\PSoC5/ADC_DelSig_V.c ****                 cpClockDivider = ADC_DelSig_V_RoundValue((uint32)BCLK__BUS_CLK__HZ,
 3044              		.loc 1 1520 0
 3045 014e 43F20060 		movw	r0, #:lower16:24000000
 3046 0152 C0F26E10 		movt	r0, #:upper16:24000000
 3047 0156 41F20001 		movw	r1, #:lower16:2560000
 3048 015a C0F22701 		movt	r1, #:upper16:2560000
 3049 015e FFF7FEFF 		bl	ADC_DelSig_V_RoundValue
 3050 0162 0346     		mov	r3, r0
 3051 0164 BB82     		strh	r3, [r7, #20]	@ movhi
 3052              	.L105:
1521:.\Generated_Source\PSoC5/ADC_DelSig_V.c ****                                                        (uint32)ADC_DelSig_V_CFG3_CP_CLOCK_FREQ);
1522:.\Generated_Source\PSoC5/ADC_DelSig_V.c ****             }
1523:.\Generated_Source\PSoC5/ADC_DelSig_V.c ****         #endif /* ADC_DelSig_V_DEFAULT_NUM_CONFIGS > 2 */
1524:.\Generated_Source\PSoC5/ADC_DelSig_V.c **** 
1525:.\Generated_Source\PSoC5/ADC_DelSig_V.c ****         #if (ADC_DelSig_V_DEFAULT_NUM_CONFIGS > 3)
1526:.\Generated_Source\PSoC5/ADC_DelSig_V.c ****             if(config == 4u)
 3053              		.loc 1 1526 0
 3054 0166 FB79     		ldrb	r3, [r7, #7]	@ zero_extendqisi2
 3055 0168 042B     		cmp	r3, #4
 3056 016a 23D1     		bne	.L106
1527:.\Generated_Source\PSoC5/ADC_DelSig_V.c ****             {
1528:.\Generated_Source\PSoC5/ADC_DelSig_V.c ****                 inputRange = ADC_DelSig_V_CFG4_INPUT_RANGE;
 3057              		.loc 1 1528 0
 3058 016c 4FF00003 		mov	r3, #0
 3059 0170 BB73     		strb	r3, [r7, #14]
1529:.\Generated_Source\PSoC5/ADC_DelSig_V.c ****                 resolution = ADC_DelSig_V_CFG4_RESOLUTION;
 3060              		.loc 1 1529 0
 3061 0172 4FF01003 		mov	r3, #16
 3062 0176 FB73     		strb	r3, [r7, #15]
1530:.\Generated_Source\PSoC5/ADC_DelSig_V.c ****                 idealGain = ADC_DelSig_V_CFG4_IDEAL_DEC_GAIN;
 3063              		.loc 1 1530 0
 3064 0178 49F2DB03 		movw	r3, #37083
 3065 017c 3B82     		strh	r3, [r7, #16]	@ movhi
1531:.\Generated_Source\PSoC5/ADC_DelSig_V.c ****                 idealOddGain = ADC_DelSig_V_CFG4_IDEAL_ODDDEC_GAIN;
 3066              		.loc 1 1531 0
 3067 017e 4FF40043 		mov	r3, #32768
 3068 0182 FB82     		strh	r3, [r7, #22]	@ movhi
1532:.\Generated_Source\PSoC5/ADC_DelSig_V.c ****                 adcClockDivider = ADC_DelSig_V_RoundValue((uint32)BCLK__BUS_CLK__HZ,  
 3069              		.loc 1 1532 0
 3070 0184 43F20060 		movw	r0, #:lower16:24000000
 3071 0188 C0F26E10 		movt	r0, #:upper16:24000000
 3072 018c 4CF20041 		movw	r1, #:lower16:640000
 3073 0190 C0F20901 		movt	r1, #:upper16:640000
 3074 0194 FFF7FEFF 		bl	ADC_DelSig_V_RoundValue
 3075 0198 0346     		mov	r3, r0
 3076 019a 7B82     		strh	r3, [r7, #18]	@ movhi
1533:.\Generated_Source\PSoC5/ADC_DelSig_V.c ****                                                             (uint32)ADC_DelSig_V_CFG4_CLOCK_FREQ);
1534:.\Generated_Source\PSoC5/ADC_DelSig_V.c ****                 cpClockDivider = ADC_DelSig_V_RoundValue((uint32)BCLK__BUS_CLK__HZ,
 3077              		.loc 1 1534 0
 3078 019c 43F20060 		movw	r0, #:lower16:24000000
 3079 01a0 C0F26E10 		movt	r0, #:upper16:24000000
ARM GAS  C:\Users\hoangp\AppData\Local\Temp\cc4n80oh.s 			page 82


 3080 01a4 41F20001 		movw	r1, #:lower16:2560000
 3081 01a8 C0F22701 		movt	r1, #:upper16:2560000
 3082 01ac FFF7FEFF 		bl	ADC_DelSig_V_RoundValue
 3083 01b0 0346     		mov	r3, r0
 3084 01b2 BB82     		strh	r3, [r7, #20]	@ movhi
 3085              	.L106:
1535:.\Generated_Source\PSoC5/ADC_DelSig_V.c ****                                                        (uint32)ADC_DelSig_V_CFG4_CP_CLOCK_FREQ);
1536:.\Generated_Source\PSoC5/ADC_DelSig_V.c ****             }
1537:.\Generated_Source\PSoC5/ADC_DelSig_V.c ****         #endif /* ADC_DelSig_V_DEFAULT_NUM_CONFIGS > 3 */
1538:.\Generated_Source\PSoC5/ADC_DelSig_V.c ****         
1539:.\Generated_Source\PSoC5/ADC_DelSig_V.c ****         adcClockDivider = adcClockDivider - 1;
 3086              		.loc 1 1539 0
 3087 01b4 7B8A     		ldrh	r3, [r7, #18]	@ movhi
 3088 01b6 03F1FF33 		add	r3, r3, #-1
 3089 01ba 7B82     		strh	r3, [r7, #18]	@ movhi
1540:.\Generated_Source\PSoC5/ADC_DelSig_V.c ****         /* Set the proper divider for the internal clock */
1541:.\Generated_Source\PSoC5/ADC_DelSig_V.c ****         #if(ADC_DelSig_V_DEFAULT_INTERNAL_CLK)
1542:.\Generated_Source\PSoC5/ADC_DelSig_V.c ****             ADC_DelSig_V_theACLK_SetDividerRegister(adcClockDivider, 1);
 3090              		.loc 1 1542 0
 3091 01bc 7B8A     		ldrh	r3, [r7, #18]
 3092 01be 1846     		mov	r0, r3
 3093 01c0 4FF00101 		mov	r1, #1
 3094 01c4 FFF7FEFF 		bl	ADC_DelSig_V_theACLK_SetDividerRegister
1543:.\Generated_Source\PSoC5/ADC_DelSig_V.c ****         #endif /* ADC_DelSig_V_DEFAULT_INTERNAL_CLK */
1544:.\Generated_Source\PSoC5/ADC_DelSig_V.c ****         
1545:.\Generated_Source\PSoC5/ADC_DelSig_V.c ****         cpClockDivider = cpClockDivider - 1;
 3095              		.loc 1 1545 0
 3096 01c8 BB8A     		ldrh	r3, [r7, #20]	@ movhi
 3097 01ca 03F1FF33 		add	r3, r3, #-1
 3098 01ce BB82     		strh	r3, [r7, #20]	@ movhi
1546:.\Generated_Source\PSoC5/ADC_DelSig_V.c ****         /* Set the proper divider for the Charge pump clock */
1547:.\Generated_Source\PSoC5/ADC_DelSig_V.c ****         ADC_DelSig_V_Ext_CP_Clk_SetDividerRegister(cpClockDivider, 1);
 3099              		.loc 1 1547 0
 3100 01d0 BB8A     		ldrh	r3, [r7, #20]
 3101 01d2 1846     		mov	r0, r3
 3102 01d4 4FF00101 		mov	r1, #1
 3103 01d8 FFF7FEFF 		bl	ADC_DelSig_V_Ext_CP_Clk_SetDividerRegister
1548:.\Generated_Source\PSoC5/ADC_DelSig_V.c ****         
1549:.\Generated_Source\PSoC5/ADC_DelSig_V.c ****         /* Compensate the gain */
1550:.\Generated_Source\PSoC5/ADC_DelSig_V.c ****         ADC_DelSig_V_GainCompensation(inputRange, idealGain, idealOddGain, resolution);
 3104              		.loc 1 1550 0
 3105 01dc B87B     		ldrb	r0, [r7, #14]	@ zero_extendqisi2
 3106 01de 398A     		ldrh	r1, [r7, #16]
 3107 01e0 FA8A     		ldrh	r2, [r7, #22]
 3108 01e2 FB7B     		ldrb	r3, [r7, #15]	@ zero_extendqisi2
 3109 01e4 FFF7FEFF 		bl	ADC_DelSig_V_GainCompensation
1551:.\Generated_Source\PSoC5/ADC_DelSig_V.c ****         
1552:.\Generated_Source\PSoC5/ADC_DelSig_V.c ****         if(restart == 1u)
 3110              		.loc 1 1552 0
 3111 01e8 BB79     		ldrb	r3, [r7, #6]	@ zero_extendqisi2
 3112 01ea 012B     		cmp	r3, #1
 3113 01ec 03D1     		bne	.L107
1553:.\Generated_Source\PSoC5/ADC_DelSig_V.c ****         {        
1554:.\Generated_Source\PSoC5/ADC_DelSig_V.c ****             /* Restart the ADC */
1555:.\Generated_Source\PSoC5/ADC_DelSig_V.c ****             ADC_DelSig_V_Start();
 3114              		.loc 1 1555 0
 3115 01ee FFF7FEFF 		bl	ADC_DelSig_V_Start
ARM GAS  C:\Users\hoangp\AppData\Local\Temp\cc4n80oh.s 			page 83


1556:.\Generated_Source\PSoC5/ADC_DelSig_V.c ****             
1557:.\Generated_Source\PSoC5/ADC_DelSig_V.c ****             /* Code to disable the REFBUF0 if reference chosen is External ref */
1558:.\Generated_Source\PSoC5/ADC_DelSig_V.c ****             #if (((ADC_DelSig_V_CFG2_REFERENCE == ADC_DelSig_V_EXT_REF_ON_P03) || \
1559:.\Generated_Source\PSoC5/ADC_DelSig_V.c ****                  (ADC_DelSig_V_CFG2_REFERENCE == ADC_DelSig_V_EXT_REF_ON_P32)) || \
1560:.\Generated_Source\PSoC5/ADC_DelSig_V.c ****                  ((ADC_DelSig_V_CFG3_REFERENCE == ADC_DelSig_V_EXT_REF_ON_P03) || \
1561:.\Generated_Source\PSoC5/ADC_DelSig_V.c ****                  (ADC_DelSig_V_CFG3_REFERENCE == ADC_DelSig_V_EXT_REF_ON_P32)) || \
1562:.\Generated_Source\PSoC5/ADC_DelSig_V.c ****                  ((ADC_DelSig_V_CFG4_REFERENCE == ADC_DelSig_V_EXT_REF_ON_P03) || \
1563:.\Generated_Source\PSoC5/ADC_DelSig_V.c ****                  (ADC_DelSig_V_CFG4_REFERENCE == ADC_DelSig_V_EXT_REF_ON_P32)))
1564:.\Generated_Source\PSoC5/ADC_DelSig_V.c ****                 if (((config == 2) && 
1565:.\Generated_Source\PSoC5/ADC_DelSig_V.c ****                     ((ADC_DelSig_V_CFG2_REFERENCE == ADC_DelSig_V_EXT_REF_ON_P03) ||
1566:.\Generated_Source\PSoC5/ADC_DelSig_V.c ****                     (ADC_DelSig_V_CFG2_REFERENCE == ADC_DelSig_V_EXT_REF_ON_P32))) ||
1567:.\Generated_Source\PSoC5/ADC_DelSig_V.c ****                     ((config == 3) && 
1568:.\Generated_Source\PSoC5/ADC_DelSig_V.c ****                     ((ADC_DelSig_V_CFG3_REFERENCE == ADC_DelSig_V_EXT_REF_ON_P03) ||
1569:.\Generated_Source\PSoC5/ADC_DelSig_V.c ****                     (ADC_DelSig_V_CFG3_REFERENCE == ADC_DelSig_V_EXT_REF_ON_P32))) ||
1570:.\Generated_Source\PSoC5/ADC_DelSig_V.c ****                     ((config == 4) && 
1571:.\Generated_Source\PSoC5/ADC_DelSig_V.c ****                     ((ADC_DelSig_V_CFG4_REFERENCE == ADC_DelSig_V_EXT_REF_ON_P03) ||
1572:.\Generated_Source\PSoC5/ADC_DelSig_V.c ****                     (ADC_DelSig_V_CFG4_REFERENCE == ADC_DelSig_V_EXT_REF_ON_P32))))
1573:.\Generated_Source\PSoC5/ADC_DelSig_V.c ****                 {
1574:.\Generated_Source\PSoC5/ADC_DelSig_V.c ****                     /* Disable PRES, Enable power to VCMBUF0, REFBUF0 and 
1575:.\Generated_Source\PSoC5/ADC_DelSig_V.c ****                        REFBUF1, enable PRES */
1576:.\Generated_Source\PSoC5/ADC_DelSig_V.c ****                     #if (CY_PSOC3 || CY_PSOC5LP)
1577:.\Generated_Source\PSoC5/ADC_DelSig_V.c ****                         ADC_DelSig_V_RESET_CR4_REG |= ADC_DelSig_V_IGNORE_PRESA1;
1578:.\Generated_Source\PSoC5/ADC_DelSig_V.c ****                         ADC_DelSig_V_RESET_CR5_REG |= ADC_DelSig_V_IGNORE_PRESA2;
1579:.\Generated_Source\PSoC5/ADC_DelSig_V.c ****                     #elif (CY_PSOC5A)
1580:.\Generated_Source\PSoC5/ADC_DelSig_V.c ****                         ADC_DelSig_V_RESET_CR1_REG |= ADC_DelSig_V_DIS_PRES1;
1581:.\Generated_Source\PSoC5/ADC_DelSig_V.c ****                         ADC_DelSig_V_RESET_CR3_REG |= ADC_DelSig_V_DIS_PRES2;
1582:.\Generated_Source\PSoC5/ADC_DelSig_V.c ****                     #endif /* CY_PSOC5A */
1583:.\Generated_Source\PSoC5/ADC_DelSig_V.c ****         
1584:.\Generated_Source\PSoC5/ADC_DelSig_V.c ****                     /* Disable the REFBUF0 */
1585:.\Generated_Source\PSoC5/ADC_DelSig_V.c ****                     ADC_DelSig_V_DSM_CR17_REG &= ~ADC_DelSig_V_DSM_EN_BUF_VREF;
1586:.\Generated_Source\PSoC5/ADC_DelSig_V.c ****                     
1587:.\Generated_Source\PSoC5/ADC_DelSig_V.c ****                     /* Wait for 3 microseconds */
1588:.\Generated_Source\PSoC5/ADC_DelSig_V.c ****                     CyDelayUs(3);
1589:.\Generated_Source\PSoC5/ADC_DelSig_V.c ****                     /* Enable the press circuit */
1590:.\Generated_Source\PSoC5/ADC_DelSig_V.c ****                     #if (CY_PSOC3 || CY_PSOC5LP)
1591:.\Generated_Source\PSoC5/ADC_DelSig_V.c ****                         ADC_DelSig_V_RESET_CR4_REG &= ~ADC_DelSig_V_IGNORE_PRESA1;
1592:.\Generated_Source\PSoC5/ADC_DelSig_V.c ****                         ADC_DelSig_V_RESET_CR5_REG &= ~ADC_DelSig_V_IGNORE_PRESA2;
1593:.\Generated_Source\PSoC5/ADC_DelSig_V.c ****                     #elif (CY_PSOC5A)
1594:.\Generated_Source\PSoC5/ADC_DelSig_V.c ****                         ADC_DelSig_V_RESET_CR1_REG &= ~ADC_DelSig_V_DIS_PRES1;
1595:.\Generated_Source\PSoC5/ADC_DelSig_V.c ****                         ADC_DelSig_V_RESET_CR3_REG &= ~ADC_DelSig_V_DIS_PRES2;
1596:.\Generated_Source\PSoC5/ADC_DelSig_V.c ****                     #endif /* CY_PSOC5A */
1597:.\Generated_Source\PSoC5/ADC_DelSig_V.c ****                 }
1598:.\Generated_Source\PSoC5/ADC_DelSig_V.c ****             #endif /* */
1599:.\Generated_Source\PSoC5/ADC_DelSig_V.c ****             
1600:.\Generated_Source\PSoC5/ADC_DelSig_V.c ****             #if ((CY_PSOC3 || CY_PSOC5LP) && \
1601:.\Generated_Source\PSoC5/ADC_DelSig_V.c ****                  ((ADC_DelSig_V_CFG2_INPUT_RANGE == ADC_DelSig_V_IR_VSSA_TO_2VREF) || \
1602:.\Generated_Source\PSoC5/ADC_DelSig_V.c ****                   (ADC_DelSig_V_CFG3_INPUT_RANGE == ADC_DelSig_V_IR_VSSA_TO_2VREF) || \
1603:.\Generated_Source\PSoC5/ADC_DelSig_V.c ****                   (ADC_DelSig_V_CFG4_INPUT_RANGE == ADC_DelSig_V_IR_VSSA_TO_2VREF)))
1604:.\Generated_Source\PSoC5/ADC_DelSig_V.c ****                 if(((config == 2) && 
1605:.\Generated_Source\PSoC5/ADC_DelSig_V.c ****                     (ADC_DelSig_V_CFG2_INPUT_RANGE == ADC_DelSig_V_IR_VSSA_TO_2VREF) && 
1606:.\Generated_Source\PSoC5/ADC_DelSig_V.c ****                     ((ADC_DelSig_V_CFG2_REFERENCE != ADC_DelSig_V_EXT_REF_ON_P03) && 
1607:.\Generated_Source\PSoC5/ADC_DelSig_V.c ****                      (ADC_DelSig_V_CFG2_REFERENCE != ADC_DelSig_V_EXT_REF_ON_P32))) ||
1608:.\Generated_Source\PSoC5/ADC_DelSig_V.c ****                      ((config == 3) && 
1609:.\Generated_Source\PSoC5/ADC_DelSig_V.c ****                       (ADC_DelSig_V_CFG3_INPUT_RANGE == ADC_DelSig_V_IR_VSSA_TO_2VREF) && 
1610:.\Generated_Source\PSoC5/ADC_DelSig_V.c ****                      ((ADC_DelSig_V_CFG3_REFERENCE != ADC_DelSig_V_EXT_REF_ON_P03) && 
1611:.\Generated_Source\PSoC5/ADC_DelSig_V.c ****                      (ADC_DelSig_V_CFG3_REFERENCE != ADC_DelSig_V_EXT_REF_ON_P32))) ||
1612:.\Generated_Source\PSoC5/ADC_DelSig_V.c ****                      ((config == 4) && 
ARM GAS  C:\Users\hoangp\AppData\Local\Temp\cc4n80oh.s 			page 84


1613:.\Generated_Source\PSoC5/ADC_DelSig_V.c ****                       (ADC_DelSig_V_CFG4_INPUT_RANGE == ADC_DelSig_V_IR_VSSA_TO_2VREF) && 
1614:.\Generated_Source\PSoC5/ADC_DelSig_V.c ****                      ((ADC_DelSig_V_CFG4_REFERENCE != ADC_DelSig_V_EXT_REF_ON_P03) && 
1615:.\Generated_Source\PSoC5/ADC_DelSig_V.c ****                      (ADC_DelSig_V_CFG4_REFERENCE != ADC_DelSig_V_EXT_REF_ON_P32))))
1616:.\Generated_Source\PSoC5/ADC_DelSig_V.c ****                 {
1617:.\Generated_Source\PSoC5/ADC_DelSig_V.c ****                     /* Disable PRES, Enable power to VCMBUF0, REFBUF0 and 
1618:.\Generated_Source\PSoC5/ADC_DelSig_V.c ****                        REFBUF1, enable PRES */
1619:.\Generated_Source\PSoC5/ADC_DelSig_V.c ****                     #if (CY_PSOC3 || CY_PSOC5LP)
1620:.\Generated_Source\PSoC5/ADC_DelSig_V.c ****                         ADC_DelSig_V_RESET_CR4_REG |= ADC_DelSig_V_IGNORE_PRESA1;
1621:.\Generated_Source\PSoC5/ADC_DelSig_V.c ****                         ADC_DelSig_V_RESET_CR5_REG |= ADC_DelSig_V_IGNORE_PRESA2;
1622:.\Generated_Source\PSoC5/ADC_DelSig_V.c ****                     #elif (CY_PSOC5A)
1623:.\Generated_Source\PSoC5/ADC_DelSig_V.c ****                         ADC_DelSig_V_RESET_CR1_REG |= ADC_DelSig_V_DIS_PRES1;
1624:.\Generated_Source\PSoC5/ADC_DelSig_V.c ****                         ADC_DelSig_V_RESET_CR3_REG |= ADC_DelSig_V_DIS_PRES2;
1625:.\Generated_Source\PSoC5/ADC_DelSig_V.c ****                     #endif /* CY_PSOC5A */
1626:.\Generated_Source\PSoC5/ADC_DelSig_V.c ****         
1627:.\Generated_Source\PSoC5/ADC_DelSig_V.c ****                     /* Enable the REFBUF1 */
1628:.\Generated_Source\PSoC5/ADC_DelSig_V.c ****                     ADC_DelSig_V_DSM_REF0_REG |= ADC_DelSig_V_DSM_EN_BUF_VREF_INN;
1629:.\Generated_Source\PSoC5/ADC_DelSig_V.c ****                     
1630:.\Generated_Source\PSoC5/ADC_DelSig_V.c ****                     /* Wait for 3 microseconds */
1631:.\Generated_Source\PSoC5/ADC_DelSig_V.c ****                     CyDelayUs(3);
1632:.\Generated_Source\PSoC5/ADC_DelSig_V.c ****                     /* Enable the press circuit */
1633:.\Generated_Source\PSoC5/ADC_DelSig_V.c ****                     #if (CY_PSOC3 || CY_PSOC5LP)
1634:.\Generated_Source\PSoC5/ADC_DelSig_V.c ****                         ADC_DelSig_V_RESET_CR4_REG &= ~ADC_DelSig_V_IGNORE_PRESA1;
1635:.\Generated_Source\PSoC5/ADC_DelSig_V.c ****                         ADC_DelSig_V_RESET_CR5_REG &= ~ADC_DelSig_V_IGNORE_PRESA2;
1636:.\Generated_Source\PSoC5/ADC_DelSig_V.c ****                     #elif (CY_PSOC5A)
1637:.\Generated_Source\PSoC5/ADC_DelSig_V.c ****                         ADC_DelSig_V_RESET_CR1_REG &= ~ADC_DelSig_V_DIS_PRES1;
1638:.\Generated_Source\PSoC5/ADC_DelSig_V.c ****                         ADC_DelSig_V_RESET_CR3_REG &= ~ADC_DelSig_V_DIS_PRES2;
1639:.\Generated_Source\PSoC5/ADC_DelSig_V.c ****                     #endif /* CY_PSOC5A */
1640:.\Generated_Source\PSoC5/ADC_DelSig_V.c ****                 }
1641:.\Generated_Source\PSoC5/ADC_DelSig_V.c ****             #endif /* (CY_PSOC3 || CY_PSOC5LP) */
1642:.\Generated_Source\PSoC5/ADC_DelSig_V.c ****         
1643:.\Generated_Source\PSoC5/ADC_DelSig_V.c ****             /* Restart the ADC conversion */
1644:.\Generated_Source\PSoC5/ADC_DelSig_V.c ****             ADC_DelSig_V_StartConvert();
 3116              		.loc 1 1644 0
 3117 01f2 FFF7FEFF 		bl	ADC_DelSig_V_StartConvert
 3118              	.L107:
1645:.\Generated_Source\PSoC5/ADC_DelSig_V.c ****         }
1646:.\Generated_Source\PSoC5/ADC_DelSig_V.c ****     }
1647:.\Generated_Source\PSoC5/ADC_DelSig_V.c **** }     
 3119              		.loc 1 1647 0
 3120 01f6 07F11807 		add	r7, r7, #24
 3121 01fa BD46     		mov	sp, r7
 3122 01fc 80BD     		pop	{r7, pc}
 3123              		.cfi_endproc
 3124              	.LFE26:
 3125              		.size	ADC_DelSig_V_SelectConfiguration, .-ADC_DelSig_V_SelectConfiguration
 3126 01fe 00BF     		.section	.text.ADC_DelSig_V_GainCompensation,"ax",%progbits
 3127              		.align	2
 3128              		.global	ADC_DelSig_V_GainCompensation
 3129              		.thumb
 3130              		.thumb_func
 3131              		.type	ADC_DelSig_V_GainCompensation, %function
 3132              	ADC_DelSig_V_GainCompensation:
 3133              	.LFB27:
1648:.\Generated_Source\PSoC5/ADC_DelSig_V.c **** 
1649:.\Generated_Source\PSoC5/ADC_DelSig_V.c **** 
1650:.\Generated_Source\PSoC5/ADC_DelSig_V.c **** /*******************************************************************************
1651:.\Generated_Source\PSoC5/ADC_DelSig_V.c **** * Function Name: ADC_DelSig_V_GainCompensation(uint8, uint16, uint16, uint8)
ARM GAS  C:\Users\hoangp\AppData\Local\Temp\cc4n80oh.s 			page 85


1652:.\Generated_Source\PSoC5/ADC_DelSig_V.c **** ********************************************************************************
1653:.\Generated_Source\PSoC5/ADC_DelSig_V.c **** *
1654:.\Generated_Source\PSoC5/ADC_DelSig_V.c **** * Summary:
1655:.\Generated_Source\PSoC5/ADC_DelSig_V.c **** *  This API calculates the trim value and then loads this to GCOR register.
1656:.\Generated_Source\PSoC5/ADC_DelSig_V.c **** *
1657:.\Generated_Source\PSoC5/ADC_DelSig_V.c **** * Parameters:  
1658:.\Generated_Source\PSoC5/ADC_DelSig_V.c **** *  inputRange:  input range for which trim value is to be calculated.
1659:.\Generated_Source\PSoC5/ADC_DelSig_V.c **** *  IdealDecGain:  Ideal Decimator gain for the selected resolution and 
1660:.\Generated_Source\PSoC5/ADC_DelSig_V.c **** *                 conversion  mode.
1661:.\Generated_Source\PSoC5/ADC_DelSig_V.c **** *  IdealOddDecGain:  Ideal odd decimation gain for the selected resolution and 
1662:.\Generated_Source\PSoC5/ADC_DelSig_V.c ****                      conversion mode.
1663:.\Generated_Source\PSoC5/ADC_DelSig_V.c **** *  resolution:  Resolution to select the proper flash location for trim value.
1664:.\Generated_Source\PSoC5/ADC_DelSig_V.c **** *
1665:.\Generated_Source\PSoC5/ADC_DelSig_V.c **** * Return: 
1666:.\Generated_Source\PSoC5/ADC_DelSig_V.c **** *  void
1667:.\Generated_Source\PSoC5/ADC_DelSig_V.c **** *
1668:.\Generated_Source\PSoC5/ADC_DelSig_V.c **** *******************************************************************************/
1669:.\Generated_Source\PSoC5/ADC_DelSig_V.c **** void ADC_DelSig_V_GainCompensation(uint8 inputRange, uint16 IdealDecGain, uint16 IdealOddDecGain,  
1670:.\Generated_Source\PSoC5/ADC_DelSig_V.c ****                                        uint8 resolution) 
1671:.\Generated_Source\PSoC5/ADC_DelSig_V.c **** {
 3134              		.loc 1 1671 0
 3135              		.cfi_startproc
 3136              		@ args = 0, pretend = 0, frame = 24
 3137              		@ frame_needed = 1, uses_anonymous_args = 0
 3138              		@ link register save eliminated.
 3139 0000 80B4     		push	{r7}
 3140              	.LCFI70:
 3141              		.cfi_def_cfa_offset 4
 3142 0002 87B0     		sub	sp, sp, #28
 3143              	.LCFI71:
 3144              		.cfi_def_cfa_offset 32
 3145 0004 00AF     		add	r7, sp, #0
 3146              		.cfi_offset 7, -4
 3147              	.LCFI72:
 3148              		.cfi_def_cfa_register 7
 3149 0006 F871     		strb	r0, [r7, #7]
 3150 0008 B980     		strh	r1, [r7, #4]	@ movhi
 3151 000a 7A80     		strh	r2, [r7, #2]	@ movhi
 3152 000c 7B70     		strb	r3, [r7, #1]
1672:.\Generated_Source\PSoC5/ADC_DelSig_V.c ****     int8 flash;
1673:.\Generated_Source\PSoC5/ADC_DelSig_V.c ****     int16 Normalised;
1674:.\Generated_Source\PSoC5/ADC_DelSig_V.c ****     uint16 GcorValue;
1675:.\Generated_Source\PSoC5/ADC_DelSig_V.c ****     uint32 GcorTmp;
1676:.\Generated_Source\PSoC5/ADC_DelSig_V.c ****     
1677:.\Generated_Source\PSoC5/ADC_DelSig_V.c ****     switch(inputRange)
 3153              		.loc 1 1677 0
 3154 000e FB79     		ldrb	r3, [r7, #7]	@ zero_extendqisi2
 3155 0010 A3F10403 		sub	r3, r3, #4
 3156 0014 062B     		cmp	r3, #6
 3157 0016 5DD8     		bhi	.L109
 3158 0018 01A2     		adr	r2, .L114
 3159 001a 52F823F0 		ldr	pc, [r2, r3, lsl #2]
 3160 001e 00BF     		.align	2
 3161              	.L114:
 3162 0020 3D000000 		.word	.L110+1
 3163 0024 D5000000 		.word	.L109+1
 3164 0028 D5000000 		.word	.L109+1
ARM GAS  C:\Users\hoangp\AppData\Local\Temp\cc4n80oh.s 			page 86


 3165 002c 63000000 		.word	.L111+1
 3166 0030 89000000 		.word	.L112+1
 3167 0034 D5000000 		.word	.L109+1
 3168 0038 AF000000 		.word	.L113+1
 3169              	.L110:
1678:.\Generated_Source\PSoC5/ADC_DelSig_V.c ****     {         
1679:.\Generated_Source\PSoC5/ADC_DelSig_V.c ****         case ADC_DelSig_V_IR_VNEG_VREF_DIFF:
1680:.\Generated_Source\PSoC5/ADC_DelSig_V.c ****         
1681:.\Generated_Source\PSoC5/ADC_DelSig_V.c ****         /* Normalize the flash Value */
1682:.\Generated_Source\PSoC5/ADC_DelSig_V.c ****         if(resolution > 15)
 3170              		.loc 1 1682 0
 3171 003c 7B78     		ldrb	r3, [r7, #1]	@ zero_extendqisi2
 3172 003e 0F2B     		cmp	r3, #15
 3173 0040 07D9     		bls	.L115
1683:.\Generated_Source\PSoC5/ADC_DelSig_V.c ****         {
1684:.\Generated_Source\PSoC5/ADC_DelSig_V.c ****             flash = ADC_DelSig_V_DEC_TRIM_VREF_DIFF_16_20; 
 3174              		.loc 1 1684 0
 3175 0042 40F21413 		movw	r3, #:lower16:1224737044
 3176 0046 C4F60013 		movt	r3, #:upper16:1224737044
 3177 004a 1B78     		ldrb	r3, [r3, #0]
 3178 004c DBB2     		uxtb	r3, r3
 3179 004e FB73     		strb	r3, [r7, #15]
1685:.\Generated_Source\PSoC5/ADC_DelSig_V.c ****         }    
1686:.\Generated_Source\PSoC5/ADC_DelSig_V.c ****         else
1687:.\Generated_Source\PSoC5/ADC_DelSig_V.c ****         {
1688:.\Generated_Source\PSoC5/ADC_DelSig_V.c ****             flash = ADC_DelSig_V_DEC_TRIM_VREF_DIFF_8_15;
1689:.\Generated_Source\PSoC5/ADC_DelSig_V.c ****         }        
1690:.\Generated_Source\PSoC5/ADC_DelSig_V.c ****         break;
 3180              		.loc 1 1690 0
 3181 0050 43E0     		b	.L117
 3182              	.L115:
 3183              		.loc 1 1688 0
 3184 0052 40F21813 		movw	r3, #:lower16:1224737048
 3185 0056 C4F60013 		movt	r3, #:upper16:1224737048
 3186 005a 1B78     		ldrb	r3, [r3, #0]
 3187 005c DBB2     		uxtb	r3, r3
 3188 005e FB73     		strb	r3, [r7, #15]
 3189              		.loc 1 1690 0
 3190 0060 3BE0     		b	.L117
 3191              	.L111:
1691:.\Generated_Source\PSoC5/ADC_DelSig_V.c ****         
1692:.\Generated_Source\PSoC5/ADC_DelSig_V.c ****         case ADC_DelSig_V_IR_VNEG_VREF_2_DIFF:
1693:.\Generated_Source\PSoC5/ADC_DelSig_V.c ****         
1694:.\Generated_Source\PSoC5/ADC_DelSig_V.c ****         /* Normalize the flash Value */
1695:.\Generated_Source\PSoC5/ADC_DelSig_V.c ****         if(resolution > 15)
 3192              		.loc 1 1695 0
 3193 0062 7B78     		ldrb	r3, [r7, #1]	@ zero_extendqisi2
 3194 0064 0F2B     		cmp	r3, #15
 3195 0066 07D9     		bls	.L118
1696:.\Generated_Source\PSoC5/ADC_DelSig_V.c ****         {
1697:.\Generated_Source\PSoC5/ADC_DelSig_V.c ****             flash = ADC_DelSig_V_DEC_TRIM_VREF_2_DIFF_16_20;
 3196              		.loc 1 1697 0
 3197 0068 40F21513 		movw	r3, #:lower16:1224737045
 3198 006c C4F60013 		movt	r3, #:upper16:1224737045
 3199 0070 1B78     		ldrb	r3, [r3, #0]
 3200 0072 DBB2     		uxtb	r3, r3
 3201 0074 FB73     		strb	r3, [r7, #15]
ARM GAS  C:\Users\hoangp\AppData\Local\Temp\cc4n80oh.s 			page 87


1698:.\Generated_Source\PSoC5/ADC_DelSig_V.c ****         }    
1699:.\Generated_Source\PSoC5/ADC_DelSig_V.c ****         else
1700:.\Generated_Source\PSoC5/ADC_DelSig_V.c ****         {
1701:.\Generated_Source\PSoC5/ADC_DelSig_V.c ****             flash = ADC_DelSig_V_DEC_TRIM_VREF_2_DIFF_8_15;
1702:.\Generated_Source\PSoC5/ADC_DelSig_V.c ****         }    
1703:.\Generated_Source\PSoC5/ADC_DelSig_V.c ****         break;
 3202              		.loc 1 1703 0
 3203 0076 30E0     		b	.L117
 3204              	.L118:
 3205              		.loc 1 1701 0
 3206 0078 40F21913 		movw	r3, #:lower16:1224737049
 3207 007c C4F60013 		movt	r3, #:upper16:1224737049
 3208 0080 1B78     		ldrb	r3, [r3, #0]
 3209 0082 DBB2     		uxtb	r3, r3
 3210 0084 FB73     		strb	r3, [r7, #15]
 3211              		.loc 1 1703 0
 3212 0086 28E0     		b	.L117
 3213              	.L112:
1704:.\Generated_Source\PSoC5/ADC_DelSig_V.c ****         
1705:.\Generated_Source\PSoC5/ADC_DelSig_V.c ****         case ADC_DelSig_V_IR_VNEG_VREF_4_DIFF:
1706:.\Generated_Source\PSoC5/ADC_DelSig_V.c ****         
1707:.\Generated_Source\PSoC5/ADC_DelSig_V.c ****         /* Normalize the flash Value */
1708:.\Generated_Source\PSoC5/ADC_DelSig_V.c ****         if(resolution > 15)
 3214              		.loc 1 1708 0
 3215 0088 7B78     		ldrb	r3, [r7, #1]	@ zero_extendqisi2
 3216 008a 0F2B     		cmp	r3, #15
 3217 008c 07D9     		bls	.L120
1709:.\Generated_Source\PSoC5/ADC_DelSig_V.c ****         {
1710:.\Generated_Source\PSoC5/ADC_DelSig_V.c ****             flash = ADC_DelSig_V_DEC_TRIM_VREF_4_DIFF_16_20;
 3218              		.loc 1 1710 0
 3219 008e 40F21613 		movw	r3, #:lower16:1224737046
 3220 0092 C4F60013 		movt	r3, #:upper16:1224737046
 3221 0096 1B78     		ldrb	r3, [r3, #0]
 3222 0098 DBB2     		uxtb	r3, r3
 3223 009a FB73     		strb	r3, [r7, #15]
1711:.\Generated_Source\PSoC5/ADC_DelSig_V.c ****         }    
1712:.\Generated_Source\PSoC5/ADC_DelSig_V.c ****         else
1713:.\Generated_Source\PSoC5/ADC_DelSig_V.c ****         {
1714:.\Generated_Source\PSoC5/ADC_DelSig_V.c ****             flash = ADC_DelSig_V_DEC_TRIM_VREF_4_DIFF_8_15;
1715:.\Generated_Source\PSoC5/ADC_DelSig_V.c ****         }    
1716:.\Generated_Source\PSoC5/ADC_DelSig_V.c ****         break;
 3224              		.loc 1 1716 0
 3225 009c 1DE0     		b	.L117
 3226              	.L120:
 3227              		.loc 1 1714 0
 3228 009e 40F21A13 		movw	r3, #:lower16:1224737050
 3229 00a2 C4F60013 		movt	r3, #:upper16:1224737050
 3230 00a6 1B78     		ldrb	r3, [r3, #0]
 3231 00a8 DBB2     		uxtb	r3, r3
 3232 00aa FB73     		strb	r3, [r7, #15]
 3233              		.loc 1 1716 0
 3234 00ac 15E0     		b	.L117
 3235              	.L113:
1717:.\Generated_Source\PSoC5/ADC_DelSig_V.c ****         
1718:.\Generated_Source\PSoC5/ADC_DelSig_V.c ****         case ADC_DelSig_V_IR_VNEG_VREF_16_DIFF:
1719:.\Generated_Source\PSoC5/ADC_DelSig_V.c ****         
1720:.\Generated_Source\PSoC5/ADC_DelSig_V.c ****         /* Normalize the flash Value */
ARM GAS  C:\Users\hoangp\AppData\Local\Temp\cc4n80oh.s 			page 88


1721:.\Generated_Source\PSoC5/ADC_DelSig_V.c ****         if(resolution > 15)
 3236              		.loc 1 1721 0
 3237 00ae 7B78     		ldrb	r3, [r7, #1]	@ zero_extendqisi2
 3238 00b0 0F2B     		cmp	r3, #15
 3239 00b2 07D9     		bls	.L122
1722:.\Generated_Source\PSoC5/ADC_DelSig_V.c ****         {
1723:.\Generated_Source\PSoC5/ADC_DelSig_V.c ****             flash = ADC_DelSig_V_DEC_TRIM_VREF_16_DIFF_16_20;
 3240              		.loc 1 1723 0
 3241 00b4 40F21713 		movw	r3, #:lower16:1224737047
 3242 00b8 C4F60013 		movt	r3, #:upper16:1224737047
 3243 00bc 1B78     		ldrb	r3, [r3, #0]
 3244 00be DBB2     		uxtb	r3, r3
 3245 00c0 FB73     		strb	r3, [r7, #15]
1724:.\Generated_Source\PSoC5/ADC_DelSig_V.c ****         }    
1725:.\Generated_Source\PSoC5/ADC_DelSig_V.c ****         else
1726:.\Generated_Source\PSoC5/ADC_DelSig_V.c ****         {
1727:.\Generated_Source\PSoC5/ADC_DelSig_V.c ****             flash = ADC_DelSig_V_DEC_TRIM_VREF_16_DIFF_8_15;
1728:.\Generated_Source\PSoC5/ADC_DelSig_V.c ****         }    
1729:.\Generated_Source\PSoC5/ADC_DelSig_V.c ****         break;
 3246              		.loc 1 1729 0
 3247 00c2 0AE0     		b	.L117
 3248              	.L122:
 3249              		.loc 1 1727 0
 3250 00c4 40F21B13 		movw	r3, #:lower16:1224737051
 3251 00c8 C4F60013 		movt	r3, #:upper16:1224737051
 3252 00cc 1B78     		ldrb	r3, [r3, #0]
 3253 00ce DBB2     		uxtb	r3, r3
 3254 00d0 FB73     		strb	r3, [r7, #15]
 3255              		.loc 1 1729 0
 3256 00d2 02E0     		b	.L117
 3257              	.L109:
1730:.\Generated_Source\PSoC5/ADC_DelSig_V.c ****         
1731:.\Generated_Source\PSoC5/ADC_DelSig_V.c ****         default:
1732:.\Generated_Source\PSoC5/ADC_DelSig_V.c ****             flash = 0;
 3258              		.loc 1 1732 0
 3259 00d4 4FF00003 		mov	r3, #0
 3260 00d8 FB73     		strb	r3, [r7, #15]
 3261              	.L117:
1733:.\Generated_Source\PSoC5/ADC_DelSig_V.c ****         break;
1734:.\Generated_Source\PSoC5/ADC_DelSig_V.c ****     }    
1735:.\Generated_Source\PSoC5/ADC_DelSig_V.c ****     if(inputRange == ADC_DelSig_V_IR_VSSA_TO_VREF || inputRange == ADC_DelSig_V_IR_VSSA_TO_2VREF ||
 3262              		.loc 1 1735 0
 3263 00da FB79     		ldrb	r3, [r7, #7]	@ zero_extendqisi2
 3264 00dc 002B     		cmp	r3, #0
 3265 00de 11D0     		beq	.L124
 3266 00e0 FB79     		ldrb	r3, [r7, #7]	@ zero_extendqisi2
 3267 00e2 012B     		cmp	r3, #1
 3268 00e4 0ED0     		beq	.L124
 3269 00e6 FB79     		ldrb	r3, [r7, #7]	@ zero_extendqisi2
 3270 00e8 022B     		cmp	r3, #2
 3271 00ea 0BD0     		beq	.L124
 3272 00ec FB79     		ldrb	r3, [r7, #7]	@ zero_extendqisi2
 3273 00ee 032B     		cmp	r3, #3
 3274 00f0 08D0     		beq	.L124
 3275 00f2 FB79     		ldrb	r3, [r7, #7]	@ zero_extendqisi2
 3276 00f4 052B     		cmp	r3, #5
 3277 00f6 05D0     		beq	.L124
ARM GAS  C:\Users\hoangp\AppData\Local\Temp\cc4n80oh.s 			page 89


 3278 00f8 FB79     		ldrb	r3, [r7, #7]	@ zero_extendqisi2
 3279 00fa 062B     		cmp	r3, #6
 3280 00fc 02D0     		beq	.L124
 3281 00fe FB79     		ldrb	r3, [r7, #7]	@ zero_extendqisi2
 3282 0100 092B     		cmp	r3, #9
 3283 0102 03D1     		bne	.L125
 3284              	.L124:
1736:.\Generated_Source\PSoC5/ADC_DelSig_V.c ****        inputRange == ADC_DelSig_V_IR_VSSA_TO_VDDA || inputRange == ADC_DelSig_V_IR_VSSA_TO_6VREF ||
1737:.\Generated_Source\PSoC5/ADC_DelSig_V.c ****        inputRange == ADC_DelSig_V_IR_VNEG_2VREF_DIFF || inputRange == ADC_DelSig_V_IR_VNEG_6VREF_DI
1738:.\Generated_Source\PSoC5/ADC_DelSig_V.c ****        inputRange == ADC_DelSig_V_IR_VNEG_VREF_8_DIFF)
1739:.\Generated_Source\PSoC5/ADC_DelSig_V.c ****     {
1740:.\Generated_Source\PSoC5/ADC_DelSig_V.c ****         Normalised  = 0;
 3285              		.loc 1 1740 0
 3286 0104 4FF00003 		mov	r3, #0
 3287 0108 3B82     		strh	r3, [r7, #16]	@ movhi
 3288              		.loc 1 1735 0
 3289 010a 06E0     		b	.L126
 3290              	.L125:
1741:.\Generated_Source\PSoC5/ADC_DelSig_V.c ****     }
1742:.\Generated_Source\PSoC5/ADC_DelSig_V.c ****     else
1743:.\Generated_Source\PSoC5/ADC_DelSig_V.c ****     {
1744:.\Generated_Source\PSoC5/ADC_DelSig_V.c ****         Normalised  = ((int16)flash) * 32;
 3291              		.loc 1 1744 0
 3292 010c 97F90F30 		ldrsb	r3, [r7, #15]
 3293 0110 9BB2     		uxth	r3, r3
 3294 0112 4FEA4313 		lsl	r3, r3, #5
 3295 0116 9BB2     		uxth	r3, r3
 3296 0118 3B82     		strh	r3, [r7, #16]	@ movhi
 3297              	.L126:
1745:.\Generated_Source\PSoC5/ADC_DelSig_V.c ****     }
1746:.\Generated_Source\PSoC5/ADC_DelSig_V.c ****                     
1747:.\Generated_Source\PSoC5/ADC_DelSig_V.c ****     /* Add two values */
1748:.\Generated_Source\PSoC5/ADC_DelSig_V.c ****     GcorValue = IdealDecGain + Normalised;  
 3298              		.loc 1 1748 0
 3299 011a 3A8A     		ldrh	r2, [r7, #16]
 3300 011c BB88     		ldrh	r3, [r7, #4]	@ movhi
 3301 011e 1344     		add	r3, r2, r3
 3302 0120 7B82     		strh	r3, [r7, #18]	@ movhi
1749:.\Generated_Source\PSoC5/ADC_DelSig_V.c ****     GcorTmp = (uint32)GcorValue * (uint32)IdealOddDecGain;
 3303              		.loc 1 1749 0
 3304 0122 7B8A     		ldrh	r3, [r7, #18]
 3305 0124 7A88     		ldrh	r2, [r7, #2]
 3306 0126 02FB03F3 		mul	r3, r2, r3
 3307 012a 7B61     		str	r3, [r7, #20]
1750:.\Generated_Source\PSoC5/ADC_DelSig_V.c ****     GcorValue = (uint16)(GcorTmp / ADC_DelSig_V_IDEAL_GAIN_CONST);
 3308              		.loc 1 1750 0
 3309 012c 7B69     		ldr	r3, [r7, #20]
 3310 012e 4FEAD333 		lsr	r3, r3, #15
 3311 0132 7B82     		strh	r3, [r7, #18]	@ movhi
1751:.\Generated_Source\PSoC5/ADC_DelSig_V.c ****         
1752:.\Generated_Source\PSoC5/ADC_DelSig_V.c ****     if (resolution < 14)
 3312              		.loc 1 1752 0
 3313 0134 7B78     		ldrb	r3, [r7, #1]	@ zero_extendqisi2
 3314 0136 0D2B     		cmp	r3, #13
 3315 0138 12D8     		bhi	.L127
1753:.\Generated_Source\PSoC5/ADC_DelSig_V.c ****     {
1754:.\Generated_Source\PSoC5/ADC_DelSig_V.c ****         GcorValue = (GcorValue >> (15 - (resolution + 1)));
ARM GAS  C:\Users\hoangp\AppData\Local\Temp\cc4n80oh.s 			page 90


 3316              		.loc 1 1754 0
 3317 013a 7A8A     		ldrh	r2, [r7, #18]
 3318 013c 7B78     		ldrb	r3, [r7, #1]	@ zero_extendqisi2
 3319 013e 6FEA0303 		mvn	r3, r3
 3320 0142 03F10F03 		add	r3, r3, #15
 3321 0146 42FA03F3 		asr	r3, r2, r3
 3322 014a 7B82     		strh	r3, [r7, #18]	@ movhi
1755:.\Generated_Source\PSoC5/ADC_DelSig_V.c ****         ADC_DelSig_V_DEC_GVAL_REG = (resolution + 1);
 3323              		.loc 1 1755 0
 3324 014c 44F60E63 		movw	r3, #:lower16:1073761806
 3325 0150 C4F20003 		movt	r3, #:upper16:1073761806
 3326 0154 7A78     		ldrb	r2, [r7, #1]
 3327 0156 02F10102 		add	r2, r2, #1
 3328 015a D2B2     		uxtb	r2, r2
 3329 015c 1A70     		strb	r2, [r3, #0]
 3330 015e 06E0     		b	.L128
 3331              	.L127:
1756:.\Generated_Source\PSoC5/ADC_DelSig_V.c ****     }
1757:.\Generated_Source\PSoC5/ADC_DelSig_V.c ****     else
1758:.\Generated_Source\PSoC5/ADC_DelSig_V.c ****     {
1759:.\Generated_Source\PSoC5/ADC_DelSig_V.c ****         /* Use all 16 bits */
1760:.\Generated_Source\PSoC5/ADC_DelSig_V.c ****         ADC_DelSig_V_DEC_GVAL_REG = 15u;  
 3332              		.loc 1 1760 0
 3333 0160 44F60E63 		movw	r3, #:lower16:1073761806
 3334 0164 C4F20003 		movt	r3, #:upper16:1073761806
 3335 0168 4FF00F02 		mov	r2, #15
 3336 016c 1A70     		strb	r2, [r3, #0]
 3337              	.L128:
1761:.\Generated_Source\PSoC5/ADC_DelSig_V.c ****     }
1762:.\Generated_Source\PSoC5/ADC_DelSig_V.c ****       
1763:.\Generated_Source\PSoC5/ADC_DelSig_V.c ****     /* Load the gain correction register */    
1764:.\Generated_Source\PSoC5/ADC_DelSig_V.c ****     ADC_DelSig_V_DEC_GCOR_REG  = (uint8)GcorValue;
 3338              		.loc 1 1764 0
 3339 016e 44F60C63 		movw	r3, #:lower16:1073761804
 3340 0172 C4F20003 		movt	r3, #:upper16:1073761804
 3341 0176 7A8A     		ldrh	r2, [r7, #18]	@ movhi
 3342 0178 D2B2     		uxtb	r2, r2
 3343 017a 1A70     		strb	r2, [r3, #0]
1765:.\Generated_Source\PSoC5/ADC_DelSig_V.c ****     ADC_DelSig_V_DEC_GCORH_REG = (uint8)(GcorValue >> 8);    
 3344              		.loc 1 1765 0
 3345 017c 44F60D63 		movw	r3, #:lower16:1073761805
 3346 0180 C4F20003 		movt	r3, #:upper16:1073761805
 3347 0184 7A8A     		ldrh	r2, [r7, #18]
 3348 0186 4FEA1222 		lsr	r2, r2, #8
 3349 018a 92B2     		uxth	r2, r2
 3350 018c D2B2     		uxtb	r2, r2
 3351 018e 1A70     		strb	r2, [r3, #0]
1766:.\Generated_Source\PSoC5/ADC_DelSig_V.c ****     
1767:.\Generated_Source\PSoC5/ADC_DelSig_V.c ****     /* Workaround for 0 to 2*Vref mode with PSoC5A siliocn */
1768:.\Generated_Source\PSoC5/ADC_DelSig_V.c ****     #if( CY_PSOC5A) 
1769:.\Generated_Source\PSoC5/ADC_DelSig_V.c ****         if( inputRange == ADC_DelSig_V_IR_VSSA_TO_2VREF)
 3352              		.loc 1 1769 0
 3353 0190 FB79     		ldrb	r3, [r7, #7]	@ zero_extendqisi2
 3354 0192 012B     		cmp	r3, #1
 3355 0194 14D1     		bne	.L130
1770:.\Generated_Source\PSoC5/ADC_DelSig_V.c ****         {
1771:.\Generated_Source\PSoC5/ADC_DelSig_V.c ****             ADC_DelSig_V_DEC_GCOR_REG = 0x00u;
ARM GAS  C:\Users\hoangp\AppData\Local\Temp\cc4n80oh.s 			page 91


 3356              		.loc 1 1771 0
 3357 0196 44F60C63 		movw	r3, #:lower16:1073761804
 3358 019a C4F20003 		movt	r3, #:upper16:1073761804
 3359 019e 4FF00002 		mov	r2, #0
 3360 01a2 1A70     		strb	r2, [r3, #0]
1772:.\Generated_Source\PSoC5/ADC_DelSig_V.c ****             ADC_DelSig_V_DEC_GCORH_REG = 0x00u;
 3361              		.loc 1 1772 0
 3362 01a4 44F60D63 		movw	r3, #:lower16:1073761805
 3363 01a8 C4F20003 		movt	r3, #:upper16:1073761805
 3364 01ac 4FF00002 		mov	r2, #0
 3365 01b0 1A70     		strb	r2, [r3, #0]
1773:.\Generated_Source\PSoC5/ADC_DelSig_V.c ****             ADC_DelSig_V_DEC_GVAL_REG = 0x00u;
 3366              		.loc 1 1773 0
 3367 01b2 44F60E63 		movw	r3, #:lower16:1073761806
 3368 01b6 C4F20003 		movt	r3, #:upper16:1073761806
 3369 01ba 4FF00002 		mov	r2, #0
 3370 01be 1A70     		strb	r2, [r3, #0]
 3371              	.L130:
1774:.\Generated_Source\PSoC5/ADC_DelSig_V.c ****         }
1775:.\Generated_Source\PSoC5/ADC_DelSig_V.c ****     #endif /* CY_PSOC5A */
1776:.\Generated_Source\PSoC5/ADC_DelSig_V.c **** }
 3372              		.loc 1 1776 0
 3373 01c0 07F11C07 		add	r7, r7, #28
 3374 01c4 BD46     		mov	sp, r7
 3375 01c6 80BC     		pop	{r7}
 3376 01c8 7047     		bx	lr
 3377              		.cfi_endproc
 3378              	.LFE27:
 3379              		.size	ADC_DelSig_V_GainCompensation, .-ADC_DelSig_V_GainCompensation
 3380 01ca 00BF     		.section	.text.ADC_DelSig_V_SetDSMRef0Reg,"ax",%progbits
 3381              		.align	2
 3382              		.global	ADC_DelSig_V_SetDSMRef0Reg
 3383              		.thumb
 3384              		.thumb_func
 3385              		.type	ADC_DelSig_V_SetDSMRef0Reg, %function
 3386              	ADC_DelSig_V_SetDSMRef0Reg:
 3387              	.LFB28:
1777:.\Generated_Source\PSoC5/ADC_DelSig_V.c **** 
1778:.\Generated_Source\PSoC5/ADC_DelSig_V.c **** 
1779:.\Generated_Source\PSoC5/ADC_DelSig_V.c **** /******************************************************************************
1780:.\Generated_Source\PSoC5/ADC_DelSig_V.c **** * Function Name: ADC_DelSig_V_SetDSMRef0Reg(uint8)
1781:.\Generated_Source\PSoC5/ADC_DelSig_V.c **** ******************************************************************************
1782:.\Generated_Source\PSoC5/ADC_DelSig_V.c **** *
1783:.\Generated_Source\PSoC5/ADC_DelSig_V.c **** * Summary:
1784:.\Generated_Source\PSoC5/ADC_DelSig_V.c **** *  This API sets the DSM_REF0 register. This is written for internal use.
1785:.\Generated_Source\PSoC5/ADC_DelSig_V.c **** *
1786:.\Generated_Source\PSoC5/ADC_DelSig_V.c **** * Parameters:  
1787:.\Generated_Source\PSoC5/ADC_DelSig_V.c **** *  value:  Value to be written to DSM_REF0 register.
1788:.\Generated_Source\PSoC5/ADC_DelSig_V.c **** *
1789:.\Generated_Source\PSoC5/ADC_DelSig_V.c **** * Return: 
1790:.\Generated_Source\PSoC5/ADC_DelSig_V.c **** *  void
1791:.\Generated_Source\PSoC5/ADC_DelSig_V.c **** *
1792:.\Generated_Source\PSoC5/ADC_DelSig_V.c **** ******************************************************************************/
1793:.\Generated_Source\PSoC5/ADC_DelSig_V.c **** void ADC_DelSig_V_SetDSMRef0Reg(uint8 value) 
1794:.\Generated_Source\PSoC5/ADC_DelSig_V.c **** {
 3388              		.loc 1 1794 0
 3389              		.cfi_startproc
ARM GAS  C:\Users\hoangp\AppData\Local\Temp\cc4n80oh.s 			page 92


 3390              		@ args = 0, pretend = 0, frame = 8
 3391              		@ frame_needed = 1, uses_anonymous_args = 0
 3392 0000 80B5     		push	{r7, lr}
 3393              	.LCFI73:
 3394              		.cfi_def_cfa_offset 8
 3395 0002 82B0     		sub	sp, sp, #8
 3396              	.LCFI74:
 3397              		.cfi_def_cfa_offset 16
 3398 0004 00AF     		add	r7, sp, #0
 3399              		.cfi_offset 14, -4
 3400              		.cfi_offset 7, -8
 3401              	.LCFI75:
 3402              		.cfi_def_cfa_register 7
 3403 0006 0346     		mov	r3, r0
 3404 0008 FB71     		strb	r3, [r7, #7]
1795:.\Generated_Source\PSoC5/ADC_DelSig_V.c ****     /* Disable PRES, Enable power to VCMBUF0, REFBUF0 and REFBUF1, enable 
1796:.\Generated_Source\PSoC5/ADC_DelSig_V.c ****        PRES */
1797:.\Generated_Source\PSoC5/ADC_DelSig_V.c ****     #if (CY_PSOC3 || CY_PSOC5LP)
1798:.\Generated_Source\PSoC5/ADC_DelSig_V.c ****         ADC_DelSig_V_RESET_CR4_REG |= (ADC_DelSig_V_IGNORE_PRESA1 | ADC_DelSig_V_IGNORE_PRESD1);
1799:.\Generated_Source\PSoC5/ADC_DelSig_V.c ****         ADC_DelSig_V_RESET_CR5_REG |= (ADC_DelSig_V_IGNORE_PRESA2 | ADC_DelSig_V_IGNORE_PRESD2);
1800:.\Generated_Source\PSoC5/ADC_DelSig_V.c ****     #elif (CY_PSOC5A)
1801:.\Generated_Source\PSoC5/ADC_DelSig_V.c ****         ADC_DelSig_V_RESET_CR1_REG |= ADC_DelSig_V_DIS_PRES1;
 3405              		.loc 1 1801 0
 3406 000a 44F2F563 		movw	r3, #:lower16:1073759989
 3407 000e C4F20003 		movt	r3, #:upper16:1073759989
 3408 0012 44F2F562 		movw	r2, #:lower16:1073759989
 3409 0016 C4F20002 		movt	r2, #:upper16:1073759989
 3410 001a 1278     		ldrb	r2, [r2, #0]
 3411 001c D2B2     		uxtb	r2, r2
 3412 001e 42F01002 		orr	r2, r2, #16
 3413 0022 D2B2     		uxtb	r2, r2
 3414 0024 1A70     		strb	r2, [r3, #0]
1802:.\Generated_Source\PSoC5/ADC_DelSig_V.c ****         ADC_DelSig_V_RESET_CR3_REG |= ADC_DelSig_V_DIS_PRES2;
 3415              		.loc 1 1802 0
 3416 0026 44F2F763 		movw	r3, #:lower16:1073759991
 3417 002a C4F20003 		movt	r3, #:upper16:1073759991
 3418 002e 44F2F762 		movw	r2, #:lower16:1073759991
 3419 0032 C4F20002 		movt	r2, #:upper16:1073759991
 3420 0036 1278     		ldrb	r2, [r2, #0]
 3421 0038 D2B2     		uxtb	r2, r2
 3422 003a 42F00802 		orr	r2, r2, #8
 3423 003e D2B2     		uxtb	r2, r2
 3424 0040 1A70     		strb	r2, [r3, #0]
1803:.\Generated_Source\PSoC5/ADC_DelSig_V.c ****     #endif /* CY_PSOC5A */
1804:.\Generated_Source\PSoC5/ADC_DelSig_V.c ****         ADC_DelSig_V_DSM_REF0_REG = value;   
 3425              		.loc 1 1804 0
 3426 0042 45F69203 		movw	r3, #:lower16:1073764498
 3427 0046 C4F20003 		movt	r3, #:upper16:1073764498
 3428 004a FA79     		ldrb	r2, [r7, #7]
 3429 004c 1A70     		strb	r2, [r3, #0]
1805:.\Generated_Source\PSoC5/ADC_DelSig_V.c **** 		
1806:.\Generated_Source\PSoC5/ADC_DelSig_V.c **** 	/* Wait for 3 microseconds */
1807:.\Generated_Source\PSoC5/ADC_DelSig_V.c ****     CyDelayUs(3);
 3430              		.loc 1 1807 0
 3431 004e 4FF00300 		mov	r0, #3
 3432 0052 FFF7FEFF 		bl	CyDelayUs
1808:.\Generated_Source\PSoC5/ADC_DelSig_V.c ****     /* Enable the press circuit */
ARM GAS  C:\Users\hoangp\AppData\Local\Temp\cc4n80oh.s 			page 93


1809:.\Generated_Source\PSoC5/ADC_DelSig_V.c ****     #if (CY_PSOC3 || CY_PSOC5LP)
1810:.\Generated_Source\PSoC5/ADC_DelSig_V.c ****         ADC_DelSig_V_RESET_CR4_REG &= ~(ADC_DelSig_V_IGNORE_PRESA1 | ADC_DelSig_V_IGNORE_PRESD1);
1811:.\Generated_Source\PSoC5/ADC_DelSig_V.c ****         ADC_DelSig_V_RESET_CR5_REG &= ~(ADC_DelSig_V_IGNORE_PRESA2 | ADC_DelSig_V_IGNORE_PRESD2);
1812:.\Generated_Source\PSoC5/ADC_DelSig_V.c ****     #elif (CY_PSOC5A)
1813:.\Generated_Source\PSoC5/ADC_DelSig_V.c ****         ADC_DelSig_V_RESET_CR1_REG &= ~ADC_DelSig_V_DIS_PRES1;
 3433              		.loc 1 1813 0
 3434 0056 44F2F563 		movw	r3, #:lower16:1073759989
 3435 005a C4F20003 		movt	r3, #:upper16:1073759989
 3436 005e 44F2F562 		movw	r2, #:lower16:1073759989
 3437 0062 C4F20002 		movt	r2, #:upper16:1073759989
 3438 0066 1278     		ldrb	r2, [r2, #0]
 3439 0068 D2B2     		uxtb	r2, r2
 3440 006a 02F0EF02 		and	r2, r2, #239
 3441 006e 1A70     		strb	r2, [r3, #0]
1814:.\Generated_Source\PSoC5/ADC_DelSig_V.c ****         ADC_DelSig_V_RESET_CR3_REG &= ~ADC_DelSig_V_DIS_PRES2;
 3442              		.loc 1 1814 0
 3443 0070 44F2F763 		movw	r3, #:lower16:1073759991
 3444 0074 C4F20003 		movt	r3, #:upper16:1073759991
 3445 0078 44F2F762 		movw	r2, #:lower16:1073759991
 3446 007c C4F20002 		movt	r2, #:upper16:1073759991
 3447 0080 1278     		ldrb	r2, [r2, #0]
 3448 0082 D2B2     		uxtb	r2, r2
 3449 0084 02F0F702 		and	r2, r2, #247
 3450 0088 1A70     		strb	r2, [r3, #0]
1815:.\Generated_Source\PSoC5/ADC_DelSig_V.c ****     #endif /* CY_PSOC5A */
1816:.\Generated_Source\PSoC5/ADC_DelSig_V.c **** }
 3451              		.loc 1 1816 0
 3452 008a 07F10807 		add	r7, r7, #8
 3453 008e BD46     		mov	sp, r7
 3454 0090 80BD     		pop	{r7, pc}
 3455              		.cfi_endproc
 3456              	.LFE28:
 3457              		.size	ADC_DelSig_V_SetDSMRef0Reg, .-ADC_DelSig_V_SetDSMRef0Reg
 3458 0092 00BF     		.text
 3459              	.Letext0:
 3460              		.section	.debug_loc,"",%progbits
 3461              	.Ldebug_loc0:
 3462              	.LLST0:
 3463 0000 00000000 		.4byte	.LFB0
 3464 0004 02000000 		.4byte	.LCFI0
 3465 0008 0100     		.2byte	0x1
 3466 000a 5D       		.byte	0x5d
 3467 000b 02000000 		.4byte	.LCFI0
 3468 000f 04000000 		.4byte	.LCFI1
 3469 0013 0200     		.2byte	0x2
 3470 0015 7D       		.byte	0x7d
 3471 0016 08       		.sleb128 8
 3472 0017 04000000 		.4byte	.LCFI1
 3473 001b 32000000 		.4byte	.LFE0
 3474 001f 0200     		.2byte	0x2
 3475 0021 77       		.byte	0x77
 3476 0022 08       		.sleb128 8
 3477 0023 00000000 		.4byte	0x0
 3478 0027 00000000 		.4byte	0x0
 3479              	.LLST1:
 3480 002b 00000000 		.4byte	.LFB1
 3481 002f 02000000 		.4byte	.LCFI2
ARM GAS  C:\Users\hoangp\AppData\Local\Temp\cc4n80oh.s 			page 94


 3482 0033 0100     		.2byte	0x1
 3483 0035 5D       		.byte	0x5d
 3484 0036 02000000 		.4byte	.LCFI2
 3485 003a 04000000 		.4byte	.LCFI3
 3486 003e 0200     		.2byte	0x2
 3487 0040 7D       		.byte	0x7d
 3488 0041 08       		.sleb128 8
 3489 0042 04000000 		.4byte	.LCFI3
 3490 0046 C2010000 		.4byte	.LFE1
 3491 004a 0200     		.2byte	0x2
 3492 004c 77       		.byte	0x77
 3493 004d 08       		.sleb128 8
 3494 004e 00000000 		.4byte	0x0
 3495 0052 00000000 		.4byte	0x0
 3496              	.LLST2:
 3497 0056 00000000 		.4byte	.LFB2
 3498 005a 02000000 		.4byte	.LCFI4
 3499 005e 0100     		.2byte	0x1
 3500 0060 5D       		.byte	0x5d
 3501 0061 02000000 		.4byte	.LCFI4
 3502 0065 04000000 		.4byte	.LCFI5
 3503 0069 0200     		.2byte	0x2
 3504 006b 7D       		.byte	0x7d
 3505 006c 04       		.sleb128 4
 3506 006d 04000000 		.4byte	.LCFI5
 3507 0071 AA000000 		.4byte	.LFE2
 3508 0075 0200     		.2byte	0x2
 3509 0077 77       		.byte	0x77
 3510 0078 04       		.sleb128 4
 3511 0079 00000000 		.4byte	0x0
 3512 007d 00000000 		.4byte	0x0
 3513              	.LLST3:
 3514 0081 00000000 		.4byte	.LFB3
 3515 0085 02000000 		.4byte	.LCFI6
 3516 0089 0100     		.2byte	0x1
 3517 008b 5D       		.byte	0x5d
 3518 008c 02000000 		.4byte	.LCFI6
 3519 0090 04000000 		.4byte	.LCFI7
 3520 0094 0200     		.2byte	0x2
 3521 0096 7D       		.byte	0x7d
 3522 0097 04       		.sleb128 4
 3523 0098 04000000 		.4byte	.LCFI7
 3524 009c BA000000 		.4byte	.LFE3
 3525 00a0 0200     		.2byte	0x2
 3526 00a2 77       		.byte	0x77
 3527 00a3 04       		.sleb128 4
 3528 00a4 00000000 		.4byte	0x0
 3529 00a8 00000000 		.4byte	0x0
 3530              	.LLST4:
 3531 00ac 00000000 		.4byte	.LFB4
 3532 00b0 02000000 		.4byte	.LCFI8
 3533 00b4 0100     		.2byte	0x1
 3534 00b6 5D       		.byte	0x5d
 3535 00b7 02000000 		.4byte	.LCFI8
 3536 00bb 04000000 		.4byte	.LCFI9
 3537 00bf 0200     		.2byte	0x2
 3538 00c1 7D       		.byte	0x7d
ARM GAS  C:\Users\hoangp\AppData\Local\Temp\cc4n80oh.s 			page 95


 3539 00c2 04       		.sleb128 4
 3540 00c3 04000000 		.4byte	.LCFI9
 3541 00c7 36010000 		.4byte	.LFE4
 3542 00cb 0200     		.2byte	0x2
 3543 00cd 77       		.byte	0x77
 3544 00ce 04       		.sleb128 4
 3545 00cf 00000000 		.4byte	0x0
 3546 00d3 00000000 		.4byte	0x0
 3547              	.LLST5:
 3548 00d7 00000000 		.4byte	.LFB5
 3549 00db 02000000 		.4byte	.LCFI10
 3550 00df 0100     		.2byte	0x1
 3551 00e1 5D       		.byte	0x5d
 3552 00e2 02000000 		.4byte	.LCFI10
 3553 00e6 04000000 		.4byte	.LCFI11
 3554 00ea 0200     		.2byte	0x2
 3555 00ec 7D       		.byte	0x7d
 3556 00ed 08       		.sleb128 8
 3557 00ee 04000000 		.4byte	.LCFI11
 3558 00f2 3A000000 		.4byte	.LFE5
 3559 00f6 0200     		.2byte	0x2
 3560 00f8 77       		.byte	0x77
 3561 00f9 08       		.sleb128 8
 3562 00fa 00000000 		.4byte	0x0
 3563 00fe 00000000 		.4byte	0x0
 3564              	.LLST6:
 3565 0102 00000000 		.4byte	.LFB6
 3566 0106 02000000 		.4byte	.LCFI12
 3567 010a 0100     		.2byte	0x1
 3568 010c 5D       		.byte	0x5d
 3569 010d 02000000 		.4byte	.LCFI12
 3570 0111 04000000 		.4byte	.LCFI13
 3571 0115 0200     		.2byte	0x2
 3572 0117 7D       		.byte	0x7d
 3573 0118 08       		.sleb128 8
 3574 0119 04000000 		.4byte	.LCFI13
 3575 011d B0010000 		.4byte	.LFE6
 3576 0121 0200     		.2byte	0x2
 3577 0123 77       		.byte	0x77
 3578 0124 08       		.sleb128 8
 3579 0125 00000000 		.4byte	0x0
 3580 0129 00000000 		.4byte	0x0
 3581              	.LLST7:
 3582 012d 00000000 		.4byte	.LFB7
 3583 0131 02000000 		.4byte	.LCFI14
 3584 0135 0100     		.2byte	0x1
 3585 0137 5D       		.byte	0x5d
 3586 0138 02000000 		.4byte	.LCFI14
 3587 013c 04000000 		.4byte	.LCFI15
 3588 0140 0200     		.2byte	0x2
 3589 0142 7D       		.byte	0x7d
 3590 0143 04       		.sleb128 4
 3591 0144 04000000 		.4byte	.LCFI15
 3592 0148 06000000 		.4byte	.LCFI16
 3593 014c 0200     		.2byte	0x2
 3594 014e 7D       		.byte	0x7d
 3595 014f 18       		.sleb128 24
ARM GAS  C:\Users\hoangp\AppData\Local\Temp\cc4n80oh.s 			page 96


 3596 0150 06000000 		.4byte	.LCFI16
 3597 0154 44000000 		.4byte	.LFE7
 3598 0158 0200     		.2byte	0x2
 3599 015a 77       		.byte	0x77
 3600 015b 18       		.sleb128 24
 3601 015c 00000000 		.4byte	0x0
 3602 0160 00000000 		.4byte	0x0
 3603              	.LLST8:
 3604 0164 00000000 		.4byte	.LFB8
 3605 0168 02000000 		.4byte	.LCFI17
 3606 016c 0100     		.2byte	0x1
 3607 016e 5D       		.byte	0x5d
 3608 016f 02000000 		.4byte	.LCFI17
 3609 0173 04000000 		.4byte	.LCFI18
 3610 0177 0200     		.2byte	0x2
 3611 0179 7D       		.byte	0x7d
 3612 017a 04       		.sleb128 4
 3613 017b 04000000 		.4byte	.LCFI18
 3614 017f 06000000 		.4byte	.LCFI19
 3615 0183 0200     		.2byte	0x2
 3616 0185 7D       		.byte	0x7d
 3617 0186 18       		.sleb128 24
 3618 0187 06000000 		.4byte	.LCFI19
 3619 018b 3C000000 		.4byte	.LFE8
 3620 018f 0200     		.2byte	0x2
 3621 0191 77       		.byte	0x77
 3622 0192 18       		.sleb128 24
 3623 0193 00000000 		.4byte	0x0
 3624 0197 00000000 		.4byte	0x0
 3625              	.LLST9:
 3626 019b 00000000 		.4byte	.LFB9
 3627 019f 02000000 		.4byte	.LCFI20
 3628 01a3 0100     		.2byte	0x1
 3629 01a5 5D       		.byte	0x5d
 3630 01a6 02000000 		.4byte	.LCFI20
 3631 01aa 04000000 		.4byte	.LCFI21
 3632 01ae 0200     		.2byte	0x2
 3633 01b0 7D       		.byte	0x7d
 3634 01b1 0C       		.sleb128 12
 3635 01b2 04000000 		.4byte	.LCFI21
 3636 01b6 06000000 		.4byte	.LCFI22
 3637 01ba 0200     		.2byte	0x2
 3638 01bc 7D       		.byte	0x7d
 3639 01bd 20       		.sleb128 32
 3640 01be 06000000 		.4byte	.LCFI22
 3641 01c2 E4000000 		.4byte	.LFE9
 3642 01c6 0200     		.2byte	0x2
 3643 01c8 77       		.byte	0x77
 3644 01c9 20       		.sleb128 32
 3645 01ca 00000000 		.4byte	0x0
 3646 01ce 00000000 		.4byte	0x0
 3647              	.LLST10:
 3648 01d2 00000000 		.4byte	.LFB10
 3649 01d6 02000000 		.4byte	.LCFI23
 3650 01da 0100     		.2byte	0x1
 3651 01dc 5D       		.byte	0x5d
 3652 01dd 02000000 		.4byte	.LCFI23
ARM GAS  C:\Users\hoangp\AppData\Local\Temp\cc4n80oh.s 			page 97


 3653 01e1 04000000 		.4byte	.LCFI24
 3654 01e5 0200     		.2byte	0x2
 3655 01e7 7D       		.byte	0x7d
 3656 01e8 04       		.sleb128 4
 3657 01e9 04000000 		.4byte	.LCFI24
 3658 01ed 06000000 		.4byte	.LCFI25
 3659 01f1 0200     		.2byte	0x2
 3660 01f3 7D       		.byte	0x7d
 3661 01f4 10       		.sleb128 16
 3662 01f5 06000000 		.4byte	.LCFI25
 3663 01f9 BA000000 		.4byte	.LFE10
 3664 01fd 0200     		.2byte	0x2
 3665 01ff 77       		.byte	0x77
 3666 0200 10       		.sleb128 16
 3667 0201 00000000 		.4byte	0x0
 3668 0205 00000000 		.4byte	0x0
 3669              	.LLST11:
 3670 0209 00000000 		.4byte	.LFB11
 3671 020d 02000000 		.4byte	.LCFI26
 3672 0211 0100     		.2byte	0x1
 3673 0213 5D       		.byte	0x5d
 3674 0214 02000000 		.4byte	.LCFI26
 3675 0218 04000000 		.4byte	.LCFI27
 3676 021c 0200     		.2byte	0x2
 3677 021e 7D       		.byte	0x7d
 3678 021f 04       		.sleb128 4
 3679 0220 04000000 		.4byte	.LCFI27
 3680 0224 06000000 		.4byte	.LCFI28
 3681 0228 0200     		.2byte	0x2
 3682 022a 7D       		.byte	0x7d
 3683 022b 10       		.sleb128 16
 3684 022c 06000000 		.4byte	.LCFI28
 3685 0230 44000000 		.4byte	.LFE11
 3686 0234 0200     		.2byte	0x2
 3687 0236 77       		.byte	0x77
 3688 0237 10       		.sleb128 16
 3689 0238 00000000 		.4byte	0x0
 3690 023c 00000000 		.4byte	0x0
 3691              	.LLST12:
 3692 0240 00000000 		.4byte	.LFB12
 3693 0244 02000000 		.4byte	.LCFI29
 3694 0248 0100     		.2byte	0x1
 3695 024a 5D       		.byte	0x5d
 3696 024b 02000000 		.4byte	.LCFI29
 3697 024f 04000000 		.4byte	.LCFI30
 3698 0253 0200     		.2byte	0x2
 3699 0255 7D       		.byte	0x7d
 3700 0256 04       		.sleb128 4
 3701 0257 04000000 		.4byte	.LCFI30
 3702 025b 26000000 		.4byte	.LFE12
 3703 025f 0200     		.2byte	0x2
 3704 0261 77       		.byte	0x77
 3705 0262 04       		.sleb128 4
 3706 0263 00000000 		.4byte	0x0
 3707 0267 00000000 		.4byte	0x0
 3708              	.LLST13:
 3709 026b 00000000 		.4byte	.LFB13
ARM GAS  C:\Users\hoangp\AppData\Local\Temp\cc4n80oh.s 			page 98


 3710 026f 02000000 		.4byte	.LCFI31
 3711 0273 0100     		.2byte	0x1
 3712 0275 5D       		.byte	0x5d
 3713 0276 02000000 		.4byte	.LCFI31
 3714 027a 04000000 		.4byte	.LCFI32
 3715 027e 0200     		.2byte	0x2
 3716 0280 7D       		.byte	0x7d
 3717 0281 04       		.sleb128 4
 3718 0282 04000000 		.4byte	.LCFI32
 3719 0286 32000000 		.4byte	.LFE13
 3720 028a 0200     		.2byte	0x2
 3721 028c 77       		.byte	0x77
 3722 028d 04       		.sleb128 4
 3723 028e 00000000 		.4byte	0x0
 3724 0292 00000000 		.4byte	0x0
 3725              	.LLST14:
 3726 0296 00000000 		.4byte	.LFB14
 3727 029a 02000000 		.4byte	.LCFI33
 3728 029e 0100     		.2byte	0x1
 3729 02a0 5D       		.byte	0x5d
 3730 02a1 02000000 		.4byte	.LCFI33
 3731 02a5 04000000 		.4byte	.LCFI34
 3732 02a9 0200     		.2byte	0x2
 3733 02ab 7D       		.byte	0x7d
 3734 02ac 04       		.sleb128 4
 3735 02ad 04000000 		.4byte	.LCFI34
 3736 02b1 06000000 		.4byte	.LCFI35
 3737 02b5 0200     		.2byte	0x2
 3738 02b7 7D       		.byte	0x7d
 3739 02b8 18       		.sleb128 24
 3740 02b9 06000000 		.4byte	.LCFI35
 3741 02bd 60000000 		.4byte	.LFE14
 3742 02c1 0200     		.2byte	0x2
 3743 02c3 77       		.byte	0x77
 3744 02c4 18       		.sleb128 24
 3745 02c5 00000000 		.4byte	0x0
 3746 02c9 00000000 		.4byte	0x0
 3747              	.LLST15:
 3748 02cd 00000000 		.4byte	.LFB15
 3749 02d1 02000000 		.4byte	.LCFI36
 3750 02d5 0100     		.2byte	0x1
 3751 02d7 5D       		.byte	0x5d
 3752 02d8 02000000 		.4byte	.LCFI36
 3753 02dc 04000000 		.4byte	.LCFI37
 3754 02e0 0200     		.2byte	0x2
 3755 02e2 7D       		.byte	0x7d
 3756 02e3 04       		.sleb128 4
 3757 02e4 04000000 		.4byte	.LCFI37
 3758 02e8 1A000000 		.4byte	.LFE15
 3759 02ec 0200     		.2byte	0x2
 3760 02ee 77       		.byte	0x77
 3761 02ef 04       		.sleb128 4
 3762 02f0 00000000 		.4byte	0x0
 3763 02f4 00000000 		.4byte	0x0
 3764              	.LLST16:
 3765 02f8 00000000 		.4byte	.LFB16
 3766 02fc 02000000 		.4byte	.LCFI38
ARM GAS  C:\Users\hoangp\AppData\Local\Temp\cc4n80oh.s 			page 99


 3767 0300 0100     		.2byte	0x1
 3768 0302 5D       		.byte	0x5d
 3769 0303 02000000 		.4byte	.LCFI38
 3770 0307 04000000 		.4byte	.LCFI39
 3771 030b 0200     		.2byte	0x2
 3772 030d 7D       		.byte	0x7d
 3773 030e 04       		.sleb128 4
 3774 030f 04000000 		.4byte	.LCFI39
 3775 0313 06000000 		.4byte	.LCFI40
 3776 0317 0200     		.2byte	0x2
 3777 0319 7D       		.byte	0x7d
 3778 031a 10       		.sleb128 16
 3779 031b 06000000 		.4byte	.LCFI40
 3780 031f 22000000 		.4byte	.LFE16
 3781 0323 0200     		.2byte	0x2
 3782 0325 77       		.byte	0x77
 3783 0326 10       		.sleb128 16
 3784 0327 00000000 		.4byte	0x0
 3785 032b 00000000 		.4byte	0x0
 3786              	.LLST17:
 3787 032f 00000000 		.4byte	.LFB17
 3788 0333 02000000 		.4byte	.LCFI41
 3789 0337 0100     		.2byte	0x1
 3790 0339 5D       		.byte	0x5d
 3791 033a 02000000 		.4byte	.LCFI41
 3792 033e 04000000 		.4byte	.LCFI42
 3793 0342 0200     		.2byte	0x2
 3794 0344 7D       		.byte	0x7d
 3795 0345 04       		.sleb128 4
 3796 0346 04000000 		.4byte	.LCFI42
 3797 034a 06000000 		.4byte	.LCFI43
 3798 034e 0200     		.2byte	0x2
 3799 0350 7D       		.byte	0x7d
 3800 0351 10       		.sleb128 16
 3801 0352 06000000 		.4byte	.LCFI43
 3802 0356 3A000000 		.4byte	.LFE17
 3803 035a 0200     		.2byte	0x2
 3804 035c 77       		.byte	0x77
 3805 035d 10       		.sleb128 16
 3806 035e 00000000 		.4byte	0x0
 3807 0362 00000000 		.4byte	0x0
 3808              	.LLST18:
 3809 0366 00000000 		.4byte	.LFB18
 3810 036a 02000000 		.4byte	.LCFI44
 3811 036e 0100     		.2byte	0x1
 3812 0370 5D       		.byte	0x5d
 3813 0371 02000000 		.4byte	.LCFI44
 3814 0375 04000000 		.4byte	.LCFI45
 3815 0379 0200     		.2byte	0x2
 3816 037b 7D       		.byte	0x7d
 3817 037c 04       		.sleb128 4
 3818 037d 04000000 		.4byte	.LCFI45
 3819 0381 06000000 		.4byte	.LCFI46
 3820 0385 0200     		.2byte	0x2
 3821 0387 7D       		.byte	0x7d
 3822 0388 10       		.sleb128 16
 3823 0389 06000000 		.4byte	.LCFI46
ARM GAS  C:\Users\hoangp\AppData\Local\Temp\cc4n80oh.s 			page 100


 3824 038d 1E000000 		.4byte	.LFE18
 3825 0391 0200     		.2byte	0x2
 3826 0393 77       		.byte	0x77
 3827 0394 10       		.sleb128 16
 3828 0395 00000000 		.4byte	0x0
 3829 0399 00000000 		.4byte	0x0
 3830              	.LLST19:
 3831 039d 00000000 		.4byte	.LFB19
 3832 03a1 02000000 		.4byte	.LCFI47
 3833 03a5 0100     		.2byte	0x1
 3834 03a7 5D       		.byte	0x5d
 3835 03a8 02000000 		.4byte	.LCFI47
 3836 03ac 04000000 		.4byte	.LCFI48
 3837 03b0 0200     		.2byte	0x2
 3838 03b2 7D       		.byte	0x7d
 3839 03b3 04       		.sleb128 4
 3840 03b4 04000000 		.4byte	.LCFI48
 3841 03b8 06000000 		.4byte	.LCFI49
 3842 03bc 0200     		.2byte	0x2
 3843 03be 7D       		.byte	0x7d
 3844 03bf 10       		.sleb128 16
 3845 03c0 06000000 		.4byte	.LCFI49
 3846 03c4 1E000000 		.4byte	.LFE19
 3847 03c8 0200     		.2byte	0x2
 3848 03ca 77       		.byte	0x77
 3849 03cb 10       		.sleb128 16
 3850 03cc 00000000 		.4byte	0x0
 3851 03d0 00000000 		.4byte	0x0
 3852              	.LLST20:
 3853 03d4 00000000 		.4byte	.LFB20
 3854 03d8 02000000 		.4byte	.LCFI50
 3855 03dc 0100     		.2byte	0x1
 3856 03de 5D       		.byte	0x5d
 3857 03df 02000000 		.4byte	.LCFI50
 3858 03e3 04000000 		.4byte	.LCFI51
 3859 03e7 0200     		.2byte	0x2
 3860 03e9 7D       		.byte	0x7d
 3861 03ea 04       		.sleb128 4
 3862 03eb 04000000 		.4byte	.LCFI51
 3863 03ef 06000000 		.4byte	.LCFI52
 3864 03f3 0200     		.2byte	0x2
 3865 03f5 7D       		.byte	0x7d
 3866 03f6 20       		.sleb128 32
 3867 03f7 06000000 		.4byte	.LCFI52
 3868 03fb C4000000 		.4byte	.LFE20
 3869 03ff 0200     		.2byte	0x2
 3870 0401 77       		.byte	0x77
 3871 0402 20       		.sleb128 32
 3872 0403 00000000 		.4byte	0x0
 3873 0407 00000000 		.4byte	0x0
 3874              	.LLST21:
 3875 040b 00000000 		.4byte	.LFB21
 3876 040f 02000000 		.4byte	.LCFI53
 3877 0413 0100     		.2byte	0x1
 3878 0415 5D       		.byte	0x5d
 3879 0416 02000000 		.4byte	.LCFI53
 3880 041a 04000000 		.4byte	.LCFI54
ARM GAS  C:\Users\hoangp\AppData\Local\Temp\cc4n80oh.s 			page 101


 3881 041e 0200     		.2byte	0x2
 3882 0420 7D       		.byte	0x7d
 3883 0421 0C       		.sleb128 12
 3884 0422 04000000 		.4byte	.LCFI54
 3885 0426 06000000 		.4byte	.LCFI55
 3886 042a 0200     		.2byte	0x2
 3887 042c 7D       		.byte	0x7d
 3888 042d 20       		.sleb128 32
 3889 042e 06000000 		.4byte	.LCFI55
 3890 0432 54000000 		.4byte	.LFE21
 3891 0436 0200     		.2byte	0x2
 3892 0438 77       		.byte	0x77
 3893 0439 20       		.sleb128 32
 3894 043a 00000000 		.4byte	0x0
 3895 043e 00000000 		.4byte	0x0
 3896              	.LLST22:
 3897 0442 00000000 		.4byte	.LFB22
 3898 0446 02000000 		.4byte	.LCFI56
 3899 044a 0100     		.2byte	0x1
 3900 044c 5D       		.byte	0x5d
 3901 044d 02000000 		.4byte	.LCFI56
 3902 0451 04000000 		.4byte	.LCFI57
 3903 0455 0200     		.2byte	0x2
 3904 0457 7D       		.byte	0x7d
 3905 0458 04       		.sleb128 4
 3906 0459 04000000 		.4byte	.LCFI57
 3907 045d 06000000 		.4byte	.LCFI58
 3908 0461 0200     		.2byte	0x2
 3909 0463 7D       		.byte	0x7d
 3910 0464 20       		.sleb128 32
 3911 0465 06000000 		.4byte	.LCFI58
 3912 0469 F0000000 		.4byte	.LFE22
 3913 046d 0200     		.2byte	0x2
 3914 046f 77       		.byte	0x77
 3915 0470 20       		.sleb128 32
 3916 0471 00000000 		.4byte	0x0
 3917 0475 00000000 		.4byte	0x0
 3918              	.LLST23:
 3919 0479 00000000 		.4byte	.LFB23
 3920 047d 02000000 		.4byte	.LCFI59
 3921 0481 0100     		.2byte	0x1
 3922 0483 5D       		.byte	0x5d
 3923 0484 02000000 		.4byte	.LCFI59
 3924 0488 04000000 		.4byte	.LCFI60
 3925 048c 0200     		.2byte	0x2
 3926 048e 7D       		.byte	0x7d
 3927 048f 08       		.sleb128 8
 3928 0490 04000000 		.4byte	.LCFI60
 3929 0494 3E000000 		.4byte	.LFE23
 3930 0498 0200     		.2byte	0x2
 3931 049a 77       		.byte	0x77
 3932 049b 08       		.sleb128 8
 3933 049c 00000000 		.4byte	0x0
 3934 04a0 00000000 		.4byte	0x0
 3935              	.LLST24:
 3936 04a4 00000000 		.4byte	.LFB24
 3937 04a8 02000000 		.4byte	.LCFI61
ARM GAS  C:\Users\hoangp\AppData\Local\Temp\cc4n80oh.s 			page 102


 3938 04ac 0100     		.2byte	0x1
 3939 04ae 5D       		.byte	0x5d
 3940 04af 02000000 		.4byte	.LCFI61
 3941 04b3 04000000 		.4byte	.LCFI62
 3942 04b7 0200     		.2byte	0x2
 3943 04b9 7D       		.byte	0x7d
 3944 04ba 08       		.sleb128 8
 3945 04bb 04000000 		.4byte	.LCFI62
 3946 04bf 06000000 		.4byte	.LCFI63
 3947 04c3 0200     		.2byte	0x2
 3948 04c5 7D       		.byte	0x7d
 3949 04c6 10       		.sleb128 16
 3950 04c7 06000000 		.4byte	.LCFI63
 3951 04cb D0080000 		.4byte	.LFE24
 3952 04cf 0200     		.2byte	0x2
 3953 04d1 77       		.byte	0x77
 3954 04d2 10       		.sleb128 16
 3955 04d3 00000000 		.4byte	0x0
 3956 04d7 00000000 		.4byte	0x0
 3957              	.LLST25:
 3958 04db 00000000 		.4byte	.LFB25
 3959 04df 02000000 		.4byte	.LCFI64
 3960 04e3 0100     		.2byte	0x1
 3961 04e5 5D       		.byte	0x5d
 3962 04e6 02000000 		.4byte	.LCFI64
 3963 04ea 04000000 		.4byte	.LCFI65
 3964 04ee 0200     		.2byte	0x2
 3965 04f0 7D       		.byte	0x7d
 3966 04f1 04       		.sleb128 4
 3967 04f2 04000000 		.4byte	.LCFI65
 3968 04f6 06000000 		.4byte	.LCFI66
 3969 04fa 0200     		.2byte	0x2
 3970 04fc 7D       		.byte	0x7d
 3971 04fd 18       		.sleb128 24
 3972 04fe 06000000 		.4byte	.LCFI66
 3973 0502 54000000 		.4byte	.LFE25
 3974 0506 0200     		.2byte	0x2
 3975 0508 77       		.byte	0x77
 3976 0509 18       		.sleb128 24
 3977 050a 00000000 		.4byte	0x0
 3978 050e 00000000 		.4byte	0x0
 3979              	.LLST26:
 3980 0512 00000000 		.4byte	.LFB26
 3981 0516 02000000 		.4byte	.LCFI67
 3982 051a 0100     		.2byte	0x1
 3983 051c 5D       		.byte	0x5d
 3984 051d 02000000 		.4byte	.LCFI67
 3985 0521 04000000 		.4byte	.LCFI68
 3986 0525 0200     		.2byte	0x2
 3987 0527 7D       		.byte	0x7d
 3988 0528 08       		.sleb128 8
 3989 0529 04000000 		.4byte	.LCFI68
 3990 052d 06000000 		.4byte	.LCFI69
 3991 0531 0200     		.2byte	0x2
 3992 0533 7D       		.byte	0x7d
 3993 0534 20       		.sleb128 32
 3994 0535 06000000 		.4byte	.LCFI69
ARM GAS  C:\Users\hoangp\AppData\Local\Temp\cc4n80oh.s 			page 103


 3995 0539 FE010000 		.4byte	.LFE26
 3996 053d 0200     		.2byte	0x2
 3997 053f 77       		.byte	0x77
 3998 0540 20       		.sleb128 32
 3999 0541 00000000 		.4byte	0x0
 4000 0545 00000000 		.4byte	0x0
 4001              	.LLST27:
 4002 0549 00000000 		.4byte	.LFB27
 4003 054d 02000000 		.4byte	.LCFI70
 4004 0551 0100     		.2byte	0x1
 4005 0553 5D       		.byte	0x5d
 4006 0554 02000000 		.4byte	.LCFI70
 4007 0558 04000000 		.4byte	.LCFI71
 4008 055c 0200     		.2byte	0x2
 4009 055e 7D       		.byte	0x7d
 4010 055f 04       		.sleb128 4
 4011 0560 04000000 		.4byte	.LCFI71
 4012 0564 06000000 		.4byte	.LCFI72
 4013 0568 0200     		.2byte	0x2
 4014 056a 7D       		.byte	0x7d
 4015 056b 20       		.sleb128 32
 4016 056c 06000000 		.4byte	.LCFI72
 4017 0570 CA010000 		.4byte	.LFE27
 4018 0574 0200     		.2byte	0x2
 4019 0576 77       		.byte	0x77
 4020 0577 20       		.sleb128 32
 4021 0578 00000000 		.4byte	0x0
 4022 057c 00000000 		.4byte	0x0
 4023              	.LLST28:
 4024 0580 00000000 		.4byte	.LFB28
 4025 0584 02000000 		.4byte	.LCFI73
 4026 0588 0100     		.2byte	0x1
 4027 058a 5D       		.byte	0x5d
 4028 058b 02000000 		.4byte	.LCFI73
 4029 058f 04000000 		.4byte	.LCFI74
 4030 0593 0200     		.2byte	0x2
 4031 0595 7D       		.byte	0x7d
 4032 0596 08       		.sleb128 8
 4033 0597 04000000 		.4byte	.LCFI74
 4034 059b 06000000 		.4byte	.LCFI75
 4035 059f 0200     		.2byte	0x2
 4036 05a1 7D       		.byte	0x7d
 4037 05a2 10       		.sleb128 16
 4038 05a3 06000000 		.4byte	.LCFI75
 4039 05a7 92000000 		.4byte	.LFE28
 4040 05ab 0200     		.2byte	0x2
 4041 05ad 77       		.byte	0x77
 4042 05ae 10       		.sleb128 16
 4043 05af 00000000 		.4byte	0x0
 4044 05b3 00000000 		.4byte	0x0
 4045              		.file 2 ".\\Generated_Source\\PSoC5\\/cytypes.h"
 4046              		.file 3 ".\\Generated_Source\\PSoC5\\/ADC_DelSig_V.h"
 4047              		.section	.debug_info
 4048 0000 16080000 		.4byte	0x816
 4049 0004 0200     		.2byte	0x2
 4050 0006 00000000 		.4byte	.Ldebug_abbrev0
 4051 000a 04       		.byte	0x4
ARM GAS  C:\Users\hoangp\AppData\Local\Temp\cc4n80oh.s 			page 104


 4052 000b 01       		.uleb128 0x1
 4053 000c 84000000 		.4byte	.LASF103
 4054 0010 01       		.byte	0x1
 4055 0011 33040000 		.4byte	.LASF104
 4056 0015 5E060000 		.4byte	.LASF105
 4057 0019 00000000 		.4byte	0x0
 4058 001d 00000000 		.4byte	0x0
 4059 0021 00000000 		.4byte	.Ldebug_ranges0+0x0
 4060 0025 00000000 		.4byte	.Ldebug_line0
 4061 0029 02       		.uleb128 0x2
 4062 002a 01       		.byte	0x1
 4063 002b 06       		.byte	0x6
 4064 002c B6000000 		.4byte	.LASF0
 4065 0030 02       		.uleb128 0x2
 4066 0031 01       		.byte	0x1
 4067 0032 08       		.byte	0x8
 4068 0033 5B040000 		.4byte	.LASF1
 4069 0037 02       		.uleb128 0x2
 4070 0038 02       		.byte	0x2
 4071 0039 05       		.byte	0x5
 4072 003a A0040000 		.4byte	.LASF2
 4073 003e 02       		.uleb128 0x2
 4074 003f 02       		.byte	0x2
 4075 0040 07       		.byte	0x7
 4076 0041 6B020000 		.4byte	.LASF3
 4077 0045 02       		.uleb128 0x2
 4078 0046 04       		.byte	0x4
 4079 0047 05       		.byte	0x5
 4080 0048 0F010000 		.4byte	.LASF4
 4081 004c 02       		.uleb128 0x2
 4082 004d 04       		.byte	0x4
 4083 004e 07       		.byte	0x7
 4084 004f 23020000 		.4byte	.LASF5
 4085 0053 02       		.uleb128 0x2
 4086 0054 08       		.byte	0x8
 4087 0055 05       		.byte	0x5
 4088 0056 A8000000 		.4byte	.LASF6
 4089 005a 02       		.uleb128 0x2
 4090 005b 08       		.byte	0x8
 4091 005c 07       		.byte	0x7
 4092 005d 6D000000 		.4byte	.LASF7
 4093 0061 03       		.uleb128 0x3
 4094 0062 04       		.byte	0x4
 4095 0063 05       		.byte	0x5
 4096 0064 696E7400 		.ascii	"int\000"
 4097 0068 02       		.uleb128 0x2
 4098 0069 04       		.byte	0x4
 4099 006a 07       		.byte	0x7
 4100 006b 0F020000 		.4byte	.LASF8
 4101 006f 04       		.uleb128 0x4
 4102 0070 5D010000 		.4byte	.LASF9
 4103 0074 02       		.byte	0x2
 4104 0075 4C       		.byte	0x4c
 4105 0076 30000000 		.4byte	0x30
 4106 007a 04       		.uleb128 0x4
 4107 007b 00000000 		.4byte	.LASF10
 4108 007f 02       		.byte	0x2
ARM GAS  C:\Users\hoangp\AppData\Local\Temp\cc4n80oh.s 			page 105


 4109 0080 4D       		.byte	0x4d
 4110 0081 3E000000 		.4byte	0x3e
 4111 0085 04       		.uleb128 0x4
 4112 0086 C9010000 		.4byte	.LASF11
 4113 008a 02       		.byte	0x2
 4114 008b 4E       		.byte	0x4e
 4115 008c 4C000000 		.4byte	0x4c
 4116 0090 04       		.uleb128 0x4
 4117 0091 93020000 		.4byte	.LASF12
 4118 0095 02       		.byte	0x2
 4119 0096 4F       		.byte	0x4f
 4120 0097 29000000 		.4byte	0x29
 4121 009b 04       		.uleb128 0x4
 4122 009c 1C060000 		.4byte	.LASF13
 4123 00a0 02       		.byte	0x2
 4124 00a1 50       		.byte	0x50
 4125 00a2 37000000 		.4byte	0x37
 4126 00a6 04       		.uleb128 0x4
 4127 00a7 09010000 		.4byte	.LASF14
 4128 00ab 02       		.byte	0x2
 4129 00ac 51       		.byte	0x51
 4130 00ad 45000000 		.4byte	0x45
 4131 00b1 02       		.uleb128 0x2
 4132 00b2 04       		.byte	0x4
 4133 00b3 04       		.byte	0x4
 4134 00b4 DD030000 		.4byte	.LASF15
 4135 00b8 02       		.uleb128 0x2
 4136 00b9 08       		.byte	0x8
 4137 00ba 04       		.byte	0x4
 4138 00bb 79010000 		.4byte	.LASF16
 4139 00bf 02       		.uleb128 0x2
 4140 00c0 01       		.byte	0x1
 4141 00c1 08       		.byte	0x8
 4142 00c2 20050000 		.4byte	.LASF17
 4143 00c6 05       		.uleb128 0x5
 4144 00c7 6F000000 		.4byte	0x6f
 4145 00cb 06       		.uleb128 0x6
 4146 00cc 04       		.byte	0x4
 4147 00cd 07       		.byte	0x7
 4148 00ce 07       		.uleb128 0x7
 4149 00cf 48020000 		.4byte	.LASF106
 4150 00d3 09       		.byte	0x9
 4151 00d4 03       		.byte	0x3
 4152 00d5 35       		.byte	0x35
 4153 00d6 59010000 		.4byte	0x159
 4154 00da 08       		.uleb128 0x8
 4155 00db 35010000 		.4byte	.LASF18
 4156 00df 03       		.byte	0x3
 4157 00e0 36       		.byte	0x36
 4158 00e1 6F000000 		.4byte	0x6f
 4159 00e5 02       		.byte	0x2
 4160 00e6 23       		.byte	0x23
 4161 00e7 00       		.uleb128 0x0
 4162 00e8 08       		.uleb128 0x8
 4163 00e9 3F010000 		.4byte	.LASF19
 4164 00ed 03       		.byte	0x3
 4165 00ee 37       		.byte	0x37
ARM GAS  C:\Users\hoangp\AppData\Local\Temp\cc4n80oh.s 			page 106


 4166 00ef 6F000000 		.4byte	0x6f
 4167 00f3 02       		.byte	0x2
 4168 00f4 23       		.byte	0x23
 4169 00f5 01       		.uleb128 0x1
 4170 00f6 08       		.uleb128 0x8
 4171 00f7 49010000 		.4byte	.LASF20
 4172 00fb 03       		.byte	0x3
 4173 00fc 38       		.byte	0x38
 4174 00fd 6F000000 		.4byte	0x6f
 4175 0101 02       		.byte	0x2
 4176 0102 23       		.byte	0x23
 4177 0103 02       		.uleb128 0x2
 4178 0104 08       		.uleb128 0x8
 4179 0105 53010000 		.4byte	.LASF21
 4180 0109 03       		.byte	0x3
 4181 010a 39       		.byte	0x39
 4182 010b 6F000000 		.4byte	0x6f
 4183 010f 02       		.byte	0x2
 4184 0110 23       		.byte	0x23
 4185 0111 03       		.uleb128 0x3
 4186 0112 08       		.uleb128 0x8
 4187 0113 00020000 		.4byte	.LASF22
 4188 0117 03       		.byte	0x3
 4189 0118 3A       		.byte	0x3a
 4190 0119 6F000000 		.4byte	0x6f
 4191 011d 02       		.byte	0x2
 4192 011e 23       		.byte	0x23
 4193 011f 04       		.uleb128 0x4
 4194 0120 08       		.uleb128 0x8
 4195 0121 F7000000 		.4byte	.LASF23
 4196 0125 03       		.byte	0x3
 4197 0126 3B       		.byte	0x3b
 4198 0127 6F000000 		.4byte	0x6f
 4199 012b 02       		.byte	0x2
 4200 012c 23       		.byte	0x23
 4201 012d 05       		.uleb128 0x5
 4202 012e 08       		.uleb128 0x8
 4203 012f 00010000 		.4byte	.LASF24
 4204 0133 03       		.byte	0x3
 4205 0134 3C       		.byte	0x3c
 4206 0135 6F000000 		.4byte	0x6f
 4207 0139 02       		.byte	0x2
 4208 013a 23       		.byte	0x23
 4209 013b 06       		.uleb128 0x6
 4210 013c 08       		.uleb128 0x8
 4211 013d A9060000 		.4byte	.LASF25
 4212 0141 03       		.byte	0x3
 4213 0142 3D       		.byte	0x3d
 4214 0143 6F000000 		.4byte	0x6f
 4215 0147 02       		.byte	0x2
 4216 0148 23       		.byte	0x23
 4217 0149 07       		.uleb128 0x7
 4218 014a 08       		.uleb128 0x8
 4219 014b FD040000 		.4byte	.LASF26
 4220 014f 03       		.byte	0x3
 4221 0150 40       		.byte	0x40
 4222 0151 6F000000 		.4byte	0x6f
ARM GAS  C:\Users\hoangp\AppData\Local\Temp\cc4n80oh.s 			page 107


 4223 0155 02       		.byte	0x2
 4224 0156 23       		.byte	0x23
 4225 0157 08       		.uleb128 0x8
 4226 0158 00       		.byte	0x0
 4227 0159 04       		.uleb128 0x4
 4228 015a 69040000 		.4byte	.LASF27
 4229 015e 03       		.byte	0x3
 4230 015f 41       		.byte	0x41
 4231 0160 CE000000 		.4byte	0xce
 4232 0164 09       		.uleb128 0x9
 4233 0165 01       		.byte	0x1
 4234 0166 8E040000 		.4byte	.LASF28
 4235 016a 01       		.byte	0x1
 4236 016b 5D       		.byte	0x5d
 4237 016c 01       		.byte	0x1
 4238 016d 00000000 		.4byte	.LFB0
 4239 0171 32000000 		.4byte	.LFE0
 4240 0175 00000000 		.4byte	.LLST0
 4241 0179 09       		.uleb128 0x9
 4242 017a 01       		.byte	0x1
 4243 017b 33000000 		.4byte	.LASF29
 4244 017f 01       		.byte	0x1
 4245 0180 81       		.byte	0x81
 4246 0181 01       		.byte	0x1
 4247 0182 00000000 		.4byte	.LFB1
 4248 0186 C2010000 		.4byte	.LFE1
 4249 018a 2B000000 		.4byte	.LLST1
 4250 018e 09       		.uleb128 0x9
 4251 018f 01       		.byte	0x1
 4252 0190 8F030000 		.4byte	.LASF30
 4253 0194 01       		.byte	0x1
 4254 0195 E0       		.byte	0xe0
 4255 0196 01       		.byte	0x1
 4256 0197 00000000 		.4byte	.LFB2
 4257 019b AA000000 		.4byte	.LFE2
 4258 019f 56000000 		.4byte	.LLST2
 4259 01a3 09       		.uleb128 0x9
 4260 01a4 01       		.byte	0x1
 4261 01a5 D0010000 		.4byte	.LASF31
 4262 01a9 01       		.byte	0x1
 4263 01aa FE       		.byte	0xfe
 4264 01ab 01       		.byte	0x1
 4265 01ac 00000000 		.4byte	.LFB3
 4266 01b0 BA000000 		.4byte	.LFE3
 4267 01b4 81000000 		.4byte	.LLST3
 4268 01b8 0A       		.uleb128 0xa
 4269 01b9 01       		.byte	0x1
 4270 01ba E3030000 		.4byte	.LASF32
 4271 01be 01       		.byte	0x1
 4272 01bf 1C01     		.2byte	0x11c
 4273 01c1 01       		.byte	0x1
 4274 01c2 00000000 		.4byte	.LFB4
 4275 01c6 36010000 		.4byte	.LFE4
 4276 01ca AC000000 		.4byte	.LLST4
 4277 01ce 0A       		.uleb128 0xa
 4278 01cf 01       		.byte	0x1
 4279 01d0 7C030000 		.4byte	.LASF33
ARM GAS  C:\Users\hoangp\AppData\Local\Temp\cc4n80oh.s 			page 108


 4280 01d4 01       		.byte	0x1
 4281 01d5 5001     		.2byte	0x150
 4282 01d7 01       		.byte	0x1
 4283 01d8 00000000 		.4byte	.LFB5
 4284 01dc 3A000000 		.4byte	.LFE5
 4285 01e0 D7000000 		.4byte	.LLST5
 4286 01e4 0A       		.uleb128 0xa
 4287 01e5 01       		.byte	0x1
 4288 01e6 B7010000 		.4byte	.LASF34
 4289 01ea 01       		.byte	0x1
 4290 01eb 6E01     		.2byte	0x16e
 4291 01ed 01       		.byte	0x1
 4292 01ee 00000000 		.4byte	.LFB6
 4293 01f2 B0010000 		.4byte	.LFE6
 4294 01f6 02010000 		.4byte	.LLST6
 4295 01fa 0B       		.uleb128 0xb
 4296 01fb 01       		.byte	0x1
 4297 01fc E1050000 		.4byte	.LASF35
 4298 0200 01       		.byte	0x1
 4299 0201 C201     		.2byte	0x1c2
 4300 0203 01       		.byte	0x1
 4301 0204 00000000 		.4byte	.LFB7
 4302 0208 44000000 		.4byte	.LFE7
 4303 020c 2D010000 		.4byte	.LLST7
 4304 0210 33020000 		.4byte	0x233
 4305 0214 0C       		.uleb128 0xc
 4306 0215 D8030000 		.4byte	.LASF37
 4307 0219 01       		.byte	0x1
 4308 021a C201     		.2byte	0x1c2
 4309 021c 6F000000 		.4byte	0x6f
 4310 0220 02       		.byte	0x2
 4311 0221 91       		.byte	0x91
 4312 0222 6F       		.sleb128 -17
 4313 0223 0D       		.uleb128 0xd
 4314 0224 A2060000 		.4byte	.LASF39
 4315 0228 01       		.byte	0x1
 4316 0229 C401     		.2byte	0x1c4
 4317 022b 6F000000 		.4byte	0x6f
 4318 022f 02       		.byte	0x2
 4319 0230 91       		.byte	0x91
 4320 0231 77       		.sleb128 -9
 4321 0232 00       		.byte	0x0
 4322 0233 0B       		.uleb128 0xb
 4323 0234 01       		.byte	0x1
 4324 0235 B1060000 		.4byte	.LASF36
 4325 0239 01       		.byte	0x1
 4326 023a E101     		.2byte	0x1e1
 4327 023c 01       		.byte	0x1
 4328 023d 00000000 		.4byte	.LFB8
 4329 0241 3C000000 		.4byte	.LFE8
 4330 0245 64010000 		.4byte	.LLST8
 4331 0249 6C020000 		.4byte	0x26c
 4332 024d 0C       		.uleb128 0xc
 4333 024e B2030000 		.4byte	.LASF38
 4334 0252 01       		.byte	0x1
 4335 0253 E101     		.2byte	0x1e1
 4336 0255 6F000000 		.4byte	0x6f
ARM GAS  C:\Users\hoangp\AppData\Local\Temp\cc4n80oh.s 			page 109


 4337 0259 02       		.byte	0x2
 4338 025a 91       		.byte	0x91
 4339 025b 6F       		.sleb128 -17
 4340 025c 0D       		.uleb128 0xd
 4341 025d A2060000 		.4byte	.LASF39
 4342 0261 01       		.byte	0x1
 4343 0262 E301     		.2byte	0x1e3
 4344 0264 6F000000 		.4byte	0x6f
 4345 0268 02       		.byte	0x2
 4346 0269 91       		.byte	0x91
 4347 026a 77       		.sleb128 -9
 4348 026b 00       		.byte	0x0
 4349 026c 0E       		.uleb128 0xe
 4350 026d 01       		.byte	0x1
 4351 026e 7E020000 		.4byte	.LASF43
 4352 0272 01       		.byte	0x1
 4353 0273 FF01     		.2byte	0x1ff
 4354 0275 01       		.byte	0x1
 4355 0276 6F000000 		.4byte	0x6f
 4356 027a 00000000 		.4byte	.LFB9
 4357 027e E4000000 		.4byte	.LFE9
 4358 0282 9B010000 		.4byte	.LLST9
 4359 0286 C7020000 		.4byte	0x2c7
 4360 028a 0C       		.uleb128 0xc
 4361 028b FC050000 		.4byte	.LASF40
 4362 028f 01       		.byte	0x1
 4363 0290 FF01     		.2byte	0x1ff
 4364 0292 B1000000 		.4byte	0xb1
 4365 0296 02       		.byte	0x2
 4366 0297 91       		.byte	0x91
 4367 0298 64       		.sleb128 -28
 4368 0299 0D       		.uleb128 0xd
 4369 029a A2060000 		.4byte	.LASF39
 4370 029e 01       		.byte	0x1
 4371 029f 0102     		.2byte	0x201
 4372 02a1 7A000000 		.4byte	0x7a
 4373 02a5 02       		.byte	0x2
 4374 02a6 91       		.byte	0x91
 4375 02a7 68       		.sleb128 -24
 4376 02a8 0D       		.uleb128 0xd
 4377 02a9 DA050000 		.4byte	.LASF41
 4378 02ad 01       		.byte	0x1
 4379 02ae 0202     		.2byte	0x202
 4380 02b0 6F000000 		.4byte	0x6f
 4381 02b4 02       		.byte	0x2
 4382 02b5 91       		.byte	0x91
 4383 02b6 6B       		.sleb128 -21
 4384 02b7 0D       		.uleb128 0xd
 4385 02b8 54050000 		.4byte	.LASF42
 4386 02bc 01       		.byte	0x1
 4387 02bd 0302     		.2byte	0x203
 4388 02bf B1000000 		.4byte	0xb1
 4389 02c3 02       		.byte	0x2
 4390 02c4 91       		.byte	0x91
 4391 02c5 6C       		.sleb128 -20
 4392 02c6 00       		.byte	0x0
 4393 02c7 0E       		.uleb128 0xe
ARM GAS  C:\Users\hoangp\AppData\Local\Temp\cc4n80oh.s 			page 110


 4394 02c8 01       		.byte	0x1
 4395 02c9 63010000 		.4byte	.LASF44
 4396 02cd 01       		.byte	0x1
 4397 02ce 2C02     		.2byte	0x22c
 4398 02d0 01       		.byte	0x1
 4399 02d1 7A000000 		.4byte	0x7a
 4400 02d5 00000000 		.4byte	.LFB10
 4401 02d9 BA000000 		.4byte	.LFE10
 4402 02dd D2010000 		.4byte	.LLST10
 4403 02e1 13030000 		.4byte	0x313
 4404 02e5 0D       		.uleb128 0xd
 4405 02e6 25050000 		.4byte	.LASF45
 4406 02ea 01       		.byte	0x1
 4407 02eb 2E02     		.2byte	0x22e
 4408 02ed 6F000000 		.4byte	0x6f
 4409 02f1 02       		.byte	0x2
 4410 02f2 91       		.byte	0x91
 4411 02f3 73       		.sleb128 -13
 4412 02f4 0D       		.uleb128 0xd
 4413 02f5 98020000 		.4byte	.LASF46
 4414 02f9 01       		.byte	0x1
 4415 02fa 2F02     		.2byte	0x22f
 4416 02fc 7A000000 		.4byte	0x7a
 4417 0300 02       		.byte	0x2
 4418 0301 91       		.byte	0x91
 4419 0302 74       		.sleb128 -12
 4420 0303 0D       		.uleb128 0xd
 4421 0304 3B020000 		.4byte	.LASF47
 4422 0308 01       		.byte	0x1
 4423 0309 2F02     		.2byte	0x22f
 4424 030b 7A000000 		.4byte	0x7a
 4425 030f 02       		.byte	0x2
 4426 0310 91       		.byte	0x91
 4427 0311 76       		.sleb128 -10
 4428 0312 00       		.byte	0x0
 4429 0313 0B       		.uleb128 0xb
 4430 0314 01       		.byte	0x1
 4431 0315 AB050000 		.4byte	.LASF48
 4432 0319 01       		.byte	0x1
 4433 031a 6602     		.2byte	0x266
 4434 031c 01       		.byte	0x1
 4435 031d 00000000 		.4byte	.LFB11
 4436 0321 44000000 		.4byte	.LFE11
 4437 0325 09020000 		.4byte	.LLST11
 4438 0329 4C030000 		.4byte	0x34c
 4439 032d 0C       		.uleb128 0xc
 4440 032e 36060000 		.4byte	.LASF49
 4441 0332 01       		.byte	0x1
 4442 0333 6602     		.2byte	0x266
 4443 0335 6F000000 		.4byte	0x6f
 4444 0339 02       		.byte	0x2
 4445 033a 91       		.byte	0x91
 4446 033b 77       		.sleb128 -9
 4447 033c 0C       		.uleb128 0xc
 4448 033d 43050000 		.4byte	.LASF50
 4449 0341 01       		.byte	0x1
 4450 0342 6602     		.2byte	0x266
ARM GAS  C:\Users\hoangp\AppData\Local\Temp\cc4n80oh.s 			page 111


 4451 0344 6F000000 		.4byte	0x6f
 4452 0348 02       		.byte	0x2
 4453 0349 91       		.byte	0x91
 4454 034a 76       		.sleb128 -10
 4455 034b 00       		.byte	0x0
 4456 034c 0A       		.uleb128 0xa
 4457 034d 01       		.byte	0x1
 4458 034e FC030000 		.4byte	.LASF51
 4459 0352 01       		.byte	0x1
 4460 0353 8202     		.2byte	0x282
 4461 0355 01       		.byte	0x1
 4462 0356 00000000 		.4byte	.LFB12
 4463 035a 26000000 		.4byte	.LFE12
 4464 035e 40020000 		.4byte	.LLST12
 4465 0362 0A       		.uleb128 0xa
 4466 0363 01       		.byte	0x1
 4467 0364 07000000 		.4byte	.LASF52
 4468 0368 01       		.byte	0x1
 4469 0369 9B02     		.2byte	0x29b
 4470 036b 01       		.byte	0x1
 4471 036c 00000000 		.4byte	.LFB13
 4472 0370 32000000 		.4byte	.LFE13
 4473 0374 6B020000 		.4byte	.LLST13
 4474 0378 0E       		.uleb128 0xe
 4475 0379 01       		.byte	0x1
 4476 037a 5F030000 		.4byte	.LASF53
 4477 037e 01       		.byte	0x1
 4478 037f BA02     		.2byte	0x2ba
 4479 0381 01       		.byte	0x1
 4480 0382 6F000000 		.4byte	0x6f
 4481 0386 00000000 		.4byte	.LFB14
 4482 038a 60000000 		.4byte	.LFE14
 4483 038e 96020000 		.4byte	.LLST14
 4484 0392 B5030000 		.4byte	0x3b5
 4485 0396 0C       		.uleb128 0xc
 4486 0397 35020000 		.4byte	.LASF54
 4487 039b 01       		.byte	0x1
 4488 039c BA02     		.2byte	0x2ba
 4489 039e 6F000000 		.4byte	0x6f
 4490 03a2 02       		.byte	0x2
 4491 03a3 91       		.byte	0x91
 4492 03a4 6F       		.sleb128 -17
 4493 03a5 0D       		.uleb128 0xd
 4494 03a6 DA050000 		.4byte	.LASF41
 4495 03aa 01       		.byte	0x1
 4496 03ab BC02     		.2byte	0x2bc
 4497 03ad 6F000000 		.4byte	0x6f
 4498 03b1 02       		.byte	0x2
 4499 03b2 91       		.byte	0x91
 4500 03b3 77       		.sleb128 -9
 4501 03b4 00       		.byte	0x0
 4502 03b5 0F       		.uleb128 0xf
 4503 03b6 01       		.byte	0x1
 4504 03b7 47030000 		.4byte	.LASF107
 4505 03bb 01       		.byte	0x1
 4506 03bc E002     		.2byte	0x2e0
 4507 03be 01       		.byte	0x1
ARM GAS  C:\Users\hoangp\AppData\Local\Temp\cc4n80oh.s 			page 112


 4508 03bf 90000000 		.4byte	0x90
 4509 03c3 00000000 		.4byte	.LFB15
 4510 03c7 1A000000 		.4byte	.LFE15
 4511 03cb CD020000 		.4byte	.LLST15
 4512 03cf 0E       		.uleb128 0xe
 4513 03d0 01       		.byte	0x1
 4514 03d1 80010000 		.4byte	.LASF55
 4515 03d5 01       		.byte	0x1
 4516 03d6 F402     		.2byte	0x2f4
 4517 03d8 01       		.byte	0x1
 4518 03d9 9B000000 		.4byte	0x9b
 4519 03dd 00000000 		.4byte	.LFB16
 4520 03e1 22000000 		.4byte	.LFE16
 4521 03e5 F8020000 		.4byte	.LLST16
 4522 03e9 FD030000 		.4byte	0x3fd
 4523 03ed 0D       		.uleb128 0xd
 4524 03ee E3060000 		.4byte	.LASF56
 4525 03f2 01       		.byte	0x1
 4526 03f3 F602     		.2byte	0x2f6
 4527 03f5 7A000000 		.4byte	0x7a
 4528 03f9 02       		.byte	0x2
 4529 03fa 91       		.byte	0x91
 4530 03fb 76       		.sleb128 -10
 4531 03fc 00       		.byte	0x0
 4532 03fd 0E       		.uleb128 0xe
 4533 03fe 01       		.byte	0x1
 4534 03ff 7B050000 		.4byte	.LASF57
 4535 0403 01       		.byte	0x1
 4536 0404 1103     		.2byte	0x311
 4537 0406 01       		.byte	0x1
 4538 0407 A6000000 		.4byte	0xa6
 4539 040b 00000000 		.4byte	.LFB17
 4540 040f 3A000000 		.4byte	.LFE17
 4541 0413 2F030000 		.4byte	.LLST17
 4542 0417 2B040000 		.4byte	0x42b
 4543 041b 0D       		.uleb128 0xd
 4544 041c E3060000 		.4byte	.LASF56
 4545 0420 01       		.byte	0x1
 4546 0421 1303     		.2byte	0x313
 4547 0423 85000000 		.4byte	0x85
 4548 0427 02       		.byte	0x2
 4549 0428 91       		.byte	0x91
 4550 0429 74       		.sleb128 -12
 4551 042a 00       		.byte	0x0
 4552 042b 0B       		.uleb128 0xb
 4553 042c 01       		.byte	0x1
 4554 042d 94050000 		.4byte	.LASF58
 4555 0431 01       		.byte	0x1
 4556 0432 3803     		.2byte	0x338
 4557 0434 01       		.byte	0x1
 4558 0435 00000000 		.4byte	.LFB18
 4559 0439 1E000000 		.4byte	.LFE18
 4560 043d 66030000 		.4byte	.LLST18
 4561 0441 55040000 		.4byte	0x455
 4562 0445 0C       		.uleb128 0xc
 4563 0446 6A050000 		.4byte	.LASF59
 4564 044a 01       		.byte	0x1
ARM GAS  C:\Users\hoangp\AppData\Local\Temp\cc4n80oh.s 			page 113


 4565 044b 3803     		.2byte	0x338
 4566 044d A6000000 		.4byte	0xa6
 4567 0451 02       		.byte	0x2
 4568 0452 91       		.byte	0x91
 4569 0453 74       		.sleb128 -12
 4570 0454 00       		.byte	0x0
 4571 0455 0B       		.uleb128 0xb
 4572 0456 01       		.byte	0x1
 4573 0457 B1020000 		.4byte	.LASF60
 4574 045b 01       		.byte	0x1
 4575 045c 5103     		.2byte	0x351
 4576 045e 01       		.byte	0x1
 4577 045f 00000000 		.4byte	.LFB19
 4578 0463 1E000000 		.4byte	.LFE19
 4579 0467 9D030000 		.4byte	.LLST19
 4580 046b 7F040000 		.4byte	0x47f
 4581 046f 0C       		.uleb128 0xc
 4582 0470 20000000 		.4byte	.LASF61
 4583 0474 01       		.byte	0x1
 4584 0475 5103     		.2byte	0x351
 4585 0477 A6000000 		.4byte	0xa6
 4586 047b 02       		.byte	0x2
 4587 047c 91       		.byte	0x91
 4588 047d 74       		.sleb128 -12
 4589 047e 00       		.byte	0x0
 4590 047f 0E       		.uleb128 0xe
 4591 0480 01       		.byte	0x1
 4592 0481 D3020000 		.4byte	.LASF62
 4593 0485 01       		.byte	0x1
 4594 0486 6B03     		.2byte	0x36b
 4595 0488 01       		.byte	0x1
 4596 0489 9B000000 		.4byte	0x9b
 4597 048d 00000000 		.4byte	.LFB20
 4598 0491 C4000000 		.4byte	.LFE20
 4599 0495 D4030000 		.4byte	.LLST20
 4600 0499 E5040000 		.4byte	0x4e5
 4601 049d 0C       		.uleb128 0xc
 4602 049e 71050000 		.4byte	.LASF63
 4603 04a2 01       		.byte	0x1
 4604 04a3 6B03     		.2byte	0x36b
 4605 04a5 A6000000 		.4byte	0xa6
 4606 04a9 02       		.byte	0x2
 4607 04aa 91       		.byte	0x91
 4608 04ab 64       		.sleb128 -28
 4609 04ac 0D       		.uleb128 0xd
 4610 04ad C6020000 		.4byte	.LASF64
 4611 04b1 01       		.byte	0x1
 4612 04b2 6E03     		.2byte	0x36e
 4613 04b4 A6000000 		.4byte	0xa6
 4614 04b8 02       		.byte	0x2
 4615 04b9 91       		.byte	0x91
 4616 04ba 68       		.sleb128 -24
 4617 04bb 10       		.uleb128 0x10
 4618 04bc 4100     		.ascii	"A\000"
 4619 04be 01       		.byte	0x1
 4620 04bf 6F03     		.2byte	0x36f
 4621 04c1 A6000000 		.4byte	0xa6
ARM GAS  C:\Users\hoangp\AppData\Local\Temp\cc4n80oh.s 			page 114


 4622 04c5 02       		.byte	0x2
 4623 04c6 91       		.byte	0x91
 4624 04c7 6C       		.sleb128 -20
 4625 04c8 10       		.uleb128 0x10
 4626 04c9 4200     		.ascii	"B\000"
 4627 04cb 01       		.byte	0x1
 4628 04cc 6F03     		.2byte	0x36f
 4629 04ce A6000000 		.4byte	0xa6
 4630 04d2 02       		.byte	0x2
 4631 04d3 91       		.byte	0x91
 4632 04d4 70       		.sleb128 -16
 4633 04d5 0D       		.uleb128 0xd
 4634 04d6 D7040000 		.4byte	.LASF65
 4635 04da 01       		.byte	0x1
 4636 04db 7003     		.2byte	0x370
 4637 04dd 6F000000 		.4byte	0x6f
 4638 04e1 02       		.byte	0x2
 4639 04e2 91       		.byte	0x91
 4640 04e3 77       		.sleb128 -9
 4641 04e4 00       		.byte	0x0
 4642 04e5 0E       		.uleb128 0xe
 4643 04e6 01       		.byte	0x1
 4644 04e7 47000000 		.4byte	.LASF66
 4645 04eb 01       		.byte	0x1
 4646 04ec AB03     		.2byte	0x3ab
 4647 04ee 01       		.byte	0x1
 4648 04ef B1000000 		.4byte	0xb1
 4649 04f3 00000000 		.4byte	.LFB21
 4650 04f7 54000000 		.4byte	.LFE21
 4651 04fb 0B040000 		.4byte	.LLST21
 4652 04ff 22050000 		.4byte	0x522
 4653 0503 0C       		.uleb128 0xc
 4654 0504 71050000 		.4byte	.LASF63
 4655 0508 01       		.byte	0x1
 4656 0509 AB03     		.2byte	0x3ab
 4657 050b A6000000 		.4byte	0xa6
 4658 050f 02       		.byte	0x2
 4659 0510 91       		.byte	0x91
 4660 0511 64       		.sleb128 -28
 4661 0512 0D       		.uleb128 0xd
 4662 0513 99010000 		.4byte	.LASF67
 4663 0517 01       		.byte	0x1
 4664 0518 AE03     		.2byte	0x3ae
 4665 051a B1000000 		.4byte	0xb1
 4666 051e 02       		.byte	0x2
 4667 051f 91       		.byte	0x91
 4668 0520 6C       		.sleb128 -20
 4669 0521 00       		.byte	0x0
 4670 0522 0E       		.uleb128 0xe
 4671 0523 01       		.byte	0x1
 4672 0524 18010000 		.4byte	.LASF68
 4673 0528 01       		.byte	0x1
 4674 0529 D903     		.2byte	0x3d9
 4675 052b 01       		.byte	0x1
 4676 052c A6000000 		.4byte	0xa6
 4677 0530 00000000 		.4byte	.LFB22
 4678 0534 F0000000 		.4byte	.LFE22
ARM GAS  C:\Users\hoangp\AppData\Local\Temp\cc4n80oh.s 			page 115


 4679 0538 42040000 		.4byte	.LLST22
 4680 053c 88050000 		.4byte	0x588
 4681 0540 0C       		.uleb128 0xc
 4682 0541 71050000 		.4byte	.LASF63
 4683 0545 01       		.byte	0x1
 4684 0546 D903     		.2byte	0x3d9
 4685 0548 A6000000 		.4byte	0xa6
 4686 054c 02       		.byte	0x2
 4687 054d 91       		.byte	0x91
 4688 054e 64       		.sleb128 -28
 4689 054f 0D       		.uleb128 0xd
 4690 0550 1C020000 		.4byte	.LASF69
 4691 0554 01       		.byte	0x1
 4692 0555 DC03     		.2byte	0x3dc
 4693 0557 A6000000 		.4byte	0xa6
 4694 055b 02       		.byte	0x2
 4695 055c 91       		.byte	0x91
 4696 055d 68       		.sleb128 -24
 4697 055e 10       		.uleb128 0x10
 4698 055f 4100     		.ascii	"A\000"
 4699 0561 01       		.byte	0x1
 4700 0562 DD03     		.2byte	0x3dd
 4701 0564 A6000000 		.4byte	0xa6
 4702 0568 02       		.byte	0x2
 4703 0569 91       		.byte	0x91
 4704 056a 6C       		.sleb128 -20
 4705 056b 10       		.uleb128 0x10
 4706 056c 4200     		.ascii	"B\000"
 4707 056e 01       		.byte	0x1
 4708 056f DD03     		.2byte	0x3dd
 4709 0571 A6000000 		.4byte	0xa6
 4710 0575 02       		.byte	0x2
 4711 0576 91       		.byte	0x91
 4712 0577 70       		.sleb128 -16
 4713 0578 0D       		.uleb128 0xd
 4714 0579 D7040000 		.4byte	.LASF65
 4715 057d 01       		.byte	0x1
 4716 057e DE03     		.2byte	0x3de
 4717 0580 6F000000 		.4byte	0x6f
 4718 0584 02       		.byte	0x2
 4719 0585 91       		.byte	0x91
 4720 0586 77       		.sleb128 -9
 4721 0587 00       		.byte	0x0
 4722 0588 0A       		.uleb128 0xa
 4723 0589 01       		.byte	0x1
 4724 058a 18030000 		.4byte	.LASF70
 4725 058e 01       		.byte	0x1
 4726 058f 2004     		.2byte	0x420
 4727 0591 01       		.byte	0x1
 4728 0592 00000000 		.4byte	.LFB23
 4729 0596 3E000000 		.4byte	.LFE23
 4730 059a 79040000 		.4byte	.LLST23
 4731 059e 0B       		.uleb128 0xb
 4732 059f 01       		.byte	0x1
 4733 05a0 2F030000 		.4byte	.LASF71
 4734 05a4 01       		.byte	0x1
 4735 05a5 4204     		.2byte	0x442
ARM GAS  C:\Users\hoangp\AppData\Local\Temp\cc4n80oh.s 			page 116


 4736 05a7 01       		.byte	0x1
 4737 05a8 00000000 		.4byte	.LFB24
 4738 05ac D0080000 		.4byte	.LFE24
 4739 05b0 A4040000 		.4byte	.LLST24
 4740 05b4 C8050000 		.4byte	0x5c8
 4741 05b8 0C       		.uleb128 0xc
 4742 05b9 2C050000 		.4byte	.LASF72
 4743 05bd 01       		.byte	0x1
 4744 05be 4204     		.2byte	0x442
 4745 05c0 6F000000 		.4byte	0x6f
 4746 05c4 02       		.byte	0x2
 4747 05c5 91       		.byte	0x91
 4748 05c6 77       		.sleb128 -9
 4749 05c7 00       		.byte	0x0
 4750 05c8 0E       		.uleb128 0xe
 4751 05c9 01       		.byte	0x1
 4752 05ca 9F010000 		.4byte	.LASF73
 4753 05ce 01       		.byte	0x1
 4754 05cf 8A05     		.2byte	0x58a
 4755 05d1 01       		.byte	0x1
 4756 05d2 7A000000 		.4byte	0x7a
 4757 05d6 00000000 		.4byte	.LFB25
 4758 05da 54000000 		.4byte	.LFE25
 4759 05de DB040000 		.4byte	.LLST25
 4760 05e2 23060000 		.4byte	0x623
 4761 05e6 0C       		.uleb128 0xc
 4762 05e7 9B000000 		.4byte	.LASF74
 4763 05eb 01       		.byte	0x1
 4764 05ec 8A05     		.2byte	0x58a
 4765 05ee 85000000 		.4byte	0x85
 4766 05f2 02       		.byte	0x2
 4767 05f3 91       		.byte	0x91
 4768 05f4 6C       		.sleb128 -20
 4769 05f5 0C       		.uleb128 0xc
 4770 05f6 63000000 		.4byte	.LASF75
 4771 05fa 01       		.byte	0x1
 4772 05fb 8A05     		.2byte	0x58a
 4773 05fd 85000000 		.4byte	0x85
 4774 0601 02       		.byte	0x2
 4775 0602 91       		.byte	0x91
 4776 0603 68       		.sleb128 -24
 4777 0604 0D       		.uleb128 0xd
 4778 0605 C5040000 		.4byte	.LASF76
 4779 0609 01       		.byte	0x1
 4780 060a 8D05     		.2byte	0x58d
 4781 060c 7A000000 		.4byte	0x7a
 4782 0610 02       		.byte	0x2
 4783 0611 91       		.byte	0x91
 4784 0612 74       		.sleb128 -12
 4785 0613 0D       		.uleb128 0xd
 4786 0614 CE040000 		.4byte	.LASF77
 4787 0618 01       		.byte	0x1
 4788 0619 8D05     		.2byte	0x58d
 4789 061b 7A000000 		.4byte	0x7a
 4790 061f 02       		.byte	0x2
 4791 0620 91       		.byte	0x91
 4792 0621 76       		.sleb128 -10
ARM GAS  C:\Users\hoangp\AppData\Local\Temp\cc4n80oh.s 			page 117


 4793 0622 00       		.byte	0x0
 4794 0623 0B       		.uleb128 0xb
 4795 0624 01       		.byte	0x1
 4796 0625 3D060000 		.4byte	.LASF78
 4797 0629 01       		.byte	0x1
 4798 062a AB05     		.2byte	0x5ab
 4799 062c 01       		.byte	0x1
 4800 062d 00000000 		.4byte	.LFB26
 4801 0631 FE010000 		.4byte	.LFE26
 4802 0635 12050000 		.4byte	.LLST26
 4803 0639 B6060000 		.4byte	0x6b6
 4804 063d 0C       		.uleb128 0xc
 4805 063e 2C050000 		.4byte	.LASF72
 4806 0642 01       		.byte	0x1
 4807 0643 AB05     		.2byte	0x5ab
 4808 0645 6F000000 		.4byte	0x6f
 4809 0649 02       		.byte	0x2
 4810 064a 91       		.byte	0x91
 4811 064b 67       		.sleb128 -25
 4812 064c 0C       		.uleb128 0xc
 4813 064d 4C050000 		.4byte	.LASF79
 4814 0651 01       		.byte	0x1
 4815 0652 AB05     		.2byte	0x5ab
 4816 0654 6F000000 		.4byte	0x6f
 4817 0658 02       		.byte	0x2
 4818 0659 91       		.byte	0x91
 4819 065a 66       		.sleb128 -26
 4820 065b 0D       		.uleb128 0xd
 4821 065c 28000000 		.4byte	.LASF80
 4822 0660 01       		.byte	0x1
 4823 0661 AE05     		.2byte	0x5ae
 4824 0663 6F000000 		.4byte	0x6f
 4825 0667 02       		.byte	0x2
 4826 0668 91       		.byte	0x91
 4827 0669 6E       		.sleb128 -18
 4828 066a 0D       		.uleb128 0xd
 4829 066b D7040000 		.4byte	.LASF65
 4830 066f 01       		.byte	0x1
 4831 0670 AE05     		.2byte	0x5ae
 4832 0672 6F000000 		.4byte	0x6f
 4833 0676 02       		.byte	0x2
 4834 0677 91       		.byte	0x91
 4835 0678 6F       		.sleb128 -17
 4836 0679 0D       		.uleb128 0xd
 4837 067a 0E030000 		.4byte	.LASF81
 4838 067e 01       		.byte	0x1
 4839 067f AF05     		.2byte	0x5af
 4840 0681 7A000000 		.4byte	0x7a
 4841 0685 02       		.byte	0x2
 4842 0686 91       		.byte	0x91
 4843 0687 70       		.sleb128 -16
 4844 0688 0D       		.uleb128 0xd
 4845 0689 33050000 		.4byte	.LASF82
 4846 068d 01       		.byte	0x1
 4847 068e AF05     		.2byte	0x5af
 4848 0690 7A000000 		.4byte	0x7a
 4849 0694 02       		.byte	0x2
ARM GAS  C:\Users\hoangp\AppData\Local\Temp\cc4n80oh.s 			page 118


 4850 0695 91       		.byte	0x91
 4851 0696 72       		.sleb128 -14
 4852 0697 0D       		.uleb128 0xd
 4853 0698 A2020000 		.4byte	.LASF83
 4854 069c 01       		.byte	0x1
 4855 069d B005     		.2byte	0x5b0
 4856 069f 7A000000 		.4byte	0x7a
 4857 06a3 02       		.byte	0x2
 4858 06a4 91       		.byte	0x91
 4859 06a5 74       		.sleb128 -12
 4860 06a6 0D       		.uleb128 0xd
 4861 06a7 5D050000 		.4byte	.LASF84
 4862 06ab 01       		.byte	0x1
 4863 06ac B105     		.2byte	0x5b1
 4864 06ae 7A000000 		.4byte	0x7a
 4865 06b2 02       		.byte	0x2
 4866 06b3 91       		.byte	0x91
 4867 06b4 76       		.sleb128 -10
 4868 06b5 00       		.byte	0x0
 4869 06b6 0B       		.uleb128 0xb
 4870 06b7 01       		.byte	0x1
 4871 06b8 F0020000 		.4byte	.LASF85
 4872 06bc 01       		.byte	0x1
 4873 06bd 8506     		.2byte	0x685
 4874 06bf 01       		.byte	0x1
 4875 06c0 00000000 		.4byte	.LFB27
 4876 06c4 CA010000 		.4byte	.LFE27
 4877 06c8 49050000 		.4byte	.LLST27
 4878 06cc 49070000 		.4byte	0x749
 4879 06d0 0C       		.uleb128 0xc
 4880 06d1 28000000 		.4byte	.LASF80
 4881 06d5 01       		.byte	0x1
 4882 06d6 8506     		.2byte	0x685
 4883 06d8 6F000000 		.4byte	0x6f
 4884 06dc 02       		.byte	0x2
 4885 06dd 91       		.byte	0x91
 4886 06de 67       		.sleb128 -25
 4887 06df 0C       		.uleb128 0xc
 4888 06e0 13050000 		.4byte	.LASF86
 4889 06e4 01       		.byte	0x1
 4890 06e5 8506     		.2byte	0x685
 4891 06e7 7A000000 		.4byte	0x7a
 4892 06eb 02       		.byte	0x2
 4893 06ec 91       		.byte	0x91
 4894 06ed 64       		.sleb128 -28
 4895 06ee 0C       		.uleb128 0xc
 4896 06ef F0010000 		.4byte	.LASF87
 4897 06f3 01       		.byte	0x1
 4898 06f4 8506     		.2byte	0x685
 4899 06f6 7A000000 		.4byte	0x7a
 4900 06fa 02       		.byte	0x2
 4901 06fb 91       		.byte	0x91
 4902 06fc 62       		.sleb128 -30
 4903 06fd 0C       		.uleb128 0xc
 4904 06fe D7040000 		.4byte	.LASF65
 4905 0702 01       		.byte	0x1
 4906 0703 8606     		.2byte	0x686
ARM GAS  C:\Users\hoangp\AppData\Local\Temp\cc4n80oh.s 			page 119


 4907 0705 6F000000 		.4byte	0x6f
 4908 0709 02       		.byte	0x2
 4909 070a 91       		.byte	0x91
 4910 070b 61       		.sleb128 -31
 4911 070c 0D       		.uleb128 0xd
 4912 070d CD020000 		.4byte	.LASF88
 4913 0711 01       		.byte	0x1
 4914 0712 8806     		.2byte	0x688
 4915 0714 90000000 		.4byte	0x90
 4916 0718 02       		.byte	0x2
 4917 0719 91       		.byte	0x91
 4918 071a 6F       		.sleb128 -17
 4919 071b 0D       		.uleb128 0xd
 4920 071c 90000000 		.4byte	.LASF89
 4921 0720 01       		.byte	0x1
 4922 0721 8906     		.2byte	0x689
 4923 0723 9B000000 		.4byte	0x9b
 4924 0727 02       		.byte	0x2
 4925 0728 91       		.byte	0x91
 4926 0729 70       		.sleb128 -16
 4927 072a 0D       		.uleb128 0xd
 4928 072b C2000000 		.4byte	.LASF90
 4929 072f 01       		.byte	0x1
 4930 0730 8A06     		.2byte	0x68a
 4931 0732 7A000000 		.4byte	0x7a
 4932 0736 02       		.byte	0x2
 4933 0737 91       		.byte	0x91
 4934 0738 72       		.sleb128 -14
 4935 0739 0D       		.uleb128 0xd
 4936 073a 0B050000 		.4byte	.LASF91
 4937 073e 01       		.byte	0x1
 4938 073f 8B06     		.2byte	0x68b
 4939 0741 85000000 		.4byte	0x85
 4940 0745 02       		.byte	0x2
 4941 0746 91       		.byte	0x91
 4942 0747 74       		.sleb128 -12
 4943 0748 00       		.byte	0x0
 4944 0749 0B       		.uleb128 0xb
 4945 074a 01       		.byte	0x1
 4946 074b E2040000 		.4byte	.LASF92
 4947 074f 01       		.byte	0x1
 4948 0750 0107     		.2byte	0x701
 4949 0752 01       		.byte	0x1
 4950 0753 00000000 		.4byte	.LFB28
 4951 0757 92000000 		.4byte	.LFE28
 4952 075b 80050000 		.4byte	.LLST28
 4953 075f 73070000 		.4byte	0x773
 4954 0763 0C       		.uleb128 0xc
 4955 0764 09020000 		.4byte	.LASF93
 4956 0768 01       		.byte	0x1
 4957 0769 0107     		.2byte	0x701
 4958 076b 6F000000 		.4byte	0x6f
 4959 076f 02       		.byte	0x2
 4960 0770 91       		.byte	0x91
 4961 0771 77       		.sleb128 -9
 4962 0772 00       		.byte	0x0
 4963 0773 11       		.uleb128 0x11
ARM GAS  C:\Users\hoangp\AppData\Local\Temp\cc4n80oh.s 			page 120


 4964 0774 16040000 		.4byte	.LASF94
 4965 0778 01       		.byte	0x1
 4966 0779 3B       		.byte	0x3b
 4967 077a 59010000 		.4byte	0x159
 4968 077e 05       		.byte	0x5
 4969 077f 03       		.byte	0x3
 4970 0780 08000000 		.4byte	ADC_DelSig_V_powerModeBackup
 4971 0784 12       		.uleb128 0x12
 4972 0785 E1000000 		.4byte	.LASF95
 4973 0789 01       		.byte	0x1
 4974 078a 1F       		.byte	0x1f
 4975 078b C6000000 		.4byte	0xc6
 4976 078f 01       		.byte	0x1
 4977 0790 05       		.byte	0x5
 4978 0791 03       		.byte	0x3
 4979 0792 00000000 		.4byte	ADC_DelSig_V_convDone
 4980 0796 12       		.uleb128 0x12
 4981 0797 BC030000 		.4byte	.LASF96
 4982 079b 01       		.byte	0x1
 4983 079c 23       		.byte	0x23
 4984 079d C6000000 		.4byte	0xc6
 4985 07a1 01       		.byte	0x1
 4986 07a2 05       		.byte	0x5
 4987 07a3 03       		.byte	0x3
 4988 07a4 00000000 		.4byte	ADC_DelSig_V_stopConversion
 4989 07a8 12       		.uleb128 0x12
 4990 07a9 CC000000 		.4byte	.LASF97
 4991 07ad 01       		.byte	0x1
 4992 07ae 26       		.byte	0x26
 4993 07af 6F000000 		.4byte	0x6f
 4994 07b3 01       		.byte	0x1
 4995 07b4 05       		.byte	0x5
 4996 07b5 03       		.byte	0x3
 4997 07b6 00000000 		.4byte	ADC_DelSig_V_initVar
 4998 07ba 12       		.uleb128 0x12
 4999 07bb 07060000 		.4byte	.LASF98
 5000 07bf 01       		.byte	0x1
 5001 07c0 29       		.byte	0x29
 5002 07c1 C6000000 		.4byte	0xc6
 5003 07c5 01       		.byte	0x1
 5004 07c6 05       		.byte	0x5
 5005 07c7 03       		.byte	0x3
 5006 07c8 00000000 		.4byte	ADC_DelSig_V_started
 5007 07cc 12       		.uleb128 0x12
 5008 07cd C6050000 		.4byte	.LASF99
 5009 07d1 01       		.byte	0x1
 5010 07d2 2C       		.byte	0x2c
 5011 07d3 C6000000 		.4byte	0xc6
 5012 07d7 01       		.byte	0x1
 5013 07d8 05       		.byte	0x5
 5014 07d9 03       		.byte	0x3
 5015 07da 00000000 		.4byte	ADC_DelSig_V_Config
 5016 07de 12       		.uleb128 0x12
 5017 07df 22060000 		.4byte	.LASF100
 5018 07e3 01       		.byte	0x1
 5019 07e4 2E       		.byte	0x2e
 5020 07e5 F0070000 		.4byte	0x7f0
ARM GAS  C:\Users\hoangp\AppData\Local\Temp\cc4n80oh.s 			page 121


 5021 07e9 01       		.byte	0x1
 5022 07ea 05       		.byte	0x5
 5023 07eb 03       		.byte	0x3
 5024 07ec 00000000 		.4byte	ADC_DelSig_V_Offset
 5025 07f0 05       		.uleb128 0x5
 5026 07f1 A6000000 		.4byte	0xa6
 5027 07f5 12       		.uleb128 0x12
 5028 07f6 AA040000 		.4byte	.LASF101
 5029 07fa 01       		.byte	0x1
 5030 07fb 2F       		.byte	0x2f
 5031 07fc F0070000 		.4byte	0x7f0
 5032 0800 01       		.byte	0x1
 5033 0801 05       		.byte	0x5
 5034 0802 03       		.byte	0x3
 5035 0803 00000000 		.4byte	ADC_DelSig_V_CountsPerVolt
 5036 0807 12       		.uleb128 0x12
 5037 0808 CB060000 		.4byte	.LASF102
 5038 080c 01       		.byte	0x1
 5039 080d 35       		.byte	0x35
 5040 080e 6F000000 		.4byte	0x6f
 5041 0812 01       		.byte	0x1
 5042 0813 05       		.byte	0x5
 5043 0814 03       		.byte	0x3
 5044 0815 00000000 		.4byte	ADC_DelSig_V_restoreReg
 5045 0819 00       		.byte	0x0
 5046              		.section	.debug_abbrev
 5047 0000 01       		.uleb128 0x1
 5048 0001 11       		.uleb128 0x11
 5049 0002 01       		.byte	0x1
 5050 0003 25       		.uleb128 0x25
 5051 0004 0E       		.uleb128 0xe
 5052 0005 13       		.uleb128 0x13
 5053 0006 0B       		.uleb128 0xb
 5054 0007 03       		.uleb128 0x3
 5055 0008 0E       		.uleb128 0xe
 5056 0009 1B       		.uleb128 0x1b
 5057 000a 0E       		.uleb128 0xe
 5058 000b 11       		.uleb128 0x11
 5059 000c 01       		.uleb128 0x1
 5060 000d 52       		.uleb128 0x52
 5061 000e 01       		.uleb128 0x1
 5062 000f 55       		.uleb128 0x55
 5063 0010 06       		.uleb128 0x6
 5064 0011 10       		.uleb128 0x10
 5065 0012 06       		.uleb128 0x6
 5066 0013 00       		.byte	0x0
 5067 0014 00       		.byte	0x0
 5068 0015 02       		.uleb128 0x2
 5069 0016 24       		.uleb128 0x24
 5070 0017 00       		.byte	0x0
 5071 0018 0B       		.uleb128 0xb
 5072 0019 0B       		.uleb128 0xb
 5073 001a 3E       		.uleb128 0x3e
 5074 001b 0B       		.uleb128 0xb
 5075 001c 03       		.uleb128 0x3
 5076 001d 0E       		.uleb128 0xe
 5077 001e 00       		.byte	0x0
ARM GAS  C:\Users\hoangp\AppData\Local\Temp\cc4n80oh.s 			page 122


 5078 001f 00       		.byte	0x0
 5079 0020 03       		.uleb128 0x3
 5080 0021 24       		.uleb128 0x24
 5081 0022 00       		.byte	0x0
 5082 0023 0B       		.uleb128 0xb
 5083 0024 0B       		.uleb128 0xb
 5084 0025 3E       		.uleb128 0x3e
 5085 0026 0B       		.uleb128 0xb
 5086 0027 03       		.uleb128 0x3
 5087 0028 08       		.uleb128 0x8
 5088 0029 00       		.byte	0x0
 5089 002a 00       		.byte	0x0
 5090 002b 04       		.uleb128 0x4
 5091 002c 16       		.uleb128 0x16
 5092 002d 00       		.byte	0x0
 5093 002e 03       		.uleb128 0x3
 5094 002f 0E       		.uleb128 0xe
 5095 0030 3A       		.uleb128 0x3a
 5096 0031 0B       		.uleb128 0xb
 5097 0032 3B       		.uleb128 0x3b
 5098 0033 0B       		.uleb128 0xb
 5099 0034 49       		.uleb128 0x49
 5100 0035 13       		.uleb128 0x13
 5101 0036 00       		.byte	0x0
 5102 0037 00       		.byte	0x0
 5103 0038 05       		.uleb128 0x5
 5104 0039 35       		.uleb128 0x35
 5105 003a 00       		.byte	0x0
 5106 003b 49       		.uleb128 0x49
 5107 003c 13       		.uleb128 0x13
 5108 003d 00       		.byte	0x0
 5109 003e 00       		.byte	0x0
 5110 003f 06       		.uleb128 0x6
 5111 0040 24       		.uleb128 0x24
 5112 0041 00       		.byte	0x0
 5113 0042 0B       		.uleb128 0xb
 5114 0043 0B       		.uleb128 0xb
 5115 0044 3E       		.uleb128 0x3e
 5116 0045 0B       		.uleb128 0xb
 5117 0046 00       		.byte	0x0
 5118 0047 00       		.byte	0x0
 5119 0048 07       		.uleb128 0x7
 5120 0049 13       		.uleb128 0x13
 5121 004a 01       		.byte	0x1
 5122 004b 03       		.uleb128 0x3
 5123 004c 0E       		.uleb128 0xe
 5124 004d 0B       		.uleb128 0xb
 5125 004e 0B       		.uleb128 0xb
 5126 004f 3A       		.uleb128 0x3a
 5127 0050 0B       		.uleb128 0xb
 5128 0051 3B       		.uleb128 0x3b
 5129 0052 0B       		.uleb128 0xb
 5130 0053 01       		.uleb128 0x1
 5131 0054 13       		.uleb128 0x13
 5132 0055 00       		.byte	0x0
 5133 0056 00       		.byte	0x0
 5134 0057 08       		.uleb128 0x8
ARM GAS  C:\Users\hoangp\AppData\Local\Temp\cc4n80oh.s 			page 123


 5135 0058 0D       		.uleb128 0xd
 5136 0059 00       		.byte	0x0
 5137 005a 03       		.uleb128 0x3
 5138 005b 0E       		.uleb128 0xe
 5139 005c 3A       		.uleb128 0x3a
 5140 005d 0B       		.uleb128 0xb
 5141 005e 3B       		.uleb128 0x3b
 5142 005f 0B       		.uleb128 0xb
 5143 0060 49       		.uleb128 0x49
 5144 0061 13       		.uleb128 0x13
 5145 0062 38       		.uleb128 0x38
 5146 0063 0A       		.uleb128 0xa
 5147 0064 00       		.byte	0x0
 5148 0065 00       		.byte	0x0
 5149 0066 09       		.uleb128 0x9
 5150 0067 2E       		.uleb128 0x2e
 5151 0068 00       		.byte	0x0
 5152 0069 3F       		.uleb128 0x3f
 5153 006a 0C       		.uleb128 0xc
 5154 006b 03       		.uleb128 0x3
 5155 006c 0E       		.uleb128 0xe
 5156 006d 3A       		.uleb128 0x3a
 5157 006e 0B       		.uleb128 0xb
 5158 006f 3B       		.uleb128 0x3b
 5159 0070 0B       		.uleb128 0xb
 5160 0071 27       		.uleb128 0x27
 5161 0072 0C       		.uleb128 0xc
 5162 0073 11       		.uleb128 0x11
 5163 0074 01       		.uleb128 0x1
 5164 0075 12       		.uleb128 0x12
 5165 0076 01       		.uleb128 0x1
 5166 0077 40       		.uleb128 0x40
 5167 0078 06       		.uleb128 0x6
 5168 0079 00       		.byte	0x0
 5169 007a 00       		.byte	0x0
 5170 007b 0A       		.uleb128 0xa
 5171 007c 2E       		.uleb128 0x2e
 5172 007d 00       		.byte	0x0
 5173 007e 3F       		.uleb128 0x3f
 5174 007f 0C       		.uleb128 0xc
 5175 0080 03       		.uleb128 0x3
 5176 0081 0E       		.uleb128 0xe
 5177 0082 3A       		.uleb128 0x3a
 5178 0083 0B       		.uleb128 0xb
 5179 0084 3B       		.uleb128 0x3b
 5180 0085 05       		.uleb128 0x5
 5181 0086 27       		.uleb128 0x27
 5182 0087 0C       		.uleb128 0xc
 5183 0088 11       		.uleb128 0x11
 5184 0089 01       		.uleb128 0x1
 5185 008a 12       		.uleb128 0x12
 5186 008b 01       		.uleb128 0x1
 5187 008c 40       		.uleb128 0x40
 5188 008d 06       		.uleb128 0x6
 5189 008e 00       		.byte	0x0
 5190 008f 00       		.byte	0x0
 5191 0090 0B       		.uleb128 0xb
ARM GAS  C:\Users\hoangp\AppData\Local\Temp\cc4n80oh.s 			page 124


 5192 0091 2E       		.uleb128 0x2e
 5193 0092 01       		.byte	0x1
 5194 0093 3F       		.uleb128 0x3f
 5195 0094 0C       		.uleb128 0xc
 5196 0095 03       		.uleb128 0x3
 5197 0096 0E       		.uleb128 0xe
 5198 0097 3A       		.uleb128 0x3a
 5199 0098 0B       		.uleb128 0xb
 5200 0099 3B       		.uleb128 0x3b
 5201 009a 05       		.uleb128 0x5
 5202 009b 27       		.uleb128 0x27
 5203 009c 0C       		.uleb128 0xc
 5204 009d 11       		.uleb128 0x11
 5205 009e 01       		.uleb128 0x1
 5206 009f 12       		.uleb128 0x12
 5207 00a0 01       		.uleb128 0x1
 5208 00a1 40       		.uleb128 0x40
 5209 00a2 06       		.uleb128 0x6
 5210 00a3 01       		.uleb128 0x1
 5211 00a4 13       		.uleb128 0x13
 5212 00a5 00       		.byte	0x0
 5213 00a6 00       		.byte	0x0
 5214 00a7 0C       		.uleb128 0xc
 5215 00a8 05       		.uleb128 0x5
 5216 00a9 00       		.byte	0x0
 5217 00aa 03       		.uleb128 0x3
 5218 00ab 0E       		.uleb128 0xe
 5219 00ac 3A       		.uleb128 0x3a
 5220 00ad 0B       		.uleb128 0xb
 5221 00ae 3B       		.uleb128 0x3b
 5222 00af 05       		.uleb128 0x5
 5223 00b0 49       		.uleb128 0x49
 5224 00b1 13       		.uleb128 0x13
 5225 00b2 02       		.uleb128 0x2
 5226 00b3 0A       		.uleb128 0xa
 5227 00b4 00       		.byte	0x0
 5228 00b5 00       		.byte	0x0
 5229 00b6 0D       		.uleb128 0xd
 5230 00b7 34       		.uleb128 0x34
 5231 00b8 00       		.byte	0x0
 5232 00b9 03       		.uleb128 0x3
 5233 00ba 0E       		.uleb128 0xe
 5234 00bb 3A       		.uleb128 0x3a
 5235 00bc 0B       		.uleb128 0xb
 5236 00bd 3B       		.uleb128 0x3b
 5237 00be 05       		.uleb128 0x5
 5238 00bf 49       		.uleb128 0x49
 5239 00c0 13       		.uleb128 0x13
 5240 00c1 02       		.uleb128 0x2
 5241 00c2 0A       		.uleb128 0xa
 5242 00c3 00       		.byte	0x0
 5243 00c4 00       		.byte	0x0
 5244 00c5 0E       		.uleb128 0xe
 5245 00c6 2E       		.uleb128 0x2e
 5246 00c7 01       		.byte	0x1
 5247 00c8 3F       		.uleb128 0x3f
 5248 00c9 0C       		.uleb128 0xc
ARM GAS  C:\Users\hoangp\AppData\Local\Temp\cc4n80oh.s 			page 125


 5249 00ca 03       		.uleb128 0x3
 5250 00cb 0E       		.uleb128 0xe
 5251 00cc 3A       		.uleb128 0x3a
 5252 00cd 0B       		.uleb128 0xb
 5253 00ce 3B       		.uleb128 0x3b
 5254 00cf 05       		.uleb128 0x5
 5255 00d0 27       		.uleb128 0x27
 5256 00d1 0C       		.uleb128 0xc
 5257 00d2 49       		.uleb128 0x49
 5258 00d3 13       		.uleb128 0x13
 5259 00d4 11       		.uleb128 0x11
 5260 00d5 01       		.uleb128 0x1
 5261 00d6 12       		.uleb128 0x12
 5262 00d7 01       		.uleb128 0x1
 5263 00d8 40       		.uleb128 0x40
 5264 00d9 06       		.uleb128 0x6
 5265 00da 01       		.uleb128 0x1
 5266 00db 13       		.uleb128 0x13
 5267 00dc 00       		.byte	0x0
 5268 00dd 00       		.byte	0x0
 5269 00de 0F       		.uleb128 0xf
 5270 00df 2E       		.uleb128 0x2e
 5271 00e0 00       		.byte	0x0
 5272 00e1 3F       		.uleb128 0x3f
 5273 00e2 0C       		.uleb128 0xc
 5274 00e3 03       		.uleb128 0x3
 5275 00e4 0E       		.uleb128 0xe
 5276 00e5 3A       		.uleb128 0x3a
 5277 00e6 0B       		.uleb128 0xb
 5278 00e7 3B       		.uleb128 0x3b
 5279 00e8 05       		.uleb128 0x5
 5280 00e9 27       		.uleb128 0x27
 5281 00ea 0C       		.uleb128 0xc
 5282 00eb 49       		.uleb128 0x49
 5283 00ec 13       		.uleb128 0x13
 5284 00ed 11       		.uleb128 0x11
 5285 00ee 01       		.uleb128 0x1
 5286 00ef 12       		.uleb128 0x12
 5287 00f0 01       		.uleb128 0x1
 5288 00f1 40       		.uleb128 0x40
 5289 00f2 06       		.uleb128 0x6
 5290 00f3 00       		.byte	0x0
 5291 00f4 00       		.byte	0x0
 5292 00f5 10       		.uleb128 0x10
 5293 00f6 34       		.uleb128 0x34
 5294 00f7 00       		.byte	0x0
 5295 00f8 03       		.uleb128 0x3
 5296 00f9 08       		.uleb128 0x8
 5297 00fa 3A       		.uleb128 0x3a
 5298 00fb 0B       		.uleb128 0xb
 5299 00fc 3B       		.uleb128 0x3b
 5300 00fd 05       		.uleb128 0x5
 5301 00fe 49       		.uleb128 0x49
 5302 00ff 13       		.uleb128 0x13
 5303 0100 02       		.uleb128 0x2
 5304 0101 0A       		.uleb128 0xa
 5305 0102 00       		.byte	0x0
ARM GAS  C:\Users\hoangp\AppData\Local\Temp\cc4n80oh.s 			page 126


 5306 0103 00       		.byte	0x0
 5307 0104 11       		.uleb128 0x11
 5308 0105 34       		.uleb128 0x34
 5309 0106 00       		.byte	0x0
 5310 0107 03       		.uleb128 0x3
 5311 0108 0E       		.uleb128 0xe
 5312 0109 3A       		.uleb128 0x3a
 5313 010a 0B       		.uleb128 0xb
 5314 010b 3B       		.uleb128 0x3b
 5315 010c 0B       		.uleb128 0xb
 5316 010d 49       		.uleb128 0x49
 5317 010e 13       		.uleb128 0x13
 5318 010f 02       		.uleb128 0x2
 5319 0110 0A       		.uleb128 0xa
 5320 0111 00       		.byte	0x0
 5321 0112 00       		.byte	0x0
 5322 0113 12       		.uleb128 0x12
 5323 0114 34       		.uleb128 0x34
 5324 0115 00       		.byte	0x0
 5325 0116 03       		.uleb128 0x3
 5326 0117 0E       		.uleb128 0xe
 5327 0118 3A       		.uleb128 0x3a
 5328 0119 0B       		.uleb128 0xb
 5329 011a 3B       		.uleb128 0x3b
 5330 011b 0B       		.uleb128 0xb
 5331 011c 49       		.uleb128 0x49
 5332 011d 13       		.uleb128 0x13
 5333 011e 3F       		.uleb128 0x3f
 5334 011f 0C       		.uleb128 0xc
 5335 0120 02       		.uleb128 0x2
 5336 0121 0A       		.uleb128 0xa
 5337 0122 00       		.byte	0x0
 5338 0123 00       		.byte	0x0
 5339 0124 00       		.byte	0x0
 5340              		.section	.debug_pubnames,"",%progbits
 5341 0000 38040000 		.4byte	0x438
 5342 0004 0200     		.2byte	0x2
 5343 0006 00000000 		.4byte	.Ldebug_info0
 5344 000a 1A080000 		.4byte	0x81a
 5345 000e 64010000 		.4byte	0x164
 5346 0012 4144435F 		.ascii	"ADC_DelSig_V_Init\000"
 5346      44656C53 
 5346      69675F56 
 5346      5F496E69 
 5346      7400
 5347 0024 79010000 		.4byte	0x179
 5348 0028 4144435F 		.ascii	"ADC_DelSig_V_Enable\000"
 5348      44656C53 
 5348      69675F56 
 5348      5F456E61 
 5348      626C6500 
 5349 003c 8E010000 		.4byte	0x18e
 5350 0040 4144435F 		.ascii	"ADC_DelSig_V_RestorePowerRegisters\000"
 5350      44656C53 
 5350      69675F56 
 5350      5F526573 
 5350      746F7265 
ARM GAS  C:\Users\hoangp\AppData\Local\Temp\cc4n80oh.s 			page 127


 5351 0063 A3010000 		.4byte	0x1a3
 5352 0067 4144435F 		.ascii	"ADC_DelSig_V_SavePowerRegisters\000"
 5352      44656C53 
 5352      69675F56 
 5352      5F536176 
 5352      65506F77 
 5353 0087 B8010000 		.4byte	0x1b8
 5354 008b 4144435F 		.ascii	"ADC_DelSig_V_SetLowPower\000"
 5354      44656C53 
 5354      69675F56 
 5354      5F536574 
 5354      4C6F7750 
 5355 00a4 CE010000 		.4byte	0x1ce
 5356 00a8 4144435F 		.ascii	"ADC_DelSig_V_Start\000"
 5356      44656C53 
 5356      69675F56 
 5356      5F537461 
 5356      727400
 5357 00bb E4010000 		.4byte	0x1e4
 5358 00bf 4144435F 		.ascii	"ADC_DelSig_V_Stop\000"
 5358      44656C53 
 5358      69675F56 
 5358      5F53746F 
 5358      7000
 5359 00d1 FA010000 		.4byte	0x1fa
 5360 00d5 4144435F 		.ascii	"ADC_DelSig_V_SetBufferGain\000"
 5360      44656C53 
 5360      69675F56 
 5360      5F536574 
 5360      42756666 
 5361 00f0 33020000 		.4byte	0x233
 5362 00f4 4144435F 		.ascii	"ADC_DelSig_V_SetCoherency\000"
 5362      44656C53 
 5362      69675F56 
 5362      5F536574 
 5362      436F6865 
 5363 010e 6C020000 		.4byte	0x26c
 5364 0112 4144435F 		.ascii	"ADC_DelSig_V_SetGCOR\000"
 5364      44656C53 
 5364      69675F56 
 5364      5F536574 
 5364      47434F52 
 5365 0127 C7020000 		.4byte	0x2c7
 5366 012b 4144435F 		.ascii	"ADC_DelSig_V_ReadGCOR\000"
 5366      44656C53 
 5366      69675F56 
 5366      5F526561 
 5366      6447434F 
 5367 0141 13030000 		.4byte	0x313
 5368 0145 4144435F 		.ascii	"ADC_DelSig_V_SetBufferChop\000"
 5368      44656C53 
 5368      69675F56 
 5368      5F536574 
 5368      42756666 
 5369 0160 4C030000 		.4byte	0x34c
 5370 0164 4144435F 		.ascii	"ADC_DelSig_V_StartConvert\000"
 5370      44656C53 
ARM GAS  C:\Users\hoangp\AppData\Local\Temp\cc4n80oh.s 			page 128


 5370      69675F56 
 5370      5F537461 
 5370      7274436F 
 5371 017e 62030000 		.4byte	0x362
 5372 0182 4144435F 		.ascii	"ADC_DelSig_V_StopConvert\000"
 5372      44656C53 
 5372      69675F56 
 5372      5F53746F 
 5372      70436F6E 
 5373 019b 78030000 		.4byte	0x378
 5374 019f 4144435F 		.ascii	"ADC_DelSig_V_IsEndConversion\000"
 5374      44656C53 
 5374      69675F56 
 5374      5F497345 
 5374      6E64436F 
 5375 01bc B5030000 		.4byte	0x3b5
 5376 01c0 4144435F 		.ascii	"ADC_DelSig_V_GetResult8\000"
 5376      44656C53 
 5376      69675F56 
 5376      5F476574 
 5376      52657375 
 5377 01d8 CF030000 		.4byte	0x3cf
 5378 01dc 4144435F 		.ascii	"ADC_DelSig_V_GetResult16\000"
 5378      44656C53 
 5378      69675F56 
 5378      5F476574 
 5378      52657375 
 5379 01f5 FD030000 		.4byte	0x3fd
 5380 01f9 4144435F 		.ascii	"ADC_DelSig_V_GetResult32\000"
 5380      44656C53 
 5380      69675F56 
 5380      5F476574 
 5380      52657375 
 5381 0212 2B040000 		.4byte	0x42b
 5382 0216 4144435F 		.ascii	"ADC_DelSig_V_SetOffset\000"
 5382      44656C53 
 5382      69675F56 
 5382      5F536574 
 5382      4F666673 
 5383 022d 55040000 		.4byte	0x455
 5384 0231 4144435F 		.ascii	"ADC_DelSig_V_SetGain\000"
 5384      44656C53 
 5384      69675F56 
 5384      5F536574 
 5384      4761696E 
 5385 0246 7F040000 		.4byte	0x47f
 5386 024a 4144435F 		.ascii	"ADC_DelSig_V_CountsTo_mVolts\000"
 5386      44656C53 
 5386      69675F56 
 5386      5F436F75 
 5386      6E747354 
 5387 0267 E5040000 		.4byte	0x4e5
 5388 026b 4144435F 		.ascii	"ADC_DelSig_V_CountsTo_Volts\000"
 5388      44656C53 
 5388      69675F56 
 5388      5F436F75 
 5388      6E747354 
ARM GAS  C:\Users\hoangp\AppData\Local\Temp\cc4n80oh.s 			page 129


 5389 0287 22050000 		.4byte	0x522
 5390 028b 4144435F 		.ascii	"ADC_DelSig_V_CountsTo_uVolts\000"
 5390      44656C53 
 5390      69675F56 
 5390      5F436F75 
 5390      6E747354 
 5391 02a8 88050000 		.4byte	0x588
 5392 02ac 4144435F 		.ascii	"ADC_DelSig_V_IRQ_Start\000"
 5392      44656C53 
 5392      69675F56 
 5392      5F495251 
 5392      5F537461 
 5393 02c3 9E050000 		.4byte	0x59e
 5394 02c7 4144435F 		.ascii	"ADC_DelSig_V_InitConfig\000"
 5394      44656C53 
 5394      69675F56 
 5394      5F496E69 
 5394      74436F6E 
 5395 02df C8050000 		.4byte	0x5c8
 5396 02e3 4144435F 		.ascii	"ADC_DelSig_V_RoundValue\000"
 5396      44656C53 
 5396      69675F56 
 5396      5F526F75 
 5396      6E645661 
 5397 02fb 23060000 		.4byte	0x623
 5398 02ff 4144435F 		.ascii	"ADC_DelSig_V_SelectConfiguration\000"
 5398      44656C53 
 5398      69675F56 
 5398      5F53656C 
 5398      65637443 
 5399 0320 B6060000 		.4byte	0x6b6
 5400 0324 4144435F 		.ascii	"ADC_DelSig_V_GainCompensation\000"
 5400      44656C53 
 5400      69675F56 
 5400      5F476169 
 5400      6E436F6D 
 5401 0342 49070000 		.4byte	0x749
 5402 0346 4144435F 		.ascii	"ADC_DelSig_V_SetDSMRef0Reg\000"
 5402      44656C53 
 5402      69675F56 
 5402      5F536574 
 5402      44534D52 
 5403 0361 84070000 		.4byte	0x784
 5404 0365 4144435F 		.ascii	"ADC_DelSig_V_convDone\000"
 5404      44656C53 
 5404      69675F56 
 5404      5F636F6E 
 5404      76446F6E 
 5405 037b 96070000 		.4byte	0x796
 5406 037f 4144435F 		.ascii	"ADC_DelSig_V_stopConversion\000"
 5406      44656C53 
 5406      69675F56 
 5406      5F73746F 
 5406      70436F6E 
 5407 039b A8070000 		.4byte	0x7a8
 5408 039f 4144435F 		.ascii	"ADC_DelSig_V_initVar\000"
 5408      44656C53 
ARM GAS  C:\Users\hoangp\AppData\Local\Temp\cc4n80oh.s 			page 130


 5408      69675F56 
 5408      5F696E69 
 5408      74566172 
 5409 03b4 BA070000 		.4byte	0x7ba
 5410 03b8 4144435F 		.ascii	"ADC_DelSig_V_started\000"
 5410      44656C53 
 5410      69675F56 
 5410      5F737461 
 5410      72746564 
 5411 03cd CC070000 		.4byte	0x7cc
 5412 03d1 4144435F 		.ascii	"ADC_DelSig_V_Config\000"
 5412      44656C53 
 5412      69675F56 
 5412      5F436F6E 
 5412      66696700 
 5413 03e5 DE070000 		.4byte	0x7de
 5414 03e9 4144435F 		.ascii	"ADC_DelSig_V_Offset\000"
 5414      44656C53 
 5414      69675F56 
 5414      5F4F6666 
 5414      73657400 
 5415 03fd F5070000 		.4byte	0x7f5
 5416 0401 4144435F 		.ascii	"ADC_DelSig_V_CountsPerVolt\000"
 5416      44656C53 
 5416      69675F56 
 5416      5F436F75 
 5416      6E747350 
 5417 041c 07080000 		.4byte	0x807
 5418 0420 4144435F 		.ascii	"ADC_DelSig_V_restoreReg\000"
 5418      44656C53 
 5418      69675F56 
 5418      5F726573 
 5418      746F7265 
 5419 0438 00000000 		.4byte	0x0
 5420              		.section	.debug_aranges,"",%progbits
 5421 0000 FC000000 		.4byte	0xfc
 5422 0004 0200     		.2byte	0x2
 5423 0006 00000000 		.4byte	.Ldebug_info0
 5424 000a 04       		.byte	0x4
 5425 000b 00       		.byte	0x0
 5426 000c 0000     		.2byte	0x0
 5427 000e 0000     		.2byte	0x0
 5428 0010 00000000 		.4byte	.LFB0
 5429 0014 32000000 		.4byte	.LFE0-.LFB0
 5430 0018 00000000 		.4byte	.LFB1
 5431 001c C2010000 		.4byte	.LFE1-.LFB1
 5432 0020 00000000 		.4byte	.LFB2
 5433 0024 AA000000 		.4byte	.LFE2-.LFB2
 5434 0028 00000000 		.4byte	.LFB3
 5435 002c BA000000 		.4byte	.LFE3-.LFB3
 5436 0030 00000000 		.4byte	.LFB4
 5437 0034 36010000 		.4byte	.LFE4-.LFB4
 5438 0038 00000000 		.4byte	.LFB5
 5439 003c 3A000000 		.4byte	.LFE5-.LFB5
 5440 0040 00000000 		.4byte	.LFB6
 5441 0044 B0010000 		.4byte	.LFE6-.LFB6
 5442 0048 00000000 		.4byte	.LFB7
ARM GAS  C:\Users\hoangp\AppData\Local\Temp\cc4n80oh.s 			page 131


 5443 004c 44000000 		.4byte	.LFE7-.LFB7
 5444 0050 00000000 		.4byte	.LFB8
 5445 0054 3C000000 		.4byte	.LFE8-.LFB8
 5446 0058 00000000 		.4byte	.LFB9
 5447 005c E4000000 		.4byte	.LFE9-.LFB9
 5448 0060 00000000 		.4byte	.LFB10
 5449 0064 BA000000 		.4byte	.LFE10-.LFB10
 5450 0068 00000000 		.4byte	.LFB11
 5451 006c 44000000 		.4byte	.LFE11-.LFB11
 5452 0070 00000000 		.4byte	.LFB12
 5453 0074 26000000 		.4byte	.LFE12-.LFB12
 5454 0078 00000000 		.4byte	.LFB13
 5455 007c 32000000 		.4byte	.LFE13-.LFB13
 5456 0080 00000000 		.4byte	.LFB14
 5457 0084 60000000 		.4byte	.LFE14-.LFB14
 5458 0088 00000000 		.4byte	.LFB15
 5459 008c 1A000000 		.4byte	.LFE15-.LFB15
 5460 0090 00000000 		.4byte	.LFB16
 5461 0094 22000000 		.4byte	.LFE16-.LFB16
 5462 0098 00000000 		.4byte	.LFB17
 5463 009c 3A000000 		.4byte	.LFE17-.LFB17
 5464 00a0 00000000 		.4byte	.LFB18
 5465 00a4 1E000000 		.4byte	.LFE18-.LFB18
 5466 00a8 00000000 		.4byte	.LFB19
 5467 00ac 1E000000 		.4byte	.LFE19-.LFB19
 5468 00b0 00000000 		.4byte	.LFB20
 5469 00b4 C4000000 		.4byte	.LFE20-.LFB20
 5470 00b8 00000000 		.4byte	.LFB21
 5471 00bc 54000000 		.4byte	.LFE21-.LFB21
 5472 00c0 00000000 		.4byte	.LFB22
 5473 00c4 F0000000 		.4byte	.LFE22-.LFB22
 5474 00c8 00000000 		.4byte	.LFB23
 5475 00cc 3E000000 		.4byte	.LFE23-.LFB23
 5476 00d0 00000000 		.4byte	.LFB24
 5477 00d4 D0080000 		.4byte	.LFE24-.LFB24
 5478 00d8 00000000 		.4byte	.LFB25
 5479 00dc 54000000 		.4byte	.LFE25-.LFB25
 5480 00e0 00000000 		.4byte	.LFB26
 5481 00e4 FE010000 		.4byte	.LFE26-.LFB26
 5482 00e8 00000000 		.4byte	.LFB27
 5483 00ec CA010000 		.4byte	.LFE27-.LFB27
 5484 00f0 00000000 		.4byte	.LFB28
 5485 00f4 92000000 		.4byte	.LFE28-.LFB28
 5486 00f8 00000000 		.4byte	0x0
 5487 00fc 00000000 		.4byte	0x0
 5488              		.section	.debug_ranges,"",%progbits
 5489              	.Ldebug_ranges0:
 5490 0000 00000000 		.4byte	.Ltext0
 5491 0004 00000000 		.4byte	.Letext0
 5492 0008 00000000 		.4byte	.LFB0
 5493 000c 32000000 		.4byte	.LFE0
 5494 0010 00000000 		.4byte	.LFB1
 5495 0014 C2010000 		.4byte	.LFE1
 5496 0018 00000000 		.4byte	.LFB2
 5497 001c AA000000 		.4byte	.LFE2
 5498 0020 00000000 		.4byte	.LFB3
 5499 0024 BA000000 		.4byte	.LFE3
ARM GAS  C:\Users\hoangp\AppData\Local\Temp\cc4n80oh.s 			page 132


 5500 0028 00000000 		.4byte	.LFB4
 5501 002c 36010000 		.4byte	.LFE4
 5502 0030 00000000 		.4byte	.LFB5
 5503 0034 3A000000 		.4byte	.LFE5
 5504 0038 00000000 		.4byte	.LFB6
 5505 003c B0010000 		.4byte	.LFE6
 5506 0040 00000000 		.4byte	.LFB7
 5507 0044 44000000 		.4byte	.LFE7
 5508 0048 00000000 		.4byte	.LFB8
 5509 004c 3C000000 		.4byte	.LFE8
 5510 0050 00000000 		.4byte	.LFB9
 5511 0054 E4000000 		.4byte	.LFE9
 5512 0058 00000000 		.4byte	.LFB10
 5513 005c BA000000 		.4byte	.LFE10
 5514 0060 00000000 		.4byte	.LFB11
 5515 0064 44000000 		.4byte	.LFE11
 5516 0068 00000000 		.4byte	.LFB12
 5517 006c 26000000 		.4byte	.LFE12
 5518 0070 00000000 		.4byte	.LFB13
 5519 0074 32000000 		.4byte	.LFE13
 5520 0078 00000000 		.4byte	.LFB14
 5521 007c 60000000 		.4byte	.LFE14
 5522 0080 00000000 		.4byte	.LFB15
 5523 0084 1A000000 		.4byte	.LFE15
 5524 0088 00000000 		.4byte	.LFB16
 5525 008c 22000000 		.4byte	.LFE16
 5526 0090 00000000 		.4byte	.LFB17
 5527 0094 3A000000 		.4byte	.LFE17
 5528 0098 00000000 		.4byte	.LFB18
 5529 009c 1E000000 		.4byte	.LFE18
 5530 00a0 00000000 		.4byte	.LFB19
 5531 00a4 1E000000 		.4byte	.LFE19
 5532 00a8 00000000 		.4byte	.LFB20
 5533 00ac C4000000 		.4byte	.LFE20
 5534 00b0 00000000 		.4byte	.LFB21
 5535 00b4 54000000 		.4byte	.LFE21
 5536 00b8 00000000 		.4byte	.LFB22
 5537 00bc F0000000 		.4byte	.LFE22
 5538 00c0 00000000 		.4byte	.LFB23
 5539 00c4 3E000000 		.4byte	.LFE23
 5540 00c8 00000000 		.4byte	.LFB24
 5541 00cc D0080000 		.4byte	.LFE24
 5542 00d0 00000000 		.4byte	.LFB25
 5543 00d4 54000000 		.4byte	.LFE25
 5544 00d8 00000000 		.4byte	.LFB26
 5545 00dc FE010000 		.4byte	.LFE26
 5546 00e0 00000000 		.4byte	.LFB27
 5547 00e4 CA010000 		.4byte	.LFE27
 5548 00e8 00000000 		.4byte	.LFB28
 5549 00ec 92000000 		.4byte	.LFE28
 5550 00f0 00000000 		.4byte	0x0
 5551 00f4 00000000 		.4byte	0x0
 5552              		.section	.debug_str,"MS",%progbits,1
 5553              	.LASF10:
 5554 0000 75696E74 		.ascii	"uint16\000"
 5554      313600
 5555              	.LASF52:
ARM GAS  C:\Users\hoangp\AppData\Local\Temp\cc4n80oh.s 			page 133


 5556 0007 4144435F 		.ascii	"ADC_DelSig_V_StopConvert\000"
 5556      44656C53 
 5556      69675F56 
 5556      5F53746F 
 5556      70436F6E 
 5557              	.LASF61:
 5558 0020 61646347 		.ascii	"adcGain\000"
 5558      61696E00 
 5559              	.LASF80:
 5560 0028 696E7075 		.ascii	"inputRange\000"
 5560      7452616E 
 5560      676500
 5561              	.LASF29:
 5562 0033 4144435F 		.ascii	"ADC_DelSig_V_Enable\000"
 5562      44656C53 
 5562      69675F56 
 5562      5F456E61 
 5562      626C6500 
 5563              	.LASF66:
 5564 0047 4144435F 		.ascii	"ADC_DelSig_V_CountsTo_Volts\000"
 5564      44656C53 
 5564      69675F56 
 5564      5F436F75 
 5564      6E747354 
 5565              	.LASF75:
 5566 0063 636C6F63 		.ascii	"clockFreq\000"
 5566      6B467265 
 5566      7100
 5567              	.LASF7:
 5568 006d 6C6F6E67 		.ascii	"long long unsigned int\000"
 5568      206C6F6E 
 5568      6720756E 
 5568      7369676E 
 5568      65642069 
 5569              	.LASF103:
 5570 0084 474E5520 		.ascii	"GNU C 4.4.1\000"
 5570      4320342E 
 5570      342E3100 
 5571              	.LASF89:
 5572 0090 4E6F726D 		.ascii	"Normalised\000"
 5572      616C6973 
 5572      656400
 5573              	.LASF74:
 5574 009b 62757343 		.ascii	"busClockFreq\000"
 5574      6C6F636B 
 5574      46726571 
 5574      00
 5575              	.LASF6:
 5576 00a8 6C6F6E67 		.ascii	"long long int\000"
 5576      206C6F6E 
 5576      6720696E 
 5576      7400
 5577              	.LASF0:
 5578 00b6 7369676E 		.ascii	"signed char\000"
 5578      65642063 
 5578      68617200 
 5579              	.LASF90:
ARM GAS  C:\Users\hoangp\AppData\Local\Temp\cc4n80oh.s 			page 134


 5580 00c2 47636F72 		.ascii	"GcorValue\000"
 5580      56616C75 
 5580      6500
 5581              	.LASF97:
 5582 00cc 4144435F 		.ascii	"ADC_DelSig_V_initVar\000"
 5582      44656C53 
 5582      69675F56 
 5582      5F696E69 
 5582      74566172 
 5583              	.LASF95:
 5584 00e1 4144435F 		.ascii	"ADC_DelSig_V_convDone\000"
 5584      44656C53 
 5584      69675F56 
 5584      5F636F6E 
 5584      76446F6E 
 5585              	.LASF23:
 5586 00f7 44534D5F 		.ascii	"DSM_BUF0\000"
 5586      42554630 
 5586      00
 5587              	.LASF24:
 5588 0100 44534D5F 		.ascii	"DSM_BUF1\000"
 5588      42554631 
 5588      00
 5589              	.LASF14:
 5590 0109 696E7433 		.ascii	"int32\000"
 5590      3200
 5591              	.LASF4:
 5592 010f 6C6F6E67 		.ascii	"long int\000"
 5592      20696E74 
 5592      00
 5593              	.LASF68:
 5594 0118 4144435F 		.ascii	"ADC_DelSig_V_CountsTo_uVolts\000"
 5594      44656C53 
 5594      69675F56 
 5594      5F436F75 
 5594      6E747354 
 5595              	.LASF18:
 5596 0135 44534D5F 		.ascii	"DSM_CR_14\000"
 5596      43525F31 
 5596      3400
 5597              	.LASF19:
 5598 013f 44534D5F 		.ascii	"DSM_CR_15\000"
 5598      43525F31 
 5598      3500
 5599              	.LASF20:
 5600 0149 44534D5F 		.ascii	"DSM_CR_16\000"
 5600      43525F31 
 5600      3600
 5601              	.LASF21:
 5602 0153 44534D5F 		.ascii	"DSM_CR_17\000"
 5602      43525F31 
 5602      3700
 5603              	.LASF9:
 5604 015d 75696E74 		.ascii	"uint8\000"
 5604      3800
 5605              	.LASF44:
 5606 0163 4144435F 		.ascii	"ADC_DelSig_V_ReadGCOR\000"
ARM GAS  C:\Users\hoangp\AppData\Local\Temp\cc4n80oh.s 			page 135


 5606      44656C53 
 5606      69675F56 
 5606      5F526561 
 5606      6447434F 
 5607              	.LASF16:
 5608 0179 646F7562 		.ascii	"double\000"
 5608      6C6500
 5609              	.LASF55:
 5610 0180 4144435F 		.ascii	"ADC_DelSig_V_GetResult16\000"
 5610      44656C53 
 5610      69675F56 
 5610      5F476574 
 5610      52657375 
 5611              	.LASF67:
 5612 0199 566F6C74 		.ascii	"Volts\000"
 5612      7300
 5613              	.LASF73:
 5614 019f 4144435F 		.ascii	"ADC_DelSig_V_RoundValue\000"
 5614      44656C53 
 5614      69675F56 
 5614      5F526F75 
 5614      6E645661 
 5615              	.LASF34:
 5616 01b7 4144435F 		.ascii	"ADC_DelSig_V_Stop\000"
 5616      44656C53 
 5616      69675F56 
 5616      5F53746F 
 5616      7000
 5617              	.LASF11:
 5618 01c9 75696E74 		.ascii	"uint32\000"
 5618      333200
 5619              	.LASF31:
 5620 01d0 4144435F 		.ascii	"ADC_DelSig_V_SavePowerRegisters\000"
 5620      44656C53 
 5620      69675F56 
 5620      5F536176 
 5620      65506F77 
 5621              	.LASF87:
 5622 01f0 49646561 		.ascii	"IdealOddDecGain\000"
 5622      6C4F6464 
 5622      44656347 
 5622      61696E00 
 5623              	.LASF22:
 5624 0200 44534D5F 		.ascii	"DSM_REF0\000"
 5624      52454630 
 5624      00
 5625              	.LASF93:
 5626 0209 76616C75 		.ascii	"value\000"
 5626      6500
 5627              	.LASF8:
 5628 020f 756E7369 		.ascii	"unsigned int\000"
 5628      676E6564 
 5628      20696E74 
 5628      00
 5629              	.LASF69:
 5630 021c 75566F6C 		.ascii	"uVolts\000"
 5630      747300
ARM GAS  C:\Users\hoangp\AppData\Local\Temp\cc4n80oh.s 			page 136


 5631              	.LASF5:
 5632 0223 6C6F6E67 		.ascii	"long unsigned int\000"
 5632      20756E73 
 5632      69676E65 
 5632      6420696E 
 5632      7400
 5633              	.LASF54:
 5634 0235 774D6F64 		.ascii	"wMode\000"
 5634      6500
 5635              	.LASF47:
 5636 023b 67636F72 		.ascii	"gcorRegValue\000"
 5636      52656756 
 5636      616C7565 
 5636      00
 5637              	.LASF106:
 5638 0248 4144435F 		.ascii	"ADC_DelSig_V_powerModeBackupStruct\000"
 5638      44656C53 
 5638      69675F56 
 5638      5F706F77 
 5638      65724D6F 
 5639              	.LASF3:
 5640 026b 73686F72 		.ascii	"short unsigned int\000"
 5640      7420756E 
 5640      7369676E 
 5640      65642069 
 5640      6E7400
 5641              	.LASF43:
 5642 027e 4144435F 		.ascii	"ADC_DelSig_V_SetGCOR\000"
 5642      44656C53 
 5642      69675F56 
 5642      5F536574 
 5642      47434F52 
 5643              	.LASF12:
 5644 0293 696E7438 		.ascii	"int8\000"
 5644      00
 5645              	.LASF46:
 5646 0298 67636F72 		.ascii	"gcorValue\000"
 5646      56616C75 
 5646      6500
 5647              	.LASF83:
 5648 02a2 6370436C 		.ascii	"cpClockDivider\000"
 5648      6F636B44 
 5648      69766964 
 5648      657200
 5649              	.LASF60:
 5650 02b1 4144435F 		.ascii	"ADC_DelSig_V_SetGain\000"
 5650      44656C53 
 5650      69675F56 
 5650      5F536574 
 5650      4761696E 
 5651              	.LASF64:
 5652 02c6 6D566F6C 		.ascii	"mVolts\000"
 5652      747300
 5653              	.LASF88:
 5654 02cd 666C6173 		.ascii	"flash\000"
 5654      6800
 5655              	.LASF62:
ARM GAS  C:\Users\hoangp\AppData\Local\Temp\cc4n80oh.s 			page 137


 5656 02d3 4144435F 		.ascii	"ADC_DelSig_V_CountsTo_mVolts\000"
 5656      44656C53 
 5656      69675F56 
 5656      5F436F75 
 5656      6E747354 
 5657              	.LASF85:
 5658 02f0 4144435F 		.ascii	"ADC_DelSig_V_GainCompensation\000"
 5658      44656C53 
 5658      69675F56 
 5658      5F476169 
 5658      6E436F6D 
 5659              	.LASF81:
 5660 030e 69646561 		.ascii	"idealGain\000"
 5660      6C476169 
 5660      6E00
 5661              	.LASF70:
 5662 0318 4144435F 		.ascii	"ADC_DelSig_V_IRQ_Start\000"
 5662      44656C53 
 5662      69675F56 
 5662      5F495251 
 5662      5F537461 
 5663              	.LASF71:
 5664 032f 4144435F 		.ascii	"ADC_DelSig_V_InitConfig\000"
 5664      44656C53 
 5664      69675F56 
 5664      5F496E69 
 5664      74436F6E 
 5665              	.LASF107:
 5666 0347 4144435F 		.ascii	"ADC_DelSig_V_GetResult8\000"
 5666      44656C53 
 5666      69675F56 
 5666      5F476574 
 5666      52657375 
 5667              	.LASF53:
 5668 035f 4144435F 		.ascii	"ADC_DelSig_V_IsEndConversion\000"
 5668      44656C53 
 5668      69675F56 
 5668      5F497345 
 5668      6E64436F 
 5669              	.LASF33:
 5670 037c 4144435F 		.ascii	"ADC_DelSig_V_Start\000"
 5670      44656C53 
 5670      69675F56 
 5670      5F537461 
 5670      727400
 5671              	.LASF30:
 5672 038f 4144435F 		.ascii	"ADC_DelSig_V_RestorePowerRegisters\000"
 5672      44656C53 
 5672      69675F56 
 5672      5F526573 
 5672      746F7265 
 5673              	.LASF38:
 5674 03b2 636F6865 		.ascii	"coherency\000"
 5674      72656E63 
 5674      7900
 5675              	.LASF96:
 5676 03bc 4144435F 		.ascii	"ADC_DelSig_V_stopConversion\000"
ARM GAS  C:\Users\hoangp\AppData\Local\Temp\cc4n80oh.s 			page 138


 5676      44656C53 
 5676      69675F56 
 5676      5F73746F 
 5676      70436F6E 
 5677              	.LASF37:
 5678 03d8 6761696E 		.ascii	"gain\000"
 5678      00
 5679              	.LASF15:
 5680 03dd 666C6F61 		.ascii	"float\000"
 5680      7400
 5681              	.LASF32:
 5682 03e3 4144435F 		.ascii	"ADC_DelSig_V_SetLowPower\000"
 5682      44656C53 
 5682      69675F56 
 5682      5F536574 
 5682      4C6F7750 
 5683              	.LASF51:
 5684 03fc 4144435F 		.ascii	"ADC_DelSig_V_StartConvert\000"
 5684      44656C53 
 5684      69675F56 
 5684      5F537461 
 5684      7274436F 
 5685              	.LASF94:
 5686 0416 4144435F 		.ascii	"ADC_DelSig_V_powerModeBackup\000"
 5686      44656C53 
 5686      69675F56 
 5686      5F706F77 
 5686      65724D6F 
 5687              	.LASF104:
 5688 0433 2E5C4765 		.ascii	".\\Generated_Source\\PSoC5\\ADC_DelSig_V.c\000"
 5688      6E657261 
 5688      7465645F 
 5688      536F7572 
 5688      63655C50 
 5689              	.LASF1:
 5690 045b 756E7369 		.ascii	"unsigned char\000"
 5690      676E6564 
 5690      20636861 
 5690      7200
 5691              	.LASF27:
 5692 0469 4144435F 		.ascii	"ADC_DelSig_V_POWERMODE_BACKUP_STRUCT\000"
 5692      44656C53 
 5692      69675F56 
 5692      5F504F57 
 5692      45524D4F 
 5693              	.LASF28:
 5694 048e 4144435F 		.ascii	"ADC_DelSig_V_Init\000"
 5694      44656C53 
 5694      69675F56 
 5694      5F496E69 
 5694      7400
 5695              	.LASF2:
 5696 04a0 73686F72 		.ascii	"short int\000"
 5696      7420696E 
 5696      7400
 5697              	.LASF101:
 5698 04aa 4144435F 		.ascii	"ADC_DelSig_V_CountsPerVolt\000"
ARM GAS  C:\Users\hoangp\AppData\Local\Temp\cc4n80oh.s 			page 139


 5698      44656C53 
 5698      69675F56 
 5698      5F436F75 
 5698      6E747350 
 5699              	.LASF76:
 5700 04c5 64697669 		.ascii	"divider1\000"
 5700      64657231 
 5700      00
 5701              	.LASF77:
 5702 04ce 64697669 		.ascii	"divider2\000"
 5702      64657232 
 5702      00
 5703              	.LASF65:
 5704 04d7 7265736F 		.ascii	"resolution\000"
 5704      6C757469 
 5704      6F6E00
 5705              	.LASF92:
 5706 04e2 4144435F 		.ascii	"ADC_DelSig_V_SetDSMRef0Reg\000"
 5706      44656C53 
 5706      69675F56 
 5706      5F536574 
 5706      44534D52 
 5707              	.LASF26:
 5708 04fd 62797061 		.ascii	"bypassRestore\000"
 5708      73735265 
 5708      73746F72 
 5708      6500
 5709              	.LASF91:
 5710 050b 47636F72 		.ascii	"GcorTmp\000"
 5710      546D7000 
 5711              	.LASF86:
 5712 0513 49646561 		.ascii	"IdealDecGain\000"
 5712      6C446563 
 5712      4761696E 
 5712      00
 5713              	.LASF17:
 5714 0520 63686172 		.ascii	"char\000"
 5714      00
 5715              	.LASF45:
 5716 0525 6756616C 		.ascii	"gValue\000"
 5716      756500
 5717              	.LASF72:
 5718 052c 636F6E66 		.ascii	"config\000"
 5718      696700
 5719              	.LASF82:
 5720 0533 61646343 		.ascii	"adcClockDivider\000"
 5720      6C6F636B 
 5720      44697669 
 5720      64657200 
 5721              	.LASF50:
 5722 0543 63686F70 		.ascii	"chopFreq\000"
 5722      46726571 
 5722      00
 5723              	.LASF79:
 5724 054c 72657374 		.ascii	"restart\000"
 5724      61727400 
 5725              	.LASF42:
ARM GAS  C:\Users\hoangp\AppData\Local\Temp\cc4n80oh.s 			page 140


 5726 0554 746D7056 		.ascii	"tmpValue\000"
 5726      616C7565 
 5726      00
 5727              	.LASF84:
 5728 055d 69646561 		.ascii	"idealOddGain\000"
 5728      6C4F6464 
 5728      4761696E 
 5728      00
 5729              	.LASF59:
 5730 056a 6F666673 		.ascii	"offset\000"
 5730      657400
 5731              	.LASF63:
 5732 0571 61646343 		.ascii	"adcCounts\000"
 5732      6F756E74 
 5732      7300
 5733              	.LASF57:
 5734 057b 4144435F 		.ascii	"ADC_DelSig_V_GetResult32\000"
 5734      44656C53 
 5734      69675F56 
 5734      5F476574 
 5734      52657375 
 5735              	.LASF58:
 5736 0594 4144435F 		.ascii	"ADC_DelSig_V_SetOffset\000"
 5736      44656C53 
 5736      69675F56 
 5736      5F536574 
 5736      4F666673 
 5737              	.LASF48:
 5738 05ab 4144435F 		.ascii	"ADC_DelSig_V_SetBufferChop\000"
 5738      44656C53 
 5738      69675F56 
 5738      5F536574 
 5738      42756666 
 5739              	.LASF99:
 5740 05c6 4144435F 		.ascii	"ADC_DelSig_V_Config\000"
 5740      44656C53 
 5740      69675F56 
 5740      5F436F6E 
 5740      66696700 
 5741              	.LASF41:
 5742 05da 73746174 		.ascii	"status\000"
 5742      757300
 5743              	.LASF35:
 5744 05e1 4144435F 		.ascii	"ADC_DelSig_V_SetBufferGain\000"
 5744      44656C53 
 5744      69675F56 
 5744      5F536574 
 5744      42756666 
 5745              	.LASF40:
 5746 05fc 6761696E 		.ascii	"gainAdjust\000"
 5746      41646A75 
 5746      737400
 5747              	.LASF98:
 5748 0607 4144435F 		.ascii	"ADC_DelSig_V_started\000"
 5748      44656C53 
 5748      69675F56 
 5748      5F737461 
ARM GAS  C:\Users\hoangp\AppData\Local\Temp\cc4n80oh.s 			page 141


 5748      72746564 
 5749              	.LASF13:
 5750 061c 696E7431 		.ascii	"int16\000"
 5750      3600
 5751              	.LASF100:
 5752 0622 4144435F 		.ascii	"ADC_DelSig_V_Offset\000"
 5752      44656C53 
 5752      69675F56 
 5752      5F4F6666 
 5752      73657400 
 5753              	.LASF49:
 5754 0636 63686F70 		.ascii	"chopen\000"
 5754      656E00
 5755              	.LASF78:
 5756 063d 4144435F 		.ascii	"ADC_DelSig_V_SelectConfiguration\000"
 5756      44656C53 
 5756      69675F56 
 5756      5F53656C 
 5756      65637443 
 5757              	.LASF105:
 5758 065e 433A5C55 		.ascii	"C:\\Users\\hoangp\\Documents\\GitHub\\EE542\\firmwa"
 5758      73657273 
 5758      5C686F61 
 5758      6E67705C 
 5758      446F6375 
 5759 068b 72655C69 		.ascii	"re\\invert\\invert.cydsn\000"
 5759      6E766572 
 5759      745C696E 
 5759      76657274 
 5759      2E637964 
 5760              	.LASF39:
 5761 06a2 746D7052 		.ascii	"tmpReg\000"
 5761      656700
 5762              	.LASF25:
 5763 06a9 44534D5F 		.ascii	"DSM_CLK\000"
 5763      434C4B00 
 5764              	.LASF36:
 5765 06b1 4144435F 		.ascii	"ADC_DelSig_V_SetCoherency\000"
 5765      44656C53 
 5765      69675F56 
 5765      5F536574 
 5765      436F6865 
 5766              	.LASF102:
 5767 06cb 4144435F 		.ascii	"ADC_DelSig_V_restoreReg\000"
 5767      44656C53 
 5767      69675F56 
 5767      5F726573 
 5767      746F7265 
 5768              	.LASF56:
 5769 06e3 72657375 		.ascii	"result\000"
 5769      6C7400
 5770              		.ident	"GCC: (Sourcery G++ Lite 2010q1-188) 4.4.1"
