ARM GAS  C:\Users\USER\AppData\Local\Temp\ccfe5FSa.s 			page 1


   1              		.syntax unified
   2              		.cpu cortex-m3
   3              		.fpu softvfp
   4              		.eabi_attribute 20, 1
   5              		.eabi_attribute 21, 1
   6              		.eabi_attribute 23, 3
   7              		.eabi_attribute 24, 1
   8              		.eabi_attribute 25, 1
   9              		.eabi_attribute 26, 1
  10              		.eabi_attribute 30, 6
  11              		.eabi_attribute 18, 4
  12              		.thumb
  13              		.file	"ADC_DelSig_V_theACLK.c"
  20 0000 85010000 		.text
  20      02006C00 
  20      00000201 
  20      FB0E0D00 
  20      01010101 
  21              	.Ltext0:
  22              		.cfi_sections	.debug_frame
  23              		.section	.text.ADC_DelSig_V_theACLK_Start,"ax",%progbits
  24              		.align	2
  25              		.global	ADC_DelSig_V_theACLK_Start
  26              		.thumb
  27              		.thumb_func
  28              		.type	ADC_DelSig_V_theACLK_Start, %function
  29              	ADC_DelSig_V_theACLK_Start:
  30              	.LFB0:
  31              		.file 1 ".\\Generated_Source\\PSoC5\\ADC_DelSig_V_theACLK.c"
   1:.\Generated_Source\PSoC5/ADC_DelSig_V_theACLK.c **** /*******************************************************************************
   2:.\Generated_Source\PSoC5/ADC_DelSig_V_theACLK.c **** * File Name: ADC_DelSig_V_theACLK.c
   3:.\Generated_Source\PSoC5/ADC_DelSig_V_theACLK.c **** * Version 1.70
   4:.\Generated_Source\PSoC5/ADC_DelSig_V_theACLK.c **** *
   5:.\Generated_Source\PSoC5/ADC_DelSig_V_theACLK.c **** *  Description:
   6:.\Generated_Source\PSoC5/ADC_DelSig_V_theACLK.c **** *   This file provides the source code to the API for the clock component.
   7:.\Generated_Source\PSoC5/ADC_DelSig_V_theACLK.c **** *
   8:.\Generated_Source\PSoC5/ADC_DelSig_V_theACLK.c **** *  Note:
   9:.\Generated_Source\PSoC5/ADC_DelSig_V_theACLK.c **** *
  10:.\Generated_Source\PSoC5/ADC_DelSig_V_theACLK.c **** ********************************************************************************
  11:.\Generated_Source\PSoC5/ADC_DelSig_V_theACLK.c **** * Copyright 2008-2010, Cypress Semiconductor Corporation.  All rights reserved.
  12:.\Generated_Source\PSoC5/ADC_DelSig_V_theACLK.c **** * You may use this file only in accordance with the license, terms, conditions, 
  13:.\Generated_Source\PSoC5/ADC_DelSig_V_theACLK.c **** * disclaimers, and limitations in the end user license agreement accompanying 
  14:.\Generated_Source\PSoC5/ADC_DelSig_V_theACLK.c **** * the software package with which this file was provided.
  15:.\Generated_Source\PSoC5/ADC_DelSig_V_theACLK.c **** ********************************************************************************/
  16:.\Generated_Source\PSoC5/ADC_DelSig_V_theACLK.c **** 
  17:.\Generated_Source\PSoC5/ADC_DelSig_V_theACLK.c **** #include <cydevice_trm.h>
  18:.\Generated_Source\PSoC5/ADC_DelSig_V_theACLK.c **** #include "ADC_DelSig_V_theACLK.h"
  19:.\Generated_Source\PSoC5/ADC_DelSig_V_theACLK.c **** 
  20:.\Generated_Source\PSoC5/ADC_DelSig_V_theACLK.c **** /* Clock Distribution registers. */
  21:.\Generated_Source\PSoC5/ADC_DelSig_V_theACLK.c **** #define CLK_DIST_LD              (* (reg8 *) CYREG_CLKDIST_LD)
  22:.\Generated_Source\PSoC5/ADC_DelSig_V_theACLK.c **** #define CLK_DIST_BCFG2           (* (reg8 *) CYREG_CLKDIST_BCFG2)
ARM GAS  C:\Users\USER\AppData\Local\Temp\ccfe5FSa.s 			page 2


  23:.\Generated_Source\PSoC5/ADC_DelSig_V_theACLK.c **** #define BCFG2_MASK               (0x80u)
  24:.\Generated_Source\PSoC5/ADC_DelSig_V_theACLK.c **** #define CLK_DIST_DMASK           (* (reg8 *) CYREG_CLKDIST_DMASK)
  25:.\Generated_Source\PSoC5/ADC_DelSig_V_theACLK.c **** #define CLK_DIST_AMASK           (* (reg8 *) CYREG_CLKDIST_AMASK)
  26:.\Generated_Source\PSoC5/ADC_DelSig_V_theACLK.c **** 
  27:.\Generated_Source\PSoC5/ADC_DelSig_V_theACLK.c **** #define HAS_CLKDIST_LD_DISABLE   (CY_PSOC3 || CY_PSOC5LP)
  28:.\Generated_Source\PSoC5/ADC_DelSig_V_theACLK.c **** 
  29:.\Generated_Source\PSoC5/ADC_DelSig_V_theACLK.c **** 
  30:.\Generated_Source\PSoC5/ADC_DelSig_V_theACLK.c **** /*******************************************************************************
  31:.\Generated_Source\PSoC5/ADC_DelSig_V_theACLK.c **** * Function Name: ADC_DelSig_V_theACLK_Start
  32:.\Generated_Source\PSoC5/ADC_DelSig_V_theACLK.c **** ********************************************************************************
  33:.\Generated_Source\PSoC5/ADC_DelSig_V_theACLK.c **** * Summary:
  34:.\Generated_Source\PSoC5/ADC_DelSig_V_theACLK.c **** *  Starts the clock. Note that on startup, clocks may be already running if the
  35:.\Generated_Source\PSoC5/ADC_DelSig_V_theACLK.c **** *  "Start on Reset" option is enabled in the DWR.
  36:.\Generated_Source\PSoC5/ADC_DelSig_V_theACLK.c **** *
  37:.\Generated_Source\PSoC5/ADC_DelSig_V_theACLK.c **** * Parameters:
  38:.\Generated_Source\PSoC5/ADC_DelSig_V_theACLK.c **** *  void
  39:.\Generated_Source\PSoC5/ADC_DelSig_V_theACLK.c **** *
  40:.\Generated_Source\PSoC5/ADC_DelSig_V_theACLK.c **** * Returns:
  41:.\Generated_Source\PSoC5/ADC_DelSig_V_theACLK.c **** *  void
  42:.\Generated_Source\PSoC5/ADC_DelSig_V_theACLK.c **** *
  43:.\Generated_Source\PSoC5/ADC_DelSig_V_theACLK.c **** *******************************************************************************/
  44:.\Generated_Source\PSoC5/ADC_DelSig_V_theACLK.c **** void ADC_DelSig_V_theACLK_Start(void) 
  45:.\Generated_Source\PSoC5/ADC_DelSig_V_theACLK.c **** {
  32              		.loc 1 45 0
  33              		.cfi_startproc
  34              		@ args = 0, pretend = 0, frame = 0
  35              		@ frame_needed = 1, uses_anonymous_args = 0
  36              		@ link register save eliminated.
  37 0000 80B4     		push	{r7}
  38              	.LCFI0:
  39              		.cfi_def_cfa_offset 4
  40 0002 00AF     		add	r7, sp, #0
  41              		.cfi_offset 7, -4
  42              	.LCFI1:
  43              		.cfi_def_cfa_register 7
  46:.\Generated_Source\PSoC5/ADC_DelSig_V_theACLK.c ****     /* Set the bit to enable the clock. */
  47:.\Generated_Source\PSoC5/ADC_DelSig_V_theACLK.c ****     ADC_DelSig_V_theACLK_CLKEN |= ADC_DelSig_V_theACLK_CLKEN_MASK;
  44              		.loc 1 47 0
  45 0004 44F2A133 		movw	r3, #:lower16:1073759137
  46 0008 C4F20003 		movt	r3, #:upper16:1073759137
  47 000c 44F2A132 		movw	r2, #:lower16:1073759137
  48 0010 C4F20002 		movt	r2, #:upper16:1073759137
  49 0014 1278     		ldrb	r2, [r2, #0]
  50 0016 D2B2     		uxtb	r2, r2
  51 0018 42F00402 		orr	r2, r2, #4
  52 001c D2B2     		uxtb	r2, r2
  53 001e 1A70     		strb	r2, [r3, #0]
  48:.\Generated_Source\PSoC5/ADC_DelSig_V_theACLK.c **** }
  54              		.loc 1 48 0
  55 0020 BD46     		mov	sp, r7
  56 0022 80BC     		pop	{r7}
  57 0024 7047     		bx	lr
  58              		.cfi_endproc
  59              	.LFE0:
  60              		.size	ADC_DelSig_V_theACLK_Start, .-ADC_DelSig_V_theACLK_Start
  61 0026 00BF     		.section	.text.ADC_DelSig_V_theACLK_Stop,"ax",%progbits
  62              		.align	2
ARM GAS  C:\Users\USER\AppData\Local\Temp\ccfe5FSa.s 			page 3


  63              		.global	ADC_DelSig_V_theACLK_Stop
  64              		.thumb
  65              		.thumb_func
  66              		.type	ADC_DelSig_V_theACLK_Stop, %function
  67              	ADC_DelSig_V_theACLK_Stop:
  68              	.LFB1:
  49:.\Generated_Source\PSoC5/ADC_DelSig_V_theACLK.c **** 
  50:.\Generated_Source\PSoC5/ADC_DelSig_V_theACLK.c **** 
  51:.\Generated_Source\PSoC5/ADC_DelSig_V_theACLK.c **** /*******************************************************************************
  52:.\Generated_Source\PSoC5/ADC_DelSig_V_theACLK.c **** * Function Name: ADC_DelSig_V_theACLK_Stop
  53:.\Generated_Source\PSoC5/ADC_DelSig_V_theACLK.c **** ********************************************************************************
  54:.\Generated_Source\PSoC5/ADC_DelSig_V_theACLK.c **** * Summary:
  55:.\Generated_Source\PSoC5/ADC_DelSig_V_theACLK.c **** *  Stops the clock and returns immediately. This API does not require the
  56:.\Generated_Source\PSoC5/ADC_DelSig_V_theACLK.c **** *  source clock to be running but may return before the hardware is actually
  57:.\Generated_Source\PSoC5/ADC_DelSig_V_theACLK.c **** *  disabled. If the settings of the clock are changed after calling this
  58:.\Generated_Source\PSoC5/ADC_DelSig_V_theACLK.c **** *  function, the clock may glitch when it is started. To avoid the clock
  59:.\Generated_Source\PSoC5/ADC_DelSig_V_theACLK.c **** *  glitch, use the StopBlock function.
  60:.\Generated_Source\PSoC5/ADC_DelSig_V_theACLK.c **** *
  61:.\Generated_Source\PSoC5/ADC_DelSig_V_theACLK.c **** * Parameters:
  62:.\Generated_Source\PSoC5/ADC_DelSig_V_theACLK.c **** *  void
  63:.\Generated_Source\PSoC5/ADC_DelSig_V_theACLK.c **** *
  64:.\Generated_Source\PSoC5/ADC_DelSig_V_theACLK.c **** * Returns:
  65:.\Generated_Source\PSoC5/ADC_DelSig_V_theACLK.c **** *  void
  66:.\Generated_Source\PSoC5/ADC_DelSig_V_theACLK.c **** *
  67:.\Generated_Source\PSoC5/ADC_DelSig_V_theACLK.c **** *******************************************************************************/
  68:.\Generated_Source\PSoC5/ADC_DelSig_V_theACLK.c **** void ADC_DelSig_V_theACLK_Stop(void) 
  69:.\Generated_Source\PSoC5/ADC_DelSig_V_theACLK.c **** {
  69              		.loc 1 69 0
  70              		.cfi_startproc
  71              		@ args = 0, pretend = 0, frame = 0
  72              		@ frame_needed = 1, uses_anonymous_args = 0
  73              		@ link register save eliminated.
  74 0000 80B4     		push	{r7}
  75              	.LCFI2:
  76              		.cfi_def_cfa_offset 4
  77 0002 00AF     		add	r7, sp, #0
  78              		.cfi_offset 7, -4
  79              	.LCFI3:
  80              		.cfi_def_cfa_register 7
  70:.\Generated_Source\PSoC5/ADC_DelSig_V_theACLK.c ****     /* Clear the bit to disable the clock. */
  71:.\Generated_Source\PSoC5/ADC_DelSig_V_theACLK.c ****     ADC_DelSig_V_theACLK_CLKEN &= ~ADC_DelSig_V_theACLK_CLKEN_MASK;
  81              		.loc 1 71 0
  82 0004 44F2A133 		movw	r3, #:lower16:1073759137
  83 0008 C4F20003 		movt	r3, #:upper16:1073759137
  84 000c 44F2A132 		movw	r2, #:lower16:1073759137
  85 0010 C4F20002 		movt	r2, #:upper16:1073759137
  86 0014 1278     		ldrb	r2, [r2, #0]
  87 0016 D2B2     		uxtb	r2, r2
  88 0018 02F0FB02 		and	r2, r2, #251
  89 001c 1A70     		strb	r2, [r3, #0]
  72:.\Generated_Source\PSoC5/ADC_DelSig_V_theACLK.c **** }
  90              		.loc 1 72 0
  91 001e BD46     		mov	sp, r7
  92 0020 80BC     		pop	{r7}
  93 0022 7047     		bx	lr
  94              		.cfi_endproc
  95              	.LFE1:
ARM GAS  C:\Users\USER\AppData\Local\Temp\ccfe5FSa.s 			page 4


  96              		.size	ADC_DelSig_V_theACLK_Stop, .-ADC_DelSig_V_theACLK_Stop
  97              		.section	.text.ADC_DelSig_V_theACLK_StandbyPower,"ax",%progbits
  98              		.align	2
  99              		.global	ADC_DelSig_V_theACLK_StandbyPower
 100              		.thumb
 101              		.thumb_func
 102              		.type	ADC_DelSig_V_theACLK_StandbyPower, %function
 103              	ADC_DelSig_V_theACLK_StandbyPower:
 104              	.LFB2:
  73:.\Generated_Source\PSoC5/ADC_DelSig_V_theACLK.c **** 
  74:.\Generated_Source\PSoC5/ADC_DelSig_V_theACLK.c **** 
  75:.\Generated_Source\PSoC5/ADC_DelSig_V_theACLK.c **** #if(CY_PSOC3 || CY_PSOC5LP)
  76:.\Generated_Source\PSoC5/ADC_DelSig_V_theACLK.c **** /*******************************************************************************
  77:.\Generated_Source\PSoC5/ADC_DelSig_V_theACLK.c **** * Function Name: ADC_DelSig_V_theACLK_StopBlock
  78:.\Generated_Source\PSoC5/ADC_DelSig_V_theACLK.c **** ********************************************************************************
  79:.\Generated_Source\PSoC5/ADC_DelSig_V_theACLK.c **** * Summary:
  80:.\Generated_Source\PSoC5/ADC_DelSig_V_theACLK.c **** *  Stops the clock and waits for the hardware to actually be disabled before
  81:.\Generated_Source\PSoC5/ADC_DelSig_V_theACLK.c **** *  returning. This ensures that the clock is never truncated (high part of the
  82:.\Generated_Source\PSoC5/ADC_DelSig_V_theACLK.c **** *  cycle will terminate before the clock is disabled and the API returns).
  83:.\Generated_Source\PSoC5/ADC_DelSig_V_theACLK.c **** *  Note that the source clock must be running or this API will never return as
  84:.\Generated_Source\PSoC5/ADC_DelSig_V_theACLK.c **** *  a stopped clock cannot be disabled.
  85:.\Generated_Source\PSoC5/ADC_DelSig_V_theACLK.c **** *
  86:.\Generated_Source\PSoC5/ADC_DelSig_V_theACLK.c **** * Parameters:
  87:.\Generated_Source\PSoC5/ADC_DelSig_V_theACLK.c **** *  void
  88:.\Generated_Source\PSoC5/ADC_DelSig_V_theACLK.c **** *
  89:.\Generated_Source\PSoC5/ADC_DelSig_V_theACLK.c **** * Returns:
  90:.\Generated_Source\PSoC5/ADC_DelSig_V_theACLK.c **** *  void
  91:.\Generated_Source\PSoC5/ADC_DelSig_V_theACLK.c **** *
  92:.\Generated_Source\PSoC5/ADC_DelSig_V_theACLK.c **** *******************************************************************************/
  93:.\Generated_Source\PSoC5/ADC_DelSig_V_theACLK.c **** void ADC_DelSig_V_theACLK_StopBlock(void) 
  94:.\Generated_Source\PSoC5/ADC_DelSig_V_theACLK.c **** {
  95:.\Generated_Source\PSoC5/ADC_DelSig_V_theACLK.c ****     if (ADC_DelSig_V_theACLK_CLKEN & ADC_DelSig_V_theACLK_CLKEN_MASK)
  96:.\Generated_Source\PSoC5/ADC_DelSig_V_theACLK.c ****     {
  97:.\Generated_Source\PSoC5/ADC_DelSig_V_theACLK.c **** #if HAS_CLKDIST_LD_DISABLE
  98:.\Generated_Source\PSoC5/ADC_DelSig_V_theACLK.c ****         uint16 oldDivider;
  99:.\Generated_Source\PSoC5/ADC_DelSig_V_theACLK.c **** 
 100:.\Generated_Source\PSoC5/ADC_DelSig_V_theACLK.c ****         CLK_DIST_LD = 0;
 101:.\Generated_Source\PSoC5/ADC_DelSig_V_theACLK.c **** 
 102:.\Generated_Source\PSoC5/ADC_DelSig_V_theACLK.c ****         /* Clear all the mask bits except ours. */
 103:.\Generated_Source\PSoC5/ADC_DelSig_V_theACLK.c **** #if defined(ADC_DelSig_V_theACLK__CFG3)
 104:.\Generated_Source\PSoC5/ADC_DelSig_V_theACLK.c ****         CLK_DIST_AMASK = ADC_DelSig_V_theACLK_CLKEN_MASK;
 105:.\Generated_Source\PSoC5/ADC_DelSig_V_theACLK.c ****         CLK_DIST_DMASK = 0x00u;
 106:.\Generated_Source\PSoC5/ADC_DelSig_V_theACLK.c **** #else
 107:.\Generated_Source\PSoC5/ADC_DelSig_V_theACLK.c ****         CLK_DIST_DMASK = ADC_DelSig_V_theACLK_CLKEN_MASK;
 108:.\Generated_Source\PSoC5/ADC_DelSig_V_theACLK.c ****         CLK_DIST_AMASK = 0x00u;
 109:.\Generated_Source\PSoC5/ADC_DelSig_V_theACLK.c **** #endif
 110:.\Generated_Source\PSoC5/ADC_DelSig_V_theACLK.c **** 
 111:.\Generated_Source\PSoC5/ADC_DelSig_V_theACLK.c ****         /* Clear mask of bus clock. */
 112:.\Generated_Source\PSoC5/ADC_DelSig_V_theACLK.c ****         CLK_DIST_BCFG2 &= ~BCFG2_MASK;
 113:.\Generated_Source\PSoC5/ADC_DelSig_V_theACLK.c **** 
 114:.\Generated_Source\PSoC5/ADC_DelSig_V_theACLK.c ****         oldDivider = CY_GET_REG16(ADC_DelSig_V_theACLK_DIV_PTR);
 115:.\Generated_Source\PSoC5/ADC_DelSig_V_theACLK.c ****         CY_SET_REG16(CYREG_CLKDIST_WRK0, oldDivider);
 116:.\Generated_Source\PSoC5/ADC_DelSig_V_theACLK.c ****         CLK_DIST_LD = CYCLK_LD_DISABLE | CYCLK_LD_SYNC_EN | CYCLK_LD_LOAD;
 117:.\Generated_Source\PSoC5/ADC_DelSig_V_theACLK.c **** 
 118:.\Generated_Source\PSoC5/ADC_DelSig_V_theACLK.c ****         /* Wait for clock to be disabled */
 119:.\Generated_Source\PSoC5/ADC_DelSig_V_theACLK.c ****         while (CLK_DIST_LD & CYCLK_LD_LOAD) { }
 120:.\Generated_Source\PSoC5/ADC_DelSig_V_theACLK.c **** #endif
ARM GAS  C:\Users\USER\AppData\Local\Temp\ccfe5FSa.s 			page 5


 121:.\Generated_Source\PSoC5/ADC_DelSig_V_theACLK.c **** 
 122:.\Generated_Source\PSoC5/ADC_DelSig_V_theACLK.c ****         /* Clear the bit to disable the clock. */
 123:.\Generated_Source\PSoC5/ADC_DelSig_V_theACLK.c ****         ADC_DelSig_V_theACLK_CLKEN &= ~ADC_DelSig_V_theACLK_CLKEN_MASK;
 124:.\Generated_Source\PSoC5/ADC_DelSig_V_theACLK.c **** 
 125:.\Generated_Source\PSoC5/ADC_DelSig_V_theACLK.c **** #if HAS_CLKDIST_LD_DISABLE
 126:.\Generated_Source\PSoC5/ADC_DelSig_V_theACLK.c ****         /* Clear the disable bit */
 127:.\Generated_Source\PSoC5/ADC_DelSig_V_theACLK.c ****         CLK_DIST_LD = 0x00u;
 128:.\Generated_Source\PSoC5/ADC_DelSig_V_theACLK.c ****         CY_SET_REG16(ADC_DelSig_V_theACLK_DIV_PTR, oldDivider);
 129:.\Generated_Source\PSoC5/ADC_DelSig_V_theACLK.c **** #endif
 130:.\Generated_Source\PSoC5/ADC_DelSig_V_theACLK.c ****     }
 131:.\Generated_Source\PSoC5/ADC_DelSig_V_theACLK.c **** }
 132:.\Generated_Source\PSoC5/ADC_DelSig_V_theACLK.c **** #endif
 133:.\Generated_Source\PSoC5/ADC_DelSig_V_theACLK.c **** 
 134:.\Generated_Source\PSoC5/ADC_DelSig_V_theACLK.c **** /*******************************************************************************
 135:.\Generated_Source\PSoC5/ADC_DelSig_V_theACLK.c **** * Function Name: ADC_DelSig_V_theACLK_StandbyPower
 136:.\Generated_Source\PSoC5/ADC_DelSig_V_theACLK.c **** ********************************************************************************
 137:.\Generated_Source\PSoC5/ADC_DelSig_V_theACLK.c **** * Summary:
 138:.\Generated_Source\PSoC5/ADC_DelSig_V_theACLK.c **** *  Sets whether the clock is active in standby mode.
 139:.\Generated_Source\PSoC5/ADC_DelSig_V_theACLK.c **** *
 140:.\Generated_Source\PSoC5/ADC_DelSig_V_theACLK.c **** * Parameters:
 141:.\Generated_Source\PSoC5/ADC_DelSig_V_theACLK.c **** *  state:  0 to disable clock during standby, nonzero to enable.
 142:.\Generated_Source\PSoC5/ADC_DelSig_V_theACLK.c **** *
 143:.\Generated_Source\PSoC5/ADC_DelSig_V_theACLK.c **** * Returns:
 144:.\Generated_Source\PSoC5/ADC_DelSig_V_theACLK.c **** *  void
 145:.\Generated_Source\PSoC5/ADC_DelSig_V_theACLK.c **** *
 146:.\Generated_Source\PSoC5/ADC_DelSig_V_theACLK.c **** *******************************************************************************/
 147:.\Generated_Source\PSoC5/ADC_DelSig_V_theACLK.c **** void ADC_DelSig_V_theACLK_StandbyPower(uint8 state) 
 148:.\Generated_Source\PSoC5/ADC_DelSig_V_theACLK.c **** {
 105              		.loc 1 148 0
 106              		.cfi_startproc
 107              		@ args = 0, pretend = 0, frame = 8
 108              		@ frame_needed = 1, uses_anonymous_args = 0
 109              		@ link register save eliminated.
 110 0000 80B4     		push	{r7}
 111              	.LCFI4:
 112              		.cfi_def_cfa_offset 4
 113 0002 83B0     		sub	sp, sp, #12
 114              	.LCFI5:
 115              		.cfi_def_cfa_offset 16
 116 0004 00AF     		add	r7, sp, #0
 117              		.cfi_offset 7, -4
 118              	.LCFI6:
 119              		.cfi_def_cfa_register 7
 120 0006 0346     		mov	r3, r0
 121 0008 FB71     		strb	r3, [r7, #7]
 149:.\Generated_Source\PSoC5/ADC_DelSig_V_theACLK.c ****     if(state == 0)
 122              		.loc 1 149 0
 123 000a FB79     		ldrb	r3, [r7, #7]	@ zero_extendqisi2
 124 000c 002B     		cmp	r3, #0
 125 000e 0DD1     		bne	.L6
 150:.\Generated_Source\PSoC5/ADC_DelSig_V_theACLK.c ****     {
 151:.\Generated_Source\PSoC5/ADC_DelSig_V_theACLK.c ****         ADC_DelSig_V_theACLK_CLKSTBY &= ~ADC_DelSig_V_theACLK_CLKSTBY_MASK;
 126              		.loc 1 151 0
 127 0010 44F2B133 		movw	r3, #:lower16:1073759153
 128 0014 C4F20003 		movt	r3, #:upper16:1073759153
 129 0018 44F2B132 		movw	r2, #:lower16:1073759153
 130 001c C4F20002 		movt	r2, #:upper16:1073759153
ARM GAS  C:\Users\USER\AppData\Local\Temp\ccfe5FSa.s 			page 6


 131 0020 1278     		ldrb	r2, [r2, #0]
 132 0022 D2B2     		uxtb	r2, r2
 133 0024 02F0FB02 		and	r2, r2, #251
 134 0028 1A70     		strb	r2, [r3, #0]
 135 002a 0DE0     		b	.L8
 136              	.L6:
 152:.\Generated_Source\PSoC5/ADC_DelSig_V_theACLK.c ****     }
 153:.\Generated_Source\PSoC5/ADC_DelSig_V_theACLK.c ****     else
 154:.\Generated_Source\PSoC5/ADC_DelSig_V_theACLK.c ****     {
 155:.\Generated_Source\PSoC5/ADC_DelSig_V_theACLK.c ****         ADC_DelSig_V_theACLK_CLKSTBY |= ADC_DelSig_V_theACLK_CLKSTBY_MASK;
 137              		.loc 1 155 0
 138 002c 44F2B133 		movw	r3, #:lower16:1073759153
 139 0030 C4F20003 		movt	r3, #:upper16:1073759153
 140 0034 44F2B132 		movw	r2, #:lower16:1073759153
 141 0038 C4F20002 		movt	r2, #:upper16:1073759153
 142 003c 1278     		ldrb	r2, [r2, #0]
 143 003e D2B2     		uxtb	r2, r2
 144 0040 42F00402 		orr	r2, r2, #4
 145 0044 D2B2     		uxtb	r2, r2
 146 0046 1A70     		strb	r2, [r3, #0]
 147              	.L8:
 156:.\Generated_Source\PSoC5/ADC_DelSig_V_theACLK.c ****     }
 157:.\Generated_Source\PSoC5/ADC_DelSig_V_theACLK.c **** }
 148              		.loc 1 157 0
 149 0048 07F10C07 		add	r7, r7, #12
 150 004c BD46     		mov	sp, r7
 151 004e 80BC     		pop	{r7}
 152 0050 7047     		bx	lr
 153              		.cfi_endproc
 154              	.LFE2:
 155              		.size	ADC_DelSig_V_theACLK_StandbyPower, .-ADC_DelSig_V_theACLK_StandbyPower
 156 0052 00BF     		.section	.text.ADC_DelSig_V_theACLK_SetDividerRegister,"ax",%progbits
 157              		.align	2
 158              		.global	ADC_DelSig_V_theACLK_SetDividerRegister
 159              		.thumb
 160              		.thumb_func
 161              		.type	ADC_DelSig_V_theACLK_SetDividerRegister, %function
 162              	ADC_DelSig_V_theACLK_SetDividerRegister:
 163              	.LFB3:
 158:.\Generated_Source\PSoC5/ADC_DelSig_V_theACLK.c **** 
 159:.\Generated_Source\PSoC5/ADC_DelSig_V_theACLK.c **** 
 160:.\Generated_Source\PSoC5/ADC_DelSig_V_theACLK.c **** /*******************************************************************************
 161:.\Generated_Source\PSoC5/ADC_DelSig_V_theACLK.c **** * Function Name: ADC_DelSig_V_theACLK_SetDividerRegister
 162:.\Generated_Source\PSoC5/ADC_DelSig_V_theACLK.c **** ********************************************************************************
 163:.\Generated_Source\PSoC5/ADC_DelSig_V_theACLK.c **** * Summary:
 164:.\Generated_Source\PSoC5/ADC_DelSig_V_theACLK.c **** *  Modifies the clock divider and, thus, the frequency. When the clock divider
 165:.\Generated_Source\PSoC5/ADC_DelSig_V_theACLK.c **** *  register is set to zero or changed from zero, the clock will be temporarily
 166:.\Generated_Source\PSoC5/ADC_DelSig_V_theACLK.c **** *  disabled in order to change the SSS mode bit. If the clock is enabled when
 167:.\Generated_Source\PSoC5/ADC_DelSig_V_theACLK.c **** *  SetDividerRegister is called, then the source clock must be running.
 168:.\Generated_Source\PSoC5/ADC_DelSig_V_theACLK.c **** *
 169:.\Generated_Source\PSoC5/ADC_DelSig_V_theACLK.c **** * Parameters:
 170:.\Generated_Source\PSoC5/ADC_DelSig_V_theACLK.c **** *  clkDivider:  Divider register value (0-65,535). This value is NOT the
 171:.\Generated_Source\PSoC5/ADC_DelSig_V_theACLK.c **** *    divider; the clock hardware divides by clkDivider plus one. For example,
 172:.\Generated_Source\PSoC5/ADC_DelSig_V_theACLK.c **** *    to divide the clock by 2, this parameter should be set to 1.
 173:.\Generated_Source\PSoC5/ADC_DelSig_V_theACLK.c **** *  restart:  If nonzero, restarts the clock divider: the current clock cycle
 174:.\Generated_Source\PSoC5/ADC_DelSig_V_theACLK.c **** *   will be truncated and the new divide value will take effect immediately. If
 175:.\Generated_Source\PSoC5/ADC_DelSig_V_theACLK.c **** *   zero, the new divide value will take effect at the end of the current clock
ARM GAS  C:\Users\USER\AppData\Local\Temp\ccfe5FSa.s 			page 7


 176:.\Generated_Source\PSoC5/ADC_DelSig_V_theACLK.c **** *   cycle.
 177:.\Generated_Source\PSoC5/ADC_DelSig_V_theACLK.c **** *
 178:.\Generated_Source\PSoC5/ADC_DelSig_V_theACLK.c **** * Returns:
 179:.\Generated_Source\PSoC5/ADC_DelSig_V_theACLK.c **** *  void
 180:.\Generated_Source\PSoC5/ADC_DelSig_V_theACLK.c **** *
 181:.\Generated_Source\PSoC5/ADC_DelSig_V_theACLK.c **** *******************************************************************************/
 182:.\Generated_Source\PSoC5/ADC_DelSig_V_theACLK.c **** void ADC_DelSig_V_theACLK_SetDividerRegister(uint16 clkDivider, uint8 restart) 
 183:.\Generated_Source\PSoC5/ADC_DelSig_V_theACLK.c **** {
 164              		.loc 1 183 0
 165              		.cfi_startproc
 166              		@ args = 0, pretend = 0, frame = 16
 167              		@ frame_needed = 1, uses_anonymous_args = 0
 168 0000 80B5     		push	{r7, lr}
 169              	.LCFI7:
 170              		.cfi_def_cfa_offset 8
 171 0002 84B0     		sub	sp, sp, #16
 172              	.LCFI8:
 173              		.cfi_def_cfa_offset 24
 174 0004 00AF     		add	r7, sp, #0
 175              		.cfi_offset 14, -4
 176              		.cfi_offset 7, -8
 177              	.LCFI9:
 178              		.cfi_def_cfa_register 7
 179 0006 0246     		mov	r2, r0
 180 0008 0B46     		mov	r3, r1
 181 000a FA80     		strh	r2, [r7, #6]	@ movhi
 182 000c 7B71     		strb	r3, [r7, #5]
 184:.\Generated_Source\PSoC5/ADC_DelSig_V_theACLK.c ****     uint8 enabled;
 185:.\Generated_Source\PSoC5/ADC_DelSig_V_theACLK.c **** 
 186:.\Generated_Source\PSoC5/ADC_DelSig_V_theACLK.c ****     uint8 currSrc = ADC_DelSig_V_theACLK_GetSourceRegister();
 183              		.loc 1 186 0
 184 000e FFF7FEFF 		bl	ADC_DelSig_V_theACLK_GetSourceRegister
 185 0012 0346     		mov	r3, r0
 186 0014 7B73     		strb	r3, [r7, #13]
 187:.\Generated_Source\PSoC5/ADC_DelSig_V_theACLK.c ****     uint16 oldDivider = ADC_DelSig_V_theACLK_GetDividerRegister();
 187              		.loc 1 187 0
 188 0016 FFF7FEFF 		bl	ADC_DelSig_V_theACLK_GetDividerRegister
 189 001a 0346     		mov	r3, r0
 190 001c FB81     		strh	r3, [r7, #14]	@ movhi
 188:.\Generated_Source\PSoC5/ADC_DelSig_V_theACLK.c **** 
 189:.\Generated_Source\PSoC5/ADC_DelSig_V_theACLK.c ****     if (clkDivider != oldDivider)
 191              		.loc 1 189 0
 192 001e FA88     		ldrh	r2, [r7, #6]
 193 0020 FB89     		ldrh	r3, [r7, #14]
 194 0022 9A42     		cmp	r2, r3
 195 0024 00F0B280 		beq	.L21
 190:.\Generated_Source\PSoC5/ADC_DelSig_V_theACLK.c ****     {
 191:.\Generated_Source\PSoC5/ADC_DelSig_V_theACLK.c ****         enabled = ADC_DelSig_V_theACLK_CLKEN & ADC_DelSig_V_theACLK_CLKEN_MASK;
 196              		.loc 1 191 0
 197 0028 44F2A133 		movw	r3, #:lower16:1073759137
 198 002c C4F20003 		movt	r3, #:upper16:1073759137
 199 0030 1B78     		ldrb	r3, [r3, #0]
 200 0032 DBB2     		uxtb	r3, r3
 201 0034 03F00403 		and	r3, r3, #4
 202 0038 3B73     		strb	r3, [r7, #12]
 192:.\Generated_Source\PSoC5/ADC_DelSig_V_theACLK.c **** 
 193:.\Generated_Source\PSoC5/ADC_DelSig_V_theACLK.c ****         if (currSrc == CYCLK_SRC_SEL_CLK_SYNC_D && (oldDivider == 0 || clkDivider == 0))
ARM GAS  C:\Users\USER\AppData\Local\Temp\ccfe5FSa.s 			page 8


 203              		.loc 1 193 0
 204 003a 7B7B     		ldrb	r3, [r7, #13]	@ zero_extendqisi2
 205 003c 002B     		cmp	r3, #0
 206 003e 35D1     		bne	.L11
 207 0040 FB89     		ldrh	r3, [r7, #14]
 208 0042 002B     		cmp	r3, #0
 209 0044 02D0     		beq	.L12
 210 0046 FB88     		ldrh	r3, [r7, #6]
 211 0048 002B     		cmp	r3, #0
 212 004a 2FD1     		bne	.L11
 213              	.L12:
 194:.\Generated_Source\PSoC5/ADC_DelSig_V_theACLK.c ****         {
 195:.\Generated_Source\PSoC5/ADC_DelSig_V_theACLK.c ****             /* Moving to/from SSS requires correct ordering to prevent halting the clock    */
 196:.\Generated_Source\PSoC5/ADC_DelSig_V_theACLK.c ****             if (oldDivider == 0 && clkDivider != 0)
 214              		.loc 1 196 0
 215 004c FB89     		ldrh	r3, [r7, #14]
 216 004e 002B     		cmp	r3, #0
 217 0050 17D1     		bne	.L13
 218 0052 FB88     		ldrh	r3, [r7, #6]
 219 0054 002B     		cmp	r3, #0
 220 0056 14D0     		beq	.L13
 197:.\Generated_Source\PSoC5/ADC_DelSig_V_theACLK.c ****             {
 198:.\Generated_Source\PSoC5/ADC_DelSig_V_theACLK.c ****                 /* Moving away from SSS, set the divider first so when SSS is cleared we    */
 199:.\Generated_Source\PSoC5/ADC_DelSig_V_theACLK.c ****                 /* don't halt the clock.  Using the shadow load isn't required as the       */
 200:.\Generated_Source\PSoC5/ADC_DelSig_V_theACLK.c ****                 /* divider is ignored while SSS is set.                                     */
 201:.\Generated_Source\PSoC5/ADC_DelSig_V_theACLK.c ****                 CY_SET_REG16(ADC_DelSig_V_theACLK_DIV_PTR, clkDivider);
 221              		.loc 1 201 0
 222 0058 44F20813 		movw	r3, #:lower16:1073758472
 223 005c C4F20003 		movt	r3, #:upper16:1073758472
 224 0060 FA88     		ldrh	r2, [r7, #6]	@ movhi
 225 0062 1A80     		strh	r2, [r3, #0]	@ movhi
 202:.\Generated_Source\PSoC5/ADC_DelSig_V_theACLK.c ****                 ADC_DelSig_V_theACLK_MOD_SRC &= ~CYCLK_SSS;
 226              		.loc 1 202 0
 227 0064 44F20A13 		movw	r3, #:lower16:1073758474
 228 0068 C4F20003 		movt	r3, #:upper16:1073758474
 229 006c 44F20A12 		movw	r2, #:lower16:1073758474
 230 0070 C4F20002 		movt	r2, #:upper16:1073758474
 231 0074 1278     		ldrb	r2, [r2, #0]
 232 0076 D2B2     		uxtb	r2, r2
 233 0078 02F0BF02 		and	r2, r2, #191
 234 007c 1A70     		strb	r2, [r3, #0]
 235              		.loc 1 196 0
 236 007e 00BF     		nop
 237              		.loc 1 193 0
 238 0080 84E0     		b	.L21
 239              	.L13:
 203:.\Generated_Source\PSoC5/ADC_DelSig_V_theACLK.c ****             }
 204:.\Generated_Source\PSoC5/ADC_DelSig_V_theACLK.c ****             else
 205:.\Generated_Source\PSoC5/ADC_DelSig_V_theACLK.c ****             {
 206:.\Generated_Source\PSoC5/ADC_DelSig_V_theACLK.c ****                 /* Moving to SSS, set SSS which then ignores the divider and we can set     */
 207:.\Generated_Source\PSoC5/ADC_DelSig_V_theACLK.c ****                 /* it without bothering with the shadow load.                               */
 208:.\Generated_Source\PSoC5/ADC_DelSig_V_theACLK.c ****                 ADC_DelSig_V_theACLK_MOD_SRC |= CYCLK_SSS;
 240              		.loc 1 208 0
 241 0082 44F20A13 		movw	r3, #:lower16:1073758474
 242 0086 C4F20003 		movt	r3, #:upper16:1073758474
 243 008a 44F20A12 		movw	r2, #:lower16:1073758474
 244 008e C4F20002 		movt	r2, #:upper16:1073758474
ARM GAS  C:\Users\USER\AppData\Local\Temp\ccfe5FSa.s 			page 9


 245 0092 1278     		ldrb	r2, [r2, #0]
 246 0094 D2B2     		uxtb	r2, r2
 247 0096 42F04002 		orr	r2, r2, #64
 248 009a D2B2     		uxtb	r2, r2
 249 009c 1A70     		strb	r2, [r3, #0]
 209:.\Generated_Source\PSoC5/ADC_DelSig_V_theACLK.c ****                 CY_SET_REG16(ADC_DelSig_V_theACLK_DIV_PTR, clkDivider);
 250              		.loc 1 209 0
 251 009e 44F20813 		movw	r3, #:lower16:1073758472
 252 00a2 C4F20003 		movt	r3, #:upper16:1073758472
 253 00a6 FA88     		ldrh	r2, [r7, #6]	@ movhi
 254 00a8 1A80     		strh	r2, [r3, #0]	@ movhi
 255              		.loc 1 193 0
 256 00aa 6FE0     		b	.L21
 257              	.L11:
 210:.\Generated_Source\PSoC5/ADC_DelSig_V_theACLK.c ****             }
 211:.\Generated_Source\PSoC5/ADC_DelSig_V_theACLK.c ****         }
 212:.\Generated_Source\PSoC5/ADC_DelSig_V_theACLK.c ****         else
 213:.\Generated_Source\PSoC5/ADC_DelSig_V_theACLK.c ****         {
 214:.\Generated_Source\PSoC5/ADC_DelSig_V_theACLK.c ****             if (enabled)
 258              		.loc 1 214 0
 259 00ac 3B7B     		ldrb	r3, [r7, #12]	@ zero_extendqisi2
 260 00ae 002B     		cmp	r3, #0
 261 00b0 2ED0     		beq	.L15
 215:.\Generated_Source\PSoC5/ADC_DelSig_V_theACLK.c ****             {
 216:.\Generated_Source\PSoC5/ADC_DelSig_V_theACLK.c ****                 CLK_DIST_LD = 0x00u;
 262              		.loc 1 216 0
 263 00b2 44F20103 		movw	r3, #:lower16:1073758209
 264 00b6 C4F20003 		movt	r3, #:upper16:1073758209
 265 00ba 4FF00002 		mov	r2, #0
 266 00be 1A70     		strb	r2, [r3, #0]
 217:.\Generated_Source\PSoC5/ADC_DelSig_V_theACLK.c **** 
 218:.\Generated_Source\PSoC5/ADC_DelSig_V_theACLK.c ****                 /* Clear all the mask bits except ours. */
 219:.\Generated_Source\PSoC5/ADC_DelSig_V_theACLK.c **** #if defined(ADC_DelSig_V_theACLK__CFG3)
 220:.\Generated_Source\PSoC5/ADC_DelSig_V_theACLK.c ****                 CLK_DIST_AMASK = ADC_DelSig_V_theACLK_CLKEN_MASK;
 267              		.loc 1 220 0
 268 00c0 44F21403 		movw	r3, #:lower16:1073758228
 269 00c4 C4F20003 		movt	r3, #:upper16:1073758228
 270 00c8 4FF00402 		mov	r2, #4
 271 00cc 1A70     		strb	r2, [r3, #0]
 221:.\Generated_Source\PSoC5/ADC_DelSig_V_theACLK.c ****                 CLK_DIST_DMASK = 0x00u;
 272              		.loc 1 221 0
 273 00ce 44F21003 		movw	r3, #:lower16:1073758224
 274 00d2 C4F20003 		movt	r3, #:upper16:1073758224
 275 00d6 4FF00002 		mov	r2, #0
 276 00da 1A70     		strb	r2, [r3, #0]
 222:.\Generated_Source\PSoC5/ADC_DelSig_V_theACLK.c **** #else
 223:.\Generated_Source\PSoC5/ADC_DelSig_V_theACLK.c ****                 CLK_DIST_DMASK = ADC_DelSig_V_theACLK_CLKEN_MASK;
 224:.\Generated_Source\PSoC5/ADC_DelSig_V_theACLK.c ****                 CLK_DIST_AMASK = 0x00u;
 225:.\Generated_Source\PSoC5/ADC_DelSig_V_theACLK.c **** #endif
 226:.\Generated_Source\PSoC5/ADC_DelSig_V_theACLK.c ****                 /* Clear mask of bus clock. */
 227:.\Generated_Source\PSoC5/ADC_DelSig_V_theACLK.c ****                 CLK_DIST_BCFG2 &= ~BCFG2_MASK;
 277              		.loc 1 227 0
 278 00dc 44F20803 		movw	r3, #:lower16:1073758216
 279 00e0 C4F20003 		movt	r3, #:upper16:1073758216
 280 00e4 44F20802 		movw	r2, #:lower16:1073758216
 281 00e8 C4F20002 		movt	r2, #:upper16:1073758216
 282 00ec 1278     		ldrb	r2, [r2, #0]
ARM GAS  C:\Users\USER\AppData\Local\Temp\ccfe5FSa.s 			page 10


 283 00ee D2B2     		uxtb	r2, r2
 284 00f0 02F07F02 		and	r2, r2, #127
 285 00f4 1A70     		strb	r2, [r3, #0]
 228:.\Generated_Source\PSoC5/ADC_DelSig_V_theACLK.c **** 
 229:.\Generated_Source\PSoC5/ADC_DelSig_V_theACLK.c **** #if HAS_CLKDIST_LD_DISABLE
 230:.\Generated_Source\PSoC5/ADC_DelSig_V_theACLK.c ****                 CY_SET_REG16(CYREG_CLKDIST_WRK0, oldDivider);
 231:.\Generated_Source\PSoC5/ADC_DelSig_V_theACLK.c ****                 CLK_DIST_LD = CYCLK_LD_DISABLE|CYCLK_LD_SYNC_EN|CYCLK_LD_LOAD;
 232:.\Generated_Source\PSoC5/ADC_DelSig_V_theACLK.c **** 
 233:.\Generated_Source\PSoC5/ADC_DelSig_V_theACLK.c ****                 /* Wait for clock to be disabled */
 234:.\Generated_Source\PSoC5/ADC_DelSig_V_theACLK.c ****                 while (CLK_DIST_LD & CYCLK_LD_LOAD) { }
 235:.\Generated_Source\PSoC5/ADC_DelSig_V_theACLK.c **** #endif
 236:.\Generated_Source\PSoC5/ADC_DelSig_V_theACLK.c **** 
 237:.\Generated_Source\PSoC5/ADC_DelSig_V_theACLK.c ****                 ADC_DelSig_V_theACLK_CLKEN &= ~ADC_DelSig_V_theACLK_CLKEN_MASK;
 286              		.loc 1 237 0
 287 00f6 44F2A133 		movw	r3, #:lower16:1073759137
 288 00fa C4F20003 		movt	r3, #:upper16:1073759137
 289 00fe 44F2A132 		movw	r2, #:lower16:1073759137
 290 0102 C4F20002 		movt	r2, #:upper16:1073759137
 291 0106 1278     		ldrb	r2, [r2, #0]
 292 0108 D2B2     		uxtb	r2, r2
 293 010a 02F0FB02 		and	r2, r2, #251
 294 010e 1A70     		strb	r2, [r3, #0]
 295              	.L15:
 238:.\Generated_Source\PSoC5/ADC_DelSig_V_theACLK.c **** 
 239:.\Generated_Source\PSoC5/ADC_DelSig_V_theACLK.c **** #if HAS_CLKDIST_LD_DISABLE
 240:.\Generated_Source\PSoC5/ADC_DelSig_V_theACLK.c ****                 /* Clear the disable bit */
 241:.\Generated_Source\PSoC5/ADC_DelSig_V_theACLK.c ****                 CLK_DIST_LD = 0x00u;
 242:.\Generated_Source\PSoC5/ADC_DelSig_V_theACLK.c **** #endif
 243:.\Generated_Source\PSoC5/ADC_DelSig_V_theACLK.c ****             }
 244:.\Generated_Source\PSoC5/ADC_DelSig_V_theACLK.c **** 
 245:.\Generated_Source\PSoC5/ADC_DelSig_V_theACLK.c ****             /* Load divide value. */
 246:.\Generated_Source\PSoC5/ADC_DelSig_V_theACLK.c ****             if (ADC_DelSig_V_theACLK_CLKEN & ADC_DelSig_V_theACLK_CLKEN_MASK)
 296              		.loc 1 246 0
 297 0110 44F2A133 		movw	r3, #:lower16:1073759137
 298 0114 C4F20003 		movt	r3, #:upper16:1073759137
 299 0118 1B78     		ldrb	r3, [r3, #0]
 300 011a DBB2     		uxtb	r3, r3
 301 011c 03F00403 		and	r3, r3, #4
 302 0120 002B     		cmp	r3, #0
 303 0122 1ED0     		beq	.L16
 247:.\Generated_Source\PSoC5/ADC_DelSig_V_theACLK.c ****             {
 248:.\Generated_Source\PSoC5/ADC_DelSig_V_theACLK.c ****                 /* If the clock is still enabled, use the shadow registers */
 249:.\Generated_Source\PSoC5/ADC_DelSig_V_theACLK.c ****                 CY_SET_REG16(CYREG_CLKDIST_WRK0, clkDivider);
 304              		.loc 1 249 0
 305 0124 44F20203 		movw	r3, #:lower16:1073758210
 306 0128 C4F20003 		movt	r3, #:upper16:1073758210
 307 012c FA88     		ldrh	r2, [r7, #6]	@ movhi
 308 012e 1A80     		strh	r2, [r3, #0]	@ movhi
 250:.\Generated_Source\PSoC5/ADC_DelSig_V_theACLK.c **** 
 251:.\Generated_Source\PSoC5/ADC_DelSig_V_theACLK.c ****                 CLK_DIST_LD = (CYCLK_LD_LOAD | (restart ? CYCLK_LD_SYNC_EN : 0x00u));
 309              		.loc 1 251 0
 310 0130 44F20103 		movw	r3, #:lower16:1073758209
 311 0134 C4F20003 		movt	r3, #:upper16:1073758209
 312 0138 7A79     		ldrb	r2, [r7, #5]	@ zero_extendqisi2
 313 013a 002A     		cmp	r2, #0
 314 013c 02D0     		beq	.L17
 315 013e 4FF00302 		mov	r2, #3
ARM GAS  C:\Users\USER\AppData\Local\Temp\ccfe5FSa.s 			page 11


 316 0142 01E0     		b	.L18
 317              	.L17:
 318 0144 4FF00102 		mov	r2, #1
 319              	.L18:
 320 0148 1A70     		strb	r2, [r3, #0]
 321              	.L19:
 252:.\Generated_Source\PSoC5/ADC_DelSig_V_theACLK.c ****                 while (CLK_DIST_LD & CYCLK_LD_LOAD) { }
 322              		.loc 1 252 0
 323 014a 44F20103 		movw	r3, #:lower16:1073758209
 324 014e C4F20003 		movt	r3, #:upper16:1073758209
 325 0152 1B78     		ldrb	r3, [r3, #0]
 326 0154 DBB2     		uxtb	r3, r3
 327 0156 03F00103 		and	r3, r3, #1
 328 015a DBB2     		uxtb	r3, r3
 329 015c 002B     		cmp	r3, #0
 330 015e F4D1     		bne	.L19
 331 0160 05E0     		b	.L20
 332              	.L16:
 253:.\Generated_Source\PSoC5/ADC_DelSig_V_theACLK.c ****             }
 254:.\Generated_Source\PSoC5/ADC_DelSig_V_theACLK.c ****             else
 255:.\Generated_Source\PSoC5/ADC_DelSig_V_theACLK.c ****             {
 256:.\Generated_Source\PSoC5/ADC_DelSig_V_theACLK.c ****                 /* If the clock is disabled, set the divider directly */
 257:.\Generated_Source\PSoC5/ADC_DelSig_V_theACLK.c ****                 CY_SET_REG16(ADC_DelSig_V_theACLK_DIV_PTR, clkDivider);
 333              		.loc 1 257 0
 334 0162 44F20813 		movw	r3, #:lower16:1073758472
 335 0166 C4F20003 		movt	r3, #:upper16:1073758472
 336 016a FA88     		ldrh	r2, [r7, #6]	@ movhi
 337 016c 1A80     		strh	r2, [r3, #0]	@ movhi
 338              	.L20:
 258:.\Generated_Source\PSoC5/ADC_DelSig_V_theACLK.c ****             }
 259:.\Generated_Source\PSoC5/ADC_DelSig_V_theACLK.c **** 
 260:.\Generated_Source\PSoC5/ADC_DelSig_V_theACLK.c ****             ADC_DelSig_V_theACLK_CLKEN |= enabled;
 339              		.loc 1 260 0
 340 016e 44F2A133 		movw	r3, #:lower16:1073759137
 341 0172 C4F20003 		movt	r3, #:upper16:1073759137
 342 0176 44F2A132 		movw	r2, #:lower16:1073759137
 343 017a C4F20002 		movt	r2, #:upper16:1073759137
 344 017e 1278     		ldrb	r2, [r2, #0]
 345 0180 D1B2     		uxtb	r1, r2
 346 0182 3A7B     		ldrb	r2, [r7, #12]
 347 0184 41EA0202 		orr	r2, r1, r2
 348 0188 D2B2     		uxtb	r2, r2
 349 018a 1A70     		strb	r2, [r3, #0]
 350              	.L21:
 261:.\Generated_Source\PSoC5/ADC_DelSig_V_theACLK.c ****         }
 262:.\Generated_Source\PSoC5/ADC_DelSig_V_theACLK.c ****     }
 263:.\Generated_Source\PSoC5/ADC_DelSig_V_theACLK.c **** }
 351              		.loc 1 263 0
 352 018c 07F11007 		add	r7, r7, #16
 353 0190 BD46     		mov	sp, r7
 354 0192 80BD     		pop	{r7, pc}
 355              		.cfi_endproc
 356              	.LFE3:
 357              		.size	ADC_DelSig_V_theACLK_SetDividerRegister, .-ADC_DelSig_V_theACLK_SetDividerRegister
 358              		.section	.text.ADC_DelSig_V_theACLK_GetDividerRegister,"ax",%progbits
 359              		.align	2
 360              		.global	ADC_DelSig_V_theACLK_GetDividerRegister
ARM GAS  C:\Users\USER\AppData\Local\Temp\ccfe5FSa.s 			page 12


 361              		.thumb
 362              		.thumb_func
 363              		.type	ADC_DelSig_V_theACLK_GetDividerRegister, %function
 364              	ADC_DelSig_V_theACLK_GetDividerRegister:
 365              	.LFB4:
 264:.\Generated_Source\PSoC5/ADC_DelSig_V_theACLK.c **** 
 265:.\Generated_Source\PSoC5/ADC_DelSig_V_theACLK.c **** 
 266:.\Generated_Source\PSoC5/ADC_DelSig_V_theACLK.c **** /*******************************************************************************
 267:.\Generated_Source\PSoC5/ADC_DelSig_V_theACLK.c **** * Function Name: ADC_DelSig_V_theACLK_GetDividerRegister
 268:.\Generated_Source\PSoC5/ADC_DelSig_V_theACLK.c **** ********************************************************************************
 269:.\Generated_Source\PSoC5/ADC_DelSig_V_theACLK.c **** * Summary:
 270:.\Generated_Source\PSoC5/ADC_DelSig_V_theACLK.c **** *  Gets the clock divider register value.
 271:.\Generated_Source\PSoC5/ADC_DelSig_V_theACLK.c **** *
 272:.\Generated_Source\PSoC5/ADC_DelSig_V_theACLK.c **** * Parameters:
 273:.\Generated_Source\PSoC5/ADC_DelSig_V_theACLK.c **** *  void
 274:.\Generated_Source\PSoC5/ADC_DelSig_V_theACLK.c **** *
 275:.\Generated_Source\PSoC5/ADC_DelSig_V_theACLK.c **** * Returns:
 276:.\Generated_Source\PSoC5/ADC_DelSig_V_theACLK.c **** *  Divide value of the clock minus 1. For example, if the clock is set to
 277:.\Generated_Source\PSoC5/ADC_DelSig_V_theACLK.c **** *  divide by 2, the return value will be 1.
 278:.\Generated_Source\PSoC5/ADC_DelSig_V_theACLK.c **** *
 279:.\Generated_Source\PSoC5/ADC_DelSig_V_theACLK.c **** *******************************************************************************/
 280:.\Generated_Source\PSoC5/ADC_DelSig_V_theACLK.c **** uint16 ADC_DelSig_V_theACLK_GetDividerRegister(void) 
 281:.\Generated_Source\PSoC5/ADC_DelSig_V_theACLK.c **** {
 366              		.loc 1 281 0
 367              		.cfi_startproc
 368              		@ args = 0, pretend = 0, frame = 0
 369              		@ frame_needed = 1, uses_anonymous_args = 0
 370              		@ link register save eliminated.
 371 0000 80B4     		push	{r7}
 372              	.LCFI10:
 373              		.cfi_def_cfa_offset 4
 374 0002 00AF     		add	r7, sp, #0
 375              		.cfi_offset 7, -4
 376              	.LCFI11:
 377              		.cfi_def_cfa_register 7
 282:.\Generated_Source\PSoC5/ADC_DelSig_V_theACLK.c ****     return CY_GET_REG16(ADC_DelSig_V_theACLK_DIV_PTR);
 378              		.loc 1 282 0
 379 0004 44F20813 		movw	r3, #:lower16:1073758472
 380 0008 C4F20003 		movt	r3, #:upper16:1073758472
 381 000c 1B88     		ldrh	r3, [r3, #0]	@ movhi
 382 000e 9BB2     		uxth	r3, r3
 283:.\Generated_Source\PSoC5/ADC_DelSig_V_theACLK.c **** }
 383              		.loc 1 283 0
 384 0010 1846     		mov	r0, r3
 385 0012 BD46     		mov	sp, r7
 386 0014 80BC     		pop	{r7}
 387 0016 7047     		bx	lr
 388              		.cfi_endproc
 389              	.LFE4:
 390              		.size	ADC_DelSig_V_theACLK_GetDividerRegister, .-ADC_DelSig_V_theACLK_GetDividerRegister
 391              		.section	.text.ADC_DelSig_V_theACLK_SetModeRegister,"ax",%progbits
 392              		.align	2
 393              		.global	ADC_DelSig_V_theACLK_SetModeRegister
 394              		.thumb
 395              		.thumb_func
 396              		.type	ADC_DelSig_V_theACLK_SetModeRegister, %function
 397              	ADC_DelSig_V_theACLK_SetModeRegister:
ARM GAS  C:\Users\USER\AppData\Local\Temp\ccfe5FSa.s 			page 13


 398              	.LFB5:
 284:.\Generated_Source\PSoC5/ADC_DelSig_V_theACLK.c **** 
 285:.\Generated_Source\PSoC5/ADC_DelSig_V_theACLK.c **** 
 286:.\Generated_Source\PSoC5/ADC_DelSig_V_theACLK.c **** /*******************************************************************************
 287:.\Generated_Source\PSoC5/ADC_DelSig_V_theACLK.c **** * Function Name: ADC_DelSig_V_theACLK_SetModeRegister
 288:.\Generated_Source\PSoC5/ADC_DelSig_V_theACLK.c **** ********************************************************************************
 289:.\Generated_Source\PSoC5/ADC_DelSig_V_theACLK.c **** * Summary:
 290:.\Generated_Source\PSoC5/ADC_DelSig_V_theACLK.c **** *  Sets flags that control the operating mode of the clock. This function only
 291:.\Generated_Source\PSoC5/ADC_DelSig_V_theACLK.c **** *  changes flags from 0 to 1; flags that are already 1 will remain unchanged.
 292:.\Generated_Source\PSoC5/ADC_DelSig_V_theACLK.c **** *  To clear flags, use the ClearModeRegister function. The clock must be
 293:.\Generated_Source\PSoC5/ADC_DelSig_V_theACLK.c **** *  disabled before changing the mode.
 294:.\Generated_Source\PSoC5/ADC_DelSig_V_theACLK.c **** *
 295:.\Generated_Source\PSoC5/ADC_DelSig_V_theACLK.c **** * Parameters:
 296:.\Generated_Source\PSoC5/ADC_DelSig_V_theACLK.c **** *  clkMode: Bit mask containing the bits to set. For PSoC 3 and PSoC 5,
 297:.\Generated_Source\PSoC5/ADC_DelSig_V_theACLK.c **** *   clkMode should be a set of the following optional bits or'ed together.
 298:.\Generated_Source\PSoC5/ADC_DelSig_V_theACLK.c **** *   - CYCLK_EARLY Enable early phase mode. Rising edge of output clock will
 299:.\Generated_Source\PSoC5/ADC_DelSig_V_theACLK.c **** *                 occur when the divider count reaches half of the divide
 300:.\Generated_Source\PSoC5/ADC_DelSig_V_theACLK.c **** *                 value.
 301:.\Generated_Source\PSoC5/ADC_DelSig_V_theACLK.c **** *   - CYCLK_DUTY  Enable 50% duty cycle output. When enabled, the output clock
 302:.\Generated_Source\PSoC5/ADC_DelSig_V_theACLK.c **** *                 is asserted for approximately half of its period. When
 303:.\Generated_Source\PSoC5/ADC_DelSig_V_theACLK.c **** *                 disabled, the output clock is asserted for one period of the
 304:.\Generated_Source\PSoC5/ADC_DelSig_V_theACLK.c **** *                 source clock.
 305:.\Generated_Source\PSoC5/ADC_DelSig_V_theACLK.c **** *   - CYCLK_SYNC  Enable output synchronization to master clock. This should
 306:.\Generated_Source\PSoC5/ADC_DelSig_V_theACLK.c **** *                 be enabled for all synchronous clocks.
 307:.\Generated_Source\PSoC5/ADC_DelSig_V_theACLK.c **** *   See the Technical Reference Manual for details about setting the mode of
 308:.\Generated_Source\PSoC5/ADC_DelSig_V_theACLK.c **** *   the clock. Specifically, see the CLKDIST.DCFG.CFG2 register.
 309:.\Generated_Source\PSoC5/ADC_DelSig_V_theACLK.c **** *
 310:.\Generated_Source\PSoC5/ADC_DelSig_V_theACLK.c **** * Returns:
 311:.\Generated_Source\PSoC5/ADC_DelSig_V_theACLK.c **** *  void
 312:.\Generated_Source\PSoC5/ADC_DelSig_V_theACLK.c **** *
 313:.\Generated_Source\PSoC5/ADC_DelSig_V_theACLK.c **** *******************************************************************************/
 314:.\Generated_Source\PSoC5/ADC_DelSig_V_theACLK.c **** void ADC_DelSig_V_theACLK_SetModeRegister(uint8 clkMode) 
 315:.\Generated_Source\PSoC5/ADC_DelSig_V_theACLK.c **** {
 399              		.loc 1 315 0
 400              		.cfi_startproc
 401              		@ args = 0, pretend = 0, frame = 8
 402              		@ frame_needed = 1, uses_anonymous_args = 0
 403              		@ link register save eliminated.
 404 0000 80B4     		push	{r7}
 405              	.LCFI12:
 406              		.cfi_def_cfa_offset 4
 407 0002 83B0     		sub	sp, sp, #12
 408              	.LCFI13:
 409              		.cfi_def_cfa_offset 16
 410 0004 00AF     		add	r7, sp, #0
 411              		.cfi_offset 7, -4
 412              	.LCFI14:
 413              		.cfi_def_cfa_register 7
 414 0006 0346     		mov	r3, r0
 415 0008 FB71     		strb	r3, [r7, #7]
 316:.\Generated_Source\PSoC5/ADC_DelSig_V_theACLK.c ****     ADC_DelSig_V_theACLK_MOD_SRC |= clkMode & ADC_DelSig_V_theACLK_MODE_MASK;
 416              		.loc 1 316 0
 417 000a 44F20A13 		movw	r3, #:lower16:1073758474
 418 000e C4F20003 		movt	r3, #:upper16:1073758474
 419 0012 44F20A12 		movw	r2, #:lower16:1073758474
 420 0016 C4F20002 		movt	r2, #:upper16:1073758474
 421 001a 1278     		ldrb	r2, [r2, #0]
ARM GAS  C:\Users\USER\AppData\Local\Temp\ccfe5FSa.s 			page 14


 422 001c D1B2     		uxtb	r1, r2
 423 001e FA79     		ldrb	r2, [r7, #7]	@ zero_extendqisi2
 424 0020 02F0F802 		and	r2, r2, #248
 425 0024 41EA0202 		orr	r2, r1, r2
 426 0028 D2B2     		uxtb	r2, r2
 427 002a 1A70     		strb	r2, [r3, #0]
 317:.\Generated_Source\PSoC5/ADC_DelSig_V_theACLK.c **** }
 428              		.loc 1 317 0
 429 002c 07F10C07 		add	r7, r7, #12
 430 0030 BD46     		mov	sp, r7
 431 0032 80BC     		pop	{r7}
 432 0034 7047     		bx	lr
 433              		.cfi_endproc
 434              	.LFE5:
 435              		.size	ADC_DelSig_V_theACLK_SetModeRegister, .-ADC_DelSig_V_theACLK_SetModeRegister
 436 0036 00BF     		.section	.text.ADC_DelSig_V_theACLK_ClearModeRegister,"ax",%progbits
 437              		.align	2
 438              		.global	ADC_DelSig_V_theACLK_ClearModeRegister
 439              		.thumb
 440              		.thumb_func
 441              		.type	ADC_DelSig_V_theACLK_ClearModeRegister, %function
 442              	ADC_DelSig_V_theACLK_ClearModeRegister:
 443              	.LFB6:
 318:.\Generated_Source\PSoC5/ADC_DelSig_V_theACLK.c **** 
 319:.\Generated_Source\PSoC5/ADC_DelSig_V_theACLK.c **** 
 320:.\Generated_Source\PSoC5/ADC_DelSig_V_theACLK.c **** /*******************************************************************************
 321:.\Generated_Source\PSoC5/ADC_DelSig_V_theACLK.c **** * Function Name: ADC_DelSig_V_theACLK_ClearModeRegister
 322:.\Generated_Source\PSoC5/ADC_DelSig_V_theACLK.c **** ********************************************************************************
 323:.\Generated_Source\PSoC5/ADC_DelSig_V_theACLK.c **** * Summary:
 324:.\Generated_Source\PSoC5/ADC_DelSig_V_theACLK.c **** *  Clears flags that control the operating mode of the clock. This function
 325:.\Generated_Source\PSoC5/ADC_DelSig_V_theACLK.c **** *  only changes flags from 1 to 0; flags that are already 0 will remain
 326:.\Generated_Source\PSoC5/ADC_DelSig_V_theACLK.c **** *  unchanged. To set flags, use the SetModeRegister function. The clock must be
 327:.\Generated_Source\PSoC5/ADC_DelSig_V_theACLK.c **** *  disabled before changing the mode.
 328:.\Generated_Source\PSoC5/ADC_DelSig_V_theACLK.c **** *
 329:.\Generated_Source\PSoC5/ADC_DelSig_V_theACLK.c **** * Parameters:
 330:.\Generated_Source\PSoC5/ADC_DelSig_V_theACLK.c **** *  clkMode: Bit mask containing the bits to clear. For PSoC 3 and PSoC 5,
 331:.\Generated_Source\PSoC5/ADC_DelSig_V_theACLK.c **** *   clkMode should be a set of the following optional bits or'ed together.
 332:.\Generated_Source\PSoC5/ADC_DelSig_V_theACLK.c **** *   - CYCLK_EARLY Enable early phase mode. Rising edge of output clock will
 333:.\Generated_Source\PSoC5/ADC_DelSig_V_theACLK.c **** *                 occur when the divider count reaches half of the divide
 334:.\Generated_Source\PSoC5/ADC_DelSig_V_theACLK.c **** *                 value.
 335:.\Generated_Source\PSoC5/ADC_DelSig_V_theACLK.c **** *   - CYCLK_DUTY  Enable 50% duty cycle output. When enabled, the output clock
 336:.\Generated_Source\PSoC5/ADC_DelSig_V_theACLK.c **** *                 is asserted for approximately half of its period. When
 337:.\Generated_Source\PSoC5/ADC_DelSig_V_theACLK.c **** *                 disabled, the output clock is asserted for one period of the
 338:.\Generated_Source\PSoC5/ADC_DelSig_V_theACLK.c **** *                 source clock.
 339:.\Generated_Source\PSoC5/ADC_DelSig_V_theACLK.c **** *   - CYCLK_SYNC  Enable output synchronization to master clock. This should
 340:.\Generated_Source\PSoC5/ADC_DelSig_V_theACLK.c **** *                 be enabled for all synchronous clocks.
 341:.\Generated_Source\PSoC5/ADC_DelSig_V_theACLK.c **** *   See the Technical Reference Manual for details about setting the mode of
 342:.\Generated_Source\PSoC5/ADC_DelSig_V_theACLK.c **** *   the clock. Specifically, see the CLKDIST.DCFG.CFG2 register.
 343:.\Generated_Source\PSoC5/ADC_DelSig_V_theACLK.c **** *
 344:.\Generated_Source\PSoC5/ADC_DelSig_V_theACLK.c **** * Returns:
 345:.\Generated_Source\PSoC5/ADC_DelSig_V_theACLK.c **** *  void
 346:.\Generated_Source\PSoC5/ADC_DelSig_V_theACLK.c **** *
 347:.\Generated_Source\PSoC5/ADC_DelSig_V_theACLK.c **** *******************************************************************************/
 348:.\Generated_Source\PSoC5/ADC_DelSig_V_theACLK.c **** void ADC_DelSig_V_theACLK_ClearModeRegister(uint8 clkMode) 
 349:.\Generated_Source\PSoC5/ADC_DelSig_V_theACLK.c **** {
 444              		.loc 1 349 0
 445              		.cfi_startproc
ARM GAS  C:\Users\USER\AppData\Local\Temp\ccfe5FSa.s 			page 15


 446              		@ args = 0, pretend = 0, frame = 8
 447              		@ frame_needed = 1, uses_anonymous_args = 0
 448              		@ link register save eliminated.
 449 0000 80B4     		push	{r7}
 450              	.LCFI15:
 451              		.cfi_def_cfa_offset 4
 452 0002 83B0     		sub	sp, sp, #12
 453              	.LCFI16:
 454              		.cfi_def_cfa_offset 16
 455 0004 00AF     		add	r7, sp, #0
 456              		.cfi_offset 7, -4
 457              	.LCFI17:
 458              		.cfi_def_cfa_register 7
 459 0006 0346     		mov	r3, r0
 460 0008 FB71     		strb	r3, [r7, #7]
 350:.\Generated_Source\PSoC5/ADC_DelSig_V_theACLK.c ****     ADC_DelSig_V_theACLK_MOD_SRC &= ~clkMode | ~ADC_DelSig_V_theACLK_MODE_MASK;
 461              		.loc 1 350 0
 462 000a 44F20A13 		movw	r3, #:lower16:1073758474
 463 000e C4F20003 		movt	r3, #:upper16:1073758474
 464 0012 44F20A12 		movw	r2, #:lower16:1073758474
 465 0016 C4F20002 		movt	r2, #:upper16:1073758474
 466 001a 1278     		ldrb	r2, [r2, #0]
 467 001c D1B2     		uxtb	r1, r2
 468 001e FA79     		ldrb	r2, [r7, #7]
 469 0020 6FEA0202 		mvn	r2, r2
 470 0024 D2B2     		uxtb	r2, r2
 471 0026 42F00702 		orr	r2, r2, #7
 472 002a D2B2     		uxtb	r2, r2
 473 002c 01EA0202 		and	r2, r1, r2
 474 0030 D2B2     		uxtb	r2, r2
 475 0032 1A70     		strb	r2, [r3, #0]
 351:.\Generated_Source\PSoC5/ADC_DelSig_V_theACLK.c **** }
 476              		.loc 1 351 0
 477 0034 07F10C07 		add	r7, r7, #12
 478 0038 BD46     		mov	sp, r7
 479 003a 80BC     		pop	{r7}
 480 003c 7047     		bx	lr
 481              		.cfi_endproc
 482              	.LFE6:
 483              		.size	ADC_DelSig_V_theACLK_ClearModeRegister, .-ADC_DelSig_V_theACLK_ClearModeRegister
 484 003e 00BF     		.section	.text.ADC_DelSig_V_theACLK_GetModeRegister,"ax",%progbits
 485              		.align	2
 486              		.global	ADC_DelSig_V_theACLK_GetModeRegister
 487              		.thumb
 488              		.thumb_func
 489              		.type	ADC_DelSig_V_theACLK_GetModeRegister, %function
 490              	ADC_DelSig_V_theACLK_GetModeRegister:
 491              	.LFB7:
 352:.\Generated_Source\PSoC5/ADC_DelSig_V_theACLK.c **** 
 353:.\Generated_Source\PSoC5/ADC_DelSig_V_theACLK.c **** 
 354:.\Generated_Source\PSoC5/ADC_DelSig_V_theACLK.c **** /*******************************************************************************
 355:.\Generated_Source\PSoC5/ADC_DelSig_V_theACLK.c **** * Function Name: ADC_DelSig_V_theACLK_GetModeRegister
 356:.\Generated_Source\PSoC5/ADC_DelSig_V_theACLK.c **** ********************************************************************************
 357:.\Generated_Source\PSoC5/ADC_DelSig_V_theACLK.c **** * Summary:
 358:.\Generated_Source\PSoC5/ADC_DelSig_V_theACLK.c **** *  Gets the clock mode register value.
 359:.\Generated_Source\PSoC5/ADC_DelSig_V_theACLK.c **** *
 360:.\Generated_Source\PSoC5/ADC_DelSig_V_theACLK.c **** * Parameters:
ARM GAS  C:\Users\USER\AppData\Local\Temp\ccfe5FSa.s 			page 16


 361:.\Generated_Source\PSoC5/ADC_DelSig_V_theACLK.c **** *  void
 362:.\Generated_Source\PSoC5/ADC_DelSig_V_theACLK.c **** *
 363:.\Generated_Source\PSoC5/ADC_DelSig_V_theACLK.c **** * Returns:
 364:.\Generated_Source\PSoC5/ADC_DelSig_V_theACLK.c **** *  Bit mask representing the enabled mode bits. See the SetModeRegister and
 365:.\Generated_Source\PSoC5/ADC_DelSig_V_theACLK.c **** *  ClearModeRegister descriptions for details about the mode bits.
 366:.\Generated_Source\PSoC5/ADC_DelSig_V_theACLK.c **** *
 367:.\Generated_Source\PSoC5/ADC_DelSig_V_theACLK.c **** *******************************************************************************/
 368:.\Generated_Source\PSoC5/ADC_DelSig_V_theACLK.c **** uint8 ADC_DelSig_V_theACLK_GetModeRegister(void) 
 369:.\Generated_Source\PSoC5/ADC_DelSig_V_theACLK.c **** {
 492              		.loc 1 369 0
 493              		.cfi_startproc
 494              		@ args = 0, pretend = 0, frame = 0
 495              		@ frame_needed = 1, uses_anonymous_args = 0
 496              		@ link register save eliminated.
 497 0000 80B4     		push	{r7}
 498              	.LCFI18:
 499              		.cfi_def_cfa_offset 4
 500 0002 00AF     		add	r7, sp, #0
 501              		.cfi_offset 7, -4
 502              	.LCFI19:
 503              		.cfi_def_cfa_register 7
 370:.\Generated_Source\PSoC5/ADC_DelSig_V_theACLK.c ****     return ADC_DelSig_V_theACLK_MOD_SRC & ADC_DelSig_V_theACLK_MODE_MASK;
 504              		.loc 1 370 0
 505 0004 44F20A13 		movw	r3, #:lower16:1073758474
 506 0008 C4F20003 		movt	r3, #:upper16:1073758474
 507 000c 1B78     		ldrb	r3, [r3, #0]
 508 000e DBB2     		uxtb	r3, r3
 509 0010 03F0F803 		and	r3, r3, #248
 371:.\Generated_Source\PSoC5/ADC_DelSig_V_theACLK.c **** }
 510              		.loc 1 371 0
 511 0014 1846     		mov	r0, r3
 512 0016 BD46     		mov	sp, r7
 513 0018 80BC     		pop	{r7}
 514 001a 7047     		bx	lr
 515              		.cfi_endproc
 516              	.LFE7:
 517              		.size	ADC_DelSig_V_theACLK_GetModeRegister, .-ADC_DelSig_V_theACLK_GetModeRegister
 518              		.section	.text.ADC_DelSig_V_theACLK_SetSourceRegister,"ax",%progbits
 519              		.align	2
 520              		.global	ADC_DelSig_V_theACLK_SetSourceRegister
 521              		.thumb
 522              		.thumb_func
 523              		.type	ADC_DelSig_V_theACLK_SetSourceRegister, %function
 524              	ADC_DelSig_V_theACLK_SetSourceRegister:
 525              	.LFB8:
 372:.\Generated_Source\PSoC5/ADC_DelSig_V_theACLK.c **** 
 373:.\Generated_Source\PSoC5/ADC_DelSig_V_theACLK.c **** 
 374:.\Generated_Source\PSoC5/ADC_DelSig_V_theACLK.c **** /*******************************************************************************
 375:.\Generated_Source\PSoC5/ADC_DelSig_V_theACLK.c **** * Function Name: ADC_DelSig_V_theACLK_SetSourceRegister
 376:.\Generated_Source\PSoC5/ADC_DelSig_V_theACLK.c **** ********************************************************************************
 377:.\Generated_Source\PSoC5/ADC_DelSig_V_theACLK.c **** * Summary:
 378:.\Generated_Source\PSoC5/ADC_DelSig_V_theACLK.c **** *  Sets the input source of the clock. The clock must be disabled before
 379:.\Generated_Source\PSoC5/ADC_DelSig_V_theACLK.c **** *  changing the source. The old and new clock sources must be running.
 380:.\Generated_Source\PSoC5/ADC_DelSig_V_theACLK.c **** *
 381:.\Generated_Source\PSoC5/ADC_DelSig_V_theACLK.c **** * Parameters:
 382:.\Generated_Source\PSoC5/ADC_DelSig_V_theACLK.c **** *  clkSource:  For PSoC 3 and PSoC 5 devices, clkSource should be one of the
 383:.\Generated_Source\PSoC5/ADC_DelSig_V_theACLK.c **** *   following input sources:
ARM GAS  C:\Users\USER\AppData\Local\Temp\ccfe5FSa.s 			page 17


 384:.\Generated_Source\PSoC5/ADC_DelSig_V_theACLK.c **** *   - CYCLK_SRC_SEL_SYNC_DIG
 385:.\Generated_Source\PSoC5/ADC_DelSig_V_theACLK.c **** *   - CYCLK_SRC_SEL_IMO
 386:.\Generated_Source\PSoC5/ADC_DelSig_V_theACLK.c **** *   - CYCLK_SRC_SEL_XTALM
 387:.\Generated_Source\PSoC5/ADC_DelSig_V_theACLK.c **** *   - CYCLK_SRC_SEL_ILO
 388:.\Generated_Source\PSoC5/ADC_DelSig_V_theACLK.c **** *   - CYCLK_SRC_SEL_PLL
 389:.\Generated_Source\PSoC5/ADC_DelSig_V_theACLK.c **** *   - CYCLK_SRC_SEL_XTALK
 390:.\Generated_Source\PSoC5/ADC_DelSig_V_theACLK.c **** *   - CYCLK_SRC_SEL_DSI_G
 391:.\Generated_Source\PSoC5/ADC_DelSig_V_theACLK.c **** *   - CYCLK_SRC_SEL_DSI_D/CYCLK_SRC_SEL_DSI_A
 392:.\Generated_Source\PSoC5/ADC_DelSig_V_theACLK.c **** *   See the Technical Reference Manual for details on clock sources.
 393:.\Generated_Source\PSoC5/ADC_DelSig_V_theACLK.c **** *
 394:.\Generated_Source\PSoC5/ADC_DelSig_V_theACLK.c **** * Returns:
 395:.\Generated_Source\PSoC5/ADC_DelSig_V_theACLK.c **** *  void
 396:.\Generated_Source\PSoC5/ADC_DelSig_V_theACLK.c **** *
 397:.\Generated_Source\PSoC5/ADC_DelSig_V_theACLK.c **** *******************************************************************************/
 398:.\Generated_Source\PSoC5/ADC_DelSig_V_theACLK.c **** void ADC_DelSig_V_theACLK_SetSourceRegister(uint8 clkSource) 
 399:.\Generated_Source\PSoC5/ADC_DelSig_V_theACLK.c **** {
 526              		.loc 1 399 0
 527              		.cfi_startproc
 528              		@ args = 0, pretend = 0, frame = 16
 529              		@ frame_needed = 1, uses_anonymous_args = 0
 530 0000 80B5     		push	{r7, lr}
 531              	.LCFI20:
 532              		.cfi_def_cfa_offset 8
 533 0002 84B0     		sub	sp, sp, #16
 534              	.LCFI21:
 535              		.cfi_def_cfa_offset 24
 536 0004 00AF     		add	r7, sp, #0
 537              		.cfi_offset 14, -4
 538              		.cfi_offset 7, -8
 539              	.LCFI22:
 540              		.cfi_def_cfa_register 7
 541 0006 0346     		mov	r3, r0
 542 0008 FB71     		strb	r3, [r7, #7]
 400:.\Generated_Source\PSoC5/ADC_DelSig_V_theACLK.c ****     uint16 currDiv = ADC_DelSig_V_theACLK_GetDividerRegister();
 543              		.loc 1 400 0
 544 000a FFF7FEFF 		bl	ADC_DelSig_V_theACLK_GetDividerRegister
 545 000e 0346     		mov	r3, r0
 546 0010 BB81     		strh	r3, [r7, #12]	@ movhi
 401:.\Generated_Source\PSoC5/ADC_DelSig_V_theACLK.c ****     uint8 oldSrc = ADC_DelSig_V_theACLK_GetSourceRegister();
 547              		.loc 1 401 0
 548 0012 FFF7FEFF 		bl	ADC_DelSig_V_theACLK_GetSourceRegister
 549 0016 0346     		mov	r3, r0
 550 0018 FB73     		strb	r3, [r7, #15]
 402:.\Generated_Source\PSoC5/ADC_DelSig_V_theACLK.c **** 
 403:.\Generated_Source\PSoC5/ADC_DelSig_V_theACLK.c ****     if (oldSrc != CYCLK_SRC_SEL_CLK_SYNC_D && clkSource == CYCLK_SRC_SEL_CLK_SYNC_D && currDiv == 0
 551              		.loc 1 403 0
 552 001a FB7B     		ldrb	r3, [r7, #15]	@ zero_extendqisi2
 553 001c 002B     		cmp	r3, #0
 554 001e 25D0     		beq	.L31
 555 0020 FB79     		ldrb	r3, [r7, #7]	@ zero_extendqisi2
 556 0022 002B     		cmp	r3, #0
 557 0024 22D1     		bne	.L31
 558 0026 BB89     		ldrh	r3, [r7, #12]
 559 0028 002B     		cmp	r3, #0
 560 002a 1FD1     		bne	.L31
 404:.\Generated_Source\PSoC5/ADC_DelSig_V_theACLK.c ****     {
 405:.\Generated_Source\PSoC5/ADC_DelSig_V_theACLK.c ****         /* Switching to Master and divider is 1, set SSS, which will output master, */
ARM GAS  C:\Users\USER\AppData\Local\Temp\ccfe5FSa.s 			page 18


 406:.\Generated_Source\PSoC5/ADC_DelSig_V_theACLK.c ****         /* then set the source so we are consistent.                                */
 407:.\Generated_Source\PSoC5/ADC_DelSig_V_theACLK.c ****         ADC_DelSig_V_theACLK_MOD_SRC |= CYCLK_SSS;
 561              		.loc 1 407 0
 562 002c 44F20A13 		movw	r3, #:lower16:1073758474
 563 0030 C4F20003 		movt	r3, #:upper16:1073758474
 564 0034 44F20A12 		movw	r2, #:lower16:1073758474
 565 0038 C4F20002 		movt	r2, #:upper16:1073758474
 566 003c 1278     		ldrb	r2, [r2, #0]
 567 003e D2B2     		uxtb	r2, r2
 568 0040 42F04002 		orr	r2, r2, #64
 569 0044 D2B2     		uxtb	r2, r2
 570 0046 1A70     		strb	r2, [r3, #0]
 408:.\Generated_Source\PSoC5/ADC_DelSig_V_theACLK.c ****         ADC_DelSig_V_theACLK_MOD_SRC =
 571              		.loc 1 408 0
 572 0048 44F20A13 		movw	r3, #:lower16:1073758474
 573 004c C4F20003 		movt	r3, #:upper16:1073758474
 409:.\Generated_Source\PSoC5/ADC_DelSig_V_theACLK.c ****             (ADC_DelSig_V_theACLK_MOD_SRC & ~ADC_DelSig_V_theACLK_SRC_SEL_MSK) | clkSource;
 574              		.loc 1 409 0
 575 0050 44F20A12 		movw	r2, #:lower16:1073758474
 576 0054 C4F20002 		movt	r2, #:upper16:1073758474
 577 0058 1278     		ldrb	r2, [r2, #0]
 578 005a D2B2     		uxtb	r2, r2
 579              		.loc 1 408 0
 580 005c 02F0F802 		and	r2, r2, #248
 581 0060 F979     		ldrb	r1, [r7, #7]
 582 0062 42EA0102 		orr	r2, r2, r1
 583 0066 D2B2     		uxtb	r2, r2
 584 0068 1A70     		strb	r2, [r3, #0]
 585              		.loc 1 403 0
 586 006a 38E0     		b	.L34
 587              	.L31:
 410:.\Generated_Source\PSoC5/ADC_DelSig_V_theACLK.c ****     }
 411:.\Generated_Source\PSoC5/ADC_DelSig_V_theACLK.c ****     else if (oldSrc == CYCLK_SRC_SEL_CLK_SYNC_D && clkSource != CYCLK_SRC_SEL_CLK_SYNC_D && currDiv
 588              		.loc 1 411 0
 589 006c FB7B     		ldrb	r3, [r7, #15]	@ zero_extendqisi2
 590 006e 002B     		cmp	r3, #0
 591 0070 24D1     		bne	.L33
 592 0072 FB79     		ldrb	r3, [r7, #7]	@ zero_extendqisi2
 593 0074 002B     		cmp	r3, #0
 594 0076 21D0     		beq	.L33
 595 0078 BB89     		ldrh	r3, [r7, #12]
 596 007a 002B     		cmp	r3, #0
 597 007c 1ED1     		bne	.L33
 412:.\Generated_Source\PSoC5/ADC_DelSig_V_theACLK.c ****     {
 413:.\Generated_Source\PSoC5/ADC_DelSig_V_theACLK.c ****         /* Switching from Master to not and divider is 1, set source, so we don't   */
 414:.\Generated_Source\PSoC5/ADC_DelSig_V_theACLK.c ****         /* lock when we clear SSS.                                                  */
 415:.\Generated_Source\PSoC5/ADC_DelSig_V_theACLK.c ****         ADC_DelSig_V_theACLK_MOD_SRC =
 598              		.loc 1 415 0
 599 007e 44F20A13 		movw	r3, #:lower16:1073758474
 600 0082 C4F20003 		movt	r3, #:upper16:1073758474
 416:.\Generated_Source\PSoC5/ADC_DelSig_V_theACLK.c ****             (ADC_DelSig_V_theACLK_MOD_SRC & ~ADC_DelSig_V_theACLK_SRC_SEL_MSK) | clkSource;
 601              		.loc 1 416 0
 602 0086 44F20A12 		movw	r2, #:lower16:1073758474
 603 008a C4F20002 		movt	r2, #:upper16:1073758474
 604 008e 1278     		ldrb	r2, [r2, #0]
 605 0090 D2B2     		uxtb	r2, r2
 606              		.loc 1 415 0
ARM GAS  C:\Users\USER\AppData\Local\Temp\ccfe5FSa.s 			page 19


 607 0092 02F0F802 		and	r2, r2, #248
 608 0096 F979     		ldrb	r1, [r7, #7]
 609 0098 42EA0102 		orr	r2, r2, r1
 610 009c D2B2     		uxtb	r2, r2
 611 009e 1A70     		strb	r2, [r3, #0]
 417:.\Generated_Source\PSoC5/ADC_DelSig_V_theACLK.c ****         ADC_DelSig_V_theACLK_MOD_SRC &= ~CYCLK_SSS;
 612              		.loc 1 417 0
 613 00a0 44F20A13 		movw	r3, #:lower16:1073758474
 614 00a4 C4F20003 		movt	r3, #:upper16:1073758474
 615 00a8 44F20A12 		movw	r2, #:lower16:1073758474
 616 00ac C4F20002 		movt	r2, #:upper16:1073758474
 617 00b0 1278     		ldrb	r2, [r2, #0]
 618 00b2 D2B2     		uxtb	r2, r2
 619 00b4 02F0BF02 		and	r2, r2, #191
 620 00b8 1A70     		strb	r2, [r3, #0]
 621              		.loc 1 411 0
 622 00ba 10E0     		b	.L34
 623              	.L33:
 418:.\Generated_Source\PSoC5/ADC_DelSig_V_theACLK.c ****     }
 419:.\Generated_Source\PSoC5/ADC_DelSig_V_theACLK.c ****     else
 420:.\Generated_Source\PSoC5/ADC_DelSig_V_theACLK.c ****     {
 421:.\Generated_Source\PSoC5/ADC_DelSig_V_theACLK.c ****         ADC_DelSig_V_theACLK_MOD_SRC =
 624              		.loc 1 421 0
 625 00bc 44F20A13 		movw	r3, #:lower16:1073758474
 626 00c0 C4F20003 		movt	r3, #:upper16:1073758474
 422:.\Generated_Source\PSoC5/ADC_DelSig_V_theACLK.c ****             (ADC_DelSig_V_theACLK_MOD_SRC & ~ADC_DelSig_V_theACLK_SRC_SEL_MSK) | clkSource;
 627              		.loc 1 422 0
 628 00c4 44F20A12 		movw	r2, #:lower16:1073758474
 629 00c8 C4F20002 		movt	r2, #:upper16:1073758474
 630 00cc 1278     		ldrb	r2, [r2, #0]
 631 00ce D2B2     		uxtb	r2, r2
 632              		.loc 1 421 0
 633 00d0 02F0F802 		and	r2, r2, #248
 634 00d4 F979     		ldrb	r1, [r7, #7]
 635 00d6 42EA0102 		orr	r2, r2, r1
 636 00da D2B2     		uxtb	r2, r2
 637 00dc 1A70     		strb	r2, [r3, #0]
 638              	.L34:
 423:.\Generated_Source\PSoC5/ADC_DelSig_V_theACLK.c ****     }
 424:.\Generated_Source\PSoC5/ADC_DelSig_V_theACLK.c **** }
 639              		.loc 1 424 0
 640 00de 07F11007 		add	r7, r7, #16
 641 00e2 BD46     		mov	sp, r7
 642 00e4 80BD     		pop	{r7, pc}
 643              		.cfi_endproc
 644              	.LFE8:
 645              		.size	ADC_DelSig_V_theACLK_SetSourceRegister, .-ADC_DelSig_V_theACLK_SetSourceRegister
 646 00e6 00BF     		.section	.text.ADC_DelSig_V_theACLK_GetSourceRegister,"ax",%progbits
 647              		.align	2
 648              		.global	ADC_DelSig_V_theACLK_GetSourceRegister
 649              		.thumb
 650              		.thumb_func
 651              		.type	ADC_DelSig_V_theACLK_GetSourceRegister, %function
 652              	ADC_DelSig_V_theACLK_GetSourceRegister:
 653              	.LFB9:
 425:.\Generated_Source\PSoC5/ADC_DelSig_V_theACLK.c **** 
 426:.\Generated_Source\PSoC5/ADC_DelSig_V_theACLK.c **** 
ARM GAS  C:\Users\USER\AppData\Local\Temp\ccfe5FSa.s 			page 20


 427:.\Generated_Source\PSoC5/ADC_DelSig_V_theACLK.c **** /*******************************************************************************
 428:.\Generated_Source\PSoC5/ADC_DelSig_V_theACLK.c **** * Function Name: ADC_DelSig_V_theACLK_GetSourceRegister
 429:.\Generated_Source\PSoC5/ADC_DelSig_V_theACLK.c **** ********************************************************************************
 430:.\Generated_Source\PSoC5/ADC_DelSig_V_theACLK.c **** * Summary:
 431:.\Generated_Source\PSoC5/ADC_DelSig_V_theACLK.c **** *  Gets the input source of the clock.
 432:.\Generated_Source\PSoC5/ADC_DelSig_V_theACLK.c **** *
 433:.\Generated_Source\PSoC5/ADC_DelSig_V_theACLK.c **** * Parameters:
 434:.\Generated_Source\PSoC5/ADC_DelSig_V_theACLK.c **** *  void
 435:.\Generated_Source\PSoC5/ADC_DelSig_V_theACLK.c **** *
 436:.\Generated_Source\PSoC5/ADC_DelSig_V_theACLK.c **** * Returns:
 437:.\Generated_Source\PSoC5/ADC_DelSig_V_theACLK.c **** *  The input source of the clock. See SetSourceRegister for details.
 438:.\Generated_Source\PSoC5/ADC_DelSig_V_theACLK.c **** *
 439:.\Generated_Source\PSoC5/ADC_DelSig_V_theACLK.c **** *******************************************************************************/
 440:.\Generated_Source\PSoC5/ADC_DelSig_V_theACLK.c **** uint8 ADC_DelSig_V_theACLK_GetSourceRegister(void) 
 441:.\Generated_Source\PSoC5/ADC_DelSig_V_theACLK.c **** {
 654              		.loc 1 441 0
 655              		.cfi_startproc
 656              		@ args = 0, pretend = 0, frame = 0
 657              		@ frame_needed = 1, uses_anonymous_args = 0
 658              		@ link register save eliminated.
 659 0000 80B4     		push	{r7}
 660              	.LCFI23:
 661              		.cfi_def_cfa_offset 4
 662 0002 00AF     		add	r7, sp, #0
 663              		.cfi_offset 7, -4
 664              	.LCFI24:
 665              		.cfi_def_cfa_register 7
 442:.\Generated_Source\PSoC5/ADC_DelSig_V_theACLK.c ****     return ADC_DelSig_V_theACLK_MOD_SRC & ADC_DelSig_V_theACLK_SRC_SEL_MSK;
 666              		.loc 1 442 0
 667 0004 44F20A13 		movw	r3, #:lower16:1073758474
 668 0008 C4F20003 		movt	r3, #:upper16:1073758474
 669 000c 1B78     		ldrb	r3, [r3, #0]
 670 000e DBB2     		uxtb	r3, r3
 671 0010 03F00703 		and	r3, r3, #7
 443:.\Generated_Source\PSoC5/ADC_DelSig_V_theACLK.c **** }
 672              		.loc 1 443 0
 673 0014 1846     		mov	r0, r3
 674 0016 BD46     		mov	sp, r7
 675 0018 80BC     		pop	{r7}
 676 001a 7047     		bx	lr
 677              		.cfi_endproc
 678              	.LFE9:
 679              		.size	ADC_DelSig_V_theACLK_GetSourceRegister, .-ADC_DelSig_V_theACLK_GetSourceRegister
 680              		.section	.text.ADC_DelSig_V_theACLK_SetPhaseRegister,"ax",%progbits
 681              		.align	2
 682              		.global	ADC_DelSig_V_theACLK_SetPhaseRegister
 683              		.thumb
 684              		.thumb_func
 685              		.type	ADC_DelSig_V_theACLK_SetPhaseRegister, %function
 686              	ADC_DelSig_V_theACLK_SetPhaseRegister:
 687              	.LFB10:
 444:.\Generated_Source\PSoC5/ADC_DelSig_V_theACLK.c **** 
 445:.\Generated_Source\PSoC5/ADC_DelSig_V_theACLK.c **** 
 446:.\Generated_Source\PSoC5/ADC_DelSig_V_theACLK.c **** #if defined(ADC_DelSig_V_theACLK__CFG3)
 447:.\Generated_Source\PSoC5/ADC_DelSig_V_theACLK.c **** 
 448:.\Generated_Source\PSoC5/ADC_DelSig_V_theACLK.c **** 
 449:.\Generated_Source\PSoC5/ADC_DelSig_V_theACLK.c **** /*******************************************************************************
ARM GAS  C:\Users\USER\AppData\Local\Temp\ccfe5FSa.s 			page 21


 450:.\Generated_Source\PSoC5/ADC_DelSig_V_theACLK.c **** * Function Name: ADC_DelSig_V_theACLK_SetPhaseRegister
 451:.\Generated_Source\PSoC5/ADC_DelSig_V_theACLK.c **** ********************************************************************************
 452:.\Generated_Source\PSoC5/ADC_DelSig_V_theACLK.c **** * Summary:
 453:.\Generated_Source\PSoC5/ADC_DelSig_V_theACLK.c **** *  Sets the phase delay of the analog clock. This function is only available
 454:.\Generated_Source\PSoC5/ADC_DelSig_V_theACLK.c **** *  for analog clocks. The clock must be disabled before changing the phase
 455:.\Generated_Source\PSoC5/ADC_DelSig_V_theACLK.c **** *  delay to avoid glitches.
 456:.\Generated_Source\PSoC5/ADC_DelSig_V_theACLK.c **** *
 457:.\Generated_Source\PSoC5/ADC_DelSig_V_theACLK.c **** *
 458:.\Generated_Source\PSoC5/ADC_DelSig_V_theACLK.c **** * Parameters:
 459:.\Generated_Source\PSoC5/ADC_DelSig_V_theACLK.c **** *  clkPhase: Amount to delay the phase of the clock, in 1.0ns increments.
 460:.\Generated_Source\PSoC5/ADC_DelSig_V_theACLK.c **** *   clkPhase must be from 1 to 11 inclusive. Other values, including 0,
 461:.\Generated_Source\PSoC5/ADC_DelSig_V_theACLK.c **** *   disable the clock. clkPhase = 1 produces a 0ns delay and clkPhase = 11 
 462:.\Generated_Source\PSoC5/ADC_DelSig_V_theACLK.c **** *   produces a 10ns delay.
 463:.\Generated_Source\PSoC5/ADC_DelSig_V_theACLK.c **** *
 464:.\Generated_Source\PSoC5/ADC_DelSig_V_theACLK.c **** * Returns:
 465:.\Generated_Source\PSoC5/ADC_DelSig_V_theACLK.c **** *  void
 466:.\Generated_Source\PSoC5/ADC_DelSig_V_theACLK.c **** *
 467:.\Generated_Source\PSoC5/ADC_DelSig_V_theACLK.c **** *******************************************************************************/
 468:.\Generated_Source\PSoC5/ADC_DelSig_V_theACLK.c **** void ADC_DelSig_V_theACLK_SetPhaseRegister(uint8 clkPhase) 
 469:.\Generated_Source\PSoC5/ADC_DelSig_V_theACLK.c **** {
 688              		.loc 1 469 0
 689              		.cfi_startproc
 690              		@ args = 0, pretend = 0, frame = 8
 691              		@ frame_needed = 1, uses_anonymous_args = 0
 692              		@ link register save eliminated.
 693 0000 80B4     		push	{r7}
 694              	.LCFI25:
 695              		.cfi_def_cfa_offset 4
 696 0002 83B0     		sub	sp, sp, #12
 697              	.LCFI26:
 698              		.cfi_def_cfa_offset 16
 699 0004 00AF     		add	r7, sp, #0
 700              		.cfi_offset 7, -4
 701              	.LCFI27:
 702              		.cfi_def_cfa_register 7
 703 0006 0346     		mov	r3, r0
 704 0008 FB71     		strb	r3, [r7, #7]
 470:.\Generated_Source\PSoC5/ADC_DelSig_V_theACLK.c ****     ADC_DelSig_V_theACLK_PHASE = clkPhase & ADC_DelSig_V_theACLK_PHASE_MASK;
 705              		.loc 1 470 0
 706 000a 44F20B13 		movw	r3, #:lower16:1073758475
 707 000e C4F20003 		movt	r3, #:upper16:1073758475
 708 0012 FA79     		ldrb	r2, [r7, #7]	@ zero_extendqisi2
 709 0014 02F00F02 		and	r2, r2, #15
 710 0018 1A70     		strb	r2, [r3, #0]
 471:.\Generated_Source\PSoC5/ADC_DelSig_V_theACLK.c **** }
 711              		.loc 1 471 0
 712 001a 07F10C07 		add	r7, r7, #12
 713 001e BD46     		mov	sp, r7
 714 0020 80BC     		pop	{r7}
 715 0022 7047     		bx	lr
 716              		.cfi_endproc
 717              	.LFE10:
 718              		.size	ADC_DelSig_V_theACLK_SetPhaseRegister, .-ADC_DelSig_V_theACLK_SetPhaseRegister
 719              		.section	.text.ADC_DelSig_V_theACLK_GetPhaseRegister,"ax",%progbits
 720              		.align	2
 721              		.global	ADC_DelSig_V_theACLK_GetPhaseRegister
 722              		.thumb
ARM GAS  C:\Users\USER\AppData\Local\Temp\ccfe5FSa.s 			page 22


 723              		.thumb_func
 724              		.type	ADC_DelSig_V_theACLK_GetPhaseRegister, %function
 725              	ADC_DelSig_V_theACLK_GetPhaseRegister:
 726              	.LFB11:
 472:.\Generated_Source\PSoC5/ADC_DelSig_V_theACLK.c **** 
 473:.\Generated_Source\PSoC5/ADC_DelSig_V_theACLK.c **** 
 474:.\Generated_Source\PSoC5/ADC_DelSig_V_theACLK.c **** /*******************************************************************************
 475:.\Generated_Source\PSoC5/ADC_DelSig_V_theACLK.c **** * Function Name: ADC_DelSig_V_theACLK_GetPhase
 476:.\Generated_Source\PSoC5/ADC_DelSig_V_theACLK.c **** ********************************************************************************
 477:.\Generated_Source\PSoC5/ADC_DelSig_V_theACLK.c **** * Summary:
 478:.\Generated_Source\PSoC5/ADC_DelSig_V_theACLK.c **** *  Gets the phase delay of the analog clock. This function is only available
 479:.\Generated_Source\PSoC5/ADC_DelSig_V_theACLK.c **** *  for analog clocks.
 480:.\Generated_Source\PSoC5/ADC_DelSig_V_theACLK.c **** *
 481:.\Generated_Source\PSoC5/ADC_DelSig_V_theACLK.c **** * Parameters:
 482:.\Generated_Source\PSoC5/ADC_DelSig_V_theACLK.c **** *  void
 483:.\Generated_Source\PSoC5/ADC_DelSig_V_theACLK.c **** *
 484:.\Generated_Source\PSoC5/ADC_DelSig_V_theACLK.c **** * Returns:
 485:.\Generated_Source\PSoC5/ADC_DelSig_V_theACLK.c **** *  Phase of the analog clock. See SetPhaseRegister for details.
 486:.\Generated_Source\PSoC5/ADC_DelSig_V_theACLK.c **** *
 487:.\Generated_Source\PSoC5/ADC_DelSig_V_theACLK.c **** *******************************************************************************/
 488:.\Generated_Source\PSoC5/ADC_DelSig_V_theACLK.c **** uint8 ADC_DelSig_V_theACLK_GetPhaseRegister(void) 
 489:.\Generated_Source\PSoC5/ADC_DelSig_V_theACLK.c **** {
 727              		.loc 1 489 0
 728              		.cfi_startproc
 729              		@ args = 0, pretend = 0, frame = 0
 730              		@ frame_needed = 1, uses_anonymous_args = 0
 731              		@ link register save eliminated.
 732 0000 80B4     		push	{r7}
 733              	.LCFI28:
 734              		.cfi_def_cfa_offset 4
 735 0002 00AF     		add	r7, sp, #0
 736              		.cfi_offset 7, -4
 737              	.LCFI29:
 738              		.cfi_def_cfa_register 7
 490:.\Generated_Source\PSoC5/ADC_DelSig_V_theACLK.c ****     return ADC_DelSig_V_theACLK_PHASE & ADC_DelSig_V_theACLK_PHASE_MASK;
 739              		.loc 1 490 0
 740 0004 44F20B13 		movw	r3, #:lower16:1073758475
 741 0008 C4F20003 		movt	r3, #:upper16:1073758475
 742 000c 1B78     		ldrb	r3, [r3, #0]
 743 000e DBB2     		uxtb	r3, r3
 744 0010 03F00F03 		and	r3, r3, #15
 491:.\Generated_Source\PSoC5/ADC_DelSig_V_theACLK.c **** }
 745              		.loc 1 491 0
 746 0014 1846     		mov	r0, r3
 747 0016 BD46     		mov	sp, r7
 748 0018 80BC     		pop	{r7}
 749 001a 7047     		bx	lr
 750              		.cfi_endproc
 751              	.LFE11:
 752              		.size	ADC_DelSig_V_theACLK_GetPhaseRegister, .-ADC_DelSig_V_theACLK_GetPhaseRegister
 753              		.text
 754              	.Letext0: