ARM GAS  C:\Users\hoangp\AppData\Local\Temp\ccQGVazZ.s 			page 1


   1              		.syntax unified
   2              		.cpu cortex-m3
   3              		.fpu softvfp
   4              		.eabi_attribute 20, 1
   5              		.eabi_attribute 21, 1
   6              		.eabi_attribute 23, 3
   7              		.eabi_attribute 24, 1
   8              		.eabi_attribute 25, 1
   9              		.eabi_attribute 26, 1
  10              		.eabi_attribute 30, 6
  11              		.eabi_attribute 18, 4
  12              		.thumb
  13              		.file	"ADC_SAR_2_PM.c"
  20 0000 C7000000 		.text
  20      02007400 
  20      00000201 
  20      FB0E0D00 
  20      01010101 
  21              	.Ltext0:
  22              		.cfi_sections	.debug_frame
  23              		.bss
  24              		.align	2
  25              	ADC_SAR_2_backup:
  26 0000 00       		.space	1
  27 0001 000000   		.section	.text.ADC_SAR_2_SaveConfig,"ax",%progbits
  28              		.align	2
  29              		.global	ADC_SAR_2_SaveConfig
  30              		.thumb
  31              		.thumb_func
  32              		.type	ADC_SAR_2_SaveConfig, %function
  33              	ADC_SAR_2_SaveConfig:
  34              	.LFB0:
  35              		.file 1 ".\\Generated_Source\\PSoC5\\ADC_SAR_2_PM.c"
   1:.\Generated_Source\PSoC5/ADC_SAR_2_PM.c **** /*******************************************************************************
   2:.\Generated_Source\PSoC5/ADC_SAR_2_PM.c **** * File Name: ADC_SAR_2_PM.c
   3:.\Generated_Source\PSoC5/ADC_SAR_2_PM.c **** * Version 2.0
   4:.\Generated_Source\PSoC5/ADC_SAR_2_PM.c **** *
   5:.\Generated_Source\PSoC5/ADC_SAR_2_PM.c **** * Description:
   6:.\Generated_Source\PSoC5/ADC_SAR_2_PM.c **** *  This file provides Sleep/WakeUp APIs functionality.
   7:.\Generated_Source\PSoC5/ADC_SAR_2_PM.c **** *
   8:.\Generated_Source\PSoC5/ADC_SAR_2_PM.c **** * Note:
   9:.\Generated_Source\PSoC5/ADC_SAR_2_PM.c **** *
  10:.\Generated_Source\PSoC5/ADC_SAR_2_PM.c **** ********************************************************************************
  11:.\Generated_Source\PSoC5/ADC_SAR_2_PM.c **** * Copyright 2008-2012, Cypress Semiconductor Corporation.  All rights reserved.
  12:.\Generated_Source\PSoC5/ADC_SAR_2_PM.c **** * You may use this file only in accordance with the license, terms, conditions,
  13:.\Generated_Source\PSoC5/ADC_SAR_2_PM.c **** * disclaimers, and limitations in the end user license agreement accompanying
  14:.\Generated_Source\PSoC5/ADC_SAR_2_PM.c **** * the software package with which this file was provided.
  15:.\Generated_Source\PSoC5/ADC_SAR_2_PM.c **** *******************************************************************************/
  16:.\Generated_Source\PSoC5/ADC_SAR_2_PM.c **** 
  17:.\Generated_Source\PSoC5/ADC_SAR_2_PM.c **** #include "ADC_SAR_2.h"
  18:.\Generated_Source\PSoC5/ADC_SAR_2_PM.c **** 
ARM GAS  C:\Users\hoangp\AppData\Local\Temp\ccQGVazZ.s 			page 2


  19:.\Generated_Source\PSoC5/ADC_SAR_2_PM.c **** 
  20:.\Generated_Source\PSoC5/ADC_SAR_2_PM.c **** /***************************************
  21:.\Generated_Source\PSoC5/ADC_SAR_2_PM.c **** * Local data allocation
  22:.\Generated_Source\PSoC5/ADC_SAR_2_PM.c **** ***************************************/
  23:.\Generated_Source\PSoC5/ADC_SAR_2_PM.c **** 
  24:.\Generated_Source\PSoC5/ADC_SAR_2_PM.c **** static ADC_SAR_2_BACKUP_STRUCT  ADC_SAR_2_backup =
  25:.\Generated_Source\PSoC5/ADC_SAR_2_PM.c **** {
  26:.\Generated_Source\PSoC5/ADC_SAR_2_PM.c ****     ADC_SAR_2_DISABLED
  27:.\Generated_Source\PSoC5/ADC_SAR_2_PM.c **** };
  28:.\Generated_Source\PSoC5/ADC_SAR_2_PM.c **** 
  29:.\Generated_Source\PSoC5/ADC_SAR_2_PM.c **** 
  30:.\Generated_Source\PSoC5/ADC_SAR_2_PM.c **** /*******************************************************************************
  31:.\Generated_Source\PSoC5/ADC_SAR_2_PM.c **** * Function Name: ADC_SAR_2_SaveConfig
  32:.\Generated_Source\PSoC5/ADC_SAR_2_PM.c **** ********************************************************************************
  33:.\Generated_Source\PSoC5/ADC_SAR_2_PM.c **** *
  34:.\Generated_Source\PSoC5/ADC_SAR_2_PM.c **** * Summary:
  35:.\Generated_Source\PSoC5/ADC_SAR_2_PM.c **** *  Saves the current user configuration.
  36:.\Generated_Source\PSoC5/ADC_SAR_2_PM.c **** *
  37:.\Generated_Source\PSoC5/ADC_SAR_2_PM.c **** * Parameters:
  38:.\Generated_Source\PSoC5/ADC_SAR_2_PM.c **** *  None.
  39:.\Generated_Source\PSoC5/ADC_SAR_2_PM.c **** *
  40:.\Generated_Source\PSoC5/ADC_SAR_2_PM.c **** * Return:
  41:.\Generated_Source\PSoC5/ADC_SAR_2_PM.c **** *  None.
  42:.\Generated_Source\PSoC5/ADC_SAR_2_PM.c **** *
  43:.\Generated_Source\PSoC5/ADC_SAR_2_PM.c **** *******************************************************************************/
  44:.\Generated_Source\PSoC5/ADC_SAR_2_PM.c **** void ADC_SAR_2_SaveConfig(void)
  45:.\Generated_Source\PSoC5/ADC_SAR_2_PM.c **** {
  36              		.loc 1 45 0
  37              		.cfi_startproc
  38              		@ args = 0, pretend = 0, frame = 0
  39              		@ frame_needed = 1, uses_anonymous_args = 0
  40              		@ link register save eliminated.
  41 0000 80B4     		push	{r7}
  42              	.LCFI0:
  43              		.cfi_def_cfa_offset 4
  44 0002 00AF     		add	r7, sp, #0
  45              		.cfi_offset 7, -4
  46              	.LCFI1:
  47              		.cfi_def_cfa_register 7
  46:.\Generated_Source\PSoC5/ADC_SAR_2_PM.c ****     /* All configuration registers are marked as [reset_all_retention] */
  47:.\Generated_Source\PSoC5/ADC_SAR_2_PM.c **** }
  48              		.loc 1 47 0
  49 0004 BD46     		mov	sp, r7
  50 0006 80BC     		pop	{r7}
  51 0008 7047     		bx	lr
  52              		.cfi_endproc
  53              	.LFE0:
  54              		.size	ADC_SAR_2_SaveConfig, .-ADC_SAR_2_SaveConfig
  55 000a 00BF     		.section	.text.ADC_SAR_2_RestoreConfig,"ax",%progbits
  56              		.align	2
  57              		.global	ADC_SAR_2_RestoreConfig
  58              		.thumb
  59              		.thumb_func
  60              		.type	ADC_SAR_2_RestoreConfig, %function
  61              	ADC_SAR_2_RestoreConfig:
  62              	.LFB1:
  48:.\Generated_Source\PSoC5/ADC_SAR_2_PM.c **** 
ARM GAS  C:\Users\hoangp\AppData\Local\Temp\ccQGVazZ.s 			page 3


  49:.\Generated_Source\PSoC5/ADC_SAR_2_PM.c **** 
  50:.\Generated_Source\PSoC5/ADC_SAR_2_PM.c **** /*******************************************************************************
  51:.\Generated_Source\PSoC5/ADC_SAR_2_PM.c **** * Function Name: ADC_SAR_2_RestoreConfig
  52:.\Generated_Source\PSoC5/ADC_SAR_2_PM.c **** ********************************************************************************
  53:.\Generated_Source\PSoC5/ADC_SAR_2_PM.c **** *
  54:.\Generated_Source\PSoC5/ADC_SAR_2_PM.c **** * Summary:
  55:.\Generated_Source\PSoC5/ADC_SAR_2_PM.c **** *  Restores the current user configuration.
  56:.\Generated_Source\PSoC5/ADC_SAR_2_PM.c **** *
  57:.\Generated_Source\PSoC5/ADC_SAR_2_PM.c **** * Parameters:
  58:.\Generated_Source\PSoC5/ADC_SAR_2_PM.c **** *  None.
  59:.\Generated_Source\PSoC5/ADC_SAR_2_PM.c **** *
  60:.\Generated_Source\PSoC5/ADC_SAR_2_PM.c **** * Return:
  61:.\Generated_Source\PSoC5/ADC_SAR_2_PM.c **** *  None.
  62:.\Generated_Source\PSoC5/ADC_SAR_2_PM.c **** *
  63:.\Generated_Source\PSoC5/ADC_SAR_2_PM.c **** *******************************************************************************/
  64:.\Generated_Source\PSoC5/ADC_SAR_2_PM.c **** void ADC_SAR_2_RestoreConfig(void)
  65:.\Generated_Source\PSoC5/ADC_SAR_2_PM.c **** {
  63              		.loc 1 65 0
  64              		.cfi_startproc
  65              		@ args = 0, pretend = 0, frame = 0
  66              		@ frame_needed = 1, uses_anonymous_args = 0
  67              		@ link register save eliminated.
  68 0000 80B4     		push	{r7}
  69              	.LCFI2:
  70              		.cfi_def_cfa_offset 4
  71 0002 00AF     		add	r7, sp, #0
  72              		.cfi_offset 7, -4
  73              	.LCFI3:
  74              		.cfi_def_cfa_register 7
  66:.\Generated_Source\PSoC5/ADC_SAR_2_PM.c ****     /* All congiguration registers are marked as [reset_all_retention] */
  67:.\Generated_Source\PSoC5/ADC_SAR_2_PM.c **** }
  75              		.loc 1 67 0
  76 0004 BD46     		mov	sp, r7
  77 0006 80BC     		pop	{r7}
  78 0008 7047     		bx	lr
  79              		.cfi_endproc
  80              	.LFE1:
  81              		.size	ADC_SAR_2_RestoreConfig, .-ADC_SAR_2_RestoreConfig
  82 000a 00BF     		.section	.text.ADC_SAR_2_Sleep,"ax",%progbits
  83              		.align	2
  84              		.global	ADC_SAR_2_Sleep
  85              		.thumb
  86              		.thumb_func
  87              		.type	ADC_SAR_2_Sleep, %function
  88              	ADC_SAR_2_Sleep:
  89              	.LFB2:
  68:.\Generated_Source\PSoC5/ADC_SAR_2_PM.c **** 
  69:.\Generated_Source\PSoC5/ADC_SAR_2_PM.c **** 
  70:.\Generated_Source\PSoC5/ADC_SAR_2_PM.c **** /*******************************************************************************
  71:.\Generated_Source\PSoC5/ADC_SAR_2_PM.c **** * Function Name: ADC_SAR_2_Sleep
  72:.\Generated_Source\PSoC5/ADC_SAR_2_PM.c **** ********************************************************************************
  73:.\Generated_Source\PSoC5/ADC_SAR_2_PM.c **** *
  74:.\Generated_Source\PSoC5/ADC_SAR_2_PM.c **** * Summary:
  75:.\Generated_Source\PSoC5/ADC_SAR_2_PM.c **** *  Stops and saves the user configuration
  76:.\Generated_Source\PSoC5/ADC_SAR_2_PM.c **** *
  77:.\Generated_Source\PSoC5/ADC_SAR_2_PM.c **** * Parameters:
  78:.\Generated_Source\PSoC5/ADC_SAR_2_PM.c **** *  None.
ARM GAS  C:\Users\hoangp\AppData\Local\Temp\ccQGVazZ.s 			page 4


  79:.\Generated_Source\PSoC5/ADC_SAR_2_PM.c **** *
  80:.\Generated_Source\PSoC5/ADC_SAR_2_PM.c **** * Return:
  81:.\Generated_Source\PSoC5/ADC_SAR_2_PM.c **** *  None.
  82:.\Generated_Source\PSoC5/ADC_SAR_2_PM.c **** *
  83:.\Generated_Source\PSoC5/ADC_SAR_2_PM.c **** * Global Variables:
  84:.\Generated_Source\PSoC5/ADC_SAR_2_PM.c **** *  ADC_SAR_2_backup - modified.
  85:.\Generated_Source\PSoC5/ADC_SAR_2_PM.c **** *
  86:.\Generated_Source\PSoC5/ADC_SAR_2_PM.c **** *******************************************************************************/
  87:.\Generated_Source\PSoC5/ADC_SAR_2_PM.c **** void ADC_SAR_2_Sleep(void)
  88:.\Generated_Source\PSoC5/ADC_SAR_2_PM.c **** {
  90              		.loc 1 88 0
  91              		.cfi_startproc
  92              		@ args = 0, pretend = 0, frame = 0
  93              		@ frame_needed = 1, uses_anonymous_args = 0
  94 0000 80B5     		push	{r7, lr}
  95              	.LCFI4:
  96              		.cfi_def_cfa_offset 8
  97 0002 00AF     		add	r7, sp, #0
  98              		.cfi_offset 14, -4
  99              		.cfi_offset 7, -8
 100              	.LCFI5:
 101              		.cfi_def_cfa_register 7
  89:.\Generated_Source\PSoC5/ADC_SAR_2_PM.c ****     if((ADC_SAR_2_PWRMGR_SAR_REG  & ADC_SAR_2_ACT_PWR_SAR_EN) != 0u)
 102              		.loc 1 89 0
 103 0004 44F2AB33 		movw	r3, #:lower16:1073759147
 104 0008 C4F20003 		movt	r3, #:upper16:1073759147
 105 000c 1B78     		ldrb	r3, [r3, #0]
 106 000e DBB2     		uxtb	r3, r3
 107 0010 03F00203 		and	r3, r3, #2
 108 0014 002B     		cmp	r3, #0
 109 0016 1CD0     		beq	.L6
  90:.\Generated_Source\PSoC5/ADC_SAR_2_PM.c ****     {
  91:.\Generated_Source\PSoC5/ADC_SAR_2_PM.c ****         if((ADC_SAR_2_SAR_CSR0_REG & ADC_SAR_2_SAR_SOF_START_CONV) != 0u)
 110              		.loc 1 91 0
 111 0018 45F60813 		movw	r3, #:lower16:1073764616
 112 001c C4F20003 		movt	r3, #:upper16:1073764616
 113 0020 1B78     		ldrb	r3, [r3, #0]
 114 0022 DBB2     		uxtb	r3, r3
 115 0024 03F00103 		and	r3, r3, #1
 116 0028 DBB2     		uxtb	r3, r3
 117 002a 002B     		cmp	r3, #0
 118 002c 07D0     		beq	.L7
  92:.\Generated_Source\PSoC5/ADC_SAR_2_PM.c ****         {
  93:.\Generated_Source\PSoC5/ADC_SAR_2_PM.c ****             ADC_SAR_2_backup.enableState = ADC_SAR_2_ENABLED | ADC_SAR_2_STARTED;
 119              		.loc 1 93 0
 120 002e 40F20003 		movw	r3, #:lower16:ADC_SAR_2_backup
 121 0032 C0F20003 		movt	r3, #:upper16:ADC_SAR_2_backup
 122 0036 4FF00302 		mov	r2, #3
 123 003a 1A70     		strb	r2, [r3, #0]
 124 003c 06E0     		b	.L8
 125              	.L7:
  94:.\Generated_Source\PSoC5/ADC_SAR_2_PM.c ****         }
  95:.\Generated_Source\PSoC5/ADC_SAR_2_PM.c ****         else
  96:.\Generated_Source\PSoC5/ADC_SAR_2_PM.c ****         {
  97:.\Generated_Source\PSoC5/ADC_SAR_2_PM.c ****             ADC_SAR_2_backup.enableState = ADC_SAR_2_ENABLED;
 126              		.loc 1 97 0
 127 003e 40F20003 		movw	r3, #:lower16:ADC_SAR_2_backup
ARM GAS  C:\Users\hoangp\AppData\Local\Temp\ccQGVazZ.s 			page 5


 128 0042 C0F20003 		movt	r3, #:upper16:ADC_SAR_2_backup
 129 0046 4FF00102 		mov	r2, #1
 130 004a 1A70     		strb	r2, [r3, #0]
 131              	.L8:
  98:.\Generated_Source\PSoC5/ADC_SAR_2_PM.c ****         }
  99:.\Generated_Source\PSoC5/ADC_SAR_2_PM.c ****         ADC_SAR_2_Stop();
 132              		.loc 1 99 0
 133 004c FFF7FEFF 		bl	ADC_SAR_2_Stop
 134 0050 06E0     		b	.L10
 135              	.L6:
 100:.\Generated_Source\PSoC5/ADC_SAR_2_PM.c ****     }
 101:.\Generated_Source\PSoC5/ADC_SAR_2_PM.c ****     else
 102:.\Generated_Source\PSoC5/ADC_SAR_2_PM.c ****     {
 103:.\Generated_Source\PSoC5/ADC_SAR_2_PM.c ****         ADC_SAR_2_backup.enableState = ADC_SAR_2_DISABLED;
 136              		.loc 1 103 0
 137 0052 40F20003 		movw	r3, #:lower16:ADC_SAR_2_backup
 138 0056 C0F20003 		movt	r3, #:upper16:ADC_SAR_2_backup
 139 005a 4FF00002 		mov	r2, #0
 140 005e 1A70     		strb	r2, [r3, #0]
 141              	.L10:
 104:.\Generated_Source\PSoC5/ADC_SAR_2_PM.c ****     }
 105:.\Generated_Source\PSoC5/ADC_SAR_2_PM.c ****     /*ADC_SAR_2_SaveConfig();*/
 106:.\Generated_Source\PSoC5/ADC_SAR_2_PM.c **** }
 142              		.loc 1 106 0
 143 0060 80BD     		pop	{r7, pc}
 144              		.cfi_endproc
 145              	.LFE2:
 146              		.size	ADC_SAR_2_Sleep, .-ADC_SAR_2_Sleep
 147 0062 00BF     		.section	.text.ADC_SAR_2_Wakeup,"ax",%progbits
 148              		.align	2
 149              		.global	ADC_SAR_2_Wakeup
 150              		.thumb
 151              		.thumb_func
 152              		.type	ADC_SAR_2_Wakeup, %function
 153              	ADC_SAR_2_Wakeup:
 154              	.LFB3:
 107:.\Generated_Source\PSoC5/ADC_SAR_2_PM.c **** 
 108:.\Generated_Source\PSoC5/ADC_SAR_2_PM.c **** 
 109:.\Generated_Source\PSoC5/ADC_SAR_2_PM.c **** /*******************************************************************************
 110:.\Generated_Source\PSoC5/ADC_SAR_2_PM.c **** * Function Name: ADC_SAR_2_Wakeup
 111:.\Generated_Source\PSoC5/ADC_SAR_2_PM.c **** ********************************************************************************
 112:.\Generated_Source\PSoC5/ADC_SAR_2_PM.c **** *
 113:.\Generated_Source\PSoC5/ADC_SAR_2_PM.c **** * Summary:
 114:.\Generated_Source\PSoC5/ADC_SAR_2_PM.c **** *  Restores and enables the user configuration
 115:.\Generated_Source\PSoC5/ADC_SAR_2_PM.c **** *
 116:.\Generated_Source\PSoC5/ADC_SAR_2_PM.c **** * Parameters:
 117:.\Generated_Source\PSoC5/ADC_SAR_2_PM.c **** *  None.
 118:.\Generated_Source\PSoC5/ADC_SAR_2_PM.c **** *
 119:.\Generated_Source\PSoC5/ADC_SAR_2_PM.c **** * Return:
 120:.\Generated_Source\PSoC5/ADC_SAR_2_PM.c **** *  None.
 121:.\Generated_Source\PSoC5/ADC_SAR_2_PM.c **** *
 122:.\Generated_Source\PSoC5/ADC_SAR_2_PM.c **** * Global Variables:
 123:.\Generated_Source\PSoC5/ADC_SAR_2_PM.c **** *  ADC_SAR_2_backup - used.
 124:.\Generated_Source\PSoC5/ADC_SAR_2_PM.c **** *
 125:.\Generated_Source\PSoC5/ADC_SAR_2_PM.c **** *******************************************************************************/
 126:.\Generated_Source\PSoC5/ADC_SAR_2_PM.c **** void ADC_SAR_2_Wakeup(void)
 127:.\Generated_Source\PSoC5/ADC_SAR_2_PM.c **** {
ARM GAS  C:\Users\hoangp\AppData\Local\Temp\ccQGVazZ.s 			page 6


 155              		.loc 1 127 0
 156              		.cfi_startproc
 157              		@ args = 0, pretend = 0, frame = 0
 158              		@ frame_needed = 1, uses_anonymous_args = 0
 159 0000 80B5     		push	{r7, lr}
 160              	.LCFI6:
 161              		.cfi_def_cfa_offset 8
 162 0002 00AF     		add	r7, sp, #0
 163              		.cfi_offset 14, -4
 164              		.cfi_offset 7, -8
 165              	.LCFI7:
 166              		.cfi_def_cfa_register 7
 128:.\Generated_Source\PSoC5/ADC_SAR_2_PM.c ****     /*ADC_SAR_2_RestoreConfig();*/
 129:.\Generated_Source\PSoC5/ADC_SAR_2_PM.c ****     if(ADC_SAR_2_backup.enableState != ADC_SAR_2_DISABLED)
 167              		.loc 1 129 0
 168 0004 40F20003 		movw	r3, #:lower16:ADC_SAR_2_backup
 169 0008 C0F20003 		movt	r3, #:upper16:ADC_SAR_2_backup
 170 000c 1B78     		ldrb	r3, [r3, #0]	@ zero_extendqisi2
 171 000e 002B     		cmp	r3, #0
 172 0010 0CD0     		beq	.L13
 130:.\Generated_Source\PSoC5/ADC_SAR_2_PM.c ****     {
 131:.\Generated_Source\PSoC5/ADC_SAR_2_PM.c ****         ADC_SAR_2_Enable();
 173              		.loc 1 131 0
 174 0012 FFF7FEFF 		bl	ADC_SAR_2_Enable
 132:.\Generated_Source\PSoC5/ADC_SAR_2_PM.c ****         #if(ADC_SAR_2_DEFAULT_CONV_MODE != ADC_SAR_2__HARDWARE_TRIGGER)
 133:.\Generated_Source\PSoC5/ADC_SAR_2_PM.c ****             if((ADC_SAR_2_backup.enableState & ADC_SAR_2_STARTED) != 0u)
 175              		.loc 1 133 0
 176 0016 40F20003 		movw	r3, #:lower16:ADC_SAR_2_backup
 177 001a C0F20003 		movt	r3, #:upper16:ADC_SAR_2_backup
 178 001e 1B78     		ldrb	r3, [r3, #0]	@ zero_extendqisi2
 179 0020 03F00203 		and	r3, r3, #2
 180 0024 002B     		cmp	r3, #0
 181 0026 01D0     		beq	.L13
 134:.\Generated_Source\PSoC5/ADC_SAR_2_PM.c ****             {
 135:.\Generated_Source\PSoC5/ADC_SAR_2_PM.c ****                 ADC_SAR_2_StartConvert();
 182              		.loc 1 135 0
 183 0028 FFF7FEFF 		bl	ADC_SAR_2_StartConvert
 184              	.L13:
 136:.\Generated_Source\PSoC5/ADC_SAR_2_PM.c ****             }
 137:.\Generated_Source\PSoC5/ADC_SAR_2_PM.c ****         #endif /* End ADC_SAR_2_DEFAULT_CONV_MODE != ADC_SAR_2__HARDWARE_TRIGGER */
 138:.\Generated_Source\PSoC5/ADC_SAR_2_PM.c ****         
 139:.\Generated_Source\PSoC5/ADC_SAR_2_PM.c ****     }
 140:.\Generated_Source\PSoC5/ADC_SAR_2_PM.c **** }
 185              		.loc 1 140 0
 186 002c 80BD     		pop	{r7, pc}
 187              		.cfi_endproc
 188              	.LFE3:
 189              		.size	ADC_SAR_2_Wakeup, .-ADC_SAR_2_Wakeup
 190 002e 00BF     		.text
 191              	.Letext0: