ARM GAS  C:\Users\hoangp\AppData\Local\Temp\ccZOsuqR.s 			page 1


   1              		.syntax unified
   2              		.cpu cortex-m3
   3              		.fpu softvfp
   4              		.eabi_attribute 20, 1
   5              		.eabi_attribute 21, 1
   6              		.eabi_attribute 23, 3
   7              		.eabi_attribute 24, 1
   8              		.eabi_attribute 25, 1
   9              		.eabi_attribute 26, 1
  10              		.eabi_attribute 30, 6
  11              		.eabi_attribute 18, 4
  12              		.thumb
  13              		.file	"ADC_DelSig_1.c"
  14              		.section	.debug_abbrev,"",%progbits
  15              	.Ldebug_abbrev0:
  16              		.section	.debug_info,"",%progbits
  17              	.Ldebug_info0:
  18              		.section	.debug_line,"",%progbits
  19              	.Ldebug_line0:
  20 0000 32040000 		.text
  20      02007700 
  20      00000201 
  20      FB0E0D00 
  20      01010101 
  21              	.Ltext0:
  22              		.cfi_sections	.debug_frame
  23              		.global	ADC_DelSig_1_convDone
  24              		.bss
  25              		.type	ADC_DelSig_1_convDone, %object
  26              		.size	ADC_DelSig_1_convDone, 1
  27              	ADC_DelSig_1_convDone:
  28 0000 00       		.space	1
  29              		.global	ADC_DelSig_1_stopConversion
  30              		.type	ADC_DelSig_1_stopConversion, %object
  31              		.size	ADC_DelSig_1_stopConversion, 1
  32              	ADC_DelSig_1_stopConversion:
  33 0001 00       		.space	1
  34              		.global	ADC_DelSig_1_initVar
  35              		.type	ADC_DelSig_1_initVar, %object
  36              		.size	ADC_DelSig_1_initVar, 1
  37              	ADC_DelSig_1_initVar:
  38 0002 00       		.space	1
  39              		.global	ADC_DelSig_1_started
  40              		.type	ADC_DelSig_1_started, %object
  41              		.size	ADC_DelSig_1_started, 1
  42              	ADC_DelSig_1_started:
  43 0003 00       		.space	1
  44              		.global	ADC_DelSig_1_Config
  45              		.data
  46              		.type	ADC_DelSig_1_Config, %object
  47              		.size	ADC_DelSig_1_Config, 1
  48              	ADC_DelSig_1_Config:
  49 0000 01       		.byte	1
  50              		.global	ADC_DelSig_1_Offset
  51              		.bss
  52              		.align	2
  53              		.type	ADC_DelSig_1_Offset, %object
ARM GAS  C:\Users\hoangp\AppData\Local\Temp\ccZOsuqR.s 			page 2


  54              		.size	ADC_DelSig_1_Offset, 4
  55              	ADC_DelSig_1_Offset:
  56 0004 00000000 		.space	4
  57              		.global	ADC_DelSig_1_CountsPerVolt
  58              		.data
  59 0001 000000   		.align	2
  60              		.type	ADC_DelSig_1_CountsPerVolt, %object
  61              		.size	ADC_DelSig_1_CountsPerVolt, 4
  62              	ADC_DelSig_1_CountsPerVolt:
  63 0004 F4010000 		.word	500
  64              		.global	ADC_DelSig_1_restoreReg
  65              		.bss
  66              		.type	ADC_DelSig_1_restoreReg, %object
  67              		.size	ADC_DelSig_1_restoreReg, 1
  68              	ADC_DelSig_1_restoreReg:
  69 0008 00       		.space	1
  70 0009 000000   		.data
  71              		.align	2
  72              		.type	ADC_DelSig_1_powerModeBackup, %object
  73              		.size	ADC_DelSig_1_powerModeBackup, 9
  74              	ADC_DelSig_1_powerModeBackup:
  75 0008 02       		.byte	2
  76 0009 22       		.byte	34
  77 000a 28       		.byte	40
  78 000b EB       		.byte	-21
  79 000c 44       		.byte	68
  80 000d 05       		.byte	5
  81 000e 01       		.byte	1
  82 000f 18       		.byte	24
  83 0010 00       		.byte	0
  84 0011 000000   		.section	.text.ADC_DelSig_1_Init,"ax",%progbits
  85              		.align	2
  86              		.global	ADC_DelSig_1_Init
  87              		.thumb
  88              		.thumb_func
  89              		.type	ADC_DelSig_1_Init, %function
  90              	ADC_DelSig_1_Init:
  91              	.LFB0:
  92              		.file 1 ".\\Generated_Source\\PSoC5\\ADC_DelSig_1.c"
   1:.\Generated_Source\PSoC5/ADC_DelSig_1.c **** /*******************************************************************************
   2:.\Generated_Source\PSoC5/ADC_DelSig_1.c **** * File Name: ADC_DelSig_1.c  
   3:.\Generated_Source\PSoC5/ADC_DelSig_1.c **** * Version 2.30
   4:.\Generated_Source\PSoC5/ADC_DelSig_1.c **** *
   5:.\Generated_Source\PSoC5/ADC_DelSig_1.c **** * Description:
   6:.\Generated_Source\PSoC5/ADC_DelSig_1.c **** *  This file provides the source code to the API for the Delta-Sigma ADC
   7:.\Generated_Source\PSoC5/ADC_DelSig_1.c **** *  Component.
   8:.\Generated_Source\PSoC5/ADC_DelSig_1.c **** *
   9:.\Generated_Source\PSoC5/ADC_DelSig_1.c **** * Note:
  10:.\Generated_Source\PSoC5/ADC_DelSig_1.c **** *
  11:.\Generated_Source\PSoC5/ADC_DelSig_1.c **** *******************************************************************************
  12:.\Generated_Source\PSoC5/ADC_DelSig_1.c **** * Copyright 2008-2012, Cypress Semiconductor Corporation.  All rights reserved.
  13:.\Generated_Source\PSoC5/ADC_DelSig_1.c **** * You may use this file only in accordance with the license, terms, conditions, 
  14:.\Generated_Source\PSoC5/ADC_DelSig_1.c **** * disclaimers, and limitations in the end user license agreement accompanying 
  15:.\Generated_Source\PSoC5/ADC_DelSig_1.c **** * the software package with which this file was provided.
  16:.\Generated_Source\PSoC5/ADC_DelSig_1.c **** ********************************************************************************/
  17:.\Generated_Source\PSoC5/ADC_DelSig_1.c **** 
  18:.\Generated_Source\PSoC5/ADC_DelSig_1.c **** #include "ADC_DelSig_1.h"
ARM GAS  C:\Users\hoangp\AppData\Local\Temp\ccZOsuqR.s 			page 3


  19:.\Generated_Source\PSoC5/ADC_DelSig_1.c **** 
  20:.\Generated_Source\PSoC5/ADC_DelSig_1.c **** #if(ADC_DelSig_1_DEFAULT_INTERNAL_CLK)
  21:.\Generated_Source\PSoC5/ADC_DelSig_1.c ****     #include "ADC_DelSig_1_theACLK.h"
  22:.\Generated_Source\PSoC5/ADC_DelSig_1.c **** #endif /* ADC_DelSig_1_DEFAULT_INTERNAL_CLK */
  23:.\Generated_Source\PSoC5/ADC_DelSig_1.c **** 
  24:.\Generated_Source\PSoC5/ADC_DelSig_1.c **** #include "ADC_DelSig_1_Ext_CP_Clk.h"
  25:.\Generated_Source\PSoC5/ADC_DelSig_1.c **** 
  26:.\Generated_Source\PSoC5/ADC_DelSig_1.c **** #if(ADC_DelSig_1_DEFAULT_INPUT_MODE)
  27:.\Generated_Source\PSoC5/ADC_DelSig_1.c ****     #include "ADC_DelSig_1_AMux.h"
  28:.\Generated_Source\PSoC5/ADC_DelSig_1.c **** #endif /* ADC_DelSig_1_DEFAULT_INPUT_MODE */
  29:.\Generated_Source\PSoC5/ADC_DelSig_1.c **** 
  30:.\Generated_Source\PSoC5/ADC_DelSig_1.c **** /* Software flag for checking conversion completed or not */
  31:.\Generated_Source\PSoC5/ADC_DelSig_1.c **** volatile uint8 ADC_DelSig_1_convDone = 0u;
  32:.\Generated_Source\PSoC5/ADC_DelSig_1.c **** 
  33:.\Generated_Source\PSoC5/ADC_DelSig_1.c **** /* Software flag to stop conversion for single sample conversion mode 
  34:.\Generated_Source\PSoC5/ADC_DelSig_1.c ****    with resolution above 16 bits */
  35:.\Generated_Source\PSoC5/ADC_DelSig_1.c **** volatile uint8 ADC_DelSig_1_stopConversion = 0u;
  36:.\Generated_Source\PSoC5/ADC_DelSig_1.c **** 
  37:.\Generated_Source\PSoC5/ADC_DelSig_1.c **** /* To run the initialization block only at the start up */
  38:.\Generated_Source\PSoC5/ADC_DelSig_1.c **** uint8 ADC_DelSig_1_initVar = 0u;
  39:.\Generated_Source\PSoC5/ADC_DelSig_1.c **** 
  40:.\Generated_Source\PSoC5/ADC_DelSig_1.c **** /* To check whether ADC started or not before switching the configuration */
  41:.\Generated_Source\PSoC5/ADC_DelSig_1.c **** volatile uint8 ADC_DelSig_1_started = 0u;
  42:.\Generated_Source\PSoC5/ADC_DelSig_1.c **** 
  43:.\Generated_Source\PSoC5/ADC_DelSig_1.c **** /* Flag to hold ADC config number. By default active config is 1. */
  44:.\Generated_Source\PSoC5/ADC_DelSig_1.c **** volatile uint8 ADC_DelSig_1_Config = 1u;
  45:.\Generated_Source\PSoC5/ADC_DelSig_1.c **** 
  46:.\Generated_Source\PSoC5/ADC_DelSig_1.c **** volatile int32 ADC_DelSig_1_Offset = 0u;
  47:.\Generated_Source\PSoC5/ADC_DelSig_1.c **** volatile int32 ADC_DelSig_1_CountsPerVolt = (uint32)ADC_DelSig_1_CFG1_COUNTS_PER_VOLT;
  48:.\Generated_Source\PSoC5/ADC_DelSig_1.c **** 
  49:.\Generated_Source\PSoC5/ADC_DelSig_1.c **** /* Only valid for PSoC5A */
  50:.\Generated_Source\PSoC5/ADC_DelSig_1.c **** /* Variable to decide whether or not to restore the register values from
  51:.\Generated_Source\PSoC5/ADC_DelSig_1.c ****     backup structure */
  52:.\Generated_Source\PSoC5/ADC_DelSig_1.c **** #if (CY_PSOC5A)
  53:.\Generated_Source\PSoC5/ADC_DelSig_1.c ****     uint8 ADC_DelSig_1_restoreReg = 0u;
  54:.\Generated_Source\PSoC5/ADC_DelSig_1.c **** #endif /* CY_PSOC5A */
  55:.\Generated_Source\PSoC5/ADC_DelSig_1.c **** 
  56:.\Generated_Source\PSoC5/ADC_DelSig_1.c **** /* Valid only for PSoC5A silicon */
  57:.\Generated_Source\PSoC5/ADC_DelSig_1.c **** #if (CY_PSOC5A)
  58:.\Generated_Source\PSoC5/ADC_DelSig_1.c ****     /* Backup struct for power mode registers */
  59:.\Generated_Source\PSoC5/ADC_DelSig_1.c ****     static ADC_DelSig_1_POWERMODE_BACKUP_STRUCT ADC_DelSig_1_powerModeBackup = 
  60:.\Generated_Source\PSoC5/ADC_DelSig_1.c ****     {
  61:.\Generated_Source\PSoC5/ADC_DelSig_1.c ****         /* Initializing the structure fields with power mode registers of 
  62:.\Generated_Source\PSoC5/ADC_DelSig_1.c ****            config1 */
  63:.\Generated_Source\PSoC5/ADC_DelSig_1.c ****         ADC_DelSig_1_CFG1_DSM_CR14,
  64:.\Generated_Source\PSoC5/ADC_DelSig_1.c ****         ADC_DelSig_1_CFG1_DSM_CR15,
  65:.\Generated_Source\PSoC5/ADC_DelSig_1.c ****         ADC_DelSig_1_CFG1_DSM_CR16,
  66:.\Generated_Source\PSoC5/ADC_DelSig_1.c ****         ADC_DelSig_1_CFG1_DSM_CR17,
  67:.\Generated_Source\PSoC5/ADC_DelSig_1.c ****         ADC_DelSig_1_CFG1_DSM_REF0,
  68:.\Generated_Source\PSoC5/ADC_DelSig_1.c ****         ADC_DelSig_1_CFG1_DSM_BUF0,
  69:.\Generated_Source\PSoC5/ADC_DelSig_1.c ****         ADC_DelSig_1_CFG1_DSM_BUF1,
  70:.\Generated_Source\PSoC5/ADC_DelSig_1.c ****         ADC_DelSig_1_CFG1_DSM_CLK,
  71:.\Generated_Source\PSoC5/ADC_DelSig_1.c ****         ADC_DelSig_1_BYPASS_DISABLED
  72:.\Generated_Source\PSoC5/ADC_DelSig_1.c ****     };
  73:.\Generated_Source\PSoC5/ADC_DelSig_1.c **** #endif /* CY_PSOC5A */
  74:.\Generated_Source\PSoC5/ADC_DelSig_1.c **** 
  75:.\Generated_Source\PSoC5/ADC_DelSig_1.c **** 
ARM GAS  C:\Users\hoangp\AppData\Local\Temp\ccZOsuqR.s 			page 4


  76:.\Generated_Source\PSoC5/ADC_DelSig_1.c **** /****************************************************************************** 
  77:.\Generated_Source\PSoC5/ADC_DelSig_1.c **** * Function Name: ADC_DelSig_1_Init
  78:.\Generated_Source\PSoC5/ADC_DelSig_1.c **** *******************************************************************************
  79:.\Generated_Source\PSoC5/ADC_DelSig_1.c **** *
  80:.\Generated_Source\PSoC5/ADC_DelSig_1.c **** * Summary:
  81:.\Generated_Source\PSoC5/ADC_DelSig_1.c **** *  Initialize component's parameters to the parameters set by user in the 
  82:.\Generated_Source\PSoC5/ADC_DelSig_1.c **** *  customizer of the component placed onto schematic. Usually called in 
  83:.\Generated_Source\PSoC5/ADC_DelSig_1.c **** * ADC_DelSig_1_Start().
  84:.\Generated_Source\PSoC5/ADC_DelSig_1.c **** *  
  85:.\Generated_Source\PSoC5/ADC_DelSig_1.c **** *
  86:.\Generated_Source\PSoC5/ADC_DelSig_1.c **** * Parameters:  
  87:.\Generated_Source\PSoC5/ADC_DelSig_1.c **** *  void
  88:.\Generated_Source\PSoC5/ADC_DelSig_1.c **** *
  89:.\Generated_Source\PSoC5/ADC_DelSig_1.c **** * Return: 
  90:.\Generated_Source\PSoC5/ADC_DelSig_1.c **** *  void 
  91:.\Generated_Source\PSoC5/ADC_DelSig_1.c **** *
  92:.\Generated_Source\PSoC5/ADC_DelSig_1.c **** *******************************************************************************/
  93:.\Generated_Source\PSoC5/ADC_DelSig_1.c **** void ADC_DelSig_1_Init(void) 
  94:.\Generated_Source\PSoC5/ADC_DelSig_1.c **** {
  93              		.loc 1 94 0
  94              		.cfi_startproc
  95              		@ args = 0, pretend = 0, frame = 0
  96              		@ frame_needed = 1, uses_anonymous_args = 0
  97 0000 80B5     		push	{r7, lr}
  98              	.LCFI0:
  99              		.cfi_def_cfa_offset 8
 100 0002 00AF     		add	r7, sp, #0
 101              		.cfi_offset 14, -4
 102              		.cfi_offset 7, -8
 103              	.LCFI1:
 104              		.cfi_def_cfa_register 7
  95:.\Generated_Source\PSoC5/ADC_DelSig_1.c ****     /* Initialize the registers with default customizer settings for config1 */
  96:.\Generated_Source\PSoC5/ADC_DelSig_1.c ****     ADC_DelSig_1_InitConfig(1);
 105              		.loc 1 96 0
 106 0004 4FF00100 		mov	r0, #1
 107 0008 FFF7FEFF 		bl	ADC_DelSig_1_InitConfig
  97:.\Generated_Source\PSoC5/ADC_DelSig_1.c **** 
  98:.\Generated_Source\PSoC5/ADC_DelSig_1.c ****     /* This is only valid if there is an internal clock */
  99:.\Generated_Source\PSoC5/ADC_DelSig_1.c ****     #if(ADC_DelSig_1_DEFAULT_INTERNAL_CLK)
 100:.\Generated_Source\PSoC5/ADC_DelSig_1.c ****         ADC_DelSig_1_theACLK_SetMode(CYCLK_DUTY);
 108              		.loc 1 100 0
 109 000c 4FF01000 		mov	r0, #16
 110 0010 FFF7FEFF 		bl	ADC_DelSig_1_theACLK_SetModeRegister
 101:.\Generated_Source\PSoC5/ADC_DelSig_1.c ****     #endif /* ADC_DelSig_1_DEFAULT_INTERNAL_CLK */
 102:.\Generated_Source\PSoC5/ADC_DelSig_1.c ****     
 103:.\Generated_Source\PSoC5/ADC_DelSig_1.c ****     /* Set the duty cycle for charge pump clock */
 104:.\Generated_Source\PSoC5/ADC_DelSig_1.c ****     ADC_DelSig_1_Ext_CP_Clk_SetMode(CYCLK_DUTY);
 111              		.loc 1 104 0
 112 0014 4FF01000 		mov	r0, #16
 113 0018 FFF7FEFF 		bl	ADC_DelSig_1_Ext_CP_Clk_SetModeRegister
 105:.\Generated_Source\PSoC5/ADC_DelSig_1.c **** 
 106:.\Generated_Source\PSoC5/ADC_DelSig_1.c ****     /* To perform ADC calibration */
 107:.\Generated_Source\PSoC5/ADC_DelSig_1.c ****     ADC_DelSig_1_GainCompensation(ADC_DelSig_1_CFG1_RANGE, 
 114              		.loc 1 107 0
 115 001c 4FF00400 		mov	r0, #4
 116 0020 48F6B651 		movw	r1, #36278
 117 0024 47F60602 		movw	r2, #30726
ARM GAS  C:\Users\hoangp\AppData\Local\Temp\ccZOsuqR.s 			page 5


 118 0028 4FF00A03 		mov	r3, #10
 119 002c FFF7FEFF 		bl	ADC_DelSig_1_GainCompensation
 108:.\Generated_Source\PSoC5/ADC_DelSig_1.c ****                                       ADC_DelSig_1_CFG1_IDEAL_DEC_GAIN, 
 109:.\Generated_Source\PSoC5/ADC_DelSig_1.c ****                                       ADC_DelSig_1_CFG1_IDEAL_ODDDEC_GAIN, 
 110:.\Generated_Source\PSoC5/ADC_DelSig_1.c ****                                       ADC_DelSig_1_CFG1_RESOLUTION);        
 111:.\Generated_Source\PSoC5/ADC_DelSig_1.c **** }
 120              		.loc 1 111 0
 121 0030 80BD     		pop	{r7, pc}
 122              		.cfi_endproc
 123              	.LFE0:
 124              		.size	ADC_DelSig_1_Init, .-ADC_DelSig_1_Init
 125 0032 00BF     		.section	.text.ADC_DelSig_1_Enable,"ax",%progbits
 126              		.align	2
 127              		.global	ADC_DelSig_1_Enable
 128              		.thumb
 129              		.thumb_func
 130              		.type	ADC_DelSig_1_Enable, %function
 131              	ADC_DelSig_1_Enable:
 132              	.LFB1:
 112:.\Generated_Source\PSoC5/ADC_DelSig_1.c **** 
 113:.\Generated_Source\PSoC5/ADC_DelSig_1.c **** 
 114:.\Generated_Source\PSoC5/ADC_DelSig_1.c **** /******************************************************************************
 115:.\Generated_Source\PSoC5/ADC_DelSig_1.c **** * Function Name: ADC_DelSig_1_Enable
 116:.\Generated_Source\PSoC5/ADC_DelSig_1.c **** *******************************************************************************
 117:.\Generated_Source\PSoC5/ADC_DelSig_1.c **** *
 118:.\Generated_Source\PSoC5/ADC_DelSig_1.c **** * Summary: 
 119:.\Generated_Source\PSoC5/ADC_DelSig_1.c **** *  Enables the ADC DelSig block operation.
 120:.\Generated_Source\PSoC5/ADC_DelSig_1.c **** *  
 121:.\Generated_Source\PSoC5/ADC_DelSig_1.c **** *
 122:.\Generated_Source\PSoC5/ADC_DelSig_1.c **** * Parameters:  
 123:.\Generated_Source\PSoC5/ADC_DelSig_1.c **** *  void
 124:.\Generated_Source\PSoC5/ADC_DelSig_1.c **** *
 125:.\Generated_Source\PSoC5/ADC_DelSig_1.c **** * Return: 
 126:.\Generated_Source\PSoC5/ADC_DelSig_1.c **** *  void 
 127:.\Generated_Source\PSoC5/ADC_DelSig_1.c **** *
 128:.\Generated_Source\PSoC5/ADC_DelSig_1.c **** *******************************************************************************/
 129:.\Generated_Source\PSoC5/ADC_DelSig_1.c **** void ADC_DelSig_1_Enable(void) 
 130:.\Generated_Source\PSoC5/ADC_DelSig_1.c **** {
 133              		.loc 1 130 0
 134              		.cfi_startproc
 135              		@ args = 0, pretend = 0, frame = 0
 136              		@ frame_needed = 1, uses_anonymous_args = 0
 137 0000 80B5     		push	{r7, lr}
 138              	.LCFI2:
 139              		.cfi_def_cfa_offset 8
 140 0002 00AF     		add	r7, sp, #0
 141              		.cfi_offset 14, -4
 142              		.cfi_offset 7, -8
 143              	.LCFI3:
 144              		.cfi_def_cfa_register 7
 131:.\Generated_Source\PSoC5/ADC_DelSig_1.c ****     /* Restore the power registers if silicon used is PSoC5A */
 132:.\Generated_Source\PSoC5/ADC_DelSig_1.c ****     #if (CY_PSOC5A)
 133:.\Generated_Source\PSoC5/ADC_DelSig_1.c ****         if(ADC_DelSig_1_restoreReg && 
 145              		.loc 1 133 0
 146 0004 40F20003 		movw	r3, #:lower16:ADC_DelSig_1_restoreReg
 147 0008 C0F20003 		movt	r3, #:upper16:ADC_DelSig_1_restoreReg
 148 000c 1B78     		ldrb	r3, [r3, #0]	@ zero_extendqisi2
ARM GAS  C:\Users\hoangp\AppData\Local\Temp\ccZOsuqR.s 			page 6


 149 000e 002B     		cmp	r3, #0
 150 0010 0FD0     		beq	.L4
 134:.\Generated_Source\PSoC5/ADC_DelSig_1.c ****            (!(ADC_DelSig_1_powerModeBackup.bypassRestore)))
 151              		.loc 1 134 0
 152 0012 40F20003 		movw	r3, #:lower16:ADC_DelSig_1_powerModeBackup
 153 0016 C0F20003 		movt	r3, #:upper16:ADC_DelSig_1_powerModeBackup
 154 001a 1B7A     		ldrb	r3, [r3, #8]	@ zero_extendqisi2
 155              		.loc 1 133 0
 156 001c 002B     		cmp	r3, #0
 157 001e 08D1     		bne	.L4
 135:.\Generated_Source\PSoC5/ADC_DelSig_1.c ****         {
 136:.\Generated_Source\PSoC5/ADC_DelSig_1.c ****             ADC_DelSig_1_RestorePowerRegisters();
 158              		.loc 1 136 0
 159 0020 FFF7FEFF 		bl	ADC_DelSig_1_RestorePowerRegisters
 137:.\Generated_Source\PSoC5/ADC_DelSig_1.c ****             ADC_DelSig_1_restoreReg = 0u;
 160              		.loc 1 137 0
 161 0024 40F20003 		movw	r3, #:lower16:ADC_DelSig_1_restoreReg
 162 0028 C0F20003 		movt	r3, #:upper16:ADC_DelSig_1_restoreReg
 163 002c 4FF00002 		mov	r2, #0
 164 0030 1A70     		strb	r2, [r3, #0]
 165              	.L4:
 138:.\Generated_Source\PSoC5/ADC_DelSig_1.c ****         }
 139:.\Generated_Source\PSoC5/ADC_DelSig_1.c ****         ADC_DelSig_1_powerModeBackup.bypassRestore = ADC_DelSig_1_BYPASS_DISABLED;
 166              		.loc 1 139 0
 167 0032 40F20003 		movw	r3, #:lower16:ADC_DelSig_1_powerModeBackup
 168 0036 C0F20003 		movt	r3, #:upper16:ADC_DelSig_1_powerModeBackup
 169 003a 4FF00002 		mov	r2, #0
 170 003e 1A72     		strb	r2, [r3, #8]
 140:.\Generated_Source\PSoC5/ADC_DelSig_1.c ****     #endif /* CY_PSOC5A */
 141:.\Generated_Source\PSoC5/ADC_DelSig_1.c **** 
 142:.\Generated_Source\PSoC5/ADC_DelSig_1.c ****     /* Enable active mode power for ADC */
 143:.\Generated_Source\PSoC5/ADC_DelSig_1.c ****     ADC_DelSig_1_PWRMGR_DEC_REG |= ADC_DelSig_1_ACT_PWR_DEC_EN;
 171              		.loc 1 143 0
 172 0040 44F2AA33 		movw	r3, #:lower16:1073759146
 173 0044 C4F20003 		movt	r3, #:upper16:1073759146
 174 0048 44F2AA32 		movw	r2, #:lower16:1073759146
 175 004c C4F20002 		movt	r2, #:upper16:1073759146
 176 0050 1278     		ldrb	r2, [r2, #0]
 177 0052 D2B2     		uxtb	r2, r2
 178 0054 42F00102 		orr	r2, r2, #1
 179 0058 D2B2     		uxtb	r2, r2
 180 005a 1A70     		strb	r2, [r3, #0]
 144:.\Generated_Source\PSoC5/ADC_DelSig_1.c ****     ADC_DelSig_1_PWRMGR_DSM_REG |= ADC_DelSig_1_ACT_PWR_DSM_EN;
 181              		.loc 1 144 0
 182 005c 44F2C533 		movw	r3, #:lower16:1073759173
 183 0060 C4F20003 		movt	r3, #:upper16:1073759173
 184 0064 44F2C532 		movw	r2, #:lower16:1073759173
 185 0068 C4F20002 		movt	r2, #:upper16:1073759173
 186 006c 1278     		ldrb	r2, [r2, #0]
 187 006e D2B2     		uxtb	r2, r2
 188 0070 42F00102 		orr	r2, r2, #1
 189 0074 D2B2     		uxtb	r2, r2
 190 0076 1A70     		strb	r2, [r3, #0]
 145:.\Generated_Source\PSoC5/ADC_DelSig_1.c ****     
 146:.\Generated_Source\PSoC5/ADC_DelSig_1.c ****      /* Enable alternative active mode power for ADC */
 147:.\Generated_Source\PSoC5/ADC_DelSig_1.c ****     ADC_DelSig_1_STBY_PWRMGR_DEC_REG |= ADC_DelSig_1_STBY_PWR_DEC_EN;
 191              		.loc 1 147 0
ARM GAS  C:\Users\hoangp\AppData\Local\Temp\ccZOsuqR.s 			page 7


 192 0078 44F2BA33 		movw	r3, #:lower16:1073759162
 193 007c C4F20003 		movt	r3, #:upper16:1073759162
 194 0080 44F2BA32 		movw	r2, #:lower16:1073759162
 195 0084 C4F20002 		movt	r2, #:upper16:1073759162
 196 0088 1278     		ldrb	r2, [r2, #0]
 197 008a D2B2     		uxtb	r2, r2
 198 008c 42F00102 		orr	r2, r2, #1
 199 0090 D2B2     		uxtb	r2, r2
 200 0092 1A70     		strb	r2, [r3, #0]
 148:.\Generated_Source\PSoC5/ADC_DelSig_1.c ****     #if (CY_PSOC3 || CY_PSOC5LP)
 149:.\Generated_Source\PSoC5/ADC_DelSig_1.c ****     ADC_DelSig_1_STBY_PWRMGR_DSM_REG |= ADC_DelSig_1_STBY_PWR_DSM_EN;
 150:.\Generated_Source\PSoC5/ADC_DelSig_1.c ****     #endif /* CY_PSOC3 || CY_PSOC5LP */
 151:.\Generated_Source\PSoC5/ADC_DelSig_1.c **** 
 152:.\Generated_Source\PSoC5/ADC_DelSig_1.c ****     /* Config selected is 1, then before enablign the REFBUF0, REFBUF1 and 
 153:.\Generated_Source\PSoC5/ADC_DelSig_1.c **** 	   VCMBUF's enable and press circuit and then after a delay of 3
 154:.\Generated_Source\PSoC5/ADC_DelSig_1.c **** 	   microseconds, disable the press circuit. */
 155:.\Generated_Source\PSoC5/ADC_DelSig_1.c ****     if (ADC_DelSig_1_Config == 1u)
 201              		.loc 1 155 0
 202 0094 40F20003 		movw	r3, #:lower16:ADC_DelSig_1_Config
 203 0098 C0F20003 		movt	r3, #:upper16:ADC_DelSig_1_Config
 204 009c 1B78     		ldrb	r3, [r3, #0]
 205 009e DBB2     		uxtb	r3, r3
 206 00a0 012B     		cmp	r3, #1
 207 00a2 47D1     		bne	.L5
 156:.\Generated_Source\PSoC5/ADC_DelSig_1.c **** 	{
 157:.\Generated_Source\PSoC5/ADC_DelSig_1.c **** 	    /* Disable PRES, Enable power to VCMBUF0, REFBUF0 and REFBUF1, enable 
 158:.\Generated_Source\PSoC5/ADC_DelSig_1.c **** 	       PRES */
 159:.\Generated_Source\PSoC5/ADC_DelSig_1.c **** 	    #if (CY_PSOC3 || CY_PSOC5LP)
 160:.\Generated_Source\PSoC5/ADC_DelSig_1.c **** 	        ADC_DelSig_1_RESET_CR4_REG |= ADC_DelSig_1_IGNORE_PRESA1;
 161:.\Generated_Source\PSoC5/ADC_DelSig_1.c **** 	        ADC_DelSig_1_RESET_CR5_REG |= ADC_DelSig_1_IGNORE_PRESA2;
 162:.\Generated_Source\PSoC5/ADC_DelSig_1.c **** 	    #elif (CY_PSOC5A)
 163:.\Generated_Source\PSoC5/ADC_DelSig_1.c **** 	        ADC_DelSig_1_RESET_CR1_REG |= ADC_DelSig_1_DIS_PRES1;
 208              		.loc 1 163 0
 209 00a4 44F2F563 		movw	r3, #:lower16:1073759989
 210 00a8 C4F20003 		movt	r3, #:upper16:1073759989
 211 00ac 44F2F562 		movw	r2, #:lower16:1073759989
 212 00b0 C4F20002 		movt	r2, #:upper16:1073759989
 213 00b4 1278     		ldrb	r2, [r2, #0]
 214 00b6 D2B2     		uxtb	r2, r2
 215 00b8 42F01002 		orr	r2, r2, #16
 216 00bc D2B2     		uxtb	r2, r2
 217 00be 1A70     		strb	r2, [r3, #0]
 164:.\Generated_Source\PSoC5/ADC_DelSig_1.c **** 	        ADC_DelSig_1_RESET_CR3_REG |= ADC_DelSig_1_DIS_PRES2;
 218              		.loc 1 164 0
 219 00c0 44F2F763 		movw	r3, #:lower16:1073759991
 220 00c4 C4F20003 		movt	r3, #:upper16:1073759991
 221 00c8 44F2F762 		movw	r2, #:lower16:1073759991
 222 00cc C4F20002 		movt	r2, #:upper16:1073759991
 223 00d0 1278     		ldrb	r2, [r2, #0]
 224 00d2 D2B2     		uxtb	r2, r2
 225 00d4 42F00802 		orr	r2, r2, #8
 226 00d8 D2B2     		uxtb	r2, r2
 227 00da 1A70     		strb	r2, [r3, #0]
 165:.\Generated_Source\PSoC5/ADC_DelSig_1.c **** 	    #endif /* CY_PSOC5A */
 166:.\Generated_Source\PSoC5/ADC_DelSig_1.c **** 	    
 167:.\Generated_Source\PSoC5/ADC_DelSig_1.c **** 	    ADC_DelSig_1_DSM_CR17_REG |= (ADC_DelSig_1_DSM_EN_BUF_VREF | ADC_DelSig_1_DSM_EN_BUF_VCM);
 228              		.loc 1 167 0
ARM GAS  C:\Users\hoangp\AppData\Local\Temp\ccZOsuqR.s 			page 8


 229 00dc 45F69103 		movw	r3, #:lower16:1073764497
 230 00e0 C4F20003 		movt	r3, #:upper16:1073764497
 231 00e4 45F69102 		movw	r2, #:lower16:1073764497
 232 00e8 C4F20002 		movt	r2, #:upper16:1073764497
 233 00ec 1278     		ldrb	r2, [r2, #0]
 234 00ee D2B2     		uxtb	r2, r2
 235 00f0 42F00302 		orr	r2, r2, #3
 236 00f4 D2B2     		uxtb	r2, r2
 237 00f6 1A70     		strb	r2, [r3, #0]
 168:.\Generated_Source\PSoC5/ADC_DelSig_1.c **** 	    #if ((ADC_DelSig_1_CFG1_REFERENCE == ADC_DelSig_1_EXT_REF_ON_P03) || \
 169:.\Generated_Source\PSoC5/ADC_DelSig_1.c **** 	         (ADC_DelSig_1_CFG1_REFERENCE == ADC_DelSig_1_EXT_REF_ON_P32))
 170:.\Generated_Source\PSoC5/ADC_DelSig_1.c **** 	        ADC_DelSig_1_DSM_CR17_REG &= ~ADC_DelSig_1_DSM_EN_BUF_VREF;
 171:.\Generated_Source\PSoC5/ADC_DelSig_1.c **** 	    #endif /* Check for exteranl reference option */
 172:.\Generated_Source\PSoC5/ADC_DelSig_1.c **** 	    #if ((ADC_DelSig_1_CFG1_RANGE == ADC_DelSig_1_IR_VSSA_TO_2VREF) && \
 173:.\Generated_Source\PSoC5/ADC_DelSig_1.c **** 	          (CY_PSOC3 || CY_PSOC5LP) && \
 174:.\Generated_Source\PSoC5/ADC_DelSig_1.c **** 	          ((ADC_DelSig_1_CFG1_REFERENCE != ADC_DelSig_1_EXT_REF_ON_P03) && \
 175:.\Generated_Source\PSoC5/ADC_DelSig_1.c **** 	         (ADC_DelSig_1_CFG1_REFERENCE != ADC_DelSig_1_EXT_REF_ON_P32)))
 176:.\Generated_Source\PSoC5/ADC_DelSig_1.c **** 	        ADC_DelSig_1_DSM_REF0_REG |= ADC_DelSig_1_DSM_EN_BUF_VREF_INN;
 177:.\Generated_Source\PSoC5/ADC_DelSig_1.c **** 	    #endif /* ADC_DelSig_1_IR_VSSA_TO_2VREF */
 178:.\Generated_Source\PSoC5/ADC_DelSig_1.c **** 	    
 179:.\Generated_Source\PSoC5/ADC_DelSig_1.c **** 	        /* Wait for 3 microseconds */
 180:.\Generated_Source\PSoC5/ADC_DelSig_1.c **** 	    CyDelayUs(3);
 238              		.loc 1 180 0
 239 00f8 4FF00300 		mov	r0, #3
 240 00fc FFF7FEFF 		bl	CyDelayUs
 181:.\Generated_Source\PSoC5/ADC_DelSig_1.c ****         /* Enable the press circuit */
 182:.\Generated_Source\PSoC5/ADC_DelSig_1.c **** 	    #if (CY_PSOC3 || CY_PSOC5LP)
 183:.\Generated_Source\PSoC5/ADC_DelSig_1.c **** 	        ADC_DelSig_1_RESET_CR4_REG &= ~ADC_DelSig_1_IGNORE_PRESA1;
 184:.\Generated_Source\PSoC5/ADC_DelSig_1.c **** 	        ADC_DelSig_1_RESET_CR5_REG &= ~ADC_DelSig_1_IGNORE_PRESA2;
 185:.\Generated_Source\PSoC5/ADC_DelSig_1.c **** 	    #elif (CY_PSOC5A)
 186:.\Generated_Source\PSoC5/ADC_DelSig_1.c **** 	        ADC_DelSig_1_RESET_CR1_REG &= ~ADC_DelSig_1_DIS_PRES1;
 241              		.loc 1 186 0
 242 0100 44F2F563 		movw	r3, #:lower16:1073759989
 243 0104 C4F20003 		movt	r3, #:upper16:1073759989
 244 0108 44F2F562 		movw	r2, #:lower16:1073759989
 245 010c C4F20002 		movt	r2, #:upper16:1073759989
 246 0110 1278     		ldrb	r2, [r2, #0]
 247 0112 D2B2     		uxtb	r2, r2
 248 0114 02F0EF02 		and	r2, r2, #239
 249 0118 1A70     		strb	r2, [r3, #0]
 187:.\Generated_Source\PSoC5/ADC_DelSig_1.c **** 	        ADC_DelSig_1_RESET_CR3_REG &= ~ADC_DelSig_1_DIS_PRES2;
 250              		.loc 1 187 0
 251 011a 44F2F763 		movw	r3, #:lower16:1073759991
 252 011e C4F20003 		movt	r3, #:upper16:1073759991
 253 0122 44F2F762 		movw	r2, #:lower16:1073759991
 254 0126 C4F20002 		movt	r2, #:upper16:1073759991
 255 012a 1278     		ldrb	r2, [r2, #0]
 256 012c D2B2     		uxtb	r2, r2
 257 012e 02F0F702 		and	r2, r2, #247
 258 0132 1A70     		strb	r2, [r3, #0]
 259              	.L5:
 188:.\Generated_Source\PSoC5/ADC_DelSig_1.c **** 	    #endif /* CY_PSOC5A */
 189:.\Generated_Source\PSoC5/ADC_DelSig_1.c **** 	}
 190:.\Generated_Source\PSoC5/ADC_DelSig_1.c ****     
 191:.\Generated_Source\PSoC5/ADC_DelSig_1.c ****     /* Enable negative pumps for DSM  */
 192:.\Generated_Source\PSoC5/ADC_DelSig_1.c ****     ADC_DelSig_1_PUMP_CR1_REG  |= ( ADC_DelSig_1_PUMP_CR1_CLKSEL | ADC_DelSig_1_PUMP_CR1_FORCE );
 260              		.loc 1 192 0
ARM GAS  C:\Users\hoangp\AppData\Local\Temp\ccZOsuqR.s 			page 9


 261 0134 45F67703 		movw	r3, #:lower16:1073764471
 262 0138 C4F20003 		movt	r3, #:upper16:1073764471
 263 013c 45F67702 		movw	r2, #:lower16:1073764471
 264 0140 C4F20002 		movt	r2, #:upper16:1073764471
 265 0144 1278     		ldrb	r2, [r2, #0]
 266 0146 D2B2     		uxtb	r2, r2
 267 0148 42F00602 		orr	r2, r2, #6
 268 014c D2B2     		uxtb	r2, r2
 269 014e 1A70     		strb	r2, [r3, #0]
 193:.\Generated_Source\PSoC5/ADC_DelSig_1.c ****  
 194:.\Generated_Source\PSoC5/ADC_DelSig_1.c ****     /* This is only valid if there is an internal clock */
 195:.\Generated_Source\PSoC5/ADC_DelSig_1.c ****     #if(ADC_DelSig_1_DEFAULT_INTERNAL_CLK)
 196:.\Generated_Source\PSoC5/ADC_DelSig_1.c ****         ADC_DelSig_1_PWRMGR_CLK_REG |= ADC_DelSig_1_ACT_PWR_CLK_EN;        
 270              		.loc 1 196 0
 271 0150 44F2A133 		movw	r3, #:lower16:1073759137
 272 0154 C4F20003 		movt	r3, #:upper16:1073759137
 273 0158 44F2A132 		movw	r2, #:lower16:1073759137
 274 015c C4F20002 		movt	r2, #:upper16:1073759137
 275 0160 1278     		ldrb	r2, [r2, #0]
 276 0162 D2B2     		uxtb	r2, r2
 277 0164 42F00402 		orr	r2, r2, #4
 278 0168 D2B2     		uxtb	r2, r2
 279 016a 1A70     		strb	r2, [r3, #0]
 197:.\Generated_Source\PSoC5/ADC_DelSig_1.c ****         ADC_DelSig_1_STBY_PWRMGR_CLK_REG |= ADC_DelSig_1_STBY_PWR_CLK_EN;
 280              		.loc 1 197 0
 281 016c 44F2B133 		movw	r3, #:lower16:1073759153
 282 0170 C4F20003 		movt	r3, #:upper16:1073759153
 283 0174 44F2B132 		movw	r2, #:lower16:1073759153
 284 0178 C4F20002 		movt	r2, #:upper16:1073759153
 285 017c 1278     		ldrb	r2, [r2, #0]
 286 017e D2B2     		uxtb	r2, r2
 287 0180 42F00402 		orr	r2, r2, #4
 288 0184 D2B2     		uxtb	r2, r2
 289 0186 1A70     		strb	r2, [r3, #0]
 198:.\Generated_Source\PSoC5/ADC_DelSig_1.c ****     #endif /* ADC_DelSig_1_DEFAULT_INTERNAL_CLK */
 199:.\Generated_Source\PSoC5/ADC_DelSig_1.c ****     
 200:.\Generated_Source\PSoC5/ADC_DelSig_1.c ****     /* Enable the active and alternate active power for charge pump clock */
 201:.\Generated_Source\PSoC5/ADC_DelSig_1.c ****     ADC_DelSig_1_PWRMGR_CHARGE_PUMP_CLK_REG |= ADC_DelSig_1_ACT_PWR_CHARGE_PUMP_CLK_EN;
 290              		.loc 1 201 0
 291 0188 44F2A233 		movw	r3, #:lower16:1073759138
 292 018c C4F20003 		movt	r3, #:upper16:1073759138
 293 0190 44F2A232 		movw	r2, #:lower16:1073759138
 294 0194 C4F20002 		movt	r2, #:upper16:1073759138
 295 0198 1278     		ldrb	r2, [r2, #0]
 296 019a D2B2     		uxtb	r2, r2
 297 019c 42F00202 		orr	r2, r2, #2
 298 01a0 D2B2     		uxtb	r2, r2
 299 01a2 1A70     		strb	r2, [r3, #0]
 202:.\Generated_Source\PSoC5/ADC_DelSig_1.c ****     ADC_DelSig_1_STBY_PWRMGR_CHARGE_PUMP_CLK_REG |= ADC_DelSig_1_STBY_PWR_CHARGE_PUMP_CLK_EN;
 300              		.loc 1 202 0
 301 01a4 44F2B233 		movw	r3, #:lower16:1073759154
 302 01a8 C4F20003 		movt	r3, #:upper16:1073759154
 303 01ac 44F2B232 		movw	r2, #:lower16:1073759154
 304 01b0 C4F20002 		movt	r2, #:upper16:1073759154
 305 01b4 1278     		ldrb	r2, [r2, #0]
 306 01b6 D2B2     		uxtb	r2, r2
 307 01b8 42F00202 		orr	r2, r2, #2
ARM GAS  C:\Users\hoangp\AppData\Local\Temp\ccZOsuqR.s 			page 10


 308 01bc D2B2     		uxtb	r2, r2
 309 01be 1A70     		strb	r2, [r3, #0]
 203:.\Generated_Source\PSoC5/ADC_DelSig_1.c ****         
 204:.\Generated_Source\PSoC5/ADC_DelSig_1.c **** }
 310              		.loc 1 204 0
 311 01c0 80BD     		pop	{r7, pc}
 312              		.cfi_endproc
 313              	.LFE1:
 314              		.size	ADC_DelSig_1_Enable, .-ADC_DelSig_1_Enable
 315 01c2 00BF     		.section	.text.ADC_DelSig_1_RestorePowerRegisters,"ax",%progbits
 316              		.align	2
 317              		.global	ADC_DelSig_1_RestorePowerRegisters
 318              		.thumb
 319              		.thumb_func
 320              		.type	ADC_DelSig_1_RestorePowerRegisters, %function
 321              	ADC_DelSig_1_RestorePowerRegisters:
 322              	.LFB2:
 205:.\Generated_Source\PSoC5/ADC_DelSig_1.c **** 
 206:.\Generated_Source\PSoC5/ADC_DelSig_1.c **** 
 207:.\Generated_Source\PSoC5/ADC_DelSig_1.c **** #if (CY_PSOC5A) /* valid only for PSoC5A silicon */
 208:.\Generated_Source\PSoC5/ADC_DelSig_1.c ****     /******************************************************************************* 
 209:.\Generated_Source\PSoC5/ADC_DelSig_1.c ****     * Function Name: ADC_DelSig_1_RestorePowerRegisters
 210:.\Generated_Source\PSoC5/ADC_DelSig_1.c ****     ********************************************************************************
 211:.\Generated_Source\PSoC5/ADC_DelSig_1.c ****     *
 212:.\Generated_Source\PSoC5/ADC_DelSig_1.c ****     * Summary: 
 213:.\Generated_Source\PSoC5/ADC_DelSig_1.c ****     *  Restores the power registers on calling Start() API. This API is only 
 214:.\Generated_Source\PSoC5/ADC_DelSig_1.c ****     *   for internal use and valid only for PSoC5A.
 215:.\Generated_Source\PSoC5/ADC_DelSig_1.c ****     *  
 216:.\Generated_Source\PSoC5/ADC_DelSig_1.c ****     *
 217:.\Generated_Source\PSoC5/ADC_DelSig_1.c ****     * Parameters:  
 218:.\Generated_Source\PSoC5/ADC_DelSig_1.c ****     *  void
 219:.\Generated_Source\PSoC5/ADC_DelSig_1.c ****     *
 220:.\Generated_Source\PSoC5/ADC_DelSig_1.c ****     * Return: 
 221:.\Generated_Source\PSoC5/ADC_DelSig_1.c ****     *  void 
 222:.\Generated_Source\PSoC5/ADC_DelSig_1.c ****     *
 223:.\Generated_Source\PSoC5/ADC_DelSig_1.c ****     ***************************************************************************/
 224:.\Generated_Source\PSoC5/ADC_DelSig_1.c ****     void ADC_DelSig_1_RestorePowerRegisters(void) 
 225:.\Generated_Source\PSoC5/ADC_DelSig_1.c ****     {
 323              		.loc 1 225 0
 324              		.cfi_startproc
 325              		@ args = 0, pretend = 0, frame = 0
 326              		@ frame_needed = 1, uses_anonymous_args = 0
 327              		@ link register save eliminated.
 328 0000 80B4     		push	{r7}
 329              	.LCFI4:
 330              		.cfi_def_cfa_offset 4
 331 0002 00AF     		add	r7, sp, #0
 332              		.cfi_offset 7, -4
 333              	.LCFI5:
 334              		.cfi_def_cfa_register 7
 226:.\Generated_Source\PSoC5/ADC_DelSig_1.c ****         ADC_DelSig_1_DSM_CR14_REG = ADC_DelSig_1_powerModeBackup.DSM_CR_14;
 335              		.loc 1 226 0
 336 0004 45F68E03 		movw	r3, #:lower16:1073764494
 337 0008 C4F20003 		movt	r3, #:upper16:1073764494
 338 000c 40F20002 		movw	r2, #:lower16:ADC_DelSig_1_powerModeBackup
 339 0010 C0F20002 		movt	r2, #:upper16:ADC_DelSig_1_powerModeBackup
 340 0014 1278     		ldrb	r2, [r2, #0]	@ zero_extendqisi2
ARM GAS  C:\Users\hoangp\AppData\Local\Temp\ccZOsuqR.s 			page 11


 341 0016 1A70     		strb	r2, [r3, #0]
 227:.\Generated_Source\PSoC5/ADC_DelSig_1.c ****         ADC_DelSig_1_DSM_CR15_REG = ADC_DelSig_1_powerModeBackup.DSM_CR_15;
 342              		.loc 1 227 0
 343 0018 45F68F03 		movw	r3, #:lower16:1073764495
 344 001c C4F20003 		movt	r3, #:upper16:1073764495
 345 0020 40F20002 		movw	r2, #:lower16:ADC_DelSig_1_powerModeBackup
 346 0024 C0F20002 		movt	r2, #:upper16:ADC_DelSig_1_powerModeBackup
 347 0028 5278     		ldrb	r2, [r2, #1]	@ zero_extendqisi2
 348 002a 1A70     		strb	r2, [r3, #0]
 228:.\Generated_Source\PSoC5/ADC_DelSig_1.c ****         ADC_DelSig_1_DSM_CR16_REG = ADC_DelSig_1_powerModeBackup.DSM_CR_16;
 349              		.loc 1 228 0
 350 002c 45F69003 		movw	r3, #:lower16:1073764496
 351 0030 C4F20003 		movt	r3, #:upper16:1073764496
 352 0034 40F20002 		movw	r2, #:lower16:ADC_DelSig_1_powerModeBackup
 353 0038 C0F20002 		movt	r2, #:upper16:ADC_DelSig_1_powerModeBackup
 354 003c 9278     		ldrb	r2, [r2, #2]	@ zero_extendqisi2
 355 003e 1A70     		strb	r2, [r3, #0]
 229:.\Generated_Source\PSoC5/ADC_DelSig_1.c ****         ADC_DelSig_1_DSM_CR17_REG = ADC_DelSig_1_powerModeBackup.DSM_CR_17;
 356              		.loc 1 229 0
 357 0040 45F69103 		movw	r3, #:lower16:1073764497
 358 0044 C4F20003 		movt	r3, #:upper16:1073764497
 359 0048 40F20002 		movw	r2, #:lower16:ADC_DelSig_1_powerModeBackup
 360 004c C0F20002 		movt	r2, #:upper16:ADC_DelSig_1_powerModeBackup
 361 0050 D278     		ldrb	r2, [r2, #3]	@ zero_extendqisi2
 362 0052 1A70     		strb	r2, [r3, #0]
 230:.\Generated_Source\PSoC5/ADC_DelSig_1.c ****         ADC_DelSig_1_DSM_REF0_REG = ADC_DelSig_1_powerModeBackup.DSM_REF0;
 363              		.loc 1 230 0
 364 0054 45F69203 		movw	r3, #:lower16:1073764498
 365 0058 C4F20003 		movt	r3, #:upper16:1073764498
 366 005c 40F20002 		movw	r2, #:lower16:ADC_DelSig_1_powerModeBackup
 367 0060 C0F20002 		movt	r2, #:upper16:ADC_DelSig_1_powerModeBackup
 368 0064 1279     		ldrb	r2, [r2, #4]	@ zero_extendqisi2
 369 0066 1A70     		strb	r2, [r3, #0]
 231:.\Generated_Source\PSoC5/ADC_DelSig_1.c ****         ADC_DelSig_1_DSM_BUF0_REG = ADC_DelSig_1_powerModeBackup.DSM_BUF0;
 370              		.loc 1 231 0
 371 0068 45F69A03 		movw	r3, #:lower16:1073764506
 372 006c C4F20003 		movt	r3, #:upper16:1073764506
 373 0070 40F20002 		movw	r2, #:lower16:ADC_DelSig_1_powerModeBackup
 374 0074 C0F20002 		movt	r2, #:upper16:ADC_DelSig_1_powerModeBackup
 375 0078 5279     		ldrb	r2, [r2, #5]	@ zero_extendqisi2
 376 007a 1A70     		strb	r2, [r3, #0]
 232:.\Generated_Source\PSoC5/ADC_DelSig_1.c ****         ADC_DelSig_1_DSM_BUF1_REG = ADC_DelSig_1_powerModeBackup.DSM_BUF1;
 377              		.loc 1 232 0
 378 007c 45F69B03 		movw	r3, #:lower16:1073764507
 379 0080 C4F20003 		movt	r3, #:upper16:1073764507
 380 0084 40F20002 		movw	r2, #:lower16:ADC_DelSig_1_powerModeBackup
 381 0088 C0F20002 		movt	r2, #:upper16:ADC_DelSig_1_powerModeBackup
 382 008c 9279     		ldrb	r2, [r2, #6]	@ zero_extendqisi2
 383 008e 1A70     		strb	r2, [r3, #0]
 233:.\Generated_Source\PSoC5/ADC_DelSig_1.c ****         ADC_DelSig_1_DSM_CLK_REG = ADC_DelSig_1_powerModeBackup.DSM_CLK;
 384              		.loc 1 233 0
 385 0090 45F60733 		movw	r3, #:lower16:1073765127
 386 0094 C4F20003 		movt	r3, #:upper16:1073765127
 387 0098 40F20002 		movw	r2, #:lower16:ADC_DelSig_1_powerModeBackup
 388 009c C0F20002 		movt	r2, #:upper16:ADC_DelSig_1_powerModeBackup
 389 00a0 D279     		ldrb	r2, [r2, #7]	@ zero_extendqisi2
 390 00a2 1A70     		strb	r2, [r3, #0]
ARM GAS  C:\Users\hoangp\AppData\Local\Temp\ccZOsuqR.s 			page 12


 234:.\Generated_Source\PSoC5/ADC_DelSig_1.c ****     }
 391              		.loc 1 234 0
 392 00a4 BD46     		mov	sp, r7
 393 00a6 80BC     		pop	{r7}
 394 00a8 7047     		bx	lr
 395              		.cfi_endproc
 396              	.LFE2:
 397              		.size	ADC_DelSig_1_RestorePowerRegisters, .-ADC_DelSig_1_RestorePowerRegisters
 398 00aa 00BF     		.section	.text.ADC_DelSig_1_SavePowerRegisters,"ax",%progbits
 399              		.align	2
 400              		.global	ADC_DelSig_1_SavePowerRegisters
 401              		.thumb
 402              		.thumb_func
 403              		.type	ADC_DelSig_1_SavePowerRegisters, %function
 404              	ADC_DelSig_1_SavePowerRegisters:
 405              	.LFB3:
 235:.\Generated_Source\PSoC5/ADC_DelSig_1.c **** 
 236:.\Generated_Source\PSoC5/ADC_DelSig_1.c **** 
 237:.\Generated_Source\PSoC5/ADC_DelSig_1.c ****     /************************************************************************** 
 238:.\Generated_Source\PSoC5/ADC_DelSig_1.c ****     * Function Name: ADC_DelSig_1_SavePowerRegisters
 239:.\Generated_Source\PSoC5/ADC_DelSig_1.c ****     ***************************************************************************
 240:.\Generated_Source\PSoC5/ADC_DelSig_1.c ****     *
 241:.\Generated_Source\PSoC5/ADC_DelSig_1.c ****     * Summary: 
 242:.\Generated_Source\PSoC5/ADC_DelSig_1.c ****     *  Save the power registers before stopping the block operation. This is 
 243:.\Generated_Source\PSoC5/ADC_DelSig_1.c ****     *  called by Stop() API. This API is only for internal use and valid only 
 244:.\Generated_Source\PSoC5/ADC_DelSig_1.c ****     *  for PSoC5A.
 245:.\Generated_Source\PSoC5/ADC_DelSig_1.c ****     *  
 246:.\Generated_Source\PSoC5/ADC_DelSig_1.c ****     *
 247:.\Generated_Source\PSoC5/ADC_DelSig_1.c ****     * Parameters:  
 248:.\Generated_Source\PSoC5/ADC_DelSig_1.c ****     *  void
 249:.\Generated_Source\PSoC5/ADC_DelSig_1.c ****     *
 250:.\Generated_Source\PSoC5/ADC_DelSig_1.c ****     * Return: 
 251:.\Generated_Source\PSoC5/ADC_DelSig_1.c ****     *  void 
 252:.\Generated_Source\PSoC5/ADC_DelSig_1.c ****     *
 253:.\Generated_Source\PSoC5/ADC_DelSig_1.c ****     **************************************************************************/
 254:.\Generated_Source\PSoC5/ADC_DelSig_1.c ****     void ADC_DelSig_1_SavePowerRegisters(void) 
 255:.\Generated_Source\PSoC5/ADC_DelSig_1.c ****     {
 406              		.loc 1 255 0
 407              		.cfi_startproc
 408              		@ args = 0, pretend = 0, frame = 0
 409              		@ frame_needed = 1, uses_anonymous_args = 0
 410              		@ link register save eliminated.
 411 0000 80B4     		push	{r7}
 412              	.LCFI6:
 413              		.cfi_def_cfa_offset 4
 414 0002 00AF     		add	r7, sp, #0
 415              		.cfi_offset 7, -4
 416              	.LCFI7:
 417              		.cfi_def_cfa_register 7
 256:.\Generated_Source\PSoC5/ADC_DelSig_1.c ****         ADC_DelSig_1_powerModeBackup.DSM_CR_14 = ADC_DelSig_1_DSM_CR14_REG;
 418              		.loc 1 256 0
 419 0004 45F68E03 		movw	r3, #:lower16:1073764494
 420 0008 C4F20003 		movt	r3, #:upper16:1073764494
 421 000c 1B78     		ldrb	r3, [r3, #0]
 422 000e DAB2     		uxtb	r2, r3
 423 0010 40F20003 		movw	r3, #:lower16:ADC_DelSig_1_powerModeBackup
 424 0014 C0F20003 		movt	r3, #:upper16:ADC_DelSig_1_powerModeBackup
ARM GAS  C:\Users\hoangp\AppData\Local\Temp\ccZOsuqR.s 			page 13


 425 0018 1A70     		strb	r2, [r3, #0]
 257:.\Generated_Source\PSoC5/ADC_DelSig_1.c ****         ADC_DelSig_1_powerModeBackup.DSM_CR_15 = ADC_DelSig_1_DSM_CR15_REG;
 426              		.loc 1 257 0
 427 001a 45F68F03 		movw	r3, #:lower16:1073764495
 428 001e C4F20003 		movt	r3, #:upper16:1073764495
 429 0022 1B78     		ldrb	r3, [r3, #0]
 430 0024 DAB2     		uxtb	r2, r3
 431 0026 40F20003 		movw	r3, #:lower16:ADC_DelSig_1_powerModeBackup
 432 002a C0F20003 		movt	r3, #:upper16:ADC_DelSig_1_powerModeBackup
 433 002e 5A70     		strb	r2, [r3, #1]
 258:.\Generated_Source\PSoC5/ADC_DelSig_1.c ****         ADC_DelSig_1_powerModeBackup.DSM_CR_16 = ADC_DelSig_1_DSM_CR16_REG;
 434              		.loc 1 258 0
 435 0030 45F69003 		movw	r3, #:lower16:1073764496
 436 0034 C4F20003 		movt	r3, #:upper16:1073764496
 437 0038 1B78     		ldrb	r3, [r3, #0]
 438 003a DAB2     		uxtb	r2, r3
 439 003c 40F20003 		movw	r3, #:lower16:ADC_DelSig_1_powerModeBackup
 440 0040 C0F20003 		movt	r3, #:upper16:ADC_DelSig_1_powerModeBackup
 441 0044 9A70     		strb	r2, [r3, #2]
 259:.\Generated_Source\PSoC5/ADC_DelSig_1.c ****         ADC_DelSig_1_powerModeBackup.DSM_CR_17 = ADC_DelSig_1_DSM_CR17_REG;
 442              		.loc 1 259 0
 443 0046 45F69103 		movw	r3, #:lower16:1073764497
 444 004a C4F20003 		movt	r3, #:upper16:1073764497
 445 004e 1B78     		ldrb	r3, [r3, #0]
 446 0050 DAB2     		uxtb	r2, r3
 447 0052 40F20003 		movw	r3, #:lower16:ADC_DelSig_1_powerModeBackup
 448 0056 C0F20003 		movt	r3, #:upper16:ADC_DelSig_1_powerModeBackup
 449 005a DA70     		strb	r2, [r3, #3]
 260:.\Generated_Source\PSoC5/ADC_DelSig_1.c ****         ADC_DelSig_1_powerModeBackup.DSM_REF0 = ADC_DelSig_1_DSM_REF0_REG;
 450              		.loc 1 260 0
 451 005c 45F69203 		movw	r3, #:lower16:1073764498
 452 0060 C4F20003 		movt	r3, #:upper16:1073764498
 453 0064 1B78     		ldrb	r3, [r3, #0]
 454 0066 DAB2     		uxtb	r2, r3
 455 0068 40F20003 		movw	r3, #:lower16:ADC_DelSig_1_powerModeBackup
 456 006c C0F20003 		movt	r3, #:upper16:ADC_DelSig_1_powerModeBackup
 457 0070 1A71     		strb	r2, [r3, #4]
 261:.\Generated_Source\PSoC5/ADC_DelSig_1.c ****         ADC_DelSig_1_powerModeBackup.DSM_BUF0 = ADC_DelSig_1_DSM_BUF0_REG;
 458              		.loc 1 261 0
 459 0072 45F69A03 		movw	r3, #:lower16:1073764506
 460 0076 C4F20003 		movt	r3, #:upper16:1073764506
 461 007a 1B78     		ldrb	r3, [r3, #0]
 462 007c DAB2     		uxtb	r2, r3
 463 007e 40F20003 		movw	r3, #:lower16:ADC_DelSig_1_powerModeBackup
 464 0082 C0F20003 		movt	r3, #:upper16:ADC_DelSig_1_powerModeBackup
 465 0086 5A71     		strb	r2, [r3, #5]
 262:.\Generated_Source\PSoC5/ADC_DelSig_1.c ****         ADC_DelSig_1_powerModeBackup.DSM_BUF1 = ADC_DelSig_1_DSM_BUF1_REG;
 466              		.loc 1 262 0
 467 0088 45F69B03 		movw	r3, #:lower16:1073764507
 468 008c C4F20003 		movt	r3, #:upper16:1073764507
 469 0090 1B78     		ldrb	r3, [r3, #0]
 470 0092 DAB2     		uxtb	r2, r3
 471 0094 40F20003 		movw	r3, #:lower16:ADC_DelSig_1_powerModeBackup
 472 0098 C0F20003 		movt	r3, #:upper16:ADC_DelSig_1_powerModeBackup
 473 009c 9A71     		strb	r2, [r3, #6]
 263:.\Generated_Source\PSoC5/ADC_DelSig_1.c ****         ADC_DelSig_1_powerModeBackup.DSM_CLK = ADC_DelSig_1_DSM_CLK_REG;
 474              		.loc 1 263 0
ARM GAS  C:\Users\hoangp\AppData\Local\Temp\ccZOsuqR.s 			page 14


 475 009e 45F60733 		movw	r3, #:lower16:1073765127
 476 00a2 C4F20003 		movt	r3, #:upper16:1073765127
 477 00a6 1B78     		ldrb	r3, [r3, #0]
 478 00a8 DAB2     		uxtb	r2, r3
 479 00aa 40F20003 		movw	r3, #:lower16:ADC_DelSig_1_powerModeBackup
 480 00ae C0F20003 		movt	r3, #:upper16:ADC_DelSig_1_powerModeBackup
 481 00b2 DA71     		strb	r2, [r3, #7]
 264:.\Generated_Source\PSoC5/ADC_DelSig_1.c ****     }
 482              		.loc 1 264 0
 483 00b4 BD46     		mov	sp, r7
 484 00b6 80BC     		pop	{r7}
 485 00b8 7047     		bx	lr
 486              		.cfi_endproc
 487              	.LFE3:
 488              		.size	ADC_DelSig_1_SavePowerRegisters, .-ADC_DelSig_1_SavePowerRegisters
 489 00ba 00BF     		.section	.text.ADC_DelSig_1_SetLowPower,"ax",%progbits
 490              		.align	2
 491              		.global	ADC_DelSig_1_SetLowPower
 492              		.thumb
 493              		.thumb_func
 494              		.type	ADC_DelSig_1_SetLowPower, %function
 495              	ADC_DelSig_1_SetLowPower:
 496              	.LFB4:
 265:.\Generated_Source\PSoC5/ADC_DelSig_1.c **** 
 266:.\Generated_Source\PSoC5/ADC_DelSig_1.c **** 
 267:.\Generated_Source\PSoC5/ADC_DelSig_1.c ****     /************************************************************************* 
 268:.\Generated_Source\PSoC5/ADC_DelSig_1.c ****     * Function Name: ADC_DelSig_1_SetLowPower
 269:.\Generated_Source\PSoC5/ADC_DelSig_1.c ****     ***************************************************************************
 270:.\Generated_Source\PSoC5/ADC_DelSig_1.c ****     *
 271:.\Generated_Source\PSoC5/ADC_DelSig_1.c ****     * Summary: 
 272:.\Generated_Source\PSoC5/ADC_DelSig_1.c ****     *  Set all the power registers of DSM block to low power mode. This API is
 273:.\Generated_Source\PSoC5/ADC_DelSig_1.c ****     *   called by Stop() API. This API is only for internal use and valid for 
 274:.\Generated_Source\PSoC5/ADC_DelSig_1.c ****     *   only PSoC5A.
 275:.\Generated_Source\PSoC5/ADC_DelSig_1.c ****     *  
 276:.\Generated_Source\PSoC5/ADC_DelSig_1.c ****     *
 277:.\Generated_Source\PSoC5/ADC_DelSig_1.c ****     * Parameters:  
 278:.\Generated_Source\PSoC5/ADC_DelSig_1.c ****     *  void
 279:.\Generated_Source\PSoC5/ADC_DelSig_1.c ****     *
 280:.\Generated_Source\PSoC5/ADC_DelSig_1.c ****     * Return: 
 281:.\Generated_Source\PSoC5/ADC_DelSig_1.c ****     *  void 
 282:.\Generated_Source\PSoC5/ADC_DelSig_1.c ****     *
 283:.\Generated_Source\PSoC5/ADC_DelSig_1.c ****     ***************************************************************************/
 284:.\Generated_Source\PSoC5/ADC_DelSig_1.c ****     void ADC_DelSig_1_SetLowPower(void) 
 285:.\Generated_Source\PSoC5/ADC_DelSig_1.c ****     {
 497              		.loc 1 285 0
 498              		.cfi_startproc
 499              		@ args = 0, pretend = 0, frame = 0
 500              		@ frame_needed = 1, uses_anonymous_args = 0
 501              		@ link register save eliminated.
 502 0000 80B4     		push	{r7}
 503              	.LCFI8:
 504              		.cfi_def_cfa_offset 4
 505 0002 00AF     		add	r7, sp, #0
 506              		.cfi_offset 7, -4
 507              	.LCFI9:
 508              		.cfi_def_cfa_register 7
 286:.\Generated_Source\PSoC5/ADC_DelSig_1.c ****         ADC_DelSig_1_DSM_CR14_REG &= ~ADC_DelSig_1_DSM_POWER1_MASK;
ARM GAS  C:\Users\hoangp\AppData\Local\Temp\ccZOsuqR.s 			page 15


 509              		.loc 1 286 0
 510 0004 45F68E03 		movw	r3, #:lower16:1073764494
 511 0008 C4F20003 		movt	r3, #:upper16:1073764494
 512 000c 45F68E02 		movw	r2, #:lower16:1073764494
 513 0010 C4F20002 		movt	r2, #:upper16:1073764494
 514 0014 1278     		ldrb	r2, [r2, #0]
 515 0016 D2B2     		uxtb	r2, r2
 516 0018 02F0F802 		and	r2, r2, #248
 517 001c 1A70     		strb	r2, [r3, #0]
 287:.\Generated_Source\PSoC5/ADC_DelSig_1.c ****         ADC_DelSig_1_DSM_CR14_REG |= ADC_DelSig_1_DSM_POWER1_44UA;
 518              		.loc 1 287 0
 519 001e 45F68E03 		movw	r3, #:lower16:1073764494
 520 0022 C4F20003 		movt	r3, #:upper16:1073764494
 521 0026 45F68E02 		movw	r2, #:lower16:1073764494
 522 002a C4F20002 		movt	r2, #:upper16:1073764494
 523 002e 1278     		ldrb	r2, [r2, #0]
 524 0030 D2B2     		uxtb	r2, r2
 525 0032 1A70     		strb	r2, [r3, #0]
 288:.\Generated_Source\PSoC5/ADC_DelSig_1.c ****         
 289:.\Generated_Source\PSoC5/ADC_DelSig_1.c ****         ADC_DelSig_1_DSM_CR15_REG &= ~(ADC_DelSig_1_DSM_POWER2_3_MASK | ADC_DelSig_1_DSM_POWER_COMP
 526              		.loc 1 289 0
 527 0034 45F68F03 		movw	r3, #:lower16:1073764495
 528 0038 C4F20003 		movt	r3, #:upper16:1073764495
 529 003c 45F68F02 		movw	r2, #:lower16:1073764495
 530 0040 C4F20002 		movt	r2, #:upper16:1073764495
 531 0044 1278     		ldrb	r2, [r2, #0]
 532 0046 D2B2     		uxtb	r2, r2
 533 0048 02F0C802 		and	r2, r2, #200
 534 004c 1A70     		strb	r2, [r3, #0]
 290:.\Generated_Source\PSoC5/ADC_DelSig_1.c ****         ADC_DelSig_1_DSM_CR15_REG |= (ADC_DelSig_1_DSM_POWER2_3_LOW | ADC_DelSig_1_DSM_POWER_VERYLO
 535              		.loc 1 290 0
 536 004e 45F68F03 		movw	r3, #:lower16:1073764495
 537 0052 C4F20003 		movt	r3, #:upper16:1073764495
 538 0056 45F68F02 		movw	r2, #:lower16:1073764495
 539 005a C4F20002 		movt	r2, #:upper16:1073764495
 540 005e 1278     		ldrb	r2, [r2, #0]
 541 0060 D2B2     		uxtb	r2, r2
 542 0062 1A70     		strb	r2, [r3, #0]
 291:.\Generated_Source\PSoC5/ADC_DelSig_1.c ****         
 292:.\Generated_Source\PSoC5/ADC_DelSig_1.c ****         ADC_DelSig_1_DSM_CR16_REG &= ~(ADC_DelSig_1_DSM_CP_PWRCTL_MASK | ADC_DelSig_1_DSM_POWER_SUM
 543              		.loc 1 292 0
 544 0064 45F69003 		movw	r3, #:lower16:1073764496
 545 0068 C4F20003 		movt	r3, #:upper16:1073764496
 546 006c 45F69002 		movw	r2, #:lower16:1073764496
 547 0070 C4F20002 		movt	r2, #:upper16:1073764496
 548 0074 1278     		ldrb	r2, [r2, #0]
 549 0076 D2B2     		uxtb	r2, r2
 550 0078 02F08002 		and	r2, r2, #128
 551 007c 1A70     		strb	r2, [r3, #0]
 293:.\Generated_Source\PSoC5/ADC_DelSig_1.c ****                                            ADC_DelSig_1_DSM_CP_ENABLE);
 294:.\Generated_Source\PSoC5/ADC_DelSig_1.c ****         ADC_DelSig_1_DSM_CR16_REG |= (ADC_DelSig_1_DSM_POWER_SUM_LOW | ADC_DelSig_1_DSM_CP_PWRCTL_L
 552              		.loc 1 294 0
 553 007e 45F69003 		movw	r3, #:lower16:1073764496
 554 0082 C4F20003 		movt	r3, #:upper16:1073764496
 555 0086 45F69002 		movw	r2, #:lower16:1073764496
 556 008a C4F20002 		movt	r2, #:upper16:1073764496
 557 008e 1278     		ldrb	r2, [r2, #0]
ARM GAS  C:\Users\hoangp\AppData\Local\Temp\ccZOsuqR.s 			page 16


 558 0090 D2B2     		uxtb	r2, r2
 559 0092 42F00402 		orr	r2, r2, #4
 560 0096 D2B2     		uxtb	r2, r2
 561 0098 1A70     		strb	r2, [r3, #0]
 295:.\Generated_Source\PSoC5/ADC_DelSig_1.c ****         
 296:.\Generated_Source\PSoC5/ADC_DelSig_1.c ****         ADC_DelSig_1_DSM_CR17_REG &= ~(ADC_DelSig_1_DSM_EN_BUF_VREF | ADC_DelSig_1_DSM_PWR_CTRL_VCM
 562              		.loc 1 296 0
 563 009a 45F69103 		movw	r3, #:lower16:1073764497
 564 009e C4F20003 		movt	r3, #:upper16:1073764497
 565 00a2 1B78     		ldrb	r3, [r3, #0]
 566 00a4 45F69103 		movw	r3, #:lower16:1073764497
 567 00a8 C4F20003 		movt	r3, #:upper16:1073764497
 568 00ac 4FF00002 		mov	r2, #0
 569 00b0 1A70     		strb	r2, [r3, #0]
 297:.\Generated_Source\PSoC5/ADC_DelSig_1.c ****                                            ADC_DelSig_1_DSM_PWR_CTRL_VREF_MASK | ADC_DelSig_1_DSM_E
 298:.\Generated_Source\PSoC5/ADC_DelSig_1.c ****                                            ADC_DelSig_1_DSM_PWR_CTRL_VREF_INN_MASK);
 299:.\Generated_Source\PSoC5/ADC_DelSig_1.c ****         ADC_DelSig_1_DSM_CR17_REG |= (ADC_DelSig_1_DSM_PWR_CTRL_VREF_0 | ADC_DelSig_1_DSM_PWR_CTRL_
 570              		.loc 1 299 0
 571 00b2 45F69103 		movw	r3, #:lower16:1073764497
 572 00b6 C4F20003 		movt	r3, #:upper16:1073764497
 573 00ba 45F69102 		movw	r2, #:lower16:1073764497
 574 00be C4F20002 		movt	r2, #:upper16:1073764497
 575 00c2 1278     		ldrb	r2, [r2, #0]
 576 00c4 D2B2     		uxtb	r2, r2
 577 00c6 1A70     		strb	r2, [r3, #0]
 300:.\Generated_Source\PSoC5/ADC_DelSig_1.c ****                                            ADC_DelSig_1_DSM_PWR_CTRL_VREF_INN_0);
 301:.\Generated_Source\PSoC5/ADC_DelSig_1.c ****         
 302:.\Generated_Source\PSoC5/ADC_DelSig_1.c ****         /* Disable reference buffers */
 303:.\Generated_Source\PSoC5/ADC_DelSig_1.c ****         ADC_DelSig_1_DSM_REF0_REG &= ~(ADC_DelSig_1_DSM_EN_BUF_VREF_INN | ADC_DelSig_1_DSM_VREF_RES
 578              		.loc 1 303 0
 579 00c8 45F69203 		movw	r3, #:lower16:1073764498
 580 00cc C4F20003 		movt	r3, #:upper16:1073764498
 581 00d0 45F69202 		movw	r2, #:lower16:1073764498
 582 00d4 C4F20002 		movt	r2, #:upper16:1073764498
 583 00d8 1278     		ldrb	r2, [r2, #0]
 584 00da D2B2     		uxtb	r2, r2
 585 00dc 02F0C702 		and	r2, r2, #199
 586 00e0 1A70     		strb	r2, [r3, #0]
 304:.\Generated_Source\PSoC5/ADC_DelSig_1.c ****                                            ADC_DelSig_1_DSM_VCM_RES_DIV_EN);
 305:.\Generated_Source\PSoC5/ADC_DelSig_1.c ****             
 306:.\Generated_Source\PSoC5/ADC_DelSig_1.c ****         /* Disable the positive input buffer */
 307:.\Generated_Source\PSoC5/ADC_DelSig_1.c ****         ADC_DelSig_1_DSM_BUF0_REG &= ~ADC_DelSig_1_DSM_ENABLE_P;
 587              		.loc 1 307 0
 588 00e2 45F69A03 		movw	r3, #:lower16:1073764506
 589 00e6 C4F20003 		movt	r3, #:upper16:1073764506
 590 00ea 45F69A02 		movw	r2, #:lower16:1073764506
 591 00ee C4F20002 		movt	r2, #:upper16:1073764506
 592 00f2 1278     		ldrb	r2, [r2, #0]
 593 00f4 D2B2     		uxtb	r2, r2
 594 00f6 02F0FE02 		and	r2, r2, #254
 595 00fa 1A70     		strb	r2, [r3, #0]
 308:.\Generated_Source\PSoC5/ADC_DelSig_1.c ****         /* Disable the negative input buffer */
 309:.\Generated_Source\PSoC5/ADC_DelSig_1.c ****         ADC_DelSig_1_DSM_BUF1_REG &= ~ADC_DelSig_1_DSM_ENABLE_N;
 596              		.loc 1 309 0
 597 00fc 45F69B03 		movw	r3, #:lower16:1073764507
 598 0100 C4F20003 		movt	r3, #:upper16:1073764507
 599 0104 45F69B02 		movw	r2, #:lower16:1073764507
ARM GAS  C:\Users\hoangp\AppData\Local\Temp\ccZOsuqR.s 			page 17


 600 0108 C4F20002 		movt	r2, #:upper16:1073764507
 601 010c 1278     		ldrb	r2, [r2, #0]
 602 010e D2B2     		uxtb	r2, r2
 603 0110 02F0FE02 		and	r2, r2, #254
 604 0114 1A70     		strb	r2, [r3, #0]
 310:.\Generated_Source\PSoC5/ADC_DelSig_1.c ****         /* Disable the clock to DSM */
 311:.\Generated_Source\PSoC5/ADC_DelSig_1.c ****         ADC_DelSig_1_DSM_CLK_REG &= ~(ADC_DelSig_1_DSM_CLK_CLK_EN | ADC_DelSig_1_DSM_CLK_BYPASS_SYN
 605              		.loc 1 311 0
 606 0116 45F60733 		movw	r3, #:lower16:1073765127
 607 011a C4F20003 		movt	r3, #:upper16:1073765127
 608 011e 45F60732 		movw	r2, #:lower16:1073765127
 609 0122 C4F20002 		movt	r2, #:upper16:1073765127
 610 0126 1278     		ldrb	r2, [r2, #0]
 611 0128 D2B2     		uxtb	r2, r2
 612 012a 02F0E702 		and	r2, r2, #231
 613 012e 1A70     		strb	r2, [r3, #0]
 312:.\Generated_Source\PSoC5/ADC_DelSig_1.c ****     }
 614              		.loc 1 312 0
 615 0130 BD46     		mov	sp, r7
 616 0132 80BC     		pop	{r7}
 617 0134 7047     		bx	lr
 618              		.cfi_endproc
 619              	.LFE4:
 620              		.size	ADC_DelSig_1_SetLowPower, .-ADC_DelSig_1_SetLowPower
 621 0136 00BF     		.section	.text.ADC_DelSig_1_Start,"ax",%progbits
 622              		.align	2
 623              		.global	ADC_DelSig_1_Start
 624              		.thumb
 625              		.thumb_func
 626              		.type	ADC_DelSig_1_Start, %function
 627              	ADC_DelSig_1_Start:
 628              	.LFB5:
 313:.\Generated_Source\PSoC5/ADC_DelSig_1.c **** #endif /* CY_PSOC5A */
 314:.\Generated_Source\PSoC5/ADC_DelSig_1.c **** 
 315:.\Generated_Source\PSoC5/ADC_DelSig_1.c **** 
 316:.\Generated_Source\PSoC5/ADC_DelSig_1.c **** /******************************************************************************* 
 317:.\Generated_Source\PSoC5/ADC_DelSig_1.c **** * Function Name: ADC_DelSig_1_Start
 318:.\Generated_Source\PSoC5/ADC_DelSig_1.c **** ********************************************************************************
 319:.\Generated_Source\PSoC5/ADC_DelSig_1.c **** *
 320:.\Generated_Source\PSoC5/ADC_DelSig_1.c **** * Summary:
 321:.\Generated_Source\PSoC5/ADC_DelSig_1.c **** *  The start function initializes the Delta Sigma Modulator with the default  
 322:.\Generated_Source\PSoC5/ADC_DelSig_1.c **** *  values, and sets the power to the given level.  A power level of 0, is the 
 323:.\Generated_Source\PSoC5/ADC_DelSig_1.c **** *  same as executing the stop function.
 324:.\Generated_Source\PSoC5/ADC_DelSig_1.c **** *
 325:.\Generated_Source\PSoC5/ADC_DelSig_1.c **** * Parameters:  
 326:.\Generated_Source\PSoC5/ADC_DelSig_1.c **** *  None
 327:.\Generated_Source\PSoC5/ADC_DelSig_1.c **** *
 328:.\Generated_Source\PSoC5/ADC_DelSig_1.c **** * Return: 
 329:.\Generated_Source\PSoC5/ADC_DelSig_1.c **** *  void 
 330:.\Generated_Source\PSoC5/ADC_DelSig_1.c **** *
 331:.\Generated_Source\PSoC5/ADC_DelSig_1.c **** * Global variables:
 332:.\Generated_Source\PSoC5/ADC_DelSig_1.c **** *  ADC_DelSig_1_initVar:  Used to check the initial configuration,
 333:.\Generated_Source\PSoC5/ADC_DelSig_1.c **** *  modified when this function is called for the first time.
 334:.\Generated_Source\PSoC5/ADC_DelSig_1.c **** *
 335:.\Generated_Source\PSoC5/ADC_DelSig_1.c **** *******************************************************************************/
 336:.\Generated_Source\PSoC5/ADC_DelSig_1.c **** void ADC_DelSig_1_Start() 
 337:.\Generated_Source\PSoC5/ADC_DelSig_1.c **** {
ARM GAS  C:\Users\hoangp\AppData\Local\Temp\ccZOsuqR.s 			page 18


 629              		.loc 1 337 0
 630              		.cfi_startproc
 631              		@ args = 0, pretend = 0, frame = 0
 632              		@ frame_needed = 1, uses_anonymous_args = 0
 633 0000 80B5     		push	{r7, lr}
 634              	.LCFI10:
 635              		.cfi_def_cfa_offset 8
 636 0002 00AF     		add	r7, sp, #0
 637              		.cfi_offset 14, -4
 638              		.cfi_offset 7, -8
 639              	.LCFI11:
 640              		.cfi_def_cfa_register 7
 338:.\Generated_Source\PSoC5/ADC_DelSig_1.c ****     if(ADC_DelSig_1_initVar == 0u)
 641              		.loc 1 338 0
 642 0004 40F20003 		movw	r3, #:lower16:ADC_DelSig_1_initVar
 643 0008 C0F20003 		movt	r3, #:upper16:ADC_DelSig_1_initVar
 644 000c 1B78     		ldrb	r3, [r3, #0]	@ zero_extendqisi2
 645 000e 002B     		cmp	r3, #0
 646 0010 10D1     		bne	.L14
 339:.\Generated_Source\PSoC5/ADC_DelSig_1.c ****     {
 340:.\Generated_Source\PSoC5/ADC_DelSig_1.c ****         if(!(ADC_DelSig_1_started))
 647              		.loc 1 340 0
 648 0012 40F20003 		movw	r3, #:lower16:ADC_DelSig_1_started
 649 0016 C0F20003 		movt	r3, #:upper16:ADC_DelSig_1_started
 650 001a 1B78     		ldrb	r3, [r3, #0]
 651 001c DBB2     		uxtb	r3, r3
 652 001e 002B     		cmp	r3, #0
 653 0020 01D1     		bne	.L15
 341:.\Generated_Source\PSoC5/ADC_DelSig_1.c ****         {
 342:.\Generated_Source\PSoC5/ADC_DelSig_1.c ****             ADC_DelSig_1_Init();
 654              		.loc 1 342 0
 655 0022 FFF7FEFF 		bl	ADC_DelSig_1_Init
 656              	.L15:
 343:.\Generated_Source\PSoC5/ADC_DelSig_1.c ****         }
 344:.\Generated_Source\PSoC5/ADC_DelSig_1.c ****         ADC_DelSig_1_initVar = 1u;
 657              		.loc 1 344 0
 658 0026 40F20003 		movw	r3, #:lower16:ADC_DelSig_1_initVar
 659 002a C0F20003 		movt	r3, #:upper16:ADC_DelSig_1_initVar
 660 002e 4FF00102 		mov	r2, #1
 661 0032 1A70     		strb	r2, [r3, #0]
 662              	.L14:
 345:.\Generated_Source\PSoC5/ADC_DelSig_1.c ****     }
 346:.\Generated_Source\PSoC5/ADC_DelSig_1.c **** 
 347:.\Generated_Source\PSoC5/ADC_DelSig_1.c ****     /* Enable the ADC */
 348:.\Generated_Source\PSoC5/ADC_DelSig_1.c ****     ADC_DelSig_1_Enable();
 663              		.loc 1 348 0
 664 0034 FFF7FEFF 		bl	ADC_DelSig_1_Enable
 349:.\Generated_Source\PSoC5/ADC_DelSig_1.c **** }
 665              		.loc 1 349 0
 666 0038 80BD     		pop	{r7, pc}
 667              		.cfi_endproc
 668              	.LFE5:
 669              		.size	ADC_DelSig_1_Start, .-ADC_DelSig_1_Start
 670 003a 00BF     		.section	.text.ADC_DelSig_1_Stop,"ax",%progbits
 671              		.align	2
 672              		.global	ADC_DelSig_1_Stop
 673              		.thumb
ARM GAS  C:\Users\hoangp\AppData\Local\Temp\ccZOsuqR.s 			page 19


 674              		.thumb_func
 675              		.type	ADC_DelSig_1_Stop, %function
 676              	ADC_DelSig_1_Stop:
 677              	.LFB6:
 350:.\Generated_Source\PSoC5/ADC_DelSig_1.c **** 
 351:.\Generated_Source\PSoC5/ADC_DelSig_1.c **** 
 352:.\Generated_Source\PSoC5/ADC_DelSig_1.c **** /*******************************************************************************
 353:.\Generated_Source\PSoC5/ADC_DelSig_1.c **** * Function Name: ADC_DelSig_1_Stop
 354:.\Generated_Source\PSoC5/ADC_DelSig_1.c **** ********************************************************************************
 355:.\Generated_Source\PSoC5/ADC_DelSig_1.c **** *
 356:.\Generated_Source\PSoC5/ADC_DelSig_1.c **** * Summary:
 357:.\Generated_Source\PSoC5/ADC_DelSig_1.c **** *  Stops and powers down ADC to lowest power state.
 358:.\Generated_Source\PSoC5/ADC_DelSig_1.c **** *
 359:.\Generated_Source\PSoC5/ADC_DelSig_1.c **** * Parameters:  
 360:.\Generated_Source\PSoC5/ADC_DelSig_1.c **** *  void
 361:.\Generated_Source\PSoC5/ADC_DelSig_1.c **** *
 362:.\Generated_Source\PSoC5/ADC_DelSig_1.c **** * Return: 
 363:.\Generated_Source\PSoC5/ADC_DelSig_1.c **** *  void 
 364:.\Generated_Source\PSoC5/ADC_DelSig_1.c **** *
 365:.\Generated_Source\PSoC5/ADC_DelSig_1.c **** *******************************************************************************/
 366:.\Generated_Source\PSoC5/ADC_DelSig_1.c **** void ADC_DelSig_1_Stop(void) 
 367:.\Generated_Source\PSoC5/ADC_DelSig_1.c **** {
 678              		.loc 1 367 0
 679              		.cfi_startproc
 680              		@ args = 0, pretend = 0, frame = 0
 681              		@ frame_needed = 1, uses_anonymous_args = 0
 682 0000 80B5     		push	{r7, lr}
 683              	.LCFI12:
 684              		.cfi_def_cfa_offset 8
 685 0002 00AF     		add	r7, sp, #0
 686              		.cfi_offset 14, -4
 687              		.cfi_offset 7, -8
 688              	.LCFI13:
 689              		.cfi_def_cfa_register 7
 368:.\Generated_Source\PSoC5/ADC_DelSig_1.c ****     /* Stop conversions */
 369:.\Generated_Source\PSoC5/ADC_DelSig_1.c ****     ADC_DelSig_1_DEC_CR_REG &= ~ADC_DelSig_1_DEC_START_CONV;
 690              		.loc 1 369 0
 691 0004 44F60063 		movw	r3, #:lower16:1073761792
 692 0008 C4F20003 		movt	r3, #:upper16:1073761792
 693 000c 44F60062 		movw	r2, #:lower16:1073761792
 694 0010 C4F20002 		movt	r2, #:upper16:1073761792
 695 0014 1278     		ldrb	r2, [r2, #0]
 696 0016 D2B2     		uxtb	r2, r2
 697 0018 02F0FE02 		and	r2, r2, #254
 698 001c 1A70     		strb	r2, [r3, #0]
 370:.\Generated_Source\PSoC5/ADC_DelSig_1.c ****     ADC_DelSig_1_DEC_SR_REG |=  ADC_DelSig_1_DEC_INTR_CLEAR;
 699              		.loc 1 370 0
 700 001e 44F60163 		movw	r3, #:lower16:1073761793
 701 0022 C4F20003 		movt	r3, #:upper16:1073761793
 702 0026 44F60162 		movw	r2, #:lower16:1073761793
 703 002a C4F20002 		movt	r2, #:upper16:1073761793
 704 002e 1278     		ldrb	r2, [r2, #0]
 705 0030 D2B2     		uxtb	r2, r2
 706 0032 42F00402 		orr	r2, r2, #4
 707 0036 D2B2     		uxtb	r2, r2
 708 0038 1A70     		strb	r2, [r3, #0]
 371:.\Generated_Source\PSoC5/ADC_DelSig_1.c ****     
ARM GAS  C:\Users\hoangp\AppData\Local\Temp\ccZOsuqR.s 			page 20


 372:.\Generated_Source\PSoC5/ADC_DelSig_1.c ****     /* Disable PRES, Disable power to VCMBUF0, REFBUF0 and REFBUF1, 
 373:.\Generated_Source\PSoC5/ADC_DelSig_1.c ****        enable PRES */
 374:.\Generated_Source\PSoC5/ADC_DelSig_1.c ****     #if (CY_PSOC3 || CY_PSOC5LP)
 375:.\Generated_Source\PSoC5/ADC_DelSig_1.c ****         ADC_DelSig_1_RESET_CR4_REG |= ADC_DelSig_1_IGNORE_PRESA1;
 376:.\Generated_Source\PSoC5/ADC_DelSig_1.c ****         ADC_DelSig_1_RESET_CR5_REG |= ADC_DelSig_1_IGNORE_PRESA2;
 377:.\Generated_Source\PSoC5/ADC_DelSig_1.c ****     #elif (CY_PSOC5A)
 378:.\Generated_Source\PSoC5/ADC_DelSig_1.c ****         ADC_DelSig_1_RESET_CR1_REG |= ADC_DelSig_1_DIS_PRES1;
 709              		.loc 1 378 0
 710 003a 44F2F563 		movw	r3, #:lower16:1073759989
 711 003e C4F20003 		movt	r3, #:upper16:1073759989
 712 0042 44F2F562 		movw	r2, #:lower16:1073759989
 713 0046 C4F20002 		movt	r2, #:upper16:1073759989
 714 004a 1278     		ldrb	r2, [r2, #0]
 715 004c D2B2     		uxtb	r2, r2
 716 004e 42F01002 		orr	r2, r2, #16
 717 0052 D2B2     		uxtb	r2, r2
 718 0054 1A70     		strb	r2, [r3, #0]
 379:.\Generated_Source\PSoC5/ADC_DelSig_1.c ****         ADC_DelSig_1_RESET_CR3_REG |= ADC_DelSig_1_DIS_PRES2;
 719              		.loc 1 379 0
 720 0056 44F2F763 		movw	r3, #:lower16:1073759991
 721 005a C4F20003 		movt	r3, #:upper16:1073759991
 722 005e 44F2F762 		movw	r2, #:lower16:1073759991
 723 0062 C4F20002 		movt	r2, #:upper16:1073759991
 724 0066 1278     		ldrb	r2, [r2, #0]
 725 0068 D2B2     		uxtb	r2, r2
 726 006a 42F00802 		orr	r2, r2, #8
 727 006e D2B2     		uxtb	r2, r2
 728 0070 1A70     		strb	r2, [r3, #0]
 380:.\Generated_Source\PSoC5/ADC_DelSig_1.c ****     #endif /* CY_PSOC5A */
 381:.\Generated_Source\PSoC5/ADC_DelSig_1.c ****     
 382:.\Generated_Source\PSoC5/ADC_DelSig_1.c ****     ADC_DelSig_1_DSM_CR17_REG &= ~(ADC_DelSig_1_DSM_EN_BUF_VREF | ADC_DelSig_1_DSM_EN_BUF_VCM);
 729              		.loc 1 382 0
 730 0072 45F69103 		movw	r3, #:lower16:1073764497
 731 0076 C4F20003 		movt	r3, #:upper16:1073764497
 732 007a 45F69102 		movw	r2, #:lower16:1073764497
 733 007e C4F20002 		movt	r2, #:upper16:1073764497
 734 0082 1278     		ldrb	r2, [r2, #0]
 735 0084 D2B2     		uxtb	r2, r2
 736 0086 02F0FC02 		and	r2, r2, #252
 737 008a 1A70     		strb	r2, [r3, #0]
 383:.\Generated_Source\PSoC5/ADC_DelSig_1.c ****     ADC_DelSig_1_DSM_REF0_REG &= ~ADC_DelSig_1_DSM_EN_BUF_VREF_INN;
 738              		.loc 1 383 0
 739 008c 45F69203 		movw	r3, #:lower16:1073764498
 740 0090 C4F20003 		movt	r3, #:upper16:1073764498
 741 0094 45F69202 		movw	r2, #:lower16:1073764498
 742 0098 C4F20002 		movt	r2, #:upper16:1073764498
 743 009c 1278     		ldrb	r2, [r2, #0]
 744 009e D2B2     		uxtb	r2, r2
 745 00a0 02F0F702 		and	r2, r2, #247
 746 00a4 1A70     		strb	r2, [r3, #0]
 384:.\Generated_Source\PSoC5/ADC_DelSig_1.c ****     
 385:.\Generated_Source\PSoC5/ADC_DelSig_1.c ****     /* Wait for 3 microseconds. */
 386:.\Generated_Source\PSoC5/ADC_DelSig_1.c ****     CyDelayUs(3);
 747              		.loc 1 386 0
 748 00a6 4FF00300 		mov	r0, #3
 749 00aa FFF7FEFF 		bl	CyDelayUs
 387:.\Generated_Source\PSoC5/ADC_DelSig_1.c ****     
ARM GAS  C:\Users\hoangp\AppData\Local\Temp\ccZOsuqR.s 			page 21


 388:.\Generated_Source\PSoC5/ADC_DelSig_1.c **** 	/* Enable the press circuit */
 389:.\Generated_Source\PSoC5/ADC_DelSig_1.c ****     #if (CY_PSOC3 || CY_PSOC5LP)
 390:.\Generated_Source\PSoC5/ADC_DelSig_1.c ****         ADC_DelSig_1_RESET_CR4_REG &= ~ADC_DelSig_1_IGNORE_PRESA1;
 391:.\Generated_Source\PSoC5/ADC_DelSig_1.c ****         ADC_DelSig_1_RESET_CR5_REG &= ~ADC_DelSig_1_IGNORE_PRESA2;
 392:.\Generated_Source\PSoC5/ADC_DelSig_1.c ****     #elif (CY_PSOC5A)
 393:.\Generated_Source\PSoC5/ADC_DelSig_1.c ****         ADC_DelSig_1_RESET_CR1_REG &= ~ADC_DelSig_1_DIS_PRES1;
 750              		.loc 1 393 0
 751 00ae 44F2F563 		movw	r3, #:lower16:1073759989
 752 00b2 C4F20003 		movt	r3, #:upper16:1073759989
 753 00b6 44F2F562 		movw	r2, #:lower16:1073759989
 754 00ba C4F20002 		movt	r2, #:upper16:1073759989
 755 00be 1278     		ldrb	r2, [r2, #0]
 756 00c0 D2B2     		uxtb	r2, r2
 757 00c2 02F0EF02 		and	r2, r2, #239
 758 00c6 1A70     		strb	r2, [r3, #0]
 394:.\Generated_Source\PSoC5/ADC_DelSig_1.c ****         ADC_DelSig_1_RESET_CR3_REG &= ~ADC_DelSig_1_DIS_PRES2;
 759              		.loc 1 394 0
 760 00c8 44F2F763 		movw	r3, #:lower16:1073759991
 761 00cc C4F20003 		movt	r3, #:upper16:1073759991
 762 00d0 44F2F762 		movw	r2, #:lower16:1073759991
 763 00d4 C4F20002 		movt	r2, #:upper16:1073759991
 764 00d8 1278     		ldrb	r2, [r2, #0]
 765 00da D2B2     		uxtb	r2, r2
 766 00dc 02F0F702 		and	r2, r2, #247
 767 00e0 1A70     		strb	r2, [r3, #0]
 395:.\Generated_Source\PSoC5/ADC_DelSig_1.c ****     #endif /* CY_PSOC5A */
 396:.\Generated_Source\PSoC5/ADC_DelSig_1.c ****     
 397:.\Generated_Source\PSoC5/ADC_DelSig_1.c ****     /* If PSoC5A then don't disable the power instead put the block to  
 398:.\Generated_Source\PSoC5/ADC_DelSig_1.c ****        low power mode. Also, save current state of all the power configuration 
 399:.\Generated_Source\PSoC5/ADC_DelSig_1.c ****        registers before putting block to low power mode */
 400:.\Generated_Source\PSoC5/ADC_DelSig_1.c ****     #if (CY_PSOC5A)
 401:.\Generated_Source\PSoC5/ADC_DelSig_1.c ****         
 402:.\Generated_Source\PSoC5/ADC_DelSig_1.c ****         /* set the flag */
 403:.\Generated_Source\PSoC5/ADC_DelSig_1.c ****         ADC_DelSig_1_restoreReg = 1u;
 768              		.loc 1 403 0
 769 00e2 40F20003 		movw	r3, #:lower16:ADC_DelSig_1_restoreReg
 770 00e6 C0F20003 		movt	r3, #:upper16:ADC_DelSig_1_restoreReg
 771 00ea 4FF00102 		mov	r2, #1
 772 00ee 1A70     		strb	r2, [r3, #0]
 404:.\Generated_Source\PSoC5/ADC_DelSig_1.c ****         
 405:.\Generated_Source\PSoC5/ADC_DelSig_1.c ****         ADC_DelSig_1_SavePowerRegisters();
 773              		.loc 1 405 0
 774 00f0 FFF7FEFF 		bl	ADC_DelSig_1_SavePowerRegisters
 406:.\Generated_Source\PSoC5/ADC_DelSig_1.c ****         ADC_DelSig_1_SetLowPower();
 775              		.loc 1 406 0
 776 00f4 FFF7FEFF 		bl	ADC_DelSig_1_SetLowPower
 407:.\Generated_Source\PSoC5/ADC_DelSig_1.c ****     #else    
 408:.\Generated_Source\PSoC5/ADC_DelSig_1.c ****         /* Disable power to the ADC */
 409:.\Generated_Source\PSoC5/ADC_DelSig_1.c ****         ADC_DelSig_1_PWRMGR_DSM_REG &= ~ADC_DelSig_1_ACT_PWR_DSM_EN;
 410:.\Generated_Source\PSoC5/ADC_DelSig_1.c ****     #endif /* CY_PSOC5A */
 411:.\Generated_Source\PSoC5/ADC_DelSig_1.c ****     
 412:.\Generated_Source\PSoC5/ADC_DelSig_1.c ****     /* Disable power to Decimator block */
 413:.\Generated_Source\PSoC5/ADC_DelSig_1.c ****     ADC_DelSig_1_PWRMGR_DEC_REG &= ~ADC_DelSig_1_ACT_PWR_DEC_EN;
 777              		.loc 1 413 0
 778 00f8 44F2AA33 		movw	r3, #:lower16:1073759146
 779 00fc C4F20003 		movt	r3, #:upper16:1073759146
 780 0100 44F2AA32 		movw	r2, #:lower16:1073759146
ARM GAS  C:\Users\hoangp\AppData\Local\Temp\ccZOsuqR.s 			page 22


 781 0104 C4F20002 		movt	r2, #:upper16:1073759146
 782 0108 1278     		ldrb	r2, [r2, #0]
 783 010a D2B2     		uxtb	r2, r2
 784 010c 02F0FE02 		and	r2, r2, #254
 785 0110 1A70     		strb	r2, [r3, #0]
 414:.\Generated_Source\PSoC5/ADC_DelSig_1.c ****     
 415:.\Generated_Source\PSoC5/ADC_DelSig_1.c ****     /* Disable alternative active power to the ADC */
 416:.\Generated_Source\PSoC5/ADC_DelSig_1.c ****     ADC_DelSig_1_STBY_PWRMGR_DEC_REG &= ~ADC_DelSig_1_STBY_PWR_DEC_EN;
 786              		.loc 1 416 0
 787 0112 44F2BA33 		movw	r3, #:lower16:1073759162
 788 0116 C4F20003 		movt	r3, #:upper16:1073759162
 789 011a 44F2BA32 		movw	r2, #:lower16:1073759162
 790 011e C4F20002 		movt	r2, #:upper16:1073759162
 791 0122 1278     		ldrb	r2, [r2, #0]
 792 0124 D2B2     		uxtb	r2, r2
 793 0126 02F0FE02 		and	r2, r2, #254
 794 012a 1A70     		strb	r2, [r3, #0]
 417:.\Generated_Source\PSoC5/ADC_DelSig_1.c ****     #if (CY_PSOC3 || CY_PSOC5LP)
 418:.\Generated_Source\PSoC5/ADC_DelSig_1.c ****     ADC_DelSig_1_STBY_PWRMGR_DSM_REG &= ~ADC_DelSig_1_STBY_PWR_DSM_EN;
 419:.\Generated_Source\PSoC5/ADC_DelSig_1.c ****     #endif /* CY_PSOC3 || CY_PSOC5LP */
 420:.\Generated_Source\PSoC5/ADC_DelSig_1.c **** 
 421:.\Generated_Source\PSoC5/ADC_DelSig_1.c ****    /* Disable negative pumps for DSM  */
 422:.\Generated_Source\PSoC5/ADC_DelSig_1.c ****     ADC_DelSig_1_PUMP_CR1_REG &= ~(ADC_DelSig_1_PUMP_CR1_CLKSEL | ADC_DelSig_1_PUMP_CR1_FORCE );
 795              		.loc 1 422 0
 796 012c 45F67703 		movw	r3, #:lower16:1073764471
 797 0130 C4F20003 		movt	r3, #:upper16:1073764471
 798 0134 45F67702 		movw	r2, #:lower16:1073764471
 799 0138 C4F20002 		movt	r2, #:upper16:1073764471
 800 013c 1278     		ldrb	r2, [r2, #0]
 801 013e D2B2     		uxtb	r2, r2
 802 0140 02F0F902 		and	r2, r2, #249
 803 0144 1A70     		strb	r2, [r3, #0]
 423:.\Generated_Source\PSoC5/ADC_DelSig_1.c ****     
 424:.\Generated_Source\PSoC5/ADC_DelSig_1.c ****     /* This is only valid if there is an internal clock */
 425:.\Generated_Source\PSoC5/ADC_DelSig_1.c ****     #if(ADC_DelSig_1_DEFAULT_INTERNAL_CLK)
 426:.\Generated_Source\PSoC5/ADC_DelSig_1.c ****         ADC_DelSig_1_PWRMGR_CLK_REG &= ~ADC_DelSig_1_ACT_PWR_CLK_EN;
 804              		.loc 1 426 0
 805 0146 44F2A133 		movw	r3, #:lower16:1073759137
 806 014a C4F20003 		movt	r3, #:upper16:1073759137
 807 014e 44F2A132 		movw	r2, #:lower16:1073759137
 808 0152 C4F20002 		movt	r2, #:upper16:1073759137
 809 0156 1278     		ldrb	r2, [r2, #0]
 810 0158 D2B2     		uxtb	r2, r2
 811 015a 02F0FB02 		and	r2, r2, #251
 812 015e 1A70     		strb	r2, [r3, #0]
 427:.\Generated_Source\PSoC5/ADC_DelSig_1.c ****         ADC_DelSig_1_STBY_PWRMGR_CLK_REG &= ~ADC_DelSig_1_STBY_PWR_CLK_EN;
 813              		.loc 1 427 0
 814 0160 44F2B133 		movw	r3, #:lower16:1073759153
 815 0164 C4F20003 		movt	r3, #:upper16:1073759153
 816 0168 44F2B132 		movw	r2, #:lower16:1073759153
 817 016c C4F20002 		movt	r2, #:upper16:1073759153
 818 0170 1278     		ldrb	r2, [r2, #0]
 819 0172 D2B2     		uxtb	r2, r2
 820 0174 02F0FB02 		and	r2, r2, #251
 821 0178 1A70     		strb	r2, [r3, #0]
 428:.\Generated_Source\PSoC5/ADC_DelSig_1.c ****     #endif /* ADC_DelSig_1_DEFAULT_INTERNAL_CLK */
 429:.\Generated_Source\PSoC5/ADC_DelSig_1.c ****     
ARM GAS  C:\Users\hoangp\AppData\Local\Temp\ccZOsuqR.s 			page 23


 430:.\Generated_Source\PSoC5/ADC_DelSig_1.c ****     /* Disable power to charge pump clock */
 431:.\Generated_Source\PSoC5/ADC_DelSig_1.c ****     ADC_DelSig_1_PWRMGR_CHARGE_PUMP_CLK_REG &= ~ADC_DelSig_1_ACT_PWR_CHARGE_PUMP_CLK_EN;
 822              		.loc 1 431 0
 823 017a 44F2A233 		movw	r3, #:lower16:1073759138
 824 017e C4F20003 		movt	r3, #:upper16:1073759138
 825 0182 44F2A232 		movw	r2, #:lower16:1073759138
 826 0186 C4F20002 		movt	r2, #:upper16:1073759138
 827 018a 1278     		ldrb	r2, [r2, #0]
 828 018c D2B2     		uxtb	r2, r2
 829 018e 02F0FD02 		and	r2, r2, #253
 830 0192 1A70     		strb	r2, [r3, #0]
 432:.\Generated_Source\PSoC5/ADC_DelSig_1.c ****     ADC_DelSig_1_STBY_PWRMGR_CHARGE_PUMP_CLK_REG &= ~ADC_DelSig_1_STBY_PWR_CHARGE_PUMP_CLK_EN;
 831              		.loc 1 432 0
 832 0194 44F2B233 		movw	r3, #:lower16:1073759154
 833 0198 C4F20003 		movt	r3, #:upper16:1073759154
 834 019c 44F2B232 		movw	r2, #:lower16:1073759154
 835 01a0 C4F20002 		movt	r2, #:upper16:1073759154
 836 01a4 1278     		ldrb	r2, [r2, #0]
 837 01a6 D2B2     		uxtb	r2, r2
 838 01a8 02F0FD02 		and	r2, r2, #253
 839 01ac 1A70     		strb	r2, [r3, #0]
 433:.\Generated_Source\PSoC5/ADC_DelSig_1.c **** }
 840              		.loc 1 433 0
 841 01ae 80BD     		pop	{r7, pc}
 842              		.cfi_endproc
 843              	.LFE6:
 844              		.size	ADC_DelSig_1_Stop, .-ADC_DelSig_1_Stop
 845              		.section	.text.ADC_DelSig_1_SetBufferGain,"ax",%progbits
 846              		.align	2
 847              		.global	ADC_DelSig_1_SetBufferGain
 848              		.thumb
 849              		.thumb_func
 850              		.type	ADC_DelSig_1_SetBufferGain, %function
 851              	ADC_DelSig_1_SetBufferGain:
 852              	.LFB7:
 434:.\Generated_Source\PSoC5/ADC_DelSig_1.c **** 
 435:.\Generated_Source\PSoC5/ADC_DelSig_1.c **** 
 436:.\Generated_Source\PSoC5/ADC_DelSig_1.c **** /*******************************************************************************
 437:.\Generated_Source\PSoC5/ADC_DelSig_1.c **** * Function Name: ADC_DelSig_1_SetBufferGain
 438:.\Generated_Source\PSoC5/ADC_DelSig_1.c **** ********************************************************************************
 439:.\Generated_Source\PSoC5/ADC_DelSig_1.c **** *
 440:.\Generated_Source\PSoC5/ADC_DelSig_1.c **** * Summary:
 441:.\Generated_Source\PSoC5/ADC_DelSig_1.c **** *  Set input buffer range.
 442:.\Generated_Source\PSoC5/ADC_DelSig_1.c **** *
 443:.\Generated_Source\PSoC5/ADC_DelSig_1.c **** * Parameters:  
 444:.\Generated_Source\PSoC5/ADC_DelSig_1.c **** *  gain:  Two bit value to select a gain of 1, 2, 4, or 8.
 445:.\Generated_Source\PSoC5/ADC_DelSig_1.c **** *
 446:.\Generated_Source\PSoC5/ADC_DelSig_1.c **** * Return: 
 447:.\Generated_Source\PSoC5/ADC_DelSig_1.c **** *  void
 448:.\Generated_Source\PSoC5/ADC_DelSig_1.c **** *
 449:.\Generated_Source\PSoC5/ADC_DelSig_1.c **** *******************************************************************************/
 450:.\Generated_Source\PSoC5/ADC_DelSig_1.c **** void ADC_DelSig_1_SetBufferGain(uint8 gain) 
 451:.\Generated_Source\PSoC5/ADC_DelSig_1.c **** {
 853              		.loc 1 451 0
 854              		.cfi_startproc
 855              		@ args = 0, pretend = 0, frame = 16
 856              		@ frame_needed = 1, uses_anonymous_args = 0
ARM GAS  C:\Users\hoangp\AppData\Local\Temp\ccZOsuqR.s 			page 24


 857              		@ link register save eliminated.
 858 0000 80B4     		push	{r7}
 859              	.LCFI14:
 860              		.cfi_def_cfa_offset 4
 861 0002 85B0     		sub	sp, sp, #20
 862              	.LCFI15:
 863              		.cfi_def_cfa_offset 24
 864 0004 00AF     		add	r7, sp, #0
 865              		.cfi_offset 7, -4
 866              	.LCFI16:
 867              		.cfi_def_cfa_register 7
 868 0006 0346     		mov	r3, r0
 869 0008 FB71     		strb	r3, [r7, #7]
 452:.\Generated_Source\PSoC5/ADC_DelSig_1.c ****     uint8 tmpReg;
 453:.\Generated_Source\PSoC5/ADC_DelSig_1.c ****     tmpReg = ADC_DelSig_1_DSM_BUF1_REG & ~ADC_DelSig_1_DSM_GAIN_MASK;
 870              		.loc 1 453 0
 871 000a 45F69B03 		movw	r3, #:lower16:1073764507
 872 000e C4F20003 		movt	r3, #:upper16:1073764507
 873 0012 1B78     		ldrb	r3, [r3, #0]
 874 0014 DBB2     		uxtb	r3, r3
 875 0016 23F00C03 		bic	r3, r3, #12
 876 001a FB73     		strb	r3, [r7, #15]
 454:.\Generated_Source\PSoC5/ADC_DelSig_1.c ****     tmpReg |= (gain << 2);
 877              		.loc 1 454 0
 878 001c FB79     		ldrb	r3, [r7, #7]	@ zero_extendqisi2
 879 001e 4FEA8303 		lsl	r3, r3, #2
 880 0022 DAB2     		uxtb	r2, r3
 881 0024 FB7B     		ldrb	r3, [r7, #15]	@ zero_extendqisi2
 882 0026 42EA0303 		orr	r3, r2, r3
 883 002a DBB2     		uxtb	r3, r3
 884 002c FB73     		strb	r3, [r7, #15]
 455:.\Generated_Source\PSoC5/ADC_DelSig_1.c ****     ADC_DelSig_1_DSM_BUF1_REG = tmpReg;
 885              		.loc 1 455 0
 886 002e 45F69B03 		movw	r3, #:lower16:1073764507
 887 0032 C4F20003 		movt	r3, #:upper16:1073764507
 888 0036 FA7B     		ldrb	r2, [r7, #15]
 889 0038 1A70     		strb	r2, [r3, #0]
 456:.\Generated_Source\PSoC5/ADC_DelSig_1.c **** }
 890              		.loc 1 456 0
 891 003a 07F11407 		add	r7, r7, #20
 892 003e BD46     		mov	sp, r7
 893 0040 80BC     		pop	{r7}
 894 0042 7047     		bx	lr
 895              		.cfi_endproc
 896              	.LFE7:
 897              		.size	ADC_DelSig_1_SetBufferGain, .-ADC_DelSig_1_SetBufferGain
 898              		.section	.text.ADC_DelSig_1_SetCoherency,"ax",%progbits
 899              		.align	2
 900              		.global	ADC_DelSig_1_SetCoherency
 901              		.thumb
 902              		.thumb_func
 903              		.type	ADC_DelSig_1_SetCoherency, %function
 904              	ADC_DelSig_1_SetCoherency:
 905              	.LFB8:
 457:.\Generated_Source\PSoC5/ADC_DelSig_1.c **** 
 458:.\Generated_Source\PSoC5/ADC_DelSig_1.c **** 
 459:.\Generated_Source\PSoC5/ADC_DelSig_1.c **** /*******************************************************************************
ARM GAS  C:\Users\hoangp\AppData\Local\Temp\ccZOsuqR.s 			page 25


 460:.\Generated_Source\PSoC5/ADC_DelSig_1.c **** * Function Name: ADC_DelSig_1_SetCoherency
 461:.\Generated_Source\PSoC5/ADC_DelSig_1.c **** ********************************************************************************
 462:.\Generated_Source\PSoC5/ADC_DelSig_1.c **** *
 463:.\Generated_Source\PSoC5/ADC_DelSig_1.c **** * Summary:
 464:.\Generated_Source\PSoC5/ADC_DelSig_1.c **** *  Sets the ADC output register coherency bit.
 465:.\Generated_Source\PSoC5/ADC_DelSig_1.c **** *
 466:.\Generated_Source\PSoC5/ADC_DelSig_1.c **** * Parameters:  
 467:.\Generated_Source\PSoC5/ADC_DelSig_1.c **** *  gain:  Two bit value to set the coherency bit.
 468:.\Generated_Source\PSoC5/ADC_DelSig_1.c ****           00-Coherency checking off
 469:.\Generated_Source\PSoC5/ADC_DelSig_1.c ****           01-low byte is key byte
 470:.\Generated_Source\PSoC5/ADC_DelSig_1.c ****           02-middle byte is the key byte
 471:.\Generated_Source\PSoC5/ADC_DelSig_1.c ****           03-high byte is the key byte
 472:.\Generated_Source\PSoC5/ADC_DelSig_1.c **** *
 473:.\Generated_Source\PSoC5/ADC_DelSig_1.c **** * Return: 
 474:.\Generated_Source\PSoC5/ADC_DelSig_1.c **** *  void
 475:.\Generated_Source\PSoC5/ADC_DelSig_1.c **** *
 476:.\Generated_Source\PSoC5/ADC_DelSig_1.c **** * Side Effects:  If the coherency is changed, for any reason, it should be 
 477:.\Generated_Source\PSoC5/ADC_DelSig_1.c **** *                changed back to the LSB when the provided "GetResult" API 
 478:.\Generated_Source\PSoC5/ADC_DelSig_1.c **** *                is used.
 479:.\Generated_Source\PSoC5/ADC_DelSig_1.c **** *
 480:.\Generated_Source\PSoC5/ADC_DelSig_1.c **** *******************************************************************************/
 481:.\Generated_Source\PSoC5/ADC_DelSig_1.c **** void ADC_DelSig_1_SetCoherency(uint8 coherency) 
 482:.\Generated_Source\PSoC5/ADC_DelSig_1.c **** {
 906              		.loc 1 482 0
 907              		.cfi_startproc
 908              		@ args = 0, pretend = 0, frame = 16
 909              		@ frame_needed = 1, uses_anonymous_args = 0
 910              		@ link register save eliminated.
 911 0000 80B4     		push	{r7}
 912              	.LCFI17:
 913              		.cfi_def_cfa_offset 4
 914 0002 85B0     		sub	sp, sp, #20
 915              	.LCFI18:
 916              		.cfi_def_cfa_offset 24
 917 0004 00AF     		add	r7, sp, #0
 918              		.cfi_offset 7, -4
 919              	.LCFI19:
 920              		.cfi_def_cfa_register 7
 921 0006 0346     		mov	r3, r0
 922 0008 FB71     		strb	r3, [r7, #7]
 483:.\Generated_Source\PSoC5/ADC_DelSig_1.c ****     uint8 tmpReg;    
 484:.\Generated_Source\PSoC5/ADC_DelSig_1.c ****     tmpReg = ADC_DelSig_1_DEC_COHER_REG & ~ADC_DelSig_1_DEC_SAMP_KEY_MASK;
 923              		.loc 1 484 0
 924 000a 44F61463 		movw	r3, #:lower16:1073761812
 925 000e C4F20003 		movt	r3, #:upper16:1073761812
 926 0012 1B78     		ldrb	r3, [r3, #0]
 927 0014 DBB2     		uxtb	r3, r3
 928 0016 23F00303 		bic	r3, r3, #3
 929 001a FB73     		strb	r3, [r7, #15]
 485:.\Generated_Source\PSoC5/ADC_DelSig_1.c ****     tmpReg |= coherency;
 930              		.loc 1 485 0
 931 001c FA7B     		ldrb	r2, [r7, #15]
 932 001e FB79     		ldrb	r3, [r7, #7]
 933 0020 42EA0303 		orr	r3, r2, r3
 934 0024 FB73     		strb	r3, [r7, #15]
 486:.\Generated_Source\PSoC5/ADC_DelSig_1.c ****     ADC_DelSig_1_DEC_COHER_REG = tmpReg;
 935              		.loc 1 486 0
ARM GAS  C:\Users\hoangp\AppData\Local\Temp\ccZOsuqR.s 			page 26


 936 0026 44F61463 		movw	r3, #:lower16:1073761812
 937 002a C4F20003 		movt	r3, #:upper16:1073761812
 938 002e FA7B     		ldrb	r2, [r7, #15]
 939 0030 1A70     		strb	r2, [r3, #0]
 487:.\Generated_Source\PSoC5/ADC_DelSig_1.c **** }
 940              		.loc 1 487 0
 941 0032 07F11407 		add	r7, r7, #20
 942 0036 BD46     		mov	sp, r7
 943 0038 80BC     		pop	{r7}
 944 003a 7047     		bx	lr
 945              		.cfi_endproc
 946              	.LFE8:
 947              		.size	ADC_DelSig_1_SetCoherency, .-ADC_DelSig_1_SetCoherency
 948              		.global	__aeabi_ui2f
 949              		.global	__aeabi_fdiv
 950              		.global	__aeabi_fmul
 951              		.global	__aeabi_f2d
 952              		.global	__aeabi_dcmpgt
 953              		.global	__aeabi_f2uiz
 954              		.section	.text.ADC_DelSig_1_SetGCOR,"ax",%progbits
 955              		.align	2
 956              		.global	ADC_DelSig_1_SetGCOR
 957              		.thumb
 958              		.thumb_func
 959              		.type	ADC_DelSig_1_SetGCOR, %function
 960              	ADC_DelSig_1_SetGCOR:
 961              	.LFB9:
 488:.\Generated_Source\PSoC5/ADC_DelSig_1.c **** 
 489:.\Generated_Source\PSoC5/ADC_DelSig_1.c **** 
 490:.\Generated_Source\PSoC5/ADC_DelSig_1.c **** /*******************************************************************************
 491:.\Generated_Source\PSoC5/ADC_DelSig_1.c **** * Function Name: ADC_DelSig_1_SetGCOR
 492:.\Generated_Source\PSoC5/ADC_DelSig_1.c **** ********************************************************************************
 493:.\Generated_Source\PSoC5/ADC_DelSig_1.c **** *
 494:.\Generated_Source\PSoC5/ADC_DelSig_1.c **** * Summary:
 495:.\Generated_Source\PSoC5/ADC_DelSig_1.c **** *  Calculates a new GCOR value and writes it into the GCOR register.
 496:.\Generated_Source\PSoC5/ADC_DelSig_1.c **** *
 497:.\Generated_Source\PSoC5/ADC_DelSig_1.c **** * Parameters:  
 498:.\Generated_Source\PSoC5/ADC_DelSig_1.c **** *  gainAdjust:  floating point value to set GCOR registers.
 499:.\Generated_Source\PSoC5/ADC_DelSig_1.c **** *
 500:.\Generated_Source\PSoC5/ADC_DelSig_1.c **** * Return: 
 501:.\Generated_Source\PSoC5/ADC_DelSig_1.c **** *  uint8:  0-if GCOR value is within the expected range.
 502:.\Generated_Source\PSoC5/ADC_DelSig_1.c ****            1- if GCOR is outside the expected range.
 503:.\Generated_Source\PSoC5/ADC_DelSig_1.c **** *
 504:.\Generated_Source\PSoC5/ADC_DelSig_1.c **** * Side Effects:  The GVAL register is set to the amount of valid bits in the
 505:.\Generated_Source\PSoC5/ADC_DelSig_1.c **** *                GCOR  register minus one. If GVAL is 15 (0x0F), all 16 bits
 506:.\Generated_Source\PSoC5/ADC_DelSig_1.c **** *                of the GCOR registers will be valid. If for example GVAL is 
 507:.\Generated_Source\PSoC5/ADC_DelSig_1.c **** *                11 (0x0B) only 12 bits will be valid. The least 4 bits will
 508:.\Generated_Source\PSoC5/ADC_DelSig_1.c **** *                be lost when the GCOR value is shifted 4 places to the right.
 509:.\Generated_Source\PSoC5/ADC_DelSig_1.c **** *
 510:.\Generated_Source\PSoC5/ADC_DelSig_1.c **** ******************************************************************************/
 511:.\Generated_Source\PSoC5/ADC_DelSig_1.c **** uint8 ADC_DelSig_1_SetGCOR(float gainAdjust) 
 512:.\Generated_Source\PSoC5/ADC_DelSig_1.c **** {
 962              		.loc 1 512 0
 963              		.cfi_startproc
 964              		@ args = 0, pretend = 0, frame = 16
 965              		@ frame_needed = 1, uses_anonymous_args = 0
 966 0000 90B5     		push	{r4, r7, lr}
ARM GAS  C:\Users\hoangp\AppData\Local\Temp\ccZOsuqR.s 			page 27


 967              	.LCFI20:
 968              		.cfi_def_cfa_offset 12
 969 0002 85B0     		sub	sp, sp, #20
 970              	.LCFI21:
 971              		.cfi_def_cfa_offset 32
 972 0004 00AF     		add	r7, sp, #0
 973              		.cfi_offset 14, -4
 974              		.cfi_offset 7, -8
 975              		.cfi_offset 4, -12
 976              	.LCFI22:
 977              		.cfi_def_cfa_register 7
 978 0006 7860     		str	r0, [r7, #4]	@ float
 513:.\Generated_Source\PSoC5/ADC_DelSig_1.c ****     uint16 tmpReg;
 514:.\Generated_Source\PSoC5/ADC_DelSig_1.c ****     uint8 status;
 515:.\Generated_Source\PSoC5/ADC_DelSig_1.c ****     float tmpValue;
 516:.\Generated_Source\PSoC5/ADC_DelSig_1.c ****     
 517:.\Generated_Source\PSoC5/ADC_DelSig_1.c ****     tmpReg = ADC_DelSig_1_DEC_GCORH_REG;
 979              		.loc 1 517 0
 980 0008 44F60D63 		movw	r3, #:lower16:1073761805
 981 000c C4F20003 		movt	r3, #:upper16:1073761805
 982 0010 1B78     		ldrb	r3, [r3, #0]
 983 0012 DBB2     		uxtb	r3, r3
 984 0014 3B81     		strh	r3, [r7, #8]	@ movhi
 518:.\Generated_Source\PSoC5/ADC_DelSig_1.c ****     tmpReg = (tmpReg << 8) | ADC_DelSig_1_DEC_GCOR_REG;
 985              		.loc 1 518 0
 986 0016 3B89     		ldrh	r3, [r7, #8]
 987 0018 4FEA0323 		lsl	r3, r3, #8
 988 001c 9AB2     		uxth	r2, r3
 989 001e 44F60C63 		movw	r3, #:lower16:1073761804
 990 0022 C4F20003 		movt	r3, #:upper16:1073761804
 991 0026 1B78     		ldrb	r3, [r3, #0]
 992 0028 DBB2     		uxtb	r3, r3
 993 002a 42EA0303 		orr	r3, r2, r3
 994 002e 9BB2     		uxth	r3, r3
 995 0030 3B81     		strh	r3, [r7, #8]	@ movhi
 519:.\Generated_Source\PSoC5/ADC_DelSig_1.c ****     tmpValue = ((float)tmpReg / ADC_DelSig_1_IDEAL_GAIN_CONST);
 996              		.loc 1 519 0
 997 0032 3B89     		ldrh	r3, [r7, #8]
 998 0034 1846     		mov	r0, r3
 999 0036 FFF7FEFF 		bl	__aeabi_ui2f
 1000 003a 0346     		mov	r3, r0
 1001 003c 1846     		mov	r0, r3
 1002 003e 2849     		ldr	r1, .L29+8	@ float
 1003 0040 FFF7FEFF 		bl	__aeabi_fdiv
 1004 0044 0346     		mov	r3, r0
 1005 0046 FB60     		str	r3, [r7, #12]	@ float
 520:.\Generated_Source\PSoC5/ADC_DelSig_1.c ****     tmpValue = tmpValue * gainAdjust;
 1006              		.loc 1 520 0
 1007 0048 F868     		ldr	r0, [r7, #12]	@ float
 1008 004a 7968     		ldr	r1, [r7, #4]	@ float
 1009 004c FFF7FEFF 		bl	__aeabi_fmul
 1010 0050 0346     		mov	r3, r0
 1011 0052 FB60     		str	r3, [r7, #12]	@ float
 521:.\Generated_Source\PSoC5/ADC_DelSig_1.c ****     
 522:.\Generated_Source\PSoC5/ADC_DelSig_1.c ****     if (tmpValue > 1.9999)
 1012              		.loc 1 522 0
 1013 0054 F868     		ldr	r0, [r7, #12]	@ float
ARM GAS  C:\Users\hoangp\AppData\Local\Temp\ccZOsuqR.s 			page 28


 1014 0056 FFF7FEFF 		bl	__aeabi_f2d
 1015 005a 0246     		mov	r2, r0
 1016 005c 0B46     		mov	r3, r1
 1017 005e 4FF00001 		mov	r1, #0
 1018 0062 0C46     		mov	r4, r1
 1019 0064 1046     		mov	r0, r2
 1020 0066 1946     		mov	r1, r3
 1021 0068 1BA3     		adr	r3, .L29
 1022 006a D3E90023 		ldrd	r2, [r3]
 1023 006e FFF7FEFF 		bl	__aeabi_dcmpgt
 1024 0072 0346     		mov	r3, r0
 1025 0074 002B     		cmp	r3, #0
 1026 0076 02D0     		beq	.L24
 1027              	.L25:
 1028 0078 4FF00103 		mov	r3, #1
 1029 007c 1C46     		mov	r4, r3
 1030              	.L24:
 1031 007e E3B2     		uxtb	r3, r4
 1032 0080 002B     		cmp	r3, #0
 1033 0082 03D0     		beq	.L26
 523:.\Generated_Source\PSoC5/ADC_DelSig_1.c ****     {
 524:.\Generated_Source\PSoC5/ADC_DelSig_1.c ****         status = 1;
 1034              		.loc 1 524 0
 1035 0084 4FF00103 		mov	r3, #1
 1036 0088 FB72     		strb	r3, [r7, #11]
 1037 008a 1DE0     		b	.L27
 1038              	.L26:
 525:.\Generated_Source\PSoC5/ADC_DelSig_1.c ****     }
 526:.\Generated_Source\PSoC5/ADC_DelSig_1.c ****     else
 527:.\Generated_Source\PSoC5/ADC_DelSig_1.c ****     {
 528:.\Generated_Source\PSoC5/ADC_DelSig_1.c ****         tmpReg = (uint16)(tmpValue * ADC_DelSig_1_IDEAL_GAIN_CONST);
 1039              		.loc 1 528 0
 1040 008c F868     		ldr	r0, [r7, #12]	@ float
 1041 008e 1449     		ldr	r1, .L29+8	@ float
 1042 0090 FFF7FEFF 		bl	__aeabi_fmul
 1043 0094 0346     		mov	r3, r0
 1044 0096 1846     		mov	r0, r3
 1045 0098 FFF7FEFF 		bl	__aeabi_f2uiz
 1046 009c 0346     		mov	r3, r0
 1047 009e 3B81     		strh	r3, [r7, #8]	@ movhi
 529:.\Generated_Source\PSoC5/ADC_DelSig_1.c ****         ADC_DelSig_1_DEC_GCOR_REG = (uint8)tmpReg;
 1048              		.loc 1 529 0
 1049 00a0 44F60C63 		movw	r3, #:lower16:1073761804
 1050 00a4 C4F20003 		movt	r3, #:upper16:1073761804
 1051 00a8 3A89     		ldrh	r2, [r7, #8]	@ movhi
 1052 00aa D2B2     		uxtb	r2, r2
 1053 00ac 1A70     		strb	r2, [r3, #0]
 530:.\Generated_Source\PSoC5/ADC_DelSig_1.c ****         ADC_DelSig_1_DEC_GCORH_REG = (uint8) (tmpReg >> 8);
 1054              		.loc 1 530 0
 1055 00ae 44F60D63 		movw	r3, #:lower16:1073761805
 1056 00b2 C4F20003 		movt	r3, #:upper16:1073761805
 1057 00b6 3A89     		ldrh	r2, [r7, #8]
 1058 00b8 4FEA1222 		lsr	r2, r2, #8
 1059 00bc 92B2     		uxth	r2, r2
 1060 00be D2B2     		uxtb	r2, r2
 1061 00c0 1A70     		strb	r2, [r3, #0]
 531:.\Generated_Source\PSoC5/ADC_DelSig_1.c ****         status = 0;
ARM GAS  C:\Users\hoangp\AppData\Local\Temp\ccZOsuqR.s 			page 29


 1062              		.loc 1 531 0
 1063 00c2 4FF00003 		mov	r3, #0
 1064 00c6 FB72     		strb	r3, [r7, #11]
 1065              	.L27:
 532:.\Generated_Source\PSoC5/ADC_DelSig_1.c ****     }
 533:.\Generated_Source\PSoC5/ADC_DelSig_1.c ****     
 534:.\Generated_Source\PSoC5/ADC_DelSig_1.c ****     return status;
 1066              		.loc 1 534 0
 1067 00c8 FB7A     		ldrb	r3, [r7, #11]	@ zero_extendqisi2
 535:.\Generated_Source\PSoC5/ADC_DelSig_1.c **** }
 1068              		.loc 1 535 0
 1069 00ca 1846     		mov	r0, r3
 1070 00cc 07F11407 		add	r7, r7, #20
 1071 00d0 BD46     		mov	sp, r7
 1072 00d2 90BD     		pop	{r4, r7, pc}
 1073              	.L30:
 1074 00d4 AFF30080 		.align	3
 1075              	.L29:
 1076 00d8 8F537424 		.word	611603343
 1077 00dc 97FFFF3F 		.word	1073741719
 1078 00e0 00000047 		.word	1191182336
 1079              		.cfi_endproc
 1080              	.LFE9:
 1081              		.size	ADC_DelSig_1_SetGCOR, .-ADC_DelSig_1_SetGCOR
 1082 00e4 AFF30080 		.section	.text.ADC_DelSig_1_ReadGCOR,"ax",%progbits
 1083              		.align	2
 1084              		.global	ADC_DelSig_1_ReadGCOR
 1085              		.thumb
 1086              		.thumb_func
 1087              		.type	ADC_DelSig_1_ReadGCOR, %function
 1088              	ADC_DelSig_1_ReadGCOR:
 1089              	.LFB10:
 536:.\Generated_Source\PSoC5/ADC_DelSig_1.c **** 
 537:.\Generated_Source\PSoC5/ADC_DelSig_1.c **** 
 538:.\Generated_Source\PSoC5/ADC_DelSig_1.c **** /******************************************************************************
 539:.\Generated_Source\PSoC5/ADC_DelSig_1.c **** * Function Name: ADC_DelSig_1_ReadGCOR
 540:.\Generated_Source\PSoC5/ADC_DelSig_1.c **** *******************************************************************************
 541:.\Generated_Source\PSoC5/ADC_DelSig_1.c **** *
 542:.\Generated_Source\PSoC5/ADC_DelSig_1.c **** * Summary:
 543:.\Generated_Source\PSoC5/ADC_DelSig_1.c **** *  This API returns the current GCOR register value, normalized based on the 
 544:.\Generated_Source\PSoC5/ADC_DelSig_1.c **** *  GVAL register settings.
 545:.\Generated_Source\PSoC5/ADC_DelSig_1.c **** *
 546:.\Generated_Source\PSoC5/ADC_DelSig_1.c **** * Parameters:  
 547:.\Generated_Source\PSoC5/ADC_DelSig_1.c **** *  void
 548:.\Generated_Source\PSoC5/ADC_DelSig_1.c **** *
 549:.\Generated_Source\PSoC5/ADC_DelSig_1.c **** * Return: 
 550:.\Generated_Source\PSoC5/ADC_DelSig_1.c **** *  uint16:  Normalized GCOR value.
 551:.\Generated_Source\PSoC5/ADC_DelSig_1.c **** *
 552:.\Generated_Source\PSoC5/ADC_DelSig_1.c **** * Side Effects:  If the GVAL register is set to a value greater than 0x0F, then
 553:.\Generated_Source\PSoC5/ADC_DelSig_1.c ****                  it gives unexpected value.
 554:.\Generated_Source\PSoC5/ADC_DelSig_1.c **** *
 555:.\Generated_Source\PSoC5/ADC_DelSig_1.c **** *******************************************************************************/
 556:.\Generated_Source\PSoC5/ADC_DelSig_1.c **** uint16 ADC_DelSig_1_ReadGCOR(void) 
 557:.\Generated_Source\PSoC5/ADC_DelSig_1.c **** {
 1090              		.loc 1 557 0
 1091              		.cfi_startproc
 1092              		@ args = 0, pretend = 0, frame = 8
ARM GAS  C:\Users\hoangp\AppData\Local\Temp\ccZOsuqR.s 			page 30


 1093              		@ frame_needed = 1, uses_anonymous_args = 0
 1094              		@ link register save eliminated.
 1095 0000 80B4     		push	{r7}
 1096              	.LCFI23:
 1097              		.cfi_def_cfa_offset 4
 1098 0002 83B0     		sub	sp, sp, #12
 1099              	.LCFI24:
 1100              		.cfi_def_cfa_offset 16
 1101 0004 00AF     		add	r7, sp, #0
 1102              		.cfi_offset 7, -4
 1103              	.LCFI25:
 1104              		.cfi_def_cfa_register 7
 558:.\Generated_Source\PSoC5/ADC_DelSig_1.c ****     uint8 gValue;
 559:.\Generated_Source\PSoC5/ADC_DelSig_1.c ****     uint16 gcorValue, gcorRegValue;
 560:.\Generated_Source\PSoC5/ADC_DelSig_1.c ****     
 561:.\Generated_Source\PSoC5/ADC_DelSig_1.c ****     gValue = ADC_DelSig_1_DEC_GVAL_REG;
 1105              		.loc 1 561 0
 1106 0006 44F60E63 		movw	r3, #:lower16:1073761806
 1107 000a C4F20003 		movt	r3, #:upper16:1073761806
 1108 000e 1B78     		ldrb	r3, [r3, #0]
 1109 0010 FB70     		strb	r3, [r7, #3]
 562:.\Generated_Source\PSoC5/ADC_DelSig_1.c ****     gcorRegValue = CY_GET_REG16(ADC_DelSig_1_DEC_GCOR_PTR);
 1110              		.loc 1 562 0
 1111 0012 44F60C63 		movw	r3, #:lower16:1073761804
 1112 0016 C4F20003 		movt	r3, #:upper16:1073761804
 1113 001a 1B88     		ldrh	r3, [r3, #0]	@ movhi
 1114 001c FB80     		strh	r3, [r7, #6]	@ movhi
 563:.\Generated_Source\PSoC5/ADC_DelSig_1.c ****     
 564:.\Generated_Source\PSoC5/ADC_DelSig_1.c ****     switch (gValue)
 1115              		.loc 1 564 0
 1116 001e FB78     		ldrb	r3, [r7, #3]	@ zero_extendqisi2
 1117 0020 A3F10903 		sub	r3, r3, #9
 1118 0024 052B     		cmp	r3, #5
 1119 0026 3FD8     		bhi	.L32
 1120 0028 01A2     		adr	r2, .L39
 1121 002a 52F823F0 		ldr	pc, [r2, r3, lsl #2]
 1122 002e 00BF     		.align	2
 1123              	.L39:
 1124 0030 49000000 		.word	.L33+1
 1125 0034 59000000 		.word	.L34+1
 1126 0038 69000000 		.word	.L35+1
 1127 003c 79000000 		.word	.L36+1
 1128 0040 89000000 		.word	.L37+1
 1129 0044 99000000 		.word	.L38+1
 1130              	.L33:
 565:.\Generated_Source\PSoC5/ADC_DelSig_1.c ****     {
 566:.\Generated_Source\PSoC5/ADC_DelSig_1.c ****         case ADC_DelSig_1_GVAL_RESOLUTIN_8:
 567:.\Generated_Source\PSoC5/ADC_DelSig_1.c ****             gcorValue = gcorRegValue << (ADC_DelSig_1_MAX_GVAL - gValue);
 1131              		.loc 1 567 0
 1132 0048 FA88     		ldrh	r2, [r7, #6]
 1133 004a FB78     		ldrb	r3, [r7, #3]	@ zero_extendqisi2
 1134 004c C3F10F03 		rsb	r3, r3, #15
 1135 0050 02FA03F3 		lsl	r3, r2, r3
 1136 0054 BB80     		strh	r3, [r7, #4]	@ movhi
 568:.\Generated_Source\PSoC5/ADC_DelSig_1.c ****             break;
 1137              		.loc 1 568 0
 1138 0056 29E0     		b	.L40
ARM GAS  C:\Users\hoangp\AppData\Local\Temp\ccZOsuqR.s 			page 31


 1139              	.L34:
 569:.\Generated_Source\PSoC5/ADC_DelSig_1.c ****         
 570:.\Generated_Source\PSoC5/ADC_DelSig_1.c ****         case ADC_DelSig_1_GVAL_RESOLUTIN_9:
 571:.\Generated_Source\PSoC5/ADC_DelSig_1.c ****             gcorValue = gcorRegValue << (ADC_DelSig_1_MAX_GVAL - gValue);
 1140              		.loc 1 571 0
 1141 0058 FA88     		ldrh	r2, [r7, #6]
 1142 005a FB78     		ldrb	r3, [r7, #3]	@ zero_extendqisi2
 1143 005c C3F10F03 		rsb	r3, r3, #15
 1144 0060 02FA03F3 		lsl	r3, r2, r3
 1145 0064 BB80     		strh	r3, [r7, #4]	@ movhi
 572:.\Generated_Source\PSoC5/ADC_DelSig_1.c ****             break;
 1146              		.loc 1 572 0
 1147 0066 21E0     		b	.L40
 1148              	.L35:
 573:.\Generated_Source\PSoC5/ADC_DelSig_1.c ****             
 574:.\Generated_Source\PSoC5/ADC_DelSig_1.c ****         case ADC_DelSig_1_GVAL_RESOLUTIN_10:
 575:.\Generated_Source\PSoC5/ADC_DelSig_1.c ****             gcorValue = gcorRegValue << (ADC_DelSig_1_MAX_GVAL - gValue);
 1149              		.loc 1 575 0
 1150 0068 FA88     		ldrh	r2, [r7, #6]
 1151 006a FB78     		ldrb	r3, [r7, #3]	@ zero_extendqisi2
 1152 006c C3F10F03 		rsb	r3, r3, #15
 1153 0070 02FA03F3 		lsl	r3, r2, r3
 1154 0074 BB80     		strh	r3, [r7, #4]	@ movhi
 576:.\Generated_Source\PSoC5/ADC_DelSig_1.c ****             break;
 1155              		.loc 1 576 0
 1156 0076 19E0     		b	.L40
 1157              	.L36:
 577:.\Generated_Source\PSoC5/ADC_DelSig_1.c ****             
 578:.\Generated_Source\PSoC5/ADC_DelSig_1.c ****         case ADC_DelSig_1_GVAL_RESOLUTIN_11:
 579:.\Generated_Source\PSoC5/ADC_DelSig_1.c ****             gcorValue = gcorRegValue << (ADC_DelSig_1_MAX_GVAL - gValue);
 1158              		.loc 1 579 0
 1159 0078 FA88     		ldrh	r2, [r7, #6]
 1160 007a FB78     		ldrb	r3, [r7, #3]	@ zero_extendqisi2
 1161 007c C3F10F03 		rsb	r3, r3, #15
 1162 0080 02FA03F3 		lsl	r3, r2, r3
 1163 0084 BB80     		strh	r3, [r7, #4]	@ movhi
 580:.\Generated_Source\PSoC5/ADC_DelSig_1.c ****             break;
 1164              		.loc 1 580 0
 1165 0086 11E0     		b	.L40
 1166              	.L37:
 581:.\Generated_Source\PSoC5/ADC_DelSig_1.c ****             
 582:.\Generated_Source\PSoC5/ADC_DelSig_1.c ****         case ADC_DelSig_1_GVAL_RESOLUTIN_12:
 583:.\Generated_Source\PSoC5/ADC_DelSig_1.c ****             gcorValue = gcorRegValue << (ADC_DelSig_1_MAX_GVAL - gValue);
 1167              		.loc 1 583 0
 1168 0088 FA88     		ldrh	r2, [r7, #6]
 1169 008a FB78     		ldrb	r3, [r7, #3]	@ zero_extendqisi2
 1170 008c C3F10F03 		rsb	r3, r3, #15
 1171 0090 02FA03F3 		lsl	r3, r2, r3
 1172 0094 BB80     		strh	r3, [r7, #4]	@ movhi
 584:.\Generated_Source\PSoC5/ADC_DelSig_1.c ****             break;
 1173              		.loc 1 584 0
 1174 0096 09E0     		b	.L40
 1175              	.L38:
 585:.\Generated_Source\PSoC5/ADC_DelSig_1.c ****             
 586:.\Generated_Source\PSoC5/ADC_DelSig_1.c ****         case ADC_DelSig_1_GVAL_RESOLUTIN_13:
 587:.\Generated_Source\PSoC5/ADC_DelSig_1.c ****             gcorValue = gcorRegValue << (ADC_DelSig_1_MAX_GVAL - gValue);
 1176              		.loc 1 587 0
ARM GAS  C:\Users\hoangp\AppData\Local\Temp\ccZOsuqR.s 			page 32


 1177 0098 FA88     		ldrh	r2, [r7, #6]
 1178 009a FB78     		ldrb	r3, [r7, #3]	@ zero_extendqisi2
 1179 009c C3F10F03 		rsb	r3, r3, #15
 1180 00a0 02FA03F3 		lsl	r3, r2, r3
 1181 00a4 BB80     		strh	r3, [r7, #4]	@ movhi
 588:.\Generated_Source\PSoC5/ADC_DelSig_1.c ****             break;
 1182              		.loc 1 588 0
 1183 00a6 01E0     		b	.L40
 1184              	.L32:
 589:.\Generated_Source\PSoC5/ADC_DelSig_1.c ****             
 590:.\Generated_Source\PSoC5/ADC_DelSig_1.c ****         default:
 591:.\Generated_Source\PSoC5/ADC_DelSig_1.c ****             gcorValue = gcorRegValue;
 1185              		.loc 1 591 0
 1186 00a8 FB88     		ldrh	r3, [r7, #6]	@ movhi
 1187 00aa BB80     		strh	r3, [r7, #4]	@ movhi
 1188              	.L40:
 592:.\Generated_Source\PSoC5/ADC_DelSig_1.c ****             break;
 593:.\Generated_Source\PSoC5/ADC_DelSig_1.c ****     }
 594:.\Generated_Source\PSoC5/ADC_DelSig_1.c ****         
 595:.\Generated_Source\PSoC5/ADC_DelSig_1.c ****     return gcorValue;
 1189              		.loc 1 595 0
 1190 00ac BB88     		ldrh	r3, [r7, #4]
 596:.\Generated_Source\PSoC5/ADC_DelSig_1.c **** }
 1191              		.loc 1 596 0
 1192 00ae 1846     		mov	r0, r3
 1193 00b0 07F10C07 		add	r7, r7, #12
 1194 00b4 BD46     		mov	sp, r7
 1195 00b6 80BC     		pop	{r7}
 1196 00b8 7047     		bx	lr
 1197              		.cfi_endproc
 1198              	.LFE10:
 1199              		.size	ADC_DelSig_1_ReadGCOR, .-ADC_DelSig_1_ReadGCOR
 1200 00ba 00BF     		.section	.text.ADC_DelSig_1_SetBufferChop,"ax",%progbits
 1201              		.align	2
 1202              		.global	ADC_DelSig_1_SetBufferChop
 1203              		.thumb
 1204              		.thumb_func
 1205              		.type	ADC_DelSig_1_SetBufferChop, %function
 1206              	ADC_DelSig_1_SetBufferChop:
 1207              	.LFB11:
 597:.\Generated_Source\PSoC5/ADC_DelSig_1.c **** 
 598:.\Generated_Source\PSoC5/ADC_DelSig_1.c **** 
 599:.\Generated_Source\PSoC5/ADC_DelSig_1.c **** /*******************************************************************************
 600:.\Generated_Source\PSoC5/ADC_DelSig_1.c **** * Function Name: ADC_DelSig_1_SetBufferChop
 601:.\Generated_Source\PSoC5/ADC_DelSig_1.c **** ********************************************************************************
 602:.\Generated_Source\PSoC5/ADC_DelSig_1.c **** *
 603:.\Generated_Source\PSoC5/ADC_DelSig_1.c **** * Summary:
 604:.\Generated_Source\PSoC5/ADC_DelSig_1.c **** *  Sets the Delta Sigma Modulator Buffer chopper mode.
 605:.\Generated_Source\PSoC5/ADC_DelSig_1.c **** *
 606:.\Generated_Source\PSoC5/ADC_DelSig_1.c **** * Parameters:  
 607:.\Generated_Source\PSoC5/ADC_DelSig_1.c **** *  chopen:  If non-zero set the chopper mode.
 608:.\Generated_Source\PSoC5/ADC_DelSig_1.c **** *  chopFreq:  Chop frequency value.
 609:.\Generated_Source\PSoC5/ADC_DelSig_1.c **** *
 610:.\Generated_Source\PSoC5/ADC_DelSig_1.c **** * Return: 
 611:.\Generated_Source\PSoC5/ADC_DelSig_1.c **** *  void
 612:.\Generated_Source\PSoC5/ADC_DelSig_1.c **** *
 613:.\Generated_Source\PSoC5/ADC_DelSig_1.c **** *******************************************************************************/
ARM GAS  C:\Users\hoangp\AppData\Local\Temp\ccZOsuqR.s 			page 33


 614:.\Generated_Source\PSoC5/ADC_DelSig_1.c **** void ADC_DelSig_1_SetBufferChop(uint8 chopen, uint8 chopFreq) 
 615:.\Generated_Source\PSoC5/ADC_DelSig_1.c **** {
 1208              		.loc 1 615 0
 1209              		.cfi_startproc
 1210              		@ args = 0, pretend = 0, frame = 8
 1211              		@ frame_needed = 1, uses_anonymous_args = 0
 1212              		@ link register save eliminated.
 1213 0000 80B4     		push	{r7}
 1214              	.LCFI26:
 1215              		.cfi_def_cfa_offset 4
 1216 0002 83B0     		sub	sp, sp, #12
 1217              	.LCFI27:
 1218              		.cfi_def_cfa_offset 16
 1219 0004 00AF     		add	r7, sp, #0
 1220              		.cfi_offset 7, -4
 1221              	.LCFI28:
 1222              		.cfi_def_cfa_register 7
 1223 0006 0246     		mov	r2, r0
 1224 0008 0B46     		mov	r3, r1
 1225 000a FA71     		strb	r2, [r7, #7]
 1226 000c BB71     		strb	r3, [r7, #6]
 616:.\Generated_Source\PSoC5/ADC_DelSig_1.c ****     if(chopen != 0u)
 1227              		.loc 1 616 0
 1228 000e FB79     		ldrb	r3, [r7, #7]	@ zero_extendqisi2
 1229 0010 002B     		cmp	r3, #0
 1230 0012 0BD0     		beq	.L43
 617:.\Generated_Source\PSoC5/ADC_DelSig_1.c ****     {
 618:.\Generated_Source\PSoC5/ADC_DelSig_1.c ****         ADC_DelSig_1_DSM_BUF2_REG = (ADC_DelSig_1_DSM_BUF_FCHOP_MASK & chopFreq) | \
 1231              		.loc 1 618 0
 1232 0014 45F69C03 		movw	r3, #:lower16:1073764508
 1233 0018 C4F20003 		movt	r3, #:upper16:1073764508
 1234 001c BA79     		ldrb	r2, [r7, #6]	@ zero_extendqisi2
 1235 001e 02F00702 		and	r2, r2, #7
 1236 0022 42F00802 		orr	r2, r2, #8
 1237 0026 D2B2     		uxtb	r2, r2
 1238 0028 1A70     		strb	r2, [r3, #0]
 1239 002a 06E0     		b	.L45
 1240              	.L43:
 619:.\Generated_Source\PSoC5/ADC_DelSig_1.c ****                                          ADC_DelSig_1_DSM_BUF_CHOP_EN;
 620:.\Generated_Source\PSoC5/ADC_DelSig_1.c ****     }
 621:.\Generated_Source\PSoC5/ADC_DelSig_1.c ****     else
 622:.\Generated_Source\PSoC5/ADC_DelSig_1.c ****     {
 623:.\Generated_Source\PSoC5/ADC_DelSig_1.c ****         ADC_DelSig_1_DSM_BUF2_REG = 0x00u;
 1241              		.loc 1 623 0
 1242 002c 45F69C03 		movw	r3, #:lower16:1073764508
 1243 0030 C4F20003 		movt	r3, #:upper16:1073764508
 1244 0034 4FF00002 		mov	r2, #0
 1245 0038 1A70     		strb	r2, [r3, #0]
 1246              	.L45:
 624:.\Generated_Source\PSoC5/ADC_DelSig_1.c ****     }
 625:.\Generated_Source\PSoC5/ADC_DelSig_1.c **** }
 1247              		.loc 1 625 0
 1248 003a 07F10C07 		add	r7, r7, #12
 1249 003e BD46     		mov	sp, r7
 1250 0040 80BC     		pop	{r7}
 1251 0042 7047     		bx	lr
 1252              		.cfi_endproc
ARM GAS  C:\Users\hoangp\AppData\Local\Temp\ccZOsuqR.s 			page 34


 1253              	.LFE11:
 1254              		.size	ADC_DelSig_1_SetBufferChop, .-ADC_DelSig_1_SetBufferChop
 1255              		.section	.text.ADC_DelSig_1_StartConvert,"ax",%progbits
 1256              		.align	2
 1257              		.global	ADC_DelSig_1_StartConvert
 1258              		.thumb
 1259              		.thumb_func
 1260              		.type	ADC_DelSig_1_StartConvert, %function
 1261              	ADC_DelSig_1_StartConvert:
 1262              	.LFB12:
 626:.\Generated_Source\PSoC5/ADC_DelSig_1.c **** 
 627:.\Generated_Source\PSoC5/ADC_DelSig_1.c **** 
 628:.\Generated_Source\PSoC5/ADC_DelSig_1.c **** /*******************************************************************************
 629:.\Generated_Source\PSoC5/ADC_DelSig_1.c **** * Function Name: ADC_DelSig_1_StartConvert
 630:.\Generated_Source\PSoC5/ADC_DelSig_1.c **** ********************************************************************************
 631:.\Generated_Source\PSoC5/ADC_DelSig_1.c **** *
 632:.\Generated_Source\PSoC5/ADC_DelSig_1.c **** * Summary:
 633:.\Generated_Source\PSoC5/ADC_DelSig_1.c **** *  Starts ADC conversion using the given mode.
 634:.\Generated_Source\PSoC5/ADC_DelSig_1.c **** *
 635:.\Generated_Source\PSoC5/ADC_DelSig_1.c **** * Parameters:  
 636:.\Generated_Source\PSoC5/ADC_DelSig_1.c **** *  void
 637:.\Generated_Source\PSoC5/ADC_DelSig_1.c **** *
 638:.\Generated_Source\PSoC5/ADC_DelSig_1.c **** * Return: 
 639:.\Generated_Source\PSoC5/ADC_DelSig_1.c **** *  void 
 640:.\Generated_Source\PSoC5/ADC_DelSig_1.c **** *
 641:.\Generated_Source\PSoC5/ADC_DelSig_1.c **** *******************************************************************************/
 642:.\Generated_Source\PSoC5/ADC_DelSig_1.c **** void ADC_DelSig_1_StartConvert(void) 
 643:.\Generated_Source\PSoC5/ADC_DelSig_1.c **** {
 1263              		.loc 1 643 0
 1264              		.cfi_startproc
 1265              		@ args = 0, pretend = 0, frame = 0
 1266              		@ frame_needed = 1, uses_anonymous_args = 0
 1267              		@ link register save eliminated.
 1268 0000 80B4     		push	{r7}
 1269              	.LCFI29:
 1270              		.cfi_def_cfa_offset 4
 1271 0002 00AF     		add	r7, sp, #0
 1272              		.cfi_offset 7, -4
 1273              	.LCFI30:
 1274              		.cfi_def_cfa_register 7
 644:.\Generated_Source\PSoC5/ADC_DelSig_1.c ****     /* Start the conversion */
 645:.\Generated_Source\PSoC5/ADC_DelSig_1.c ****     ADC_DelSig_1_DEC_CR_REG |= ADC_DelSig_1_DEC_START_CONV;  
 1275              		.loc 1 645 0
 1276 0004 44F60063 		movw	r3, #:lower16:1073761792
 1277 0008 C4F20003 		movt	r3, #:upper16:1073761792
 1278 000c 44F60062 		movw	r2, #:lower16:1073761792
 1279 0010 C4F20002 		movt	r2, #:upper16:1073761792
 1280 0014 1278     		ldrb	r2, [r2, #0]
 1281 0016 D2B2     		uxtb	r2, r2
 1282 0018 42F00102 		orr	r2, r2, #1
 1283 001c D2B2     		uxtb	r2, r2
 1284 001e 1A70     		strb	r2, [r3, #0]
 646:.\Generated_Source\PSoC5/ADC_DelSig_1.c **** }
 1285              		.loc 1 646 0
 1286 0020 BD46     		mov	sp, r7
 1287 0022 80BC     		pop	{r7}
 1288 0024 7047     		bx	lr
ARM GAS  C:\Users\hoangp\AppData\Local\Temp\ccZOsuqR.s 			page 35


 1289              		.cfi_endproc
 1290              	.LFE12:
 1291              		.size	ADC_DelSig_1_StartConvert, .-ADC_DelSig_1_StartConvert
 1292 0026 00BF     		.section	.text.ADC_DelSig_1_StopConvert,"ax",%progbits
 1293              		.align	2
 1294              		.global	ADC_DelSig_1_StopConvert
 1295              		.thumb
 1296              		.thumb_func
 1297              		.type	ADC_DelSig_1_StopConvert, %function
 1298              	ADC_DelSig_1_StopConvert:
 1299              	.LFB13:
 647:.\Generated_Source\PSoC5/ADC_DelSig_1.c **** 
 648:.\Generated_Source\PSoC5/ADC_DelSig_1.c **** 
 649:.\Generated_Source\PSoC5/ADC_DelSig_1.c **** /*******************************************************************************
 650:.\Generated_Source\PSoC5/ADC_DelSig_1.c **** * Function Name: ADC_DelSig_1_StopConvert
 651:.\Generated_Source\PSoC5/ADC_DelSig_1.c **** ********************************************************************************
 652:.\Generated_Source\PSoC5/ADC_DelSig_1.c **** *
 653:.\Generated_Source\PSoC5/ADC_DelSig_1.c **** * Summary:
 654:.\Generated_Source\PSoC5/ADC_DelSig_1.c **** *  Starts ADC conversion using the given mode.
 655:.\Generated_Source\PSoC5/ADC_DelSig_1.c **** *
 656:.\Generated_Source\PSoC5/ADC_DelSig_1.c **** * Parameters:  
 657:.\Generated_Source\PSoC5/ADC_DelSig_1.c **** *  void
 658:.\Generated_Source\PSoC5/ADC_DelSig_1.c **** *
 659:.\Generated_Source\PSoC5/ADC_DelSig_1.c **** * Return: 
 660:.\Generated_Source\PSoC5/ADC_DelSig_1.c **** *  void
 661:.\Generated_Source\PSoC5/ADC_DelSig_1.c **** *
 662:.\Generated_Source\PSoC5/ADC_DelSig_1.c **** * Global variables:
 663:.\Generated_Source\PSoC5/ADC_DelSig_1.c **** *  ADC_DelSig_1_convDone:  Modified when conversion is complete for single
 664:.\Generated_Source\PSoC5/ADC_DelSig_1.c **** *   sample mode with resolution is above 16.
 665:.\Generated_Source\PSoC5/ADC_DelSig_1.c **** *
 666:.\Generated_Source\PSoC5/ADC_DelSig_1.c **** *******************************************************************************/
 667:.\Generated_Source\PSoC5/ADC_DelSig_1.c **** void ADC_DelSig_1_StopConvert(void) 
 668:.\Generated_Source\PSoC5/ADC_DelSig_1.c **** {
 1300              		.loc 1 668 0
 1301              		.cfi_startproc
 1302              		@ args = 0, pretend = 0, frame = 0
 1303              		@ frame_needed = 1, uses_anonymous_args = 0
 1304              		@ link register save eliminated.
 1305 0000 80B4     		push	{r7}
 1306              	.LCFI31:
 1307              		.cfi_def_cfa_offset 4
 1308 0002 00AF     		add	r7, sp, #0
 1309              		.cfi_offset 7, -4
 1310              	.LCFI32:
 1311              		.cfi_def_cfa_register 7
 669:.\Generated_Source\PSoC5/ADC_DelSig_1.c ****     /* Stop all conversions */
 670:.\Generated_Source\PSoC5/ADC_DelSig_1.c ****     ADC_DelSig_1_DEC_CR_REG &= ~ADC_DelSig_1_DEC_START_CONV; 
 1312              		.loc 1 670 0
 1313 0004 44F60063 		movw	r3, #:lower16:1073761792
 1314 0008 C4F20003 		movt	r3, #:upper16:1073761792
 1315 000c 44F60062 		movw	r2, #:lower16:1073761792
 1316 0010 C4F20002 		movt	r2, #:upper16:1073761792
 1317 0014 1278     		ldrb	r2, [r2, #0]
 1318 0016 D2B2     		uxtb	r2, r2
 1319 0018 02F0FE02 		and	r2, r2, #254
 1320 001c 1A70     		strb	r2, [r3, #0]
 671:.\Generated_Source\PSoC5/ADC_DelSig_1.c ****     
ARM GAS  C:\Users\hoangp\AppData\Local\Temp\ccZOsuqR.s 			page 36


 672:.\Generated_Source\PSoC5/ADC_DelSig_1.c ****     /* Software flag for checking conversion complete or not. Will be used when
 673:.\Generated_Source\PSoC5/ADC_DelSig_1.c ****        resolution is above 16 bits and conversion mode is single sample */
 674:.\Generated_Source\PSoC5/ADC_DelSig_1.c ****     ADC_DelSig_1_convDone = 1u;
 1321              		.loc 1 674 0
 1322 001e 40F20003 		movw	r3, #:lower16:ADC_DelSig_1_convDone
 1323 0022 C0F20003 		movt	r3, #:upper16:ADC_DelSig_1_convDone
 1324 0026 4FF00102 		mov	r2, #1
 1325 002a 1A70     		strb	r2, [r3, #0]
 675:.\Generated_Source\PSoC5/ADC_DelSig_1.c **** }
 1326              		.loc 1 675 0
 1327 002c BD46     		mov	sp, r7
 1328 002e 80BC     		pop	{r7}
 1329 0030 7047     		bx	lr
 1330              		.cfi_endproc
 1331              	.LFE13:
 1332              		.size	ADC_DelSig_1_StopConvert, .-ADC_DelSig_1_StopConvert
 1333 0032 00BF     		.section	.text.ADC_DelSig_1_IsEndConversion,"ax",%progbits
 1334              		.align	2
 1335              		.global	ADC_DelSig_1_IsEndConversion
 1336              		.thumb
 1337              		.thumb_func
 1338              		.type	ADC_DelSig_1_IsEndConversion, %function
 1339              	ADC_DelSig_1_IsEndConversion:
 1340              	.LFB14:
 676:.\Generated_Source\PSoC5/ADC_DelSig_1.c **** 
 677:.\Generated_Source\PSoC5/ADC_DelSig_1.c **** 
 678:.\Generated_Source\PSoC5/ADC_DelSig_1.c **** /*******************************************************************************
 679:.\Generated_Source\PSoC5/ADC_DelSig_1.c **** * Function Name: ADC_DelSig_1_IsEndConversion
 680:.\Generated_Source\PSoC5/ADC_DelSig_1.c **** ********************************************************************************
 681:.\Generated_Source\PSoC5/ADC_DelSig_1.c **** *
 682:.\Generated_Source\PSoC5/ADC_DelSig_1.c **** * Summary:
 683:.\Generated_Source\PSoC5/ADC_DelSig_1.c **** *  Queries the ADC to see if conversion is complete
 684:.\Generated_Source\PSoC5/ADC_DelSig_1.c **** *
 685:.\Generated_Source\PSoC5/ADC_DelSig_1.c **** * Parameters:  
 686:.\Generated_Source\PSoC5/ADC_DelSig_1.c **** *  wMode:  Wait mode, 0 if return with answer immediately.
 687:.\Generated_Source\PSoC5/ADC_DelSig_1.c **** *                     1 if wait until conversion is complete, then return.
 688:.\Generated_Source\PSoC5/ADC_DelSig_1.c **** *
 689:.\Generated_Source\PSoC5/ADC_DelSig_1.c **** * Return: 
 690:.\Generated_Source\PSoC5/ADC_DelSig_1.c **** *  uint8 status:  0 =>  Conversion not complete.
 691:.\Generated_Source\PSoC5/ADC_DelSig_1.c **** *                 1 =>  Conversion complete.
 692:.\Generated_Source\PSoC5/ADC_DelSig_1.c **** *
 693:.\Generated_Source\PSoC5/ADC_DelSig_1.c **** * Global variables:
 694:.\Generated_Source\PSoC5/ADC_DelSig_1.c **** *  ADC_DelSig_1_convDone:  Used to check whether conversion is complete
 695:.\Generated_Source\PSoC5/ADC_DelSig_1.c **** *  or not for single sample mode with resolution is above 16
 696:.\Generated_Source\PSoC5/ADC_DelSig_1.c **** *
 697:.\Generated_Source\PSoC5/ADC_DelSig_1.c **** *******************************************************************************/
 698:.\Generated_Source\PSoC5/ADC_DelSig_1.c **** uint8 ADC_DelSig_1_IsEndConversion(uint8 wMode) 
 699:.\Generated_Source\PSoC5/ADC_DelSig_1.c **** {
 1341              		.loc 1 699 0
 1342              		.cfi_startproc
 1343              		@ args = 0, pretend = 0, frame = 16
 1344              		@ frame_needed = 1, uses_anonymous_args = 0
 1345              		@ link register save eliminated.
 1346 0000 80B4     		push	{r7}
 1347              	.LCFI33:
 1348              		.cfi_def_cfa_offset 4
 1349 0002 85B0     		sub	sp, sp, #20
ARM GAS  C:\Users\hoangp\AppData\Local\Temp\ccZOsuqR.s 			page 37


 1350              	.LCFI34:
 1351              		.cfi_def_cfa_offset 24
 1352 0004 00AF     		add	r7, sp, #0
 1353              		.cfi_offset 7, -4
 1354              	.LCFI35:
 1355              		.cfi_def_cfa_register 7
 1356 0006 0346     		mov	r3, r0
 1357 0008 FB71     		strb	r3, [r7, #7]
 700:.\Generated_Source\PSoC5/ADC_DelSig_1.c ****     uint8 status;
 701:.\Generated_Source\PSoC5/ADC_DelSig_1.c ****         
 702:.\Generated_Source\PSoC5/ADC_DelSig_1.c ****     /* Check for stop convert if conversion mode is Single Sample with 
 703:.\Generated_Source\PSoC5/ADC_DelSig_1.c ****        resolution above 16 bit */
 704:.\Generated_Source\PSoC5/ADC_DelSig_1.c ****     if(ADC_DelSig_1_stopConversion == 1u)
 1358              		.loc 1 704 0
 1359 000a 40F20003 		movw	r3, #:lower16:ADC_DelSig_1_stopConversion
 1360 000e C0F20003 		movt	r3, #:upper16:ADC_DelSig_1_stopConversion
 1361 0012 1B78     		ldrb	r3, [r3, #0]
 1362 0014 DBB2     		uxtb	r3, r3
 1363 0016 012B     		cmp	r3, #1
 1364 0018 0CD1     		bne	.L51
 1365              	.L53:
 705:.\Generated_Source\PSoC5/ADC_DelSig_1.c ****     {
 706:.\Generated_Source\PSoC5/ADC_DelSig_1.c ****         do
 707:.\Generated_Source\PSoC5/ADC_DelSig_1.c ****         {
 708:.\Generated_Source\PSoC5/ADC_DelSig_1.c ****             status = ADC_DelSig_1_convDone;
 1366              		.loc 1 708 0
 1367 001a 40F20003 		movw	r3, #:lower16:ADC_DelSig_1_convDone
 1368 001e C0F20003 		movt	r3, #:upper16:ADC_DelSig_1_convDone
 1369 0022 1B78     		ldrb	r3, [r3, #0]
 1370 0024 FB73     		strb	r3, [r7, #15]
 709:.\Generated_Source\PSoC5/ADC_DelSig_1.c ****         } while((status != ADC_DelSig_1_DEC_CONV_DONE) && (wMode == ADC_DelSig_1_WAIT_FOR_RESULT));
 1371              		.loc 1 709 0
 1372 0026 FB7B     		ldrb	r3, [r7, #15]	@ zero_extendqisi2
 1373 0028 012B     		cmp	r3, #1
 1374 002a 12D0     		beq	.L54
 1375 002c FB79     		ldrb	r3, [r7, #7]	@ zero_extendqisi2
 1376 002e 002B     		cmp	r3, #0
 1377 0030 F3D0     		beq	.L53
 1378 0032 0EE0     		b	.L54
 1379              	.L51:
 710:.\Generated_Source\PSoC5/ADC_DelSig_1.c ****     }
 711:.\Generated_Source\PSoC5/ADC_DelSig_1.c ****     else
 712:.\Generated_Source\PSoC5/ADC_DelSig_1.c ****     {
 713:.\Generated_Source\PSoC5/ADC_DelSig_1.c ****         do 
 714:.\Generated_Source\PSoC5/ADC_DelSig_1.c ****         {
 715:.\Generated_Source\PSoC5/ADC_DelSig_1.c ****             status = ADC_DelSig_1_DEC_SR_REG & ADC_DelSig_1_DEC_CONV_DONE;
 1380              		.loc 1 715 0
 1381 0034 44F60163 		movw	r3, #:lower16:1073761793
 1382 0038 C4F20003 		movt	r3, #:upper16:1073761793
 1383 003c 1B78     		ldrb	r3, [r3, #0]
 1384 003e DBB2     		uxtb	r3, r3
 1385 0040 03F00103 		and	r3, r3, #1
 1386 0044 FB73     		strb	r3, [r7, #15]
 716:.\Generated_Source\PSoC5/ADC_DelSig_1.c ****         } while((status != ADC_DelSig_1_DEC_CONV_DONE) && (wMode == ADC_DelSig_1_WAIT_FOR_RESULT));
 1387              		.loc 1 716 0
 1388 0046 FB7B     		ldrb	r3, [r7, #15]	@ zero_extendqisi2
 1389 0048 012B     		cmp	r3, #1
ARM GAS  C:\Users\hoangp\AppData\Local\Temp\ccZOsuqR.s 			page 38


 1390 004a 02D0     		beq	.L54
 1391 004c FB79     		ldrb	r3, [r7, #7]	@ zero_extendqisi2
 1392 004e 002B     		cmp	r3, #0
 1393 0050 F0D0     		beq	.L51
 1394              	.L54:
 717:.\Generated_Source\PSoC5/ADC_DelSig_1.c ****     }
 718:.\Generated_Source\PSoC5/ADC_DelSig_1.c ****     return(status);
 1395              		.loc 1 718 0
 1396 0052 FB7B     		ldrb	r3, [r7, #15]	@ zero_extendqisi2
 719:.\Generated_Source\PSoC5/ADC_DelSig_1.c **** }
 1397              		.loc 1 719 0
 1398 0054 1846     		mov	r0, r3
 1399 0056 07F11407 		add	r7, r7, #20
 1400 005a BD46     		mov	sp, r7
 1401 005c 80BC     		pop	{r7}
 1402 005e 7047     		bx	lr
 1403              		.cfi_endproc
 1404              	.LFE14:
 1405              		.size	ADC_DelSig_1_IsEndConversion, .-ADC_DelSig_1_IsEndConversion
 1406              		.section	.text.ADC_DelSig_1_GetResult8,"ax",%progbits
 1407              		.align	2
 1408              		.global	ADC_DelSig_1_GetResult8
 1409              		.thumb
 1410              		.thumb_func
 1411              		.type	ADC_DelSig_1_GetResult8, %function
 1412              	ADC_DelSig_1_GetResult8:
 1413              	.LFB15:
 720:.\Generated_Source\PSoC5/ADC_DelSig_1.c **** 
 721:.\Generated_Source\PSoC5/ADC_DelSig_1.c **** 
 722:.\Generated_Source\PSoC5/ADC_DelSig_1.c **** /*******************************************************************************
 723:.\Generated_Source\PSoC5/ADC_DelSig_1.c **** * Function Name: ADC_DelSig_1_GetResult8
 724:.\Generated_Source\PSoC5/ADC_DelSig_1.c **** ********************************************************************************
 725:.\Generated_Source\PSoC5/ADC_DelSig_1.c **** *
 726:.\Generated_Source\PSoC5/ADC_DelSig_1.c **** * Summary:
 727:.\Generated_Source\PSoC5/ADC_DelSig_1.c **** *  Returns an 8-bit result or the LSB of the last conversion.
 728:.\Generated_Source\PSoC5/ADC_DelSig_1.c **** *
 729:.\Generated_Source\PSoC5/ADC_DelSig_1.c **** * Parameters:  
 730:.\Generated_Source\PSoC5/ADC_DelSig_1.c **** *  void
 731:.\Generated_Source\PSoC5/ADC_DelSig_1.c **** *
 732:.\Generated_Source\PSoC5/ADC_DelSig_1.c **** * Return: 
 733:.\Generated_Source\PSoC5/ADC_DelSig_1.c **** *  int8:  ADC result.
 734:.\Generated_Source\PSoC5/ADC_DelSig_1.c **** *
 735:.\Generated_Source\PSoC5/ADC_DelSig_1.c **** *******************************************************************************/
 736:.\Generated_Source\PSoC5/ADC_DelSig_1.c **** int8 ADC_DelSig_1_GetResult8( void ) 
 737:.\Generated_Source\PSoC5/ADC_DelSig_1.c **** {
 1414              		.loc 1 737 0
 1415              		.cfi_startproc
 1416              		@ args = 0, pretend = 0, frame = 0
 1417              		@ frame_needed = 1, uses_anonymous_args = 0
 1418              		@ link register save eliminated.
 1419 0000 80B4     		push	{r7}
 1420              	.LCFI36:
 1421              		.cfi_def_cfa_offset 4
 1422 0002 00AF     		add	r7, sp, #0
 1423              		.cfi_offset 7, -4
 1424              	.LCFI37:
 1425              		.cfi_def_cfa_register 7
ARM GAS  C:\Users\hoangp\AppData\Local\Temp\ccZOsuqR.s 			page 39


 738:.\Generated_Source\PSoC5/ADC_DelSig_1.c ****      return( ADC_DelSig_1_DEC_SAMP_REG );
 1426              		.loc 1 738 0
 1427 0004 44F61063 		movw	r3, #:lower16:1073761808
 1428 0008 C4F20003 		movt	r3, #:upper16:1073761808
 1429 000c 1B78     		ldrb	r3, [r3, #0]
 1430 000e DBB2     		uxtb	r3, r3
 1431 0010 5BB2     		sxtb	r3, r3
 739:.\Generated_Source\PSoC5/ADC_DelSig_1.c **** }
 1432              		.loc 1 739 0
 1433 0012 1846     		mov	r0, r3
 1434 0014 BD46     		mov	sp, r7
 1435 0016 80BC     		pop	{r7}
 1436 0018 7047     		bx	lr
 1437              		.cfi_endproc
 1438              	.LFE15:
 1439              		.size	ADC_DelSig_1_GetResult8, .-ADC_DelSig_1_GetResult8
 1440 001a 00BF     		.section	.text.ADC_DelSig_1_GetResult16,"ax",%progbits
 1441              		.align	2
 1442              		.global	ADC_DelSig_1_GetResult16
 1443              		.thumb
 1444              		.thumb_func
 1445              		.type	ADC_DelSig_1_GetResult16, %function
 1446              	ADC_DelSig_1_GetResult16:
 1447              	.LFB16:
 740:.\Generated_Source\PSoC5/ADC_DelSig_1.c **** 
 741:.\Generated_Source\PSoC5/ADC_DelSig_1.c **** 
 742:.\Generated_Source\PSoC5/ADC_DelSig_1.c **** /*******************************************************************************
 743:.\Generated_Source\PSoC5/ADC_DelSig_1.c **** * Function Name: ADC_DelSig_1_GetResult16
 744:.\Generated_Source\PSoC5/ADC_DelSig_1.c **** ********************************************************************************
 745:.\Generated_Source\PSoC5/ADC_DelSig_1.c **** *
 746:.\Generated_Source\PSoC5/ADC_DelSig_1.c **** * Summary:
 747:.\Generated_Source\PSoC5/ADC_DelSig_1.c **** *  Returns a 16-bit result from the last ADC conversion.
 748:.\Generated_Source\PSoC5/ADC_DelSig_1.c **** *
 749:.\Generated_Source\PSoC5/ADC_DelSig_1.c **** * Parameters:  
 750:.\Generated_Source\PSoC5/ADC_DelSig_1.c **** *   void
 751:.\Generated_Source\PSoC5/ADC_DelSig_1.c **** *
 752:.\Generated_Source\PSoC5/ADC_DelSig_1.c **** * Return: 
 753:.\Generated_Source\PSoC5/ADC_DelSig_1.c **** *  int16:  ADC result.
 754:.\Generated_Source\PSoC5/ADC_DelSig_1.c **** *
 755:.\Generated_Source\PSoC5/ADC_DelSig_1.c **** *******************************************************************************/
 756:.\Generated_Source\PSoC5/ADC_DelSig_1.c **** int16 ADC_DelSig_1_GetResult16(void) 
 757:.\Generated_Source\PSoC5/ADC_DelSig_1.c **** {
 1448              		.loc 1 757 0
 1449              		.cfi_startproc
 1450              		@ args = 0, pretend = 0, frame = 8
 1451              		@ frame_needed = 1, uses_anonymous_args = 0
 1452              		@ link register save eliminated.
 1453 0000 80B4     		push	{r7}
 1454              	.LCFI38:
 1455              		.cfi_def_cfa_offset 4
 1456 0002 83B0     		sub	sp, sp, #12
 1457              	.LCFI39:
 1458              		.cfi_def_cfa_offset 16
 1459 0004 00AF     		add	r7, sp, #0
 1460              		.cfi_offset 7, -4
 1461              	.LCFI40:
 1462              		.cfi_def_cfa_register 7
ARM GAS  C:\Users\hoangp\AppData\Local\Temp\ccZOsuqR.s 			page 40


 758:.\Generated_Source\PSoC5/ADC_DelSig_1.c ****     uint16 result;
 759:.\Generated_Source\PSoC5/ADC_DelSig_1.c ****     
 760:.\Generated_Source\PSoC5/ADC_DelSig_1.c ****     #if (CY_PSOC3)
 761:.\Generated_Source\PSoC5/ADC_DelSig_1.c ****         result = ADC_DelSig_1_DEC_SAMPM_REG ;
 762:.\Generated_Source\PSoC5/ADC_DelSig_1.c ****         result = (result << 8 ) | ADC_DelSig_1_DEC_SAMP_REG;
 763:.\Generated_Source\PSoC5/ADC_DelSig_1.c ****     #else
 764:.\Generated_Source\PSoC5/ADC_DelSig_1.c ****         result = (CY_GET_REG16(ADC_DelSig_1_DEC_SAMP_PTR));
 1463              		.loc 1 764 0
 1464 0006 44F61063 		movw	r3, #:lower16:1073761808
 1465 000a C4F20003 		movt	r3, #:upper16:1073761808
 1466 000e 1B88     		ldrh	r3, [r3, #0]	@ movhi
 1467 0010 FB80     		strh	r3, [r7, #6]	@ movhi
 765:.\Generated_Source\PSoC5/ADC_DelSig_1.c ****     #endif /* CY_PSOC3 */
 766:.\Generated_Source\PSoC5/ADC_DelSig_1.c ****     
 767:.\Generated_Source\PSoC5/ADC_DelSig_1.c ****     return result;
 1468              		.loc 1 767 0
 1469 0012 FB88     		ldrh	r3, [r7, #6]
 1470 0014 1BB2     		sxth	r3, r3
 768:.\Generated_Source\PSoC5/ADC_DelSig_1.c **** }
 1471              		.loc 1 768 0
 1472 0016 1846     		mov	r0, r3
 1473 0018 07F10C07 		add	r7, r7, #12
 1474 001c BD46     		mov	sp, r7
 1475 001e 80BC     		pop	{r7}
 1476 0020 7047     		bx	lr
 1477              		.cfi_endproc
 1478              	.LFE16:
 1479              		.size	ADC_DelSig_1_GetResult16, .-ADC_DelSig_1_GetResult16
 1480 0022 00BF     		.section	.text.ADC_DelSig_1_GetResult32,"ax",%progbits
 1481              		.align	2
 1482              		.global	ADC_DelSig_1_GetResult32
 1483              		.thumb
 1484              		.thumb_func
 1485              		.type	ADC_DelSig_1_GetResult32, %function
 1486              	ADC_DelSig_1_GetResult32:
 1487              	.LFB17:
 769:.\Generated_Source\PSoC5/ADC_DelSig_1.c **** 
 770:.\Generated_Source\PSoC5/ADC_DelSig_1.c **** 
 771:.\Generated_Source\PSoC5/ADC_DelSig_1.c **** /*******************************************************************************
 772:.\Generated_Source\PSoC5/ADC_DelSig_1.c **** * Function Name: ADC_DelSig_1_GetResult32
 773:.\Generated_Source\PSoC5/ADC_DelSig_1.c **** ********************************************************************************
 774:.\Generated_Source\PSoC5/ADC_DelSig_1.c **** *
 775:.\Generated_Source\PSoC5/ADC_DelSig_1.c **** * Summary:
 776:.\Generated_Source\PSoC5/ADC_DelSig_1.c **** *  Returns an 32-bit result from ADC
 777:.\Generated_Source\PSoC5/ADC_DelSig_1.c **** *
 778:.\Generated_Source\PSoC5/ADC_DelSig_1.c **** * Parameters:  
 779:.\Generated_Source\PSoC5/ADC_DelSig_1.c **** *  void
 780:.\Generated_Source\PSoC5/ADC_DelSig_1.c **** *
 781:.\Generated_Source\PSoC5/ADC_DelSig_1.c **** * Return: 
 782:.\Generated_Source\PSoC5/ADC_DelSig_1.c **** *  int32:  ADC result.
 783:.\Generated_Source\PSoC5/ADC_DelSig_1.c **** *
 784:.\Generated_Source\PSoC5/ADC_DelSig_1.c **** *******************************************************************************/
 785:.\Generated_Source\PSoC5/ADC_DelSig_1.c **** int32 ADC_DelSig_1_GetResult32(void) 
 786:.\Generated_Source\PSoC5/ADC_DelSig_1.c **** {
 1488              		.loc 1 786 0
 1489              		.cfi_startproc
 1490              		@ args = 0, pretend = 0, frame = 8
ARM GAS  C:\Users\hoangp\AppData\Local\Temp\ccZOsuqR.s 			page 41


 1491              		@ frame_needed = 1, uses_anonymous_args = 0
 1492              		@ link register save eliminated.
 1493 0000 80B4     		push	{r7}
 1494              	.LCFI41:
 1495              		.cfi_def_cfa_offset 4
 1496 0002 83B0     		sub	sp, sp, #12
 1497              	.LCFI42:
 1498              		.cfi_def_cfa_offset 16
 1499 0004 00AF     		add	r7, sp, #0
 1500              		.cfi_offset 7, -4
 1501              	.LCFI43:
 1502              		.cfi_def_cfa_register 7
 787:.\Generated_Source\PSoC5/ADC_DelSig_1.c ****     uint32 result;
 788:.\Generated_Source\PSoC5/ADC_DelSig_1.c **** 
 789:.\Generated_Source\PSoC5/ADC_DelSig_1.c ****     #if (CY_PSOC3)
 790:.\Generated_Source\PSoC5/ADC_DelSig_1.c ****         /* to make upper bits fo result to 0 */
 791:.\Generated_Source\PSoC5/ADC_DelSig_1.c ****         result = (int8) (0xff & ADC_DelSig_1_DEC_SAMPH_REG); 
 792:.\Generated_Source\PSoC5/ADC_DelSig_1.c ****         result = (result << 8) | ADC_DelSig_1_DEC_SAMPM_REG;
 793:.\Generated_Source\PSoC5/ADC_DelSig_1.c ****         result = (result << 8) | ADC_DelSig_1_DEC_SAMP_REG;
 794:.\Generated_Source\PSoC5/ADC_DelSig_1.c ****     #else
 795:.\Generated_Source\PSoC5/ADC_DelSig_1.c ****         result = CY_GET_REG16(ADC_DelSig_1_DEC_SAMPH_PTR);
 1503              		.loc 1 795 0
 1504 0006 44F61263 		movw	r3, #:lower16:1073761810
 1505 000a C4F20003 		movt	r3, #:upper16:1073761810
 1506 000e 1B88     		ldrh	r3, [r3, #0]	@ movhi
 1507 0010 9BB2     		uxth	r3, r3
 1508 0012 7B60     		str	r3, [r7, #4]
 796:.\Generated_Source\PSoC5/ADC_DelSig_1.c ****         result = (result << 16) | (CY_GET_REG16(ADC_DelSig_1_DEC_SAMP_PTR));
 1509              		.loc 1 796 0
 1510 0014 7B68     		ldr	r3, [r7, #4]
 1511 0016 4FEA0342 		lsl	r2, r3, #16
 1512 001a 44F61063 		movw	r3, #:lower16:1073761808
 1513 001e C4F20003 		movt	r3, #:upper16:1073761808
 1514 0022 1B88     		ldrh	r3, [r3, #0]	@ movhi
 1515 0024 9BB2     		uxth	r3, r3
 1516 0026 42EA0303 		orr	r3, r2, r3
 1517 002a 7B60     		str	r3, [r7, #4]
 797:.\Generated_Source\PSoC5/ADC_DelSig_1.c ****     #endif /* CY_PSOC3 */
 798:.\Generated_Source\PSoC5/ADC_DelSig_1.c ****     
 799:.\Generated_Source\PSoC5/ADC_DelSig_1.c ****     return result;
 1518              		.loc 1 799 0
 1519 002c 7B68     		ldr	r3, [r7, #4]
 800:.\Generated_Source\PSoC5/ADC_DelSig_1.c **** }
 1520              		.loc 1 800 0
 1521 002e 1846     		mov	r0, r3
 1522 0030 07F10C07 		add	r7, r7, #12
 1523 0034 BD46     		mov	sp, r7
 1524 0036 80BC     		pop	{r7}
 1525 0038 7047     		bx	lr
 1526              		.cfi_endproc
 1527              	.LFE17:
 1528              		.size	ADC_DelSig_1_GetResult32, .-ADC_DelSig_1_GetResult32
 1529 003a 00BF     		.section	.text.ADC_DelSig_1_SetOffset,"ax",%progbits
 1530              		.align	2
 1531              		.global	ADC_DelSig_1_SetOffset
 1532              		.thumb
 1533              		.thumb_func
ARM GAS  C:\Users\hoangp\AppData\Local\Temp\ccZOsuqR.s 			page 42


 1534              		.type	ADC_DelSig_1_SetOffset, %function
 1535              	ADC_DelSig_1_SetOffset:
 1536              	.LFB18:
 801:.\Generated_Source\PSoC5/ADC_DelSig_1.c **** 
 802:.\Generated_Source\PSoC5/ADC_DelSig_1.c **** 
 803:.\Generated_Source\PSoC5/ADC_DelSig_1.c **** /*******************************************************************************
 804:.\Generated_Source\PSoC5/ADC_DelSig_1.c **** * Function Name: ADC_DelSig_1_SetOffset
 805:.\Generated_Source\PSoC5/ADC_DelSig_1.c **** ********************************************************************************
 806:.\Generated_Source\PSoC5/ADC_DelSig_1.c **** *
 807:.\Generated_Source\PSoC5/ADC_DelSig_1.c **** * Summary:
 808:.\Generated_Source\PSoC5/ADC_DelSig_1.c **** *  This function sets the offset for voltage readings.
 809:.\Generated_Source\PSoC5/ADC_DelSig_1.c **** *
 810:.\Generated_Source\PSoC5/ADC_DelSig_1.c **** * Parameters:  
 811:.\Generated_Source\PSoC5/ADC_DelSig_1.c **** *  int32:  offset  Offset in counts
 812:.\Generated_Source\PSoC5/ADC_DelSig_1.c **** *
 813:.\Generated_Source\PSoC5/ADC_DelSig_1.c **** * Return: 
 814:.\Generated_Source\PSoC5/ADC_DelSig_1.c **** *  void
 815:.\Generated_Source\PSoC5/ADC_DelSig_1.c **** *
 816:.\Generated_Source\PSoC5/ADC_DelSig_1.c **** * Global variables:
 817:.\Generated_Source\PSoC5/ADC_DelSig_1.c **** *  ADC_DelSig_1_Offset:  Modified to set the user provided offset. This 
 818:.\Generated_Source\PSoC5/ADC_DelSig_1.c **** *  variable is used for offset calibration purpose.
 819:.\Generated_Source\PSoC5/ADC_DelSig_1.c **** *  Affects the ADC_DelSig_1_CountsTo_Volts, 
 820:.\Generated_Source\PSoC5/ADC_DelSig_1.c **** *  ADC_DelSig_1_CountsTo_mVolts, ADC_DelSig_1_CountsTo_uVolts functions 
 821:.\Generated_Source\PSoC5/ADC_DelSig_1.c **** *  by subtracting the given offset. 
 822:.\Generated_Source\PSoC5/ADC_DelSig_1.c **** *
 823:.\Generated_Source\PSoC5/ADC_DelSig_1.c **** *******************************************************************************/
 824:.\Generated_Source\PSoC5/ADC_DelSig_1.c **** void ADC_DelSig_1_SetOffset(int32 offset) 
 825:.\Generated_Source\PSoC5/ADC_DelSig_1.c **** {
 1537              		.loc 1 825 0
 1538              		.cfi_startproc
 1539              		@ args = 0, pretend = 0, frame = 8
 1540              		@ frame_needed = 1, uses_anonymous_args = 0
 1541              		@ link register save eliminated.
 1542 0000 80B4     		push	{r7}
 1543              	.LCFI44:
 1544              		.cfi_def_cfa_offset 4
 1545 0002 83B0     		sub	sp, sp, #12
 1546              	.LCFI45:
 1547              		.cfi_def_cfa_offset 16
 1548 0004 00AF     		add	r7, sp, #0
 1549              		.cfi_offset 7, -4
 1550              	.LCFI46:
 1551              		.cfi_def_cfa_register 7
 1552 0006 7860     		str	r0, [r7, #4]
 826:.\Generated_Source\PSoC5/ADC_DelSig_1.c ****  
 827:.\Generated_Source\PSoC5/ADC_DelSig_1.c ****     ADC_DelSig_1_Offset = offset;
 1553              		.loc 1 827 0
 1554 0008 40F20003 		movw	r3, #:lower16:ADC_DelSig_1_Offset
 1555 000c C0F20003 		movt	r3, #:upper16:ADC_DelSig_1_Offset
 1556 0010 7A68     		ldr	r2, [r7, #4]
 1557 0012 1A60     		str	r2, [r3, #0]
 828:.\Generated_Source\PSoC5/ADC_DelSig_1.c **** }
 1558              		.loc 1 828 0
 1559 0014 07F10C07 		add	r7, r7, #12
 1560 0018 BD46     		mov	sp, r7
 1561 001a 80BC     		pop	{r7}
 1562 001c 7047     		bx	lr
ARM GAS  C:\Users\hoangp\AppData\Local\Temp\ccZOsuqR.s 			page 43


 1563              		.cfi_endproc
 1564              	.LFE18:
 1565              		.size	ADC_DelSig_1_SetOffset, .-ADC_DelSig_1_SetOffset
 1566 001e 00BF     		.section	.text.ADC_DelSig_1_SetGain,"ax",%progbits
 1567              		.align	2
 1568              		.global	ADC_DelSig_1_SetGain
 1569              		.thumb
 1570              		.thumb_func
 1571              		.type	ADC_DelSig_1_SetGain, %function
 1572              	ADC_DelSig_1_SetGain:
 1573              	.LFB19:
 829:.\Generated_Source\PSoC5/ADC_DelSig_1.c **** 
 830:.\Generated_Source\PSoC5/ADC_DelSig_1.c **** 
 831:.\Generated_Source\PSoC5/ADC_DelSig_1.c **** /*******************************************************************************
 832:.\Generated_Source\PSoC5/ADC_DelSig_1.c **** * Function Name: ADC_DelSig_1_SetGain
 833:.\Generated_Source\PSoC5/ADC_DelSig_1.c **** ********************************************************************************
 834:.\Generated_Source\PSoC5/ADC_DelSig_1.c **** *
 835:.\Generated_Source\PSoC5/ADC_DelSig_1.c **** * Summary:
 836:.\Generated_Source\PSoC5/ADC_DelSig_1.c **** *  This function sets the ADC gain in counts per volt.
 837:.\Generated_Source\PSoC5/ADC_DelSig_1.c **** *
 838:.\Generated_Source\PSoC5/ADC_DelSig_1.c **** * Parameters:  
 839:.\Generated_Source\PSoC5/ADC_DelSig_1.c **** *  int32:  offset  Offset in counts
 840:.\Generated_Source\PSoC5/ADC_DelSig_1.c **** *
 841:.\Generated_Source\PSoC5/ADC_DelSig_1.c **** * Return: 
 842:.\Generated_Source\PSoC5/ADC_DelSig_1.c **** *  void 
 843:.\Generated_Source\PSoC5/ADC_DelSig_1.c **** *
 844:.\Generated_Source\PSoC5/ADC_DelSig_1.c **** * Global variables:
 845:.\Generated_Source\PSoC5/ADC_DelSig_1.c **** *  ADC_DelSig_1_CountsPerVolt:  modified to set the ADC gain in counts 
 846:.\Generated_Source\PSoC5/ADC_DelSig_1.c **** *   per volt.
 847:.\Generated_Source\PSoC5/ADC_DelSig_1.c **** *
 848:.\Generated_Source\PSoC5/ADC_DelSig_1.c **** *******************************************************************************/
 849:.\Generated_Source\PSoC5/ADC_DelSig_1.c **** void ADC_DelSig_1_SetGain(int32 adcGain) 
 850:.\Generated_Source\PSoC5/ADC_DelSig_1.c **** {
 1574              		.loc 1 850 0
 1575              		.cfi_startproc
 1576              		@ args = 0, pretend = 0, frame = 8
 1577              		@ frame_needed = 1, uses_anonymous_args = 0
 1578              		@ link register save eliminated.
 1579 0000 80B4     		push	{r7}
 1580              	.LCFI47:
 1581              		.cfi_def_cfa_offset 4
 1582 0002 83B0     		sub	sp, sp, #12
 1583              	.LCFI48:
 1584              		.cfi_def_cfa_offset 16
 1585 0004 00AF     		add	r7, sp, #0
 1586              		.cfi_offset 7, -4
 1587              	.LCFI49:
 1588              		.cfi_def_cfa_register 7
 1589 0006 7860     		str	r0, [r7, #4]
 851:.\Generated_Source\PSoC5/ADC_DelSig_1.c ****  
 852:.\Generated_Source\PSoC5/ADC_DelSig_1.c ****     ADC_DelSig_1_CountsPerVolt = adcGain;
 1590              		.loc 1 852 0
 1591 0008 40F20003 		movw	r3, #:lower16:ADC_DelSig_1_CountsPerVolt
 1592 000c C0F20003 		movt	r3, #:upper16:ADC_DelSig_1_CountsPerVolt
 1593 0010 7A68     		ldr	r2, [r7, #4]
 1594 0012 1A60     		str	r2, [r3, #0]
 853:.\Generated_Source\PSoC5/ADC_DelSig_1.c **** }
ARM GAS  C:\Users\hoangp\AppData\Local\Temp\ccZOsuqR.s 			page 44


 1595              		.loc 1 853 0
 1596 0014 07F10C07 		add	r7, r7, #12
 1597 0018 BD46     		mov	sp, r7
 1598 001a 80BC     		pop	{r7}
 1599 001c 7047     		bx	lr
 1600              		.cfi_endproc
 1601              	.LFE19:
 1602              		.size	ADC_DelSig_1_SetGain, .-ADC_DelSig_1_SetGain
 1603 001e 00BF     		.section	.text.ADC_DelSig_1_CountsTo_mVolts,"ax",%progbits
 1604              		.align	2
 1605              		.global	ADC_DelSig_1_CountsTo_mVolts
 1606              		.thumb
 1607              		.thumb_func
 1608              		.type	ADC_DelSig_1_CountsTo_mVolts, %function
 1609              	ADC_DelSig_1_CountsTo_mVolts:
 1610              	.LFB20:
 854:.\Generated_Source\PSoC5/ADC_DelSig_1.c **** 
 855:.\Generated_Source\PSoC5/ADC_DelSig_1.c **** 
 856:.\Generated_Source\PSoC5/ADC_DelSig_1.c **** /*******************************************************************************
 857:.\Generated_Source\PSoC5/ADC_DelSig_1.c **** * Function Name: ADC_DelSig_1_CountsTo_mVolts
 858:.\Generated_Source\PSoC5/ADC_DelSig_1.c **** ********************************************************************************
 859:.\Generated_Source\PSoC5/ADC_DelSig_1.c **** *
 860:.\Generated_Source\PSoC5/ADC_DelSig_1.c **** * Summary:
 861:.\Generated_Source\PSoC5/ADC_DelSig_1.c **** *  This function converts ADC counts to mVolts.
 862:.\Generated_Source\PSoC5/ADC_DelSig_1.c **** *
 863:.\Generated_Source\PSoC5/ADC_DelSig_1.c **** * Parameters:  
 864:.\Generated_Source\PSoC5/ADC_DelSig_1.c **** *  int32:  adcCounts   Reading from ADC.
 865:.\Generated_Source\PSoC5/ADC_DelSig_1.c **** *
 866:.\Generated_Source\PSoC5/ADC_DelSig_1.c **** * Return: 
 867:.\Generated_Source\PSoC5/ADC_DelSig_1.c **** *  int32:  Result in mVolts
 868:.\Generated_Source\PSoC5/ADC_DelSig_1.c **** *
 869:.\Generated_Source\PSoC5/ADC_DelSig_1.c **** * Global variables:
 870:.\Generated_Source\PSoC5/ADC_DelSig_1.c **** *  ADC_DelSig_1_CountsPerVolt:  used to convert ADC counts to mVolts.
 871:.\Generated_Source\PSoC5/ADC_DelSig_1.c **** *  ADC_DelSig_1_Offset:  Used as the offset while converting ADC counts 
 872:.\Generated_Source\PSoC5/ADC_DelSig_1.c **** *   to mVolts.
 873:.\Generated_Source\PSoC5/ADC_DelSig_1.c **** *
 874:.\Generated_Source\PSoC5/ADC_DelSig_1.c **** *******************************************************************************/
 875:.\Generated_Source\PSoC5/ADC_DelSig_1.c **** int16 ADC_DelSig_1_CountsTo_mVolts( int32 adcCounts) 
 876:.\Generated_Source\PSoC5/ADC_DelSig_1.c **** {
 1611              		.loc 1 876 0
 1612              		.cfi_startproc
 1613              		@ args = 0, pretend = 0, frame = 24
 1614              		@ frame_needed = 1, uses_anonymous_args = 0
 1615              		@ link register save eliminated.
 1616 0000 80B4     		push	{r7}
 1617              	.LCFI50:
 1618              		.cfi_def_cfa_offset 4
 1619 0002 87B0     		sub	sp, sp, #28
 1620              	.LCFI51:
 1621              		.cfi_def_cfa_offset 32
 1622 0004 00AF     		add	r7, sp, #0
 1623              		.cfi_offset 7, -4
 1624              	.LCFI52:
 1625              		.cfi_def_cfa_register 7
 1626 0006 7860     		str	r0, [r7, #4]
 877:.\Generated_Source\PSoC5/ADC_DelSig_1.c **** 
 878:.\Generated_Source\PSoC5/ADC_DelSig_1.c ****     int32 mVolts = 0;
ARM GAS  C:\Users\hoangp\AppData\Local\Temp\ccZOsuqR.s 			page 45


 1627              		.loc 1 878 0
 1628 0008 4FF00003 		mov	r3, #0
 1629 000c BB60     		str	r3, [r7, #8]
 879:.\Generated_Source\PSoC5/ADC_DelSig_1.c ****     int32 A, B;
 880:.\Generated_Source\PSoC5/ADC_DelSig_1.c **** 	uint8 resolution = 16;
 1630              		.loc 1 880 0
 1631 000e 4FF01003 		mov	r3, #16
 1632 0012 FB75     		strb	r3, [r7, #23]
 881:.\Generated_Source\PSoC5/ADC_DelSig_1.c **** 
 882:.\Generated_Source\PSoC5/ADC_DelSig_1.c ****     /* Subtract ADC offset */
 883:.\Generated_Source\PSoC5/ADC_DelSig_1.c ****     adcCounts -= ADC_DelSig_1_Offset;
 1633              		.loc 1 883 0
 1634 0014 40F20003 		movw	r3, #:lower16:ADC_DelSig_1_Offset
 1635 0018 C0F20003 		movt	r3, #:upper16:ADC_DelSig_1_Offset
 1636 001c 1B68     		ldr	r3, [r3, #0]
 1637 001e 7A68     		ldr	r2, [r7, #4]
 1638 0020 C3EB0203 		rsb	r3, r3, r2
 1639 0024 7B60     		str	r3, [r7, #4]
 884:.\Generated_Source\PSoC5/ADC_DelSig_1.c **** 	
 885:.\Generated_Source\PSoC5/ADC_DelSig_1.c **** 	/* Set the resolution based on the configuration */
 886:.\Generated_Source\PSoC5/ADC_DelSig_1.c **** 	if (ADC_DelSig_1_Config == ADC_DelSig_1_CFG1)
 1640              		.loc 1 886 0
 1641 0026 40F20003 		movw	r3, #:lower16:ADC_DelSig_1_Config
 1642 002a C0F20003 		movt	r3, #:upper16:ADC_DelSig_1_Config
 1643 002e 1B78     		ldrb	r3, [r3, #0]
 1644 0030 DBB2     		uxtb	r3, r3
 1645 0032 012B     		cmp	r3, #1
 1646 0034 03D1     		bne	.L67
 887:.\Generated_Source\PSoC5/ADC_DelSig_1.c **** 	{
 888:.\Generated_Source\PSoC5/ADC_DelSig_1.c ****         resolution = ADC_DelSig_1_CFG1_RESOLUTION;
 1647              		.loc 1 888 0
 1648 0036 4FF00A03 		mov	r3, #10
 1649 003a FB75     		strb	r3, [r7, #23]
 1650 003c 1AE0     		b	.L68
 1651              	.L67:
 889:.\Generated_Source\PSoC5/ADC_DelSig_1.c **** 	}	
 890:.\Generated_Source\PSoC5/ADC_DelSig_1.c **** 	else if (ADC_DelSig_1_Config == ADC_DelSig_1_CFG2)
 1652              		.loc 1 890 0
 1653 003e 40F20003 		movw	r3, #:lower16:ADC_DelSig_1_Config
 1654 0042 C0F20003 		movt	r3, #:upper16:ADC_DelSig_1_Config
 1655 0046 1B78     		ldrb	r3, [r3, #0]
 1656 0048 DBB2     		uxtb	r3, r3
 1657 004a 022B     		cmp	r3, #2
 1658 004c 03D1     		bne	.L69
 891:.\Generated_Source\PSoC5/ADC_DelSig_1.c **** 	{
 892:.\Generated_Source\PSoC5/ADC_DelSig_1.c **** 	    resolution = ADC_DelSig_1_CFG2_RESOLUTION;
 1659              		.loc 1 892 0
 1660 004e 4FF01003 		mov	r3, #16
 1661 0052 FB75     		strb	r3, [r7, #23]
 1662 0054 0EE0     		b	.L68
 1663              	.L69:
 893:.\Generated_Source\PSoC5/ADC_DelSig_1.c **** 	}
 894:.\Generated_Source\PSoC5/ADC_DelSig_1.c **** 	else if (ADC_DelSig_1_Config == ADC_DelSig_1_CFG3)
 1664              		.loc 1 894 0
 1665 0056 40F20003 		movw	r3, #:lower16:ADC_DelSig_1_Config
 1666 005a C0F20003 		movt	r3, #:upper16:ADC_DelSig_1_Config
 1667 005e 1B78     		ldrb	r3, [r3, #0]
ARM GAS  C:\Users\hoangp\AppData\Local\Temp\ccZOsuqR.s 			page 46


 1668 0060 DBB2     		uxtb	r3, r3
 1669 0062 032B     		cmp	r3, #3
 1670 0064 03D1     		bne	.L70
 895:.\Generated_Source\PSoC5/ADC_DelSig_1.c **** 	{
 896:.\Generated_Source\PSoC5/ADC_DelSig_1.c **** 	    resolution = ADC_DelSig_1_CFG3_RESOLUTION;
 1671              		.loc 1 896 0
 1672 0066 4FF01003 		mov	r3, #16
 1673 006a FB75     		strb	r3, [r7, #23]
 1674 006c 02E0     		b	.L68
 1675              	.L70:
 897:.\Generated_Source\PSoC5/ADC_DelSig_1.c **** 	}
 898:.\Generated_Source\PSoC5/ADC_DelSig_1.c **** 	else
 899:.\Generated_Source\PSoC5/ADC_DelSig_1.c **** 	{
 900:.\Generated_Source\PSoC5/ADC_DelSig_1.c **** 	    resolution = ADC_DelSig_1_CFG4_RESOLUTION;
 1676              		.loc 1 900 0
 1677 006e 4FF01003 		mov	r3, #16
 1678 0072 FB75     		strb	r3, [r7, #23]
 1679              	.L68:
 901:.\Generated_Source\PSoC5/ADC_DelSig_1.c **** 	}
 902:.\Generated_Source\PSoC5/ADC_DelSig_1.c **** 	
 903:.\Generated_Source\PSoC5/ADC_DelSig_1.c ****     if(resolution < 17)
 1680              		.loc 1 903 0
 1681 0074 FB7D     		ldrb	r3, [r7, #23]	@ zero_extendqisi2
 1682 0076 102B     		cmp	r3, #16
 1683 0078 06D8     		bhi	.L71
 904:.\Generated_Source\PSoC5/ADC_DelSig_1.c ****     {
 905:.\Generated_Source\PSoC5/ADC_DelSig_1.c ****         A = 1000;
 1684              		.loc 1 905 0
 1685 007a 4FF47A73 		mov	r3, #1000
 1686 007e FB60     		str	r3, [r7, #12]
 906:.\Generated_Source\PSoC5/ADC_DelSig_1.c ****         B = 1;
 1687              		.loc 1 906 0
 1688 0080 4FF00103 		mov	r3, #1
 1689 0084 3B61     		str	r3, [r7, #16]
 1690 0086 05E0     		b	.L72
 1691              	.L71:
 907:.\Generated_Source\PSoC5/ADC_DelSig_1.c ****     }
 908:.\Generated_Source\PSoC5/ADC_DelSig_1.c ****     else
 909:.\Generated_Source\PSoC5/ADC_DelSig_1.c ****     {
 910:.\Generated_Source\PSoC5/ADC_DelSig_1.c ****         A = 100;
 1692              		.loc 1 910 0
 1693 0088 4FF06403 		mov	r3, #100
 1694 008c FB60     		str	r3, [r7, #12]
 911:.\Generated_Source\PSoC5/ADC_DelSig_1.c ****         B = 10;
 1695              		.loc 1 911 0
 1696 008e 4FF00A03 		mov	r3, #10
 1697 0092 3B61     		str	r3, [r7, #16]
 1698              	.L72:
 912:.\Generated_Source\PSoC5/ADC_DelSig_1.c ****     }
 913:.\Generated_Source\PSoC5/ADC_DelSig_1.c **** 
 914:.\Generated_Source\PSoC5/ADC_DelSig_1.c ****     mVolts = ((A * adcCounts) / ((int32)ADC_DelSig_1_CountsPerVolt/B)) ;   
 1699              		.loc 1 914 0
 1700 0094 FB68     		ldr	r3, [r7, #12]
 1701 0096 7A68     		ldr	r2, [r7, #4]
 1702 0098 02FB03F2 		mul	r2, r2, r3
 1703 009c 40F20003 		movw	r3, #:lower16:ADC_DelSig_1_CountsPerVolt
 1704 00a0 C0F20003 		movt	r3, #:upper16:ADC_DelSig_1_CountsPerVolt
ARM GAS  C:\Users\hoangp\AppData\Local\Temp\ccZOsuqR.s 			page 47


 1705 00a4 1968     		ldr	r1, [r3, #0]
 1706 00a6 3B69     		ldr	r3, [r7, #16]
 1707 00a8 91FBF3F3 		sdiv	r3, r1, r3
 1708 00ac 92FBF3F3 		sdiv	r3, r2, r3
 1709 00b0 BB60     		str	r3, [r7, #8]
 915:.\Generated_Source\PSoC5/ADC_DelSig_1.c **** 
 916:.\Generated_Source\PSoC5/ADC_DelSig_1.c ****     return( (int16)mVolts );
 1710              		.loc 1 916 0
 1711 00b2 BB68     		ldr	r3, [r7, #8]
 1712 00b4 9BB2     		uxth	r3, r3
 1713 00b6 1BB2     		sxth	r3, r3
 917:.\Generated_Source\PSoC5/ADC_DelSig_1.c **** }
 1714              		.loc 1 917 0
 1715 00b8 1846     		mov	r0, r3
 1716 00ba 07F11C07 		add	r7, r7, #28
 1717 00be BD46     		mov	sp, r7
 1718 00c0 80BC     		pop	{r7}
 1719 00c2 7047     		bx	lr
 1720              		.cfi_endproc
 1721              	.LFE20:
 1722              		.size	ADC_DelSig_1_CountsTo_mVolts, .-ADC_DelSig_1_CountsTo_mVolts
 1723              		.global	__aeabi_i2f
 1724              		.section	.text.ADC_DelSig_1_CountsTo_Volts,"ax",%progbits
 1725              		.align	2
 1726              		.global	ADC_DelSig_1_CountsTo_Volts
 1727              		.thumb
 1728              		.thumb_func
 1729              		.type	ADC_DelSig_1_CountsTo_Volts, %function
 1730              	ADC_DelSig_1_CountsTo_Volts:
 1731              	.LFB21:
 918:.\Generated_Source\PSoC5/ADC_DelSig_1.c **** 
 919:.\Generated_Source\PSoC5/ADC_DelSig_1.c **** 
 920:.\Generated_Source\PSoC5/ADC_DelSig_1.c **** /*******************************************************************************
 921:.\Generated_Source\PSoC5/ADC_DelSig_1.c **** * Function Name: ADC_DelSig_1_CountsTo_Volts
 922:.\Generated_Source\PSoC5/ADC_DelSig_1.c **** ********************************************************************************
 923:.\Generated_Source\PSoC5/ADC_DelSig_1.c **** *
 924:.\Generated_Source\PSoC5/ADC_DelSig_1.c **** * Summary:
 925:.\Generated_Source\PSoC5/ADC_DelSig_1.c **** *  This function converts ADC counts to Volts
 926:.\Generated_Source\PSoC5/ADC_DelSig_1.c **** *
 927:.\Generated_Source\PSoC5/ADC_DelSig_1.c **** * Parameters:  
 928:.\Generated_Source\PSoC5/ADC_DelSig_1.c **** *  int32:  adcCounts   Reading from ADC.
 929:.\Generated_Source\PSoC5/ADC_DelSig_1.c **** *
 930:.\Generated_Source\PSoC5/ADC_DelSig_1.c **** * Return: 
 931:.\Generated_Source\PSoC5/ADC_DelSig_1.c **** *  float:  Result in Volts
 932:.\Generated_Source\PSoC5/ADC_DelSig_1.c **** *
 933:.\Generated_Source\PSoC5/ADC_DelSig_1.c **** * Global variables:
 934:.\Generated_Source\PSoC5/ADC_DelSig_1.c **** *  ADC_DelSig_1_CountsPerVolt:  used to convert to Volts.
 935:.\Generated_Source\PSoC5/ADC_DelSig_1.c **** *  ADC_DelSig_1_Offset:  Used as the offset while converting ADC counts 
 936:.\Generated_Source\PSoC5/ADC_DelSig_1.c **** *   to Volts.
 937:.\Generated_Source\PSoC5/ADC_DelSig_1.c **** *
 938:.\Generated_Source\PSoC5/ADC_DelSig_1.c **** *******************************************************************************/
 939:.\Generated_Source\PSoC5/ADC_DelSig_1.c **** float ADC_DelSig_1_CountsTo_Volts( int32 adcCounts) 
 940:.\Generated_Source\PSoC5/ADC_DelSig_1.c **** {
 1732              		.loc 1 940 0
 1733              		.cfi_startproc
 1734              		@ args = 0, pretend = 0, frame = 16
 1735              		@ frame_needed = 1, uses_anonymous_args = 0
ARM GAS  C:\Users\hoangp\AppData\Local\Temp\ccZOsuqR.s 			page 48


 1736 0000 90B5     		push	{r4, r7, lr}
 1737              	.LCFI53:
 1738              		.cfi_def_cfa_offset 12
 1739 0002 85B0     		sub	sp, sp, #20
 1740              	.LCFI54:
 1741              		.cfi_def_cfa_offset 32
 1742 0004 00AF     		add	r7, sp, #0
 1743              		.cfi_offset 14, -4
 1744              		.cfi_offset 7, -8
 1745              		.cfi_offset 4, -12
 1746              	.LCFI55:
 1747              		.cfi_def_cfa_register 7
 1748 0006 7860     		str	r0, [r7, #4]
 941:.\Generated_Source\PSoC5/ADC_DelSig_1.c **** 
 942:.\Generated_Source\PSoC5/ADC_DelSig_1.c ****     float Volts = 0;
 1749              		.loc 1 942 0
 1750 0008 114B     		ldr	r3, .L76	@ float
 1751 000a FB60     		str	r3, [r7, #12]	@ float
 943:.\Generated_Source\PSoC5/ADC_DelSig_1.c **** 
 944:.\Generated_Source\PSoC5/ADC_DelSig_1.c ****     /* Subtract ADC offset */
 945:.\Generated_Source\PSoC5/ADC_DelSig_1.c ****     adcCounts -= ADC_DelSig_1_Offset;
 1752              		.loc 1 945 0
 1753 000c 40F20003 		movw	r3, #:lower16:ADC_DelSig_1_Offset
 1754 0010 C0F20003 		movt	r3, #:upper16:ADC_DelSig_1_Offset
 1755 0014 1B68     		ldr	r3, [r3, #0]
 1756 0016 7A68     		ldr	r2, [r7, #4]
 1757 0018 C3EB0203 		rsb	r3, r3, r2
 1758 001c 7B60     		str	r3, [r7, #4]
 946:.\Generated_Source\PSoC5/ADC_DelSig_1.c **** 
 947:.\Generated_Source\PSoC5/ADC_DelSig_1.c ****     Volts = (float)adcCounts / (float)ADC_DelSig_1_CountsPerVolt;   
 1759              		.loc 1 947 0
 1760 001e 7868     		ldr	r0, [r7, #4]
 1761 0020 FFF7FEFF 		bl	__aeabi_i2f
 1762 0024 0446     		mov	r4, r0
 1763 0026 40F20003 		movw	r3, #:lower16:ADC_DelSig_1_CountsPerVolt
 1764 002a C0F20003 		movt	r3, #:upper16:ADC_DelSig_1_CountsPerVolt
 1765 002e 1B68     		ldr	r3, [r3, #0]
 1766 0030 1846     		mov	r0, r3
 1767 0032 FFF7FEFF 		bl	__aeabi_i2f
 1768 0036 0346     		mov	r3, r0
 1769 0038 2046     		mov	r0, r4
 1770 003a 1946     		mov	r1, r3
 1771 003c FFF7FEFF 		bl	__aeabi_fdiv
 1772 0040 0346     		mov	r3, r0
 1773 0042 FB60     		str	r3, [r7, #12]	@ float
 948:.\Generated_Source\PSoC5/ADC_DelSig_1.c ****     
 949:.\Generated_Source\PSoC5/ADC_DelSig_1.c ****     return( Volts );
 1774              		.loc 1 949 0
 1775 0044 FB68     		ldr	r3, [r7, #12]	@ float
 950:.\Generated_Source\PSoC5/ADC_DelSig_1.c **** }
 1776              		.loc 1 950 0
 1777 0046 1846     		mov	r0, r3
 1778 0048 07F11407 		add	r7, r7, #20
 1779 004c BD46     		mov	sp, r7
 1780 004e 90BD     		pop	{r4, r7, pc}
 1781              	.L77:
 1782              		.align	2
ARM GAS  C:\Users\hoangp\AppData\Local\Temp\ccZOsuqR.s 			page 49


 1783              	.L76:
 1784 0050 00000000 		.word	0
 1785              		.cfi_endproc
 1786              	.LFE21:
 1787              		.size	ADC_DelSig_1_CountsTo_Volts, .-ADC_DelSig_1_CountsTo_Volts
 1788              		.section	.text.ADC_DelSig_1_CountsTo_uVolts,"ax",%progbits
 1789              		.align	2
 1790              		.global	ADC_DelSig_1_CountsTo_uVolts
 1791              		.thumb
 1792              		.thumb_func
 1793              		.type	ADC_DelSig_1_CountsTo_uVolts, %function
 1794              	ADC_DelSig_1_CountsTo_uVolts:
 1795              	.LFB22:
 951:.\Generated_Source\PSoC5/ADC_DelSig_1.c **** 
 952:.\Generated_Source\PSoC5/ADC_DelSig_1.c **** 
 953:.\Generated_Source\PSoC5/ADC_DelSig_1.c **** /*******************************************************************************
 954:.\Generated_Source\PSoC5/ADC_DelSig_1.c **** * Function Name: ADC_DelSig_1_CountsTo_uVolts
 955:.\Generated_Source\PSoC5/ADC_DelSig_1.c **** ********************************************************************************
 956:.\Generated_Source\PSoC5/ADC_DelSig_1.c **** *
 957:.\Generated_Source\PSoC5/ADC_DelSig_1.c **** * Summary:
 958:.\Generated_Source\PSoC5/ADC_DelSig_1.c **** *  This function converts ADC counts to uVolts
 959:.\Generated_Source\PSoC5/ADC_DelSig_1.c **** *
 960:.\Generated_Source\PSoC5/ADC_DelSig_1.c **** * Parameters:  
 961:.\Generated_Source\PSoC5/ADC_DelSig_1.c **** *  int32:  adcCounts   Reading from ADC.
 962:.\Generated_Source\PSoC5/ADC_DelSig_1.c **** *
 963:.\Generated_Source\PSoC5/ADC_DelSig_1.c **** * Return: 
 964:.\Generated_Source\PSoC5/ADC_DelSig_1.c **** *  int32:  Result in uVolts
 965:.\Generated_Source\PSoC5/ADC_DelSig_1.c **** *
 966:.\Generated_Source\PSoC5/ADC_DelSig_1.c **** * Global variables:
 967:.\Generated_Source\PSoC5/ADC_DelSig_1.c **** *  ADC_DelSig_1_CountsPerVolt:  used to convert ADC counts to mVolts.
 968:.\Generated_Source\PSoC5/ADC_DelSig_1.c **** *  ADC_DelSig_1_Offset:  Used as the offset while converting ADC counts 
 969:.\Generated_Source\PSoC5/ADC_DelSig_1.c **** *   to mVolts.
 970:.\Generated_Source\PSoC5/ADC_DelSig_1.c **** *
 971:.\Generated_Source\PSoC5/ADC_DelSig_1.c **** * Theory: 
 972:.\Generated_Source\PSoC5/ADC_DelSig_1.c **** * Care must be taken to not exceed the maximum value for a 32 bit signed
 973:.\Generated_Source\PSoC5/ADC_DelSig_1.c **** * number in the conversion to uVolts and at the same time not loose 
 974:.\Generated_Source\PSoC5/ADC_DelSig_1.c **** * resolution.
 975:.\Generated_Source\PSoC5/ADC_DelSig_1.c **** *
 976:.\Generated_Source\PSoC5/ADC_DelSig_1.c **** * uVolts = ((A * adcCounts) / ((int32)ADC_DelSig_1_CountsPerVolt/B)) ;   
 977:.\Generated_Source\PSoC5/ADC_DelSig_1.c **** *
 978:.\Generated_Source\PSoC5/ADC_DelSig_1.c **** *  Resolution       A           B
 979:.\Generated_Source\PSoC5/ADC_DelSig_1.c **** *   8 - 11      1,000,000         1
 980:.\Generated_Source\PSoC5/ADC_DelSig_1.c **** *  12 - 14        100,000        10
 981:.\Generated_Source\PSoC5/ADC_DelSig_1.c **** *  15 - 17         10,000       100
 982:.\Generated_Source\PSoC5/ADC_DelSig_1.c **** *  18 - 20           1000      1000
 983:.\Generated_Source\PSoC5/ADC_DelSig_1.c **** *
 984:.\Generated_Source\PSoC5/ADC_DelSig_1.c **** *******************************************************************************/
 985:.\Generated_Source\PSoC5/ADC_DelSig_1.c **** int32 ADC_DelSig_1_CountsTo_uVolts( int32 adcCounts) 
 986:.\Generated_Source\PSoC5/ADC_DelSig_1.c **** {
 1796              		.loc 1 986 0
 1797              		.cfi_startproc
 1798              		@ args = 0, pretend = 0, frame = 24
 1799              		@ frame_needed = 1, uses_anonymous_args = 0
 1800              		@ link register save eliminated.
 1801 0000 80B4     		push	{r7}
 1802              	.LCFI56:
 1803              		.cfi_def_cfa_offset 4
ARM GAS  C:\Users\hoangp\AppData\Local\Temp\ccZOsuqR.s 			page 50


 1804 0002 87B0     		sub	sp, sp, #28
 1805              	.LCFI57:
 1806              		.cfi_def_cfa_offset 32
 1807 0004 00AF     		add	r7, sp, #0
 1808              		.cfi_offset 7, -4
 1809              	.LCFI58:
 1810              		.cfi_def_cfa_register 7
 1811 0006 7860     		str	r0, [r7, #4]
 987:.\Generated_Source\PSoC5/ADC_DelSig_1.c **** 
 988:.\Generated_Source\PSoC5/ADC_DelSig_1.c ****     int32 uVolts = 0;
 1812              		.loc 1 988 0
 1813 0008 4FF00003 		mov	r3, #0
 1814 000c BB60     		str	r3, [r7, #8]
 989:.\Generated_Source\PSoC5/ADC_DelSig_1.c ****     int32 A, B;
 990:.\Generated_Source\PSoC5/ADC_DelSig_1.c **** 	uint8 resolution = 16;
 1815              		.loc 1 990 0
 1816 000e 4FF01003 		mov	r3, #16
 1817 0012 FB75     		strb	r3, [r7, #23]
 991:.\Generated_Source\PSoC5/ADC_DelSig_1.c **** 	
 992:.\Generated_Source\PSoC5/ADC_DelSig_1.c **** 	/* Set the resolution based on the configuration */
 993:.\Generated_Source\PSoC5/ADC_DelSig_1.c **** 	if (ADC_DelSig_1_Config == ADC_DelSig_1_CFG1)
 1818              		.loc 1 993 0
 1819 0014 40F20003 		movw	r3, #:lower16:ADC_DelSig_1_Config
 1820 0018 C0F20003 		movt	r3, #:upper16:ADC_DelSig_1_Config
 1821 001c 1B78     		ldrb	r3, [r3, #0]
 1822 001e DBB2     		uxtb	r3, r3
 1823 0020 012B     		cmp	r3, #1
 1824 0022 03D1     		bne	.L79
 994:.\Generated_Source\PSoC5/ADC_DelSig_1.c **** 	{
 995:.\Generated_Source\PSoC5/ADC_DelSig_1.c ****         resolution = ADC_DelSig_1_CFG1_RESOLUTION;
 1825              		.loc 1 995 0
 1826 0024 4FF00A03 		mov	r3, #10
 1827 0028 FB75     		strb	r3, [r7, #23]
 1828 002a 1AE0     		b	.L80
 1829              	.L79:
 996:.\Generated_Source\PSoC5/ADC_DelSig_1.c **** 	}	
 997:.\Generated_Source\PSoC5/ADC_DelSig_1.c **** 	else if (ADC_DelSig_1_Config == ADC_DelSig_1_CFG2)
 1830              		.loc 1 997 0
 1831 002c 40F20003 		movw	r3, #:lower16:ADC_DelSig_1_Config
 1832 0030 C0F20003 		movt	r3, #:upper16:ADC_DelSig_1_Config
 1833 0034 1B78     		ldrb	r3, [r3, #0]
 1834 0036 DBB2     		uxtb	r3, r3
 1835 0038 022B     		cmp	r3, #2
 1836 003a 03D1     		bne	.L81
 998:.\Generated_Source\PSoC5/ADC_DelSig_1.c **** 	{
 999:.\Generated_Source\PSoC5/ADC_DelSig_1.c **** 	    resolution = ADC_DelSig_1_CFG2_RESOLUTION;
 1837              		.loc 1 999 0
 1838 003c 4FF01003 		mov	r3, #16
 1839 0040 FB75     		strb	r3, [r7, #23]
 1840 0042 0EE0     		b	.L80
 1841              	.L81:
1000:.\Generated_Source\PSoC5/ADC_DelSig_1.c **** 	}
1001:.\Generated_Source\PSoC5/ADC_DelSig_1.c **** 	else if (ADC_DelSig_1_Config == ADC_DelSig_1_CFG3)
 1842              		.loc 1 1001 0
 1843 0044 40F20003 		movw	r3, #:lower16:ADC_DelSig_1_Config
 1844 0048 C0F20003 		movt	r3, #:upper16:ADC_DelSig_1_Config
 1845 004c 1B78     		ldrb	r3, [r3, #0]
ARM GAS  C:\Users\hoangp\AppData\Local\Temp\ccZOsuqR.s 			page 51


 1846 004e DBB2     		uxtb	r3, r3
 1847 0050 032B     		cmp	r3, #3
 1848 0052 03D1     		bne	.L82
1002:.\Generated_Source\PSoC5/ADC_DelSig_1.c **** 	{
1003:.\Generated_Source\PSoC5/ADC_DelSig_1.c **** 	    resolution = ADC_DelSig_1_CFG3_RESOLUTION;
 1849              		.loc 1 1003 0
 1850 0054 4FF01003 		mov	r3, #16
 1851 0058 FB75     		strb	r3, [r7, #23]
 1852 005a 02E0     		b	.L80
 1853              	.L82:
1004:.\Generated_Source\PSoC5/ADC_DelSig_1.c **** 	}
1005:.\Generated_Source\PSoC5/ADC_DelSig_1.c **** 	else
1006:.\Generated_Source\PSoC5/ADC_DelSig_1.c **** 	{
1007:.\Generated_Source\PSoC5/ADC_DelSig_1.c **** 	    resolution = ADC_DelSig_1_CFG4_RESOLUTION;
 1854              		.loc 1 1007 0
 1855 005c 4FF01003 		mov	r3, #16
 1856 0060 FB75     		strb	r3, [r7, #23]
 1857              	.L80:
1008:.\Generated_Source\PSoC5/ADC_DelSig_1.c **** 	}
1009:.\Generated_Source\PSoC5/ADC_DelSig_1.c ****     
1010:.\Generated_Source\PSoC5/ADC_DelSig_1.c ****     if(resolution < 12)
 1858              		.loc 1 1010 0
 1859 0062 FB7D     		ldrb	r3, [r7, #23]	@ zero_extendqisi2
 1860 0064 0B2B     		cmp	r3, #11
 1861 0066 08D8     		bhi	.L83
1011:.\Generated_Source\PSoC5/ADC_DelSig_1.c ****     {
1012:.\Generated_Source\PSoC5/ADC_DelSig_1.c ****         A = 1000000;
 1862              		.loc 1 1012 0
 1863 0068 44F24023 		movw	r3, #:lower16:1000000
 1864 006c C0F20F03 		movt	r3, #:upper16:1000000
 1865 0070 FB60     		str	r3, [r7, #12]
1013:.\Generated_Source\PSoC5/ADC_DelSig_1.c ****         B = 1;
 1866              		.loc 1 1013 0
 1867 0072 4FF00103 		mov	r3, #1
 1868 0076 3B61     		str	r3, [r7, #16]
 1869 0078 1BE0     		b	.L84
 1870              	.L83:
1014:.\Generated_Source\PSoC5/ADC_DelSig_1.c ****     }
1015:.\Generated_Source\PSoC5/ADC_DelSig_1.c ****     else if(resolution < 15)
 1871              		.loc 1 1015 0
 1872 007a FB7D     		ldrb	r3, [r7, #23]	@ zero_extendqisi2
 1873 007c 0E2B     		cmp	r3, #14
 1874 007e 08D8     		bhi	.L85
1016:.\Generated_Source\PSoC5/ADC_DelSig_1.c ****     {
1017:.\Generated_Source\PSoC5/ADC_DelSig_1.c ****         A = 100000;
 1875              		.loc 1 1017 0
 1876 0080 48F2A063 		movw	r3, #:lower16:100000
 1877 0084 C0F20103 		movt	r3, #:upper16:100000
 1878 0088 FB60     		str	r3, [r7, #12]
1018:.\Generated_Source\PSoC5/ADC_DelSig_1.c ****         B = 10;
 1879              		.loc 1 1018 0
 1880 008a 4FF00A03 		mov	r3, #10
 1881 008e 3B61     		str	r3, [r7, #16]
 1882 0090 0FE0     		b	.L84
 1883              	.L85:
1019:.\Generated_Source\PSoC5/ADC_DelSig_1.c ****     }
1020:.\Generated_Source\PSoC5/ADC_DelSig_1.c ****     else if(resolution < 18)
ARM GAS  C:\Users\hoangp\AppData\Local\Temp\ccZOsuqR.s 			page 52


 1884              		.loc 1 1020 0
 1885 0092 FB7D     		ldrb	r3, [r7, #23]	@ zero_extendqisi2
 1886 0094 112B     		cmp	r3, #17
 1887 0096 06D8     		bhi	.L86
1021:.\Generated_Source\PSoC5/ADC_DelSig_1.c ****     {
1022:.\Generated_Source\PSoC5/ADC_DelSig_1.c ****         A = 10000;
 1888              		.loc 1 1022 0
 1889 0098 42F21073 		movw	r3, #10000
 1890 009c FB60     		str	r3, [r7, #12]
1023:.\Generated_Source\PSoC5/ADC_DelSig_1.c ****         B = 100;
 1891              		.loc 1 1023 0
 1892 009e 4FF06403 		mov	r3, #100
 1893 00a2 3B61     		str	r3, [r7, #16]
 1894 00a4 05E0     		b	.L84
 1895              	.L86:
1024:.\Generated_Source\PSoC5/ADC_DelSig_1.c ****     }
1025:.\Generated_Source\PSoC5/ADC_DelSig_1.c ****     else
1026:.\Generated_Source\PSoC5/ADC_DelSig_1.c ****     {
1027:.\Generated_Source\PSoC5/ADC_DelSig_1.c ****         A = 1000;
 1896              		.loc 1 1027 0
 1897 00a6 4FF47A73 		mov	r3, #1000
 1898 00aa FB60     		str	r3, [r7, #12]
1028:.\Generated_Source\PSoC5/ADC_DelSig_1.c ****         B = 1000;
 1899              		.loc 1 1028 0
 1900 00ac 4FF47A73 		mov	r3, #1000
 1901 00b0 3B61     		str	r3, [r7, #16]
 1902              	.L84:
1029:.\Generated_Source\PSoC5/ADC_DelSig_1.c ****     }
1030:.\Generated_Source\PSoC5/ADC_DelSig_1.c **** 
1031:.\Generated_Source\PSoC5/ADC_DelSig_1.c ****     /* Subtract ADC offset */
1032:.\Generated_Source\PSoC5/ADC_DelSig_1.c ****     adcCounts -= ADC_DelSig_1_Offset;
 1903              		.loc 1 1032 0
 1904 00b2 40F20003 		movw	r3, #:lower16:ADC_DelSig_1_Offset
 1905 00b6 C0F20003 		movt	r3, #:upper16:ADC_DelSig_1_Offset
 1906 00ba 1B68     		ldr	r3, [r3, #0]
 1907 00bc 7A68     		ldr	r2, [r7, #4]
 1908 00be C3EB0203 		rsb	r3, r3, r2
 1909 00c2 7B60     		str	r3, [r7, #4]
1033:.\Generated_Source\PSoC5/ADC_DelSig_1.c **** 
1034:.\Generated_Source\PSoC5/ADC_DelSig_1.c ****     uVolts = ((A * adcCounts) / ((int32)ADC_DelSig_1_CountsPerVolt/B)) ;   
 1910              		.loc 1 1034 0
 1911 00c4 FB68     		ldr	r3, [r7, #12]
 1912 00c6 7A68     		ldr	r2, [r7, #4]
 1913 00c8 02FB03F2 		mul	r2, r2, r3
 1914 00cc 40F20003 		movw	r3, #:lower16:ADC_DelSig_1_CountsPerVolt
 1915 00d0 C0F20003 		movt	r3, #:upper16:ADC_DelSig_1_CountsPerVolt
 1916 00d4 1968     		ldr	r1, [r3, #0]
 1917 00d6 3B69     		ldr	r3, [r7, #16]
 1918 00d8 91FBF3F3 		sdiv	r3, r1, r3
 1919 00dc 92FBF3F3 		sdiv	r3, r2, r3
 1920 00e0 BB60     		str	r3, [r7, #8]
1035:.\Generated_Source\PSoC5/ADC_DelSig_1.c ****   
1036:.\Generated_Source\PSoC5/ADC_DelSig_1.c ****     return( uVolts );
 1921              		.loc 1 1036 0
 1922 00e2 BB68     		ldr	r3, [r7, #8]
1037:.\Generated_Source\PSoC5/ADC_DelSig_1.c **** }
 1923              		.loc 1 1037 0
ARM GAS  C:\Users\hoangp\AppData\Local\Temp\ccZOsuqR.s 			page 53


 1924 00e4 1846     		mov	r0, r3
 1925 00e6 07F11C07 		add	r7, r7, #28
 1926 00ea BD46     		mov	sp, r7
 1927 00ec 80BC     		pop	{r7}
 1928 00ee 7047     		bx	lr
 1929              		.cfi_endproc
 1930              	.LFE22:
 1931              		.size	ADC_DelSig_1_CountsTo_uVolts, .-ADC_DelSig_1_CountsTo_uVolts
 1932              		.section	.text.ADC_DelSig_1_IRQ_Start,"ax",%progbits
 1933              		.align	2
 1934              		.global	ADC_DelSig_1_IRQ_Start
 1935              		.thumb
 1936              		.thumb_func
 1937              		.type	ADC_DelSig_1_IRQ_Start, %function
 1938              	ADC_DelSig_1_IRQ_Start:
 1939              	.LFB23:
1038:.\Generated_Source\PSoC5/ADC_DelSig_1.c **** 
1039:.\Generated_Source\PSoC5/ADC_DelSig_1.c **** 
1040:.\Generated_Source\PSoC5/ADC_DelSig_1.c **** /*******************************************************************************
1041:.\Generated_Source\PSoC5/ADC_DelSig_1.c **** * Function Name: ADC_DelSig_1_IRQ_Start(void)
1042:.\Generated_Source\PSoC5/ADC_DelSig_1.c **** ********************************************************************************
1043:.\Generated_Source\PSoC5/ADC_DelSig_1.c **** *
1044:.\Generated_Source\PSoC5/ADC_DelSig_1.c **** * Summary:
1045:.\Generated_Source\PSoC5/ADC_DelSig_1.c **** *  Set up the interrupt and enable it. The IRQ_Start() API is included to 
1046:.\Generated_Source\PSoC5/ADC_DelSig_1.c **** *  support legacy code. The routine has been replaced by the library source 
1047:.\Generated_Source\PSoC5/ADC_DelSig_1.c **** *  code for interrupts. IRQ_Start() should not be used in new designs.
1048:.\Generated_Source\PSoC5/ADC_DelSig_1.c **** * 
1049:.\Generated_Source\PSoC5/ADC_DelSig_1.c **** * Parameters:  
1050:.\Generated_Source\PSoC5/ADC_DelSig_1.c **** *   void.
1051:.\Generated_Source\PSoC5/ADC_DelSig_1.c **** *
1052:.\Generated_Source\PSoC5/ADC_DelSig_1.c **** * Return:
1053:.\Generated_Source\PSoC5/ADC_DelSig_1.c **** *   void.
1054:.\Generated_Source\PSoC5/ADC_DelSig_1.c **** *
1055:.\Generated_Source\PSoC5/ADC_DelSig_1.c **** *******************************************************************************/
1056:.\Generated_Source\PSoC5/ADC_DelSig_1.c **** void ADC_DelSig_1_IRQ_Start(void) 
1057:.\Generated_Source\PSoC5/ADC_DelSig_1.c **** {
 1940              		.loc 1 1057 0
 1941              		.cfi_startproc
 1942              		@ args = 0, pretend = 0, frame = 0
 1943              		@ frame_needed = 1, uses_anonymous_args = 0
 1944 0000 80B5     		push	{r7, lr}
 1945              	.LCFI59:
 1946              		.cfi_def_cfa_offset 8
 1947 0002 00AF     		add	r7, sp, #0
 1948              		.cfi_offset 14, -4
 1949              		.cfi_offset 7, -8
 1950              	.LCFI60:
 1951              		.cfi_def_cfa_register 7
1058:.\Generated_Source\PSoC5/ADC_DelSig_1.c ****     /* For all we know the interrupt is active. */
1059:.\Generated_Source\PSoC5/ADC_DelSig_1.c ****     CyIntDisable(ADC_DelSig_1_IRQ__INTC_NUMBER );
 1952              		.loc 1 1059 0
 1953 0004 4EF28013 		movw	r3, #:lower16:-536813184
 1954 0008 CEF20003 		movt	r3, #:upper16:-536813184
 1955 000c 4FF00052 		mov	r2, #536870912
 1956 0010 1A60     		str	r2, [r3, #0]
1060:.\Generated_Source\PSoC5/ADC_DelSig_1.c **** 
1061:.\Generated_Source\PSoC5/ADC_DelSig_1.c ****     /* Set the ISR to point to the ADC_DelSig_1_IRQ Interrupt. */
ARM GAS  C:\Users\hoangp\AppData\Local\Temp\ccZOsuqR.s 			page 54


1062:.\Generated_Source\PSoC5/ADC_DelSig_1.c ****     CyIntSetVector(ADC_DelSig_1_IRQ__INTC_NUMBER, ADC_DelSig_1_ISR1);
 1957              		.loc 1 1062 0
 1958 0012 4FF01D00 		mov	r0, #29
 1959 0016 40F20001 		movw	r1, #:lower16:ADC_DelSig_1_ISR1
 1960 001a C0F20001 		movt	r1, #:upper16:ADC_DelSig_1_ISR1
 1961 001e FFF7FEFF 		bl	CyIntSetVector
1063:.\Generated_Source\PSoC5/ADC_DelSig_1.c **** 
1064:.\Generated_Source\PSoC5/ADC_DelSig_1.c ****     /* Set the priority. */
1065:.\Generated_Source\PSoC5/ADC_DelSig_1.c ****     CyIntSetPriority(ADC_DelSig_1_IRQ__INTC_NUMBER, ADC_DelSig_1_IRQ_INTC_PRIOR_NUMBER);
 1962              		.loc 1 1065 0
 1963 0022 4FF01D00 		mov	r0, #29
 1964 0026 4FF00701 		mov	r1, #7
 1965 002a FFF7FEFF 		bl	CyIntSetPriority
1066:.\Generated_Source\PSoC5/ADC_DelSig_1.c **** 
1067:.\Generated_Source\PSoC5/ADC_DelSig_1.c ****     /* Enable interrupt. */
1068:.\Generated_Source\PSoC5/ADC_DelSig_1.c ****     CyIntEnable(ADC_DelSig_1_IRQ__INTC_NUMBER);
 1966              		.loc 1 1068 0
 1967 002e 4EF20013 		movw	r3, #:lower16:-536813312
 1968 0032 CEF20003 		movt	r3, #:upper16:-536813312
 1969 0036 4FF00052 		mov	r2, #536870912
 1970 003a 1A60     		str	r2, [r3, #0]
1069:.\Generated_Source\PSoC5/ADC_DelSig_1.c **** }
 1971              		.loc 1 1069 0
 1972 003c 80BD     		pop	{r7, pc}
 1973              		.cfi_endproc
 1974              	.LFE23:
 1975              		.size	ADC_DelSig_1_IRQ_Start, .-ADC_DelSig_1_IRQ_Start
 1976 003e 00BF     		.section	.text.ADC_DelSig_1_InitConfig,"ax",%progbits
 1977              		.align	2
 1978              		.global	ADC_DelSig_1_InitConfig
 1979              		.thumb
 1980              		.thumb_func
 1981              		.type	ADC_DelSig_1_InitConfig, %function
 1982              	ADC_DelSig_1_InitConfig:
 1983              	.LFB24:
1070:.\Generated_Source\PSoC5/ADC_DelSig_1.c **** 
1071:.\Generated_Source\PSoC5/ADC_DelSig_1.c **** 
1072:.\Generated_Source\PSoC5/ADC_DelSig_1.c **** /*******************************************************************************
1073:.\Generated_Source\PSoC5/ADC_DelSig_1.c **** * Function Name: ADC_DelSig_1_InitConfig(uint8 config)
1074:.\Generated_Source\PSoC5/ADC_DelSig_1.c **** ********************************************************************************
1075:.\Generated_Source\PSoC5/ADC_DelSig_1.c **** *
1076:.\Generated_Source\PSoC5/ADC_DelSig_1.c **** * Summary:
1077:.\Generated_Source\PSoC5/ADC_DelSig_1.c **** *  Initializes all registers based on customizer settings
1078:.\Generated_Source\PSoC5/ADC_DelSig_1.c **** *
1079:.\Generated_Source\PSoC5/ADC_DelSig_1.c **** * Parameters:  
1080:.\Generated_Source\PSoC5/ADC_DelSig_1.c **** *   void
1081:.\Generated_Source\PSoC5/ADC_DelSig_1.c **** *
1082:.\Generated_Source\PSoC5/ADC_DelSig_1.c **** * Return: 
1083:.\Generated_Source\PSoC5/ADC_DelSig_1.c **** *  void
1084:.\Generated_Source\PSoC5/ADC_DelSig_1.c **** *
1085:.\Generated_Source\PSoC5/ADC_DelSig_1.c **** * Global variables:
1086:.\Generated_Source\PSoC5/ADC_DelSig_1.c **** *  ADC_DelSig_1_initVar:  used to set the common registers in the beginning.
1087:.\Generated_Source\PSoC5/ADC_DelSig_1.c **** *  ADC_DelSig_1_CountsPerVolt:  Used to set the default counts per volt.
1088:.\Generated_Source\PSoC5/ADC_DelSig_1.c **** *
1089:.\Generated_Source\PSoC5/ADC_DelSig_1.c **** *******************************************************************************/
1090:.\Generated_Source\PSoC5/ADC_DelSig_1.c **** void ADC_DelSig_1_InitConfig(uint8 config) 
1091:.\Generated_Source\PSoC5/ADC_DelSig_1.c **** {
ARM GAS  C:\Users\hoangp\AppData\Local\Temp\ccZOsuqR.s 			page 55


 1984              		.loc 1 1091 0
 1985              		.cfi_startproc
 1986              		@ args = 0, pretend = 0, frame = 8
 1987              		@ frame_needed = 1, uses_anonymous_args = 0
 1988 0000 80B5     		push	{r7, lr}
 1989              	.LCFI61:
 1990              		.cfi_def_cfa_offset 8
 1991 0002 82B0     		sub	sp, sp, #8
 1992              	.LCFI62:
 1993              		.cfi_def_cfa_offset 16
 1994 0004 00AF     		add	r7, sp, #0
 1995              		.cfi_offset 14, -4
 1996              		.cfi_offset 7, -8
 1997              	.LCFI63:
 1998              		.cfi_def_cfa_register 7
 1999 0006 0346     		mov	r3, r0
 2000 0008 FB71     		strb	r3, [r7, #7]
1092:.\Generated_Source\PSoC5/ADC_DelSig_1.c ****     ADC_DelSig_1_stopConversion = 0u;
 2001              		.loc 1 1092 0
 2002 000a 40F20003 		movw	r3, #:lower16:ADC_DelSig_1_stopConversion
 2003 000e C0F20003 		movt	r3, #:upper16:ADC_DelSig_1_stopConversion
 2004 0012 4FF00002 		mov	r2, #0
 2005 0016 1A70     		strb	r2, [r3, #0]
1093:.\Generated_Source\PSoC5/ADC_DelSig_1.c ****     
1094:.\Generated_Source\PSoC5/ADC_DelSig_1.c ****     if(ADC_DelSig_1_initVar == 0u)
 2006              		.loc 1 1094 0
 2007 0018 40F20003 		movw	r3, #:lower16:ADC_DelSig_1_initVar
 2008 001c C0F20003 		movt	r3, #:upper16:ADC_DelSig_1_initVar
 2009 0020 1B78     		ldrb	r3, [r3, #0]	@ zero_extendqisi2
 2010 0022 002B     		cmp	r3, #0
 2011 0024 68D1     		bne	.L91
1095:.\Generated_Source\PSoC5/ADC_DelSig_1.c ****         {
1096:.\Generated_Source\PSoC5/ADC_DelSig_1.c ****             ADC_DelSig_1_DSM_DEM0_REG    = ADC_DelSig_1_CFG1_DSM_DEM0;    
 2012              		.loc 1 1096 0
 2013 0026 45F69603 		movw	r3, #:lower16:1073764502
 2014 002a C4F20003 		movt	r3, #:upper16:1073764502
 2015 002e 4FF00702 		mov	r2, #7
 2016 0032 1A70     		strb	r2, [r3, #0]
1097:.\Generated_Source\PSoC5/ADC_DelSig_1.c ****             ADC_DelSig_1_DSM_DEM1_REG    = ADC_DelSig_1_CFG1_DSM_DEM1;    
 2017              		.loc 1 1097 0
 2018 0034 45F69703 		movw	r3, #:lower16:1073764503
 2019 0038 C4F20003 		movt	r3, #:upper16:1073764503
 2020 003c 4FF00002 		mov	r2, #0
 2021 0040 1A70     		strb	r2, [r3, #0]
1098:.\Generated_Source\PSoC5/ADC_DelSig_1.c ****             ADC_DelSig_1_DSM_MISC_REG    = ADC_DelSig_1_CFG1_DSM_MISC;    
 2022              		.loc 1 1098 0
 2023 0042 45F69E03 		movw	r3, #:lower16:1073764510
 2024 0046 C4F20003 		movt	r3, #:upper16:1073764510
 2025 004a 4FF00002 		mov	r2, #0
 2026 004e 1A70     		strb	r2, [r3, #0]
1099:.\Generated_Source\PSoC5/ADC_DelSig_1.c ****             ADC_DelSig_1_DSM_CLK_REG    |= ADC_DelSig_1_CFG1_DSM_CLK; 
 2027              		.loc 1 1099 0
 2028 0050 45F60733 		movw	r3, #:lower16:1073765127
 2029 0054 C4F20003 		movt	r3, #:upper16:1073765127
 2030 0058 45F60732 		movw	r2, #:lower16:1073765127
 2031 005c C4F20002 		movt	r2, #:upper16:1073765127
 2032 0060 1278     		ldrb	r2, [r2, #0]
ARM GAS  C:\Users\hoangp\AppData\Local\Temp\ccZOsuqR.s 			page 56


 2033 0062 D2B2     		uxtb	r2, r2
 2034 0064 42F01802 		orr	r2, r2, #24
 2035 0068 D2B2     		uxtb	r2, r2
 2036 006a 1A70     		strb	r2, [r3, #0]
1100:.\Generated_Source\PSoC5/ADC_DelSig_1.c ****             ADC_DelSig_1_DSM_REF1_REG    = ADC_DelSig_1_CFG1_DSM_REF1;    
 2037              		.loc 1 1100 0
 2038 006c 45F69303 		movw	r3, #:lower16:1073764499
 2039 0070 C4F20003 		movt	r3, #:upper16:1073764499
 2040 0074 4FF00002 		mov	r2, #0
 2041 0078 1A70     		strb	r2, [r3, #0]
1101:.\Generated_Source\PSoC5/ADC_DelSig_1.c ****         
1102:.\Generated_Source\PSoC5/ADC_DelSig_1.c ****             ADC_DelSig_1_DSM_OUT0_REG    = ADC_DelSig_1_CFG1_DSM_OUT0;    
 2042              		.loc 1 1102 0
 2043 007a 45F68833 		movw	r3, #:lower16:1073765256
 2044 007e C4F20003 		movt	r3, #:upper16:1073765256
 2045 0082 4FF00002 		mov	r2, #0
 2046 0086 1A70     		strb	r2, [r3, #0]
1103:.\Generated_Source\PSoC5/ADC_DelSig_1.c ****             ADC_DelSig_1_DSM_OUT1_REG    = ADC_DelSig_1_CFG1_DSM_OUT1;   
 2047              		.loc 1 1103 0
 2048 0088 45F68933 		movw	r3, #:lower16:1073765257
 2049 008c C4F20003 		movt	r3, #:upper16:1073765257
 2050 0090 4FF00002 		mov	r2, #0
 2051 0094 1A70     		strb	r2, [r3, #0]
1104:.\Generated_Source\PSoC5/ADC_DelSig_1.c ****         
1105:.\Generated_Source\PSoC5/ADC_DelSig_1.c ****             ADC_DelSig_1_DSM_CR0_REG     = ADC_DelSig_1_CFG1_DSM_CR0;     
 2052              		.loc 1 1105 0
 2053 0096 45F68003 		movw	r3, #:lower16:1073764480
 2054 009a C4F20003 		movt	r3, #:upper16:1073764480
 2055 009e 4FF00A02 		mov	r2, #10
 2056 00a2 1A70     		strb	r2, [r3, #0]
1106:.\Generated_Source\PSoC5/ADC_DelSig_1.c ****             ADC_DelSig_1_DSM_CR1_REG     = ADC_DelSig_1_CFG1_DSM_CR1;     
 2057              		.loc 1 1106 0
 2058 00a4 45F68103 		movw	r3, #:lower16:1073764481
 2059 00a8 C4F20003 		movt	r3, #:upper16:1073764481
 2060 00ac 4FF00002 		mov	r2, #0
 2061 00b0 1A70     		strb	r2, [r3, #0]
1107:.\Generated_Source\PSoC5/ADC_DelSig_1.c ****             ADC_DelSig_1_DSM_CR2_REG     = ADC_DelSig_1_CFG1_DSM_CR2;     
 2062              		.loc 1 1107 0
 2063 00b2 45F68203 		movw	r3, #:lower16:1073764482
 2064 00b6 C4F20003 		movt	r3, #:upper16:1073764482
 2065 00ba 4FF07A02 		mov	r2, #122
 2066 00be 1A70     		strb	r2, [r3, #0]
1108:.\Generated_Source\PSoC5/ADC_DelSig_1.c ****             ADC_DelSig_1_DSM_CR3_REG     = ADC_DelSig_1_CFG1_DSM_CR3;     
 2067              		.loc 1 1108 0
 2068 00c0 45F68303 		movw	r3, #:lower16:1073764483
 2069 00c4 C4F20003 		movt	r3, #:upper16:1073764483
 2070 00c8 4FF00002 		mov	r2, #0
 2071 00cc 1A70     		strb	r2, [r3, #0]
1109:.\Generated_Source\PSoC5/ADC_DelSig_1.c ****             ADC_DelSig_1_DSM_CR13_REG    = ADC_DelSig_1_CFG1_DSM_CR13;     
 2072              		.loc 1 1109 0
 2073 00ce 45F68D03 		movw	r3, #:lower16:1073764493
 2074 00d2 C4F20003 		movt	r3, #:upper16:1073764493
 2075 00d6 4FF00002 		mov	r2, #0
 2076 00da 1A70     		strb	r2, [r3, #0]
1110:.\Generated_Source\PSoC5/ADC_DelSig_1.c ****             
1111:.\Generated_Source\PSoC5/ADC_DelSig_1.c ****             ADC_DelSig_1_DEC_SR_REG      = ADC_DelSig_1_CFG1_DEC_SR;      
 2077              		.loc 1 1111 0
ARM GAS  C:\Users\hoangp\AppData\Local\Temp\ccZOsuqR.s 			page 57


 2078 00dc 44F60163 		movw	r3, #:lower16:1073761793
 2079 00e0 C4F20003 		movt	r3, #:upper16:1073761793
 2080 00e4 4FF01402 		mov	r2, #20
 2081 00e8 1A70     		strb	r2, [r3, #0]
1112:.\Generated_Source\PSoC5/ADC_DelSig_1.c ****             ADC_DelSig_1_DEC_COHER_REG   = ADC_DelSig_1_CFG1_DEC_COHER;   
 2082              		.loc 1 1112 0
 2083 00ea 44F61463 		movw	r3, #:lower16:1073761812
 2084 00ee C4F20003 		movt	r3, #:upper16:1073761812
 2085 00f2 4FF00102 		mov	r2, #1
 2086 00f6 1A70     		strb	r2, [r3, #0]
 2087              	.L91:
1113:.\Generated_Source\PSoC5/ADC_DelSig_1.c ****         }
1114:.\Generated_Source\PSoC5/ADC_DelSig_1.c **** 
1115:.\Generated_Source\PSoC5/ADC_DelSig_1.c ****     if (config == 1u)
 2088              		.loc 1 1115 0
 2089 00f8 FB79     		ldrb	r3, [r7, #7]	@ zero_extendqisi2
 2090 00fa 012B     		cmp	r3, #1
 2091 00fc 40F0F280 		bne	.L92
1116:.\Generated_Source\PSoC5/ADC_DelSig_1.c ****     {
1117:.\Generated_Source\PSoC5/ADC_DelSig_1.c ****         /* Default Config */   
1118:.\Generated_Source\PSoC5/ADC_DelSig_1.c ****         ADC_DelSig_1_DEC_CR_REG      = ADC_DelSig_1_CFG1_DEC_CR;      
 2092              		.loc 1 1118 0
 2093 0100 44F60063 		movw	r3, #:lower16:1073761792
 2094 0104 C4F20003 		movt	r3, #:upper16:1073761792
 2095 0108 4FF03802 		mov	r2, #56
 2096 010c 1A70     		strb	r2, [r3, #0]
1119:.\Generated_Source\PSoC5/ADC_DelSig_1.c ****         ADC_DelSig_1_DEC_SHIFT1_REG  = ADC_DelSig_1_CFG1_DEC_SHIFT1;  
 2097              		.loc 1 1119 0
 2098 010e 44F60263 		movw	r3, #:lower16:1073761794
 2099 0112 C4F20003 		movt	r3, #:upper16:1073761794
 2100 0116 4FF00502 		mov	r2, #5
 2101 011a 1A70     		strb	r2, [r3, #0]
1120:.\Generated_Source\PSoC5/ADC_DelSig_1.c ****         ADC_DelSig_1_DEC_SHIFT2_REG  = ADC_DelSig_1_CFG1_DEC_SHIFT2;  
 2102              		.loc 1 1120 0
 2103 011c 44F60363 		movw	r3, #:lower16:1073761795
 2104 0120 C4F20003 		movt	r3, #:upper16:1073761795
 2105 0124 4FF00802 		mov	r2, #8
 2106 0128 1A70     		strb	r2, [r3, #0]
1121:.\Generated_Source\PSoC5/ADC_DelSig_1.c ****         ADC_DelSig_1_DEC_DR2_REG     = ADC_DelSig_1_CFG1_DEC_DR2;     
 2107              		.loc 1 1121 0
 2108 012a 44F60463 		movw	r3, #:lower16:1073761796
 2109 012e C4F20003 		movt	r3, #:upper16:1073761796
 2110 0132 4FF00002 		mov	r2, #0
 2111 0136 1A70     		strb	r2, [r3, #0]
1122:.\Generated_Source\PSoC5/ADC_DelSig_1.c ****         ADC_DelSig_1_DEC_DR2H_REG    = ADC_DelSig_1_CFG1_DEC_DR2H;    
 2112              		.loc 1 1122 0
 2113 0138 44F60563 		movw	r3, #:lower16:1073761797
 2114 013c C4F20003 		movt	r3, #:upper16:1073761797
 2115 0140 4FF00002 		mov	r2, #0
 2116 0144 1A70     		strb	r2, [r3, #0]
1123:.\Generated_Source\PSoC5/ADC_DelSig_1.c ****         ADC_DelSig_1_DEC_DR1_REG     = ADC_DelSig_1_CFG1_DEC_DR1;     
 2117              		.loc 1 1123 0
 2118 0146 44F60663 		movw	r3, #:lower16:1073761798
 2119 014a C4F20003 		movt	r3, #:upper16:1073761798
 2120 014e 4FF01602 		mov	r2, #22
 2121 0152 1A70     		strb	r2, [r3, #0]
1124:.\Generated_Source\PSoC5/ADC_DelSig_1.c ****         ADC_DelSig_1_DEC_OCOR_REG    = ADC_DelSig_1_CFG1_DEC_OCOR;    
ARM GAS  C:\Users\hoangp\AppData\Local\Temp\ccZOsuqR.s 			page 58


 2122              		.loc 1 1124 0
 2123 0154 44F60863 		movw	r3, #:lower16:1073761800
 2124 0158 C4F20003 		movt	r3, #:upper16:1073761800
 2125 015c 4FF00002 		mov	r2, #0
 2126 0160 1A70     		strb	r2, [r3, #0]
1125:.\Generated_Source\PSoC5/ADC_DelSig_1.c ****         ADC_DelSig_1_DEC_OCORM_REG   = ADC_DelSig_1_CFG1_DEC_OCORM;   
 2127              		.loc 1 1125 0
 2128 0162 44F60963 		movw	r3, #:lower16:1073761801
 2129 0166 C4F20003 		movt	r3, #:upper16:1073761801
 2130 016a 4FF00002 		mov	r2, #0
 2131 016e 1A70     		strb	r2, [r3, #0]
1126:.\Generated_Source\PSoC5/ADC_DelSig_1.c ****         ADC_DelSig_1_DEC_OCORH_REG   = ADC_DelSig_1_CFG1_DEC_OCORH;   
 2132              		.loc 1 1126 0
 2133 0170 44F60A63 		movw	r3, #:lower16:1073761802
 2134 0174 C4F20003 		movt	r3, #:upper16:1073761802
 2135 0178 4FF00002 		mov	r2, #0
 2136 017c 1A70     		strb	r2, [r3, #0]
1127:.\Generated_Source\PSoC5/ADC_DelSig_1.c ****         
1128:.\Generated_Source\PSoC5/ADC_DelSig_1.c ****         ADC_DelSig_1_DSM_CR4_REG     = ADC_DelSig_1_CFG1_DSM_CR4;     
 2137              		.loc 1 1128 0
 2138 017e 45F68403 		movw	r3, #:lower16:1073764484
 2139 0182 C4F20003 		movt	r3, #:upper16:1073764484
 2140 0186 4FF01402 		mov	r2, #20
 2141 018a 1A70     		strb	r2, [r3, #0]
1129:.\Generated_Source\PSoC5/ADC_DelSig_1.c ****         ADC_DelSig_1_DSM_CR5_REG     = ADC_DelSig_1_CFG1_DSM_CR5;     
 2142              		.loc 1 1129 0
 2143 018c 45F68503 		movw	r3, #:lower16:1073764485
 2144 0190 C4F20003 		movt	r3, #:upper16:1073764485
 2145 0194 4FF00902 		mov	r2, #9
 2146 0198 1A70     		strb	r2, [r3, #0]
1130:.\Generated_Source\PSoC5/ADC_DelSig_1.c ****         ADC_DelSig_1_DSM_CR6_REG     = ADC_DelSig_1_CFG1_DSM_CR6;     
 2147              		.loc 1 1130 0
 2148 019a 45F68603 		movw	r3, #:lower16:1073764486
 2149 019e C4F20003 		movt	r3, #:upper16:1073764486
 2150 01a2 4FF00A02 		mov	r2, #10
 2151 01a6 1A70     		strb	r2, [r3, #0]
1131:.\Generated_Source\PSoC5/ADC_DelSig_1.c ****         ADC_DelSig_1_DSM_CR7_REG     = ADC_DelSig_1_CFG1_DSM_CR7;     
 2152              		.loc 1 1131 0
 2153 01a8 45F68703 		movw	r3, #:lower16:1073764487
 2154 01ac C4F20003 		movt	r3, #:upper16:1073764487
 2155 01b0 4FF00002 		mov	r2, #0
 2156 01b4 1A70     		strb	r2, [r3, #0]
1132:.\Generated_Source\PSoC5/ADC_DelSig_1.c ****         ADC_DelSig_1_DSM_CR8_REG     = ADC_DelSig_1_CFG1_DSM_CR8;     
 2157              		.loc 1 1132 0
 2158 01b6 45F68803 		movw	r3, #:lower16:1073764488
 2159 01ba C4F20003 		movt	r3, #:upper16:1073764488
 2160 01be 4FF01202 		mov	r2, #18
 2161 01c2 1A70     		strb	r2, [r3, #0]
1133:.\Generated_Source\PSoC5/ADC_DelSig_1.c ****         ADC_DelSig_1_DSM_CR9_REG     = ADC_DelSig_1_CFG1_DSM_CR9;     
 2162              		.loc 1 1133 0
 2163 01c4 45F68903 		movw	r3, #:lower16:1073764489
 2164 01c8 C4F20003 		movt	r3, #:upper16:1073764489
 2165 01cc 4FF01302 		mov	r2, #19
 2166 01d0 1A70     		strb	r2, [r3, #0]
1134:.\Generated_Source\PSoC5/ADC_DelSig_1.c ****         ADC_DelSig_1_DSM_CR10_REG    = ADC_DelSig_1_CFG1_DSM_CR10;    
 2167              		.loc 1 1134 0
 2168 01d2 45F68A03 		movw	r3, #:lower16:1073764490
ARM GAS  C:\Users\hoangp\AppData\Local\Temp\ccZOsuqR.s 			page 59


 2169 01d6 C4F20003 		movt	r3, #:upper16:1073764490
 2170 01da 4FF05502 		mov	r2, #85
 2171 01de 1A70     		strb	r2, [r3, #0]
1135:.\Generated_Source\PSoC5/ADC_DelSig_1.c ****         ADC_DelSig_1_DSM_CR11_REG    = ADC_DelSig_1_CFG1_DSM_CR11;    
 2172              		.loc 1 1135 0
 2173 01e0 45F68B03 		movw	r3, #:lower16:1073764491
 2174 01e4 C4F20003 		movt	r3, #:upper16:1073764491
 2175 01e8 4FF05A02 		mov	r2, #90
 2176 01ec 1A70     		strb	r2, [r3, #0]
1136:.\Generated_Source\PSoC5/ADC_DelSig_1.c ****         ADC_DelSig_1_DSM_CR12_REG    = ADC_DelSig_1_CFG1_DSM_CR12;    
 2177              		.loc 1 1136 0
 2178 01ee 45F68C03 		movw	r3, #:lower16:1073764492
 2179 01f2 C4F20003 		movt	r3, #:upper16:1073764492
 2180 01f6 4FF00502 		mov	r2, #5
 2181 01fa 1A70     		strb	r2, [r3, #0]
1137:.\Generated_Source\PSoC5/ADC_DelSig_1.c ****         ADC_DelSig_1_DSM_CR14_REG    = ADC_DelSig_1_CFG1_DSM_CR14;    
 2182              		.loc 1 1137 0
 2183 01fc 45F68E03 		movw	r3, #:lower16:1073764494
 2184 0200 C4F20003 		movt	r3, #:upper16:1073764494
 2185 0204 4FF00202 		mov	r2, #2
 2186 0208 1A70     		strb	r2, [r3, #0]
1138:.\Generated_Source\PSoC5/ADC_DelSig_1.c ****         ADC_DelSig_1_DSM_CR15_REG    = ADC_DelSig_1_CFG1_DSM_CR15;    
 2187              		.loc 1 1138 0
 2188 020a 45F68F03 		movw	r3, #:lower16:1073764495
 2189 020e C4F20003 		movt	r3, #:upper16:1073764495
 2190 0212 4FF02202 		mov	r2, #34
 2191 0216 1A70     		strb	r2, [r3, #0]
1139:.\Generated_Source\PSoC5/ADC_DelSig_1.c ****         ADC_DelSig_1_DSM_CR16_REG    = ADC_DelSig_1_CFG1_DSM_CR16;    
 2192              		.loc 1 1139 0
 2193 0218 45F69003 		movw	r3, #:lower16:1073764496
 2194 021c C4F20003 		movt	r3, #:upper16:1073764496
 2195 0220 4FF02802 		mov	r2, #40
 2196 0224 1A70     		strb	r2, [r3, #0]
1140:.\Generated_Source\PSoC5/ADC_DelSig_1.c ****         ADC_DelSig_1_DSM_CR17_REG    = ADC_DelSig_1_CFG1_DSM_CR17;
 2197              		.loc 1 1140 0
 2198 0226 45F69103 		movw	r3, #:lower16:1073764497
 2199 022a C4F20003 		movt	r3, #:upper16:1073764497
 2200 022e 6FF01402 		mvn	r2, #20
 2201 0232 1A70     		strb	r2, [r3, #0]
1141:.\Generated_Source\PSoC5/ADC_DelSig_1.c **** 		/* Set DSM_REF0_REG by disabling and enabling the PRESS cirucit */
1142:.\Generated_Source\PSoC5/ADC_DelSig_1.c **** 		ADC_DelSig_1_SetDSMRef0Reg(ADC_DelSig_1_CFG1_DSM_REF0);
 2202              		.loc 1 1142 0
 2203 0234 4FF04400 		mov	r0, #68
 2204 0238 FFF7FEFF 		bl	ADC_DelSig_1_SetDSMRef0Reg
1143:.\Generated_Source\PSoC5/ADC_DelSig_1.c ****         ADC_DelSig_1_DSM_REF2_REG    = ADC_DelSig_1_CFG1_DSM_REF2;    
 2205              		.loc 1 1143 0
 2206 023c 45F69403 		movw	r3, #:lower16:1073764500
 2207 0240 C4F20003 		movt	r3, #:upper16:1073764500
 2208 0244 4FF05802 		mov	r2, #88
 2209 0248 1A70     		strb	r2, [r3, #0]
1144:.\Generated_Source\PSoC5/ADC_DelSig_1.c ****         ADC_DelSig_1_DSM_REF3_REG    = ADC_DelSig_1_CFG1_DSM_REF3;    
 2210              		.loc 1 1144 0
 2211 024a 45F69503 		movw	r3, #:lower16:1073764501
 2212 024e C4F20003 		movt	r3, #:upper16:1073764501
 2213 0252 4FF00002 		mov	r2, #0
 2214 0256 1A70     		strb	r2, [r3, #0]
1145:.\Generated_Source\PSoC5/ADC_DelSig_1.c ****         
ARM GAS  C:\Users\hoangp\AppData\Local\Temp\ccZOsuqR.s 			page 60


1146:.\Generated_Source\PSoC5/ADC_DelSig_1.c ****         ADC_DelSig_1_DSM_BUF0_REG    = ADC_DelSig_1_CFG1_DSM_BUF0;    
 2215              		.loc 1 1146 0
 2216 0258 45F69A03 		movw	r3, #:lower16:1073764506
 2217 025c C4F20003 		movt	r3, #:upper16:1073764506
 2218 0260 4FF00502 		mov	r2, #5
 2219 0264 1A70     		strb	r2, [r3, #0]
1147:.\Generated_Source\PSoC5/ADC_DelSig_1.c ****         ADC_DelSig_1_DSM_BUF1_REG    = ADC_DelSig_1_CFG1_DSM_BUF1;    
 2220              		.loc 1 1147 0
 2221 0266 45F69B03 		movw	r3, #:lower16:1073764507
 2222 026a C4F20003 		movt	r3, #:upper16:1073764507
 2223 026e 4FF00102 		mov	r2, #1
 2224 0272 1A70     		strb	r2, [r3, #0]
1148:.\Generated_Source\PSoC5/ADC_DelSig_1.c ****         ADC_DelSig_1_DSM_BUF2_REG    = ADC_DelSig_1_CFG1_DSM_BUF2;   
 2225              		.loc 1 1148 0
 2226 0274 45F69C03 		movw	r3, #:lower16:1073764508
 2227 0278 C4F20003 		movt	r3, #:upper16:1073764508
 2228 027c 4FF00002 		mov	r2, #0
 2229 0280 1A70     		strb	r2, [r3, #0]
1149:.\Generated_Source\PSoC5/ADC_DelSig_1.c ****         ADC_DelSig_1_DSM_BUF3_REG    = ADC_DelSig_1_CFG1_DSM_BUF3;
 2230              		.loc 1 1149 0
 2231 0282 45F69D03 		movw	r3, #:lower16:1073764509
 2232 0286 C4F20003 		movt	r3, #:upper16:1073764509
 2233 028a 4FF00A02 		mov	r2, #10
 2234 028e 1A70     		strb	r2, [r3, #0]
1150:.\Generated_Source\PSoC5/ADC_DelSig_1.c ****         #if (CY_PSOC5A)
1151:.\Generated_Source\PSoC5/ADC_DelSig_1.c ****             ADC_DelSig_1_DSM_CLK_REG    |= ADC_DelSig_1_CFG1_DSM_CLK; 
 2235              		.loc 1 1151 0
 2236 0290 45F60733 		movw	r3, #:lower16:1073765127
 2237 0294 C4F20003 		movt	r3, #:upper16:1073765127
 2238 0298 45F60732 		movw	r2, #:lower16:1073765127
 2239 029c C4F20002 		movt	r2, #:upper16:1073765127
 2240 02a0 1278     		ldrb	r2, [r2, #0]
 2241 02a2 D2B2     		uxtb	r2, r2
 2242 02a4 42F01802 		orr	r2, r2, #24
 2243 02a8 D2B2     		uxtb	r2, r2
 2244 02aa 1A70     		strb	r2, [r3, #0]
1152:.\Generated_Source\PSoC5/ADC_DelSig_1.c ****         #endif /* CY_PSOC5A */
1153:.\Generated_Source\PSoC5/ADC_DelSig_1.c ****         
1154:.\Generated_Source\PSoC5/ADC_DelSig_1.c ****         /* To select either Vssa or Vref to -ve input of DSM depending on 
1155:.\Generated_Source\PSoC5/ADC_DelSig_1.c ****           the input  range selected.
1156:.\Generated_Source\PSoC5/ADC_DelSig_1.c ****         */
1157:.\Generated_Source\PSoC5/ADC_DelSig_1.c ****         
1158:.\Generated_Source\PSoC5/ADC_DelSig_1.c ****         #if(ADC_DelSig_1_DEFAULT_INPUT_MODE)
1159:.\Generated_Source\PSoC5/ADC_DelSig_1.c ****             #if (CY_PSOC3 || CY_PSOC5LP)
1160:.\Generated_Source\PSoC5/ADC_DelSig_1.c ****                 #if (ADC_DelSig_1_CFG1_RANGE == ADC_DelSig_1_IR_VSSA_TO_2VREF)
1161:.\Generated_Source\PSoC5/ADC_DelSig_1.c ****                     ADC_DelSig_1_AMux_Select(1);
1162:.\Generated_Source\PSoC5/ADC_DelSig_1.c ****                 #else
1163:.\Generated_Source\PSoC5/ADC_DelSig_1.c ****                     ADC_DelSig_1_AMux_Select(0);
1164:.\Generated_Source\PSoC5/ADC_DelSig_1.c ****                 #endif /* ADC_DelSig_1_IR_VSSA_TO_2VREF) */
1165:.\Generated_Source\PSoC5/ADC_DelSig_1.c ****             #elif (CY_PSOC5A)
1166:.\Generated_Source\PSoC5/ADC_DelSig_1.c ****                 ADC_DelSig_1_AMux_Select(0);
1167:.\Generated_Source\PSoC5/ADC_DelSig_1.c ****             #endif /* CY_PSOC3 || CY_PSOC5LP */
1168:.\Generated_Source\PSoC5/ADC_DelSig_1.c ****         #endif /* ADC_DelSig_1_DEFAULT_INPUT_MODE */
1169:.\Generated_Source\PSoC5/ADC_DelSig_1.c ****         
1170:.\Generated_Source\PSoC5/ADC_DelSig_1.c ****         /* Set the Conversion stop if resolution is above 16 bit and conversion 
1171:.\Generated_Source\PSoC5/ADC_DelSig_1.c ****            mode is Single sample */
1172:.\Generated_Source\PSoC5/ADC_DelSig_1.c ****         #if(ADC_DelSig_1_CFG1_RESOLUTION > 16 && \
ARM GAS  C:\Users\hoangp\AppData\Local\Temp\ccZOsuqR.s 			page 61


1173:.\Generated_Source\PSoC5/ADC_DelSig_1.c ****             ADC_DelSig_1_CFG1_CONV_MODE == ADC_DelSig_1_MODE_SINGLE_SAMPLE) 
1174:.\Generated_Source\PSoC5/ADC_DelSig_1.c ****             ADC_DelSig_1_stopConversion = 1;
1175:.\Generated_Source\PSoC5/ADC_DelSig_1.c ****         #endif /* Single sample with resolution above 16 bits. */
1176:.\Generated_Source\PSoC5/ADC_DelSig_1.c ****         ADC_DelSig_1_CountsPerVolt = (uint32)ADC_DelSig_1_CFG1_COUNTS_PER_VOLT;
 2245              		.loc 1 1176 0
 2246 02ac 40F20003 		movw	r3, #:lower16:ADC_DelSig_1_CountsPerVolt
 2247 02b0 C0F20003 		movt	r3, #:upper16:ADC_DelSig_1_CountsPerVolt
 2248 02b4 4FF4FA72 		mov	r2, #500
 2249 02b8 1A60     		str	r2, [r3, #0]
1177:.\Generated_Source\PSoC5/ADC_DelSig_1.c ****         
1178:.\Generated_Source\PSoC5/ADC_DelSig_1.c ****         /* Start and set interrupt vector */
1179:.\Generated_Source\PSoC5/ADC_DelSig_1.c ****         CyIntSetPriority(ADC_DelSig_1_IRQ__INTC_NUMBER, ADC_DelSig_1_IRQ_INTC_PRIOR_NUMBER);
 2250              		.loc 1 1179 0
 2251 02ba 4FF01D00 		mov	r0, #29
 2252 02be 4FF00701 		mov	r1, #7
 2253 02c2 FFF7FEFF 		bl	CyIntSetPriority
1180:.\Generated_Source\PSoC5/ADC_DelSig_1.c ****         CyIntSetVector(ADC_DelSig_1_IRQ__INTC_NUMBER, ADC_DelSig_1_ISR1 );
 2254              		.loc 1 1180 0
 2255 02c6 4FF01D00 		mov	r0, #29
 2256 02ca 40F20001 		movw	r1, #:lower16:ADC_DelSig_1_ISR1
 2257 02ce C0F20001 		movt	r1, #:upper16:ADC_DelSig_1_ISR1
 2258 02d2 FFF7FEFF 		bl	CyIntSetVector
1181:.\Generated_Source\PSoC5/ADC_DelSig_1.c ****         CyIntEnable(ADC_DelSig_1_IRQ__INTC_NUMBER);
 2259              		.loc 1 1181 0
 2260 02d6 4EF20013 		movw	r3, #:lower16:-536813312
 2261 02da CEF20003 		movt	r3, #:upper16:-536813312
 2262 02de 4FF00052 		mov	r2, #536870912
 2263 02e2 1A60     		str	r2, [r3, #0]
 2264              	.L92:
1182:.\Generated_Source\PSoC5/ADC_DelSig_1.c ****     }
1183:.\Generated_Source\PSoC5/ADC_DelSig_1.c ****     
1184:.\Generated_Source\PSoC5/ADC_DelSig_1.c ****     #if(ADC_DelSig_1_DEFAULT_NUM_CONFIGS > 1)
1185:.\Generated_Source\PSoC5/ADC_DelSig_1.c ****         if(config == 2u)
 2265              		.loc 1 1185 0
 2266 02e4 FB79     		ldrb	r3, [r7, #7]	@ zero_extendqisi2
 2267 02e6 022B     		cmp	r3, #2
 2268 02e8 40F0F280 		bne	.L93
1186:.\Generated_Source\PSoC5/ADC_DelSig_1.c ****         {
1187:.\Generated_Source\PSoC5/ADC_DelSig_1.c ****             /* Second Config */
1188:.\Generated_Source\PSoC5/ADC_DelSig_1.c ****             ADC_DelSig_1_DEC_CR_REG      = ADC_DelSig_1_CFG2_DEC_CR;      
 2269              		.loc 1 1188 0
 2270 02ec 44F60063 		movw	r3, #:lower16:1073761792
 2271 02f0 C4F20003 		movt	r3, #:upper16:1073761792
 2272 02f4 4FF03802 		mov	r2, #56
 2273 02f8 1A70     		strb	r2, [r3, #0]
1189:.\Generated_Source\PSoC5/ADC_DelSig_1.c ****             ADC_DelSig_1_DEC_SHIFT1_REG  = ADC_DelSig_1_CFG2_DEC_SHIFT1;  
 2274              		.loc 1 1189 0
 2275 02fa 44F60263 		movw	r3, #:lower16:1073761794
 2276 02fe C4F20003 		movt	r3, #:upper16:1073761794
 2277 0302 4FF00402 		mov	r2, #4
 2278 0306 1A70     		strb	r2, [r3, #0]
1190:.\Generated_Source\PSoC5/ADC_DelSig_1.c ****             ADC_DelSig_1_DEC_SHIFT2_REG  = ADC_DelSig_1_CFG2_DEC_SHIFT2;  
 2279              		.loc 1 1190 0
 2280 0308 44F60363 		movw	r3, #:lower16:1073761795
 2281 030c C4F20003 		movt	r3, #:upper16:1073761795
 2282 0310 4FF00702 		mov	r2, #7
 2283 0314 1A70     		strb	r2, [r3, #0]
ARM GAS  C:\Users\hoangp\AppData\Local\Temp\ccZOsuqR.s 			page 62


1191:.\Generated_Source\PSoC5/ADC_DelSig_1.c ****             ADC_DelSig_1_DEC_DR2_REG     = ADC_DelSig_1_CFG2_DEC_DR2;     
 2284              		.loc 1 1191 0
 2285 0316 44F60463 		movw	r3, #:lower16:1073761796
 2286 031a C4F20003 		movt	r3, #:upper16:1073761796
 2287 031e 4FF00002 		mov	r2, #0
 2288 0322 1A70     		strb	r2, [r3, #0]
1192:.\Generated_Source\PSoC5/ADC_DelSig_1.c ****             ADC_DelSig_1_DEC_DR2H_REG    = ADC_DelSig_1_CFG2_DEC_DR2H;    
 2289              		.loc 1 1192 0
 2290 0324 44F60563 		movw	r3, #:lower16:1073761797
 2291 0328 C4F20003 		movt	r3, #:upper16:1073761797
 2292 032c 4FF00002 		mov	r2, #0
 2293 0330 1A70     		strb	r2, [r3, #0]
1193:.\Generated_Source\PSoC5/ADC_DelSig_1.c ****             ADC_DelSig_1_DEC_DR1_REG     = ADC_DelSig_1_CFG2_DEC_DR1;     
 2294              		.loc 1 1193 0
 2295 0332 44F60663 		movw	r3, #:lower16:1073761798
 2296 0336 C4F20003 		movt	r3, #:upper16:1073761798
 2297 033a 4FF03F02 		mov	r2, #63
 2298 033e 1A70     		strb	r2, [r3, #0]
1194:.\Generated_Source\PSoC5/ADC_DelSig_1.c ****             ADC_DelSig_1_DEC_OCOR_REG    = ADC_DelSig_1_CFG2_DEC_OCOR;    
 2299              		.loc 1 1194 0
 2300 0340 44F60863 		movw	r3, #:lower16:1073761800
 2301 0344 C4F20003 		movt	r3, #:upper16:1073761800
 2302 0348 4FF00002 		mov	r2, #0
 2303 034c 1A70     		strb	r2, [r3, #0]
1195:.\Generated_Source\PSoC5/ADC_DelSig_1.c ****             ADC_DelSig_1_DEC_OCORM_REG   = ADC_DelSig_1_CFG2_DEC_OCORM;   
 2304              		.loc 1 1195 0
 2305 034e 44F60963 		movw	r3, #:lower16:1073761801
 2306 0352 C4F20003 		movt	r3, #:upper16:1073761801
 2307 0356 4FF00002 		mov	r2, #0
 2308 035a 1A70     		strb	r2, [r3, #0]
1196:.\Generated_Source\PSoC5/ADC_DelSig_1.c ****             ADC_DelSig_1_DEC_OCORH_REG   = ADC_DelSig_1_CFG2_DEC_OCORH;   
 2309              		.loc 1 1196 0
 2310 035c 44F60A63 		movw	r3, #:lower16:1073761802
 2311 0360 C4F20003 		movt	r3, #:upper16:1073761802
 2312 0364 4FF00002 		mov	r2, #0
 2313 0368 1A70     		strb	r2, [r3, #0]
1197:.\Generated_Source\PSoC5/ADC_DelSig_1.c ****         
1198:.\Generated_Source\PSoC5/ADC_DelSig_1.c ****             ADC_DelSig_1_DSM_CR4_REG     = ADC_DelSig_1_CFG2_DSM_CR4;     
 2314              		.loc 1 1198 0
 2315 036a 45F68403 		movw	r3, #:lower16:1073764484
 2316 036e C4F20003 		movt	r3, #:upper16:1073764484
 2317 0372 4FF05002 		mov	r2, #80
 2318 0376 1A70     		strb	r2, [r3, #0]
1199:.\Generated_Source\PSoC5/ADC_DelSig_1.c ****             ADC_DelSig_1_DSM_CR5_REG     = ADC_DelSig_1_CFG2_DSM_CR5;     
 2319              		.loc 1 1199 0
 2320 0378 45F68503 		movw	r3, #:lower16:1073764485
 2321 037c C4F20003 		movt	r3, #:upper16:1073764485
 2322 0380 4FF02702 		mov	r2, #39
 2323 0384 1A70     		strb	r2, [r3, #0]
1200:.\Generated_Source\PSoC5/ADC_DelSig_1.c ****             ADC_DelSig_1_DSM_CR6_REG     = ADC_DelSig_1_CFG2_DSM_CR6;     
 2324              		.loc 1 1200 0
 2325 0386 45F68603 		movw	r3, #:lower16:1073764486
 2326 038a C4F20003 		movt	r3, #:upper16:1073764486
 2327 038e 4FF02C02 		mov	r2, #44
 2328 0392 1A70     		strb	r2, [r3, #0]
1201:.\Generated_Source\PSoC5/ADC_DelSig_1.c ****             ADC_DelSig_1_DSM_CR7_REG     = ADC_DelSig_1_CFG2_DSM_CR7;     
 2329              		.loc 1 1201 0
ARM GAS  C:\Users\hoangp\AppData\Local\Temp\ccZOsuqR.s 			page 63


 2330 0394 45F68703 		movw	r3, #:lower16:1073764487
 2331 0398 C4F20003 		movt	r3, #:upper16:1073764487
 2332 039c 4FF00002 		mov	r2, #0
 2333 03a0 1A70     		strb	r2, [r3, #0]
1202:.\Generated_Source\PSoC5/ADC_DelSig_1.c ****             ADC_DelSig_1_DSM_CR8_REG     = ADC_DelSig_1_CFG2_DSM_CR8;     
 2334              		.loc 1 1202 0
 2335 03a2 45F68803 		movw	r3, #:lower16:1073764488
 2336 03a6 C4F20003 		movt	r3, #:upper16:1073764488
 2337 03aa 4FF01202 		mov	r2, #18
 2338 03ae 1A70     		strb	r2, [r3, #0]
1203:.\Generated_Source\PSoC5/ADC_DelSig_1.c ****             ADC_DelSig_1_DSM_CR9_REG     = ADC_DelSig_1_CFG2_DSM_CR9;     
 2339              		.loc 1 1203 0
 2340 03b0 45F68903 		movw	r3, #:lower16:1073764489
 2341 03b4 C4F20003 		movt	r3, #:upper16:1073764489
 2342 03b8 4FF01302 		mov	r2, #19
 2343 03bc 1A70     		strb	r2, [r3, #0]
1204:.\Generated_Source\PSoC5/ADC_DelSig_1.c ****             ADC_DelSig_1_DSM_CR10_REG    = ADC_DelSig_1_CFG2_DSM_CR10;    
 2344              		.loc 1 1204 0
 2345 03be 45F68A03 		movw	r3, #:lower16:1073764490
 2346 03c2 C4F20003 		movt	r3, #:upper16:1073764490
 2347 03c6 4FF05502 		mov	r2, #85
 2348 03ca 1A70     		strb	r2, [r3, #0]
1205:.\Generated_Source\PSoC5/ADC_DelSig_1.c ****             ADC_DelSig_1_DSM_CR11_REG    = ADC_DelSig_1_CFG2_DSM_CR11;    
 2349              		.loc 1 1205 0
 2350 03cc 45F68B03 		movw	r3, #:lower16:1073764491
 2351 03d0 C4F20003 		movt	r3, #:upper16:1073764491
 2352 03d4 4FF05A02 		mov	r2, #90
 2353 03d8 1A70     		strb	r2, [r3, #0]
1206:.\Generated_Source\PSoC5/ADC_DelSig_1.c ****             ADC_DelSig_1_DSM_CR12_REG    = ADC_DelSig_1_CFG2_DSM_CR12;    
 2354              		.loc 1 1206 0
 2355 03da 45F68C03 		movw	r3, #:lower16:1073764492
 2356 03de C4F20003 		movt	r3, #:upper16:1073764492
 2357 03e2 4FF00502 		mov	r2, #5
 2358 03e6 1A70     		strb	r2, [r3, #0]
1207:.\Generated_Source\PSoC5/ADC_DelSig_1.c ****             ADC_DelSig_1_DSM_CR14_REG    = ADC_DelSig_1_CFG2_DSM_CR14;    
 2359              		.loc 1 1207 0
 2360 03e8 45F68E03 		movw	r3, #:lower16:1073764494
 2361 03ec C4F20003 		movt	r3, #:upper16:1073764494
 2362 03f0 4FF00102 		mov	r2, #1
 2363 03f4 1A70     		strb	r2, [r3, #0]
1208:.\Generated_Source\PSoC5/ADC_DelSig_1.c ****             ADC_DelSig_1_DSM_CR15_REG    = ADC_DelSig_1_CFG2_DSM_CR15;    
 2364              		.loc 1 1208 0
 2365 03f6 45F68F03 		movw	r3, #:lower16:1073764495
 2366 03fa C4F20003 		movt	r3, #:upper16:1073764495
 2367 03fe 4FF01102 		mov	r2, #17
 2368 0402 1A70     		strb	r2, [r3, #0]
1209:.\Generated_Source\PSoC5/ADC_DelSig_1.c ****             ADC_DelSig_1_DSM_CR16_REG    = ADC_DelSig_1_CFG2_DSM_CR16;    
 2369              		.loc 1 1209 0
 2370 0404 45F69003 		movw	r3, #:lower16:1073764496
 2371 0408 C4F20003 		movt	r3, #:upper16:1073764496
 2372 040c 4FF01902 		mov	r2, #25
 2373 0410 1A70     		strb	r2, [r3, #0]
1210:.\Generated_Source\PSoC5/ADC_DelSig_1.c ****             ADC_DelSig_1_DSM_CR17_REG    = ADC_DelSig_1_CFG2_DSM_CR17;    
 2374              		.loc 1 1210 0
 2375 0412 45F69103 		movw	r3, #:lower16:1073764497
 2376 0416 C4F20003 		movt	r3, #:upper16:1073764497
 2377 041a 6FF06802 		mvn	r2, #104
ARM GAS  C:\Users\hoangp\AppData\Local\Temp\ccZOsuqR.s 			page 64


 2378 041e 1A70     		strb	r2, [r3, #0]
1211:.\Generated_Source\PSoC5/ADC_DelSig_1.c **** 			/* Set DSM_REF0_REG by disabling and enabling the PRESS cirucit */
1212:.\Generated_Source\PSoC5/ADC_DelSig_1.c **** 			ADC_DelSig_1_SetDSMRef0Reg(ADC_DelSig_1_CFG2_DSM_REF0);
 2379              		.loc 1 1212 0
 2380 0420 4FF04400 		mov	r0, #68
 2381 0424 FFF7FEFF 		bl	ADC_DelSig_1_SetDSMRef0Reg
1213:.\Generated_Source\PSoC5/ADC_DelSig_1.c ****             ADC_DelSig_1_DSM_REF2_REG    = ADC_DelSig_1_CFG2_DSM_REF2;    
 2382              		.loc 1 1213 0
 2383 0428 45F69403 		movw	r3, #:lower16:1073764500
 2384 042c C4F20003 		movt	r3, #:upper16:1073764500
 2385 0430 4FF05802 		mov	r2, #88
 2386 0434 1A70     		strb	r2, [r3, #0]
1214:.\Generated_Source\PSoC5/ADC_DelSig_1.c ****             ADC_DelSig_1_DSM_REF3_REG    = ADC_DelSig_1_CFG2_DSM_REF3;    
 2387              		.loc 1 1214 0
 2388 0436 45F69503 		movw	r3, #:lower16:1073764501
 2389 043a C4F20003 		movt	r3, #:upper16:1073764501
 2390 043e 4FF00002 		mov	r2, #0
 2391 0442 1A70     		strb	r2, [r3, #0]
1215:.\Generated_Source\PSoC5/ADC_DelSig_1.c ****         
1216:.\Generated_Source\PSoC5/ADC_DelSig_1.c ****             ADC_DelSig_1_DSM_BUF0_REG    = ADC_DelSig_1_CFG2_DSM_BUF0;    
 2392              		.loc 1 1216 0
 2393 0444 45F69A03 		movw	r3, #:lower16:1073764506
 2394 0448 C4F20003 		movt	r3, #:upper16:1073764506
 2395 044c 4FF00502 		mov	r2, #5
 2396 0450 1A70     		strb	r2, [r3, #0]
1217:.\Generated_Source\PSoC5/ADC_DelSig_1.c ****             ADC_DelSig_1_DSM_BUF1_REG    = ADC_DelSig_1_CFG2_DSM_BUF1;    
 2397              		.loc 1 1217 0
 2398 0452 45F69B03 		movw	r3, #:lower16:1073764507
 2399 0456 C4F20003 		movt	r3, #:upper16:1073764507
 2400 045a 4FF00102 		mov	r2, #1
 2401 045e 1A70     		strb	r2, [r3, #0]
1218:.\Generated_Source\PSoC5/ADC_DelSig_1.c ****             ADC_DelSig_1_DSM_BUF2_REG    = ADC_DelSig_1_CFG2_DSM_BUF2;    
 2402              		.loc 1 1218 0
 2403 0460 45F69C03 		movw	r3, #:lower16:1073764508
 2404 0464 C4F20003 		movt	r3, #:upper16:1073764508
 2405 0468 4FF00102 		mov	r2, #1
 2406 046c 1A70     		strb	r2, [r3, #0]
1219:.\Generated_Source\PSoC5/ADC_DelSig_1.c ****             ADC_DelSig_1_DSM_BUF3_REG    = ADC_DelSig_1_CFG2_DSM_BUF3; 
 2407              		.loc 1 1219 0
 2408 046e 45F69D03 		movw	r3, #:lower16:1073764509
 2409 0472 C4F20003 		movt	r3, #:upper16:1073764509
 2410 0476 4FF00A02 		mov	r2, #10
 2411 047a 1A70     		strb	r2, [r3, #0]
1220:.\Generated_Source\PSoC5/ADC_DelSig_1.c ****             #if (CY_PSOC5A)
1221:.\Generated_Source\PSoC5/ADC_DelSig_1.c ****                 ADC_DelSig_1_DSM_CLK_REG    |= ADC_DelSig_1_CFG1_DSM_CLK; 
 2412              		.loc 1 1221 0
 2413 047c 45F60733 		movw	r3, #:lower16:1073765127
 2414 0480 C4F20003 		movt	r3, #:upper16:1073765127
 2415 0484 45F60732 		movw	r2, #:lower16:1073765127
 2416 0488 C4F20002 		movt	r2, #:upper16:1073765127
 2417 048c 1278     		ldrb	r2, [r2, #0]
 2418 048e D2B2     		uxtb	r2, r2
 2419 0490 42F01802 		orr	r2, r2, #24
 2420 0494 D2B2     		uxtb	r2, r2
 2421 0496 1A70     		strb	r2, [r3, #0]
1222:.\Generated_Source\PSoC5/ADC_DelSig_1.c ****             #endif /* CY_PSOC5A */
1223:.\Generated_Source\PSoC5/ADC_DelSig_1.c ****             
ARM GAS  C:\Users\hoangp\AppData\Local\Temp\ccZOsuqR.s 			page 65


1224:.\Generated_Source\PSoC5/ADC_DelSig_1.c ****             /* To select either Vssa or Vref to -ve input of DSM depending on 
1225:.\Generated_Source\PSoC5/ADC_DelSig_1.c ****                the input range selected.
1226:.\Generated_Source\PSoC5/ADC_DelSig_1.c ****             */
1227:.\Generated_Source\PSoC5/ADC_DelSig_1.c ****             
1228:.\Generated_Source\PSoC5/ADC_DelSig_1.c ****             #if(ADC_DelSig_1_DEFAULT_INPUT_MODE)
1229:.\Generated_Source\PSoC5/ADC_DelSig_1.c ****                 #if (CY_PSOC3 || CY_PSOC5LP)
1230:.\Generated_Source\PSoC5/ADC_DelSig_1.c ****                     #if (ADC_DelSig_1_CFG2_INPUT_RANGE == ADC_DelSig_1_IR_VSSA_TO_2VREF)
1231:.\Generated_Source\PSoC5/ADC_DelSig_1.c ****                         ADC_DelSig_1_AMux_Select(1);
1232:.\Generated_Source\PSoC5/ADC_DelSig_1.c ****                     #else
1233:.\Generated_Source\PSoC5/ADC_DelSig_1.c ****                         ADC_DelSig_1_AMux_Select(0);
1234:.\Generated_Source\PSoC5/ADC_DelSig_1.c ****                     #endif /* ADC_DelSig_1_IR_VSSA_TO_2VREF) */
1235:.\Generated_Source\PSoC5/ADC_DelSig_1.c ****                 #elif (CY_PSOC5A)
1236:.\Generated_Source\PSoC5/ADC_DelSig_1.c ****                     ADC_DelSig_1_AMux_Select(0);
1237:.\Generated_Source\PSoC5/ADC_DelSig_1.c ****                 #endif /* CY_PSOC3 || CY_PSOC5LP */
1238:.\Generated_Source\PSoC5/ADC_DelSig_1.c ****             #endif /* ADC_DelSig_1_DEFAULT_INPUT_MODE */
1239:.\Generated_Source\PSoC5/ADC_DelSig_1.c ****             
1240:.\Generated_Source\PSoC5/ADC_DelSig_1.c ****             /* Set the Conversion stop if resolution is above 16 bit and 
1241:.\Generated_Source\PSoC5/ADC_DelSig_1.c ****                conversion mode is Single sample */
1242:.\Generated_Source\PSoC5/ADC_DelSig_1.c ****             #if(ADC_DelSig_1_CFG2_RESOLUTION > 16 && \
1243:.\Generated_Source\PSoC5/ADC_DelSig_1.c ****                 ADC_DelSig_1_CFG2_CONVMODE == ADC_DelSig_1_MODE_SINGLE_SAMPLE) 
1244:.\Generated_Source\PSoC5/ADC_DelSig_1.c ****                 ADC_DelSig_1_stopConversion = 1;
1245:.\Generated_Source\PSoC5/ADC_DelSig_1.c ****             #endif /* Single sample with resolution above 16 bits. */
1246:.\Generated_Source\PSoC5/ADC_DelSig_1.c ****             
1247:.\Generated_Source\PSoC5/ADC_DelSig_1.c ****             ADC_DelSig_1_CountsPerVolt = (uint32)ADC_DelSig_1_CFG2_COUNTS_PER_VOLT;
 2422              		.loc 1 1247 0
 2423 0498 40F20003 		movw	r3, #:lower16:ADC_DelSig_1_CountsPerVolt
 2424 049c C0F20003 		movt	r3, #:upper16:ADC_DelSig_1_CountsPerVolt
 2425 04a0 4FF4FA42 		mov	r2, #32000
 2426 04a4 1A60     		str	r2, [r3, #0]
1248:.\Generated_Source\PSoC5/ADC_DelSig_1.c ****             
1249:.\Generated_Source\PSoC5/ADC_DelSig_1.c ****             /* Start and set interrupt vector */
1250:.\Generated_Source\PSoC5/ADC_DelSig_1.c ****             CyIntSetPriority(ADC_DelSig_1_IRQ__INTC_NUMBER, ADC_DelSig_1_IRQ_INTC_PRIOR_NUMBER);
 2427              		.loc 1 1250 0
 2428 04a6 4FF01D00 		mov	r0, #29
 2429 04aa 4FF00701 		mov	r1, #7
 2430 04ae FFF7FEFF 		bl	CyIntSetPriority
1251:.\Generated_Source\PSoC5/ADC_DelSig_1.c ****             CyIntSetVector(ADC_DelSig_1_IRQ__INTC_NUMBER, ADC_DelSig_1_ISR2 );
 2431              		.loc 1 1251 0
 2432 04b2 4FF01D00 		mov	r0, #29
 2433 04b6 40F20001 		movw	r1, #:lower16:ADC_DelSig_1_ISR2
 2434 04ba C0F20001 		movt	r1, #:upper16:ADC_DelSig_1_ISR2
 2435 04be FFF7FEFF 		bl	CyIntSetVector
1252:.\Generated_Source\PSoC5/ADC_DelSig_1.c ****             CyIntEnable(ADC_DelSig_1_IRQ__INTC_NUMBER);
 2436              		.loc 1 1252 0
 2437 04c2 4EF20013 		movw	r3, #:lower16:-536813312
 2438 04c6 CEF20003 		movt	r3, #:upper16:-536813312
 2439 04ca 4FF00052 		mov	r2, #536870912
 2440 04ce 1A60     		str	r2, [r3, #0]
 2441              	.L93:
1253:.\Generated_Source\PSoC5/ADC_DelSig_1.c ****         }
1254:.\Generated_Source\PSoC5/ADC_DelSig_1.c ****     #endif /* ADC_DelSig_1_DEFAULT_NUM_CONFIGS > 1 */
1255:.\Generated_Source\PSoC5/ADC_DelSig_1.c **** 
1256:.\Generated_Source\PSoC5/ADC_DelSig_1.c ****     #if(ADC_DelSig_1_DEFAULT_NUM_CONFIGS > 2)
1257:.\Generated_Source\PSoC5/ADC_DelSig_1.c ****         if(config == 3u)
 2442              		.loc 1 1257 0
 2443 04d0 FB79     		ldrb	r3, [r7, #7]	@ zero_extendqisi2
 2444 04d2 032B     		cmp	r3, #3
ARM GAS  C:\Users\hoangp\AppData\Local\Temp\ccZOsuqR.s 			page 66


 2445 04d4 40F0F280 		bne	.L94
1258:.\Generated_Source\PSoC5/ADC_DelSig_1.c ****         {
1259:.\Generated_Source\PSoC5/ADC_DelSig_1.c ****             /* Third Config */
1260:.\Generated_Source\PSoC5/ADC_DelSig_1.c ****             ADC_DelSig_1_DEC_CR_REG      = ADC_DelSig_1_CFG3_DEC_CR;      
 2446              		.loc 1 1260 0
 2447 04d8 44F60063 		movw	r3, #:lower16:1073761792
 2448 04dc C4F20003 		movt	r3, #:upper16:1073761792
 2449 04e0 4FF03802 		mov	r2, #56
 2450 04e4 1A70     		strb	r2, [r3, #0]
1261:.\Generated_Source\PSoC5/ADC_DelSig_1.c ****             ADC_DelSig_1_DEC_SHIFT1_REG  = ADC_DelSig_1_CFG3_DEC_SHIFT1;  
 2451              		.loc 1 1261 0
 2452 04e6 44F60263 		movw	r3, #:lower16:1073761794
 2453 04ea C4F20003 		movt	r3, #:upper16:1073761794
 2454 04ee 4FF00402 		mov	r2, #4
 2455 04f2 1A70     		strb	r2, [r3, #0]
1262:.\Generated_Source\PSoC5/ADC_DelSig_1.c ****             ADC_DelSig_1_DEC_SHIFT2_REG  = ADC_DelSig_1_CFG3_DEC_SHIFT2;  
 2456              		.loc 1 1262 0
 2457 04f4 44F60363 		movw	r3, #:lower16:1073761795
 2458 04f8 C4F20003 		movt	r3, #:upper16:1073761795
 2459 04fc 4FF00702 		mov	r2, #7
 2460 0500 1A70     		strb	r2, [r3, #0]
1263:.\Generated_Source\PSoC5/ADC_DelSig_1.c ****             ADC_DelSig_1_DEC_DR2_REG     = ADC_DelSig_1_CFG3_DEC_DR2;     
 2461              		.loc 1 1263 0
 2462 0502 44F60463 		movw	r3, #:lower16:1073761796
 2463 0506 C4F20003 		movt	r3, #:upper16:1073761796
 2464 050a 4FF00002 		mov	r2, #0
 2465 050e 1A70     		strb	r2, [r3, #0]
1264:.\Generated_Source\PSoC5/ADC_DelSig_1.c ****             ADC_DelSig_1_DEC_DR2H_REG    = ADC_DelSig_1_CFG3_DEC_DR2H;    
 2466              		.loc 1 1264 0
 2467 0510 44F60563 		movw	r3, #:lower16:1073761797
 2468 0514 C4F20003 		movt	r3, #:upper16:1073761797
 2469 0518 4FF00002 		mov	r2, #0
 2470 051c 1A70     		strb	r2, [r3, #0]
1265:.\Generated_Source\PSoC5/ADC_DelSig_1.c ****             ADC_DelSig_1_DEC_DR1_REG     = ADC_DelSig_1_CFG3_DEC_DR1;     
 2471              		.loc 1 1265 0
 2472 051e 44F60663 		movw	r3, #:lower16:1073761798
 2473 0522 C4F20003 		movt	r3, #:upper16:1073761798
 2474 0526 4FF03F02 		mov	r2, #63
 2475 052a 1A70     		strb	r2, [r3, #0]
1266:.\Generated_Source\PSoC5/ADC_DelSig_1.c ****             ADC_DelSig_1_DEC_OCOR_REG    = ADC_DelSig_1_CFG3_DEC_OCOR;    
 2476              		.loc 1 1266 0
 2477 052c 44F60863 		movw	r3, #:lower16:1073761800
 2478 0530 C4F20003 		movt	r3, #:upper16:1073761800
 2479 0534 4FF00002 		mov	r2, #0
 2480 0538 1A70     		strb	r2, [r3, #0]
1267:.\Generated_Source\PSoC5/ADC_DelSig_1.c ****             ADC_DelSig_1_DEC_OCORM_REG   = ADC_DelSig_1_CFG3_DEC_OCORM;   
 2481              		.loc 1 1267 0
 2482 053a 44F60963 		movw	r3, #:lower16:1073761801
 2483 053e C4F20003 		movt	r3, #:upper16:1073761801
 2484 0542 4FF00002 		mov	r2, #0
 2485 0546 1A70     		strb	r2, [r3, #0]
1268:.\Generated_Source\PSoC5/ADC_DelSig_1.c ****             ADC_DelSig_1_DEC_OCORH_REG   = ADC_DelSig_1_CFG3_DEC_OCORH;   
 2486              		.loc 1 1268 0
 2487 0548 44F60A63 		movw	r3, #:lower16:1073761802
 2488 054c C4F20003 		movt	r3, #:upper16:1073761802
 2489 0550 4FF00002 		mov	r2, #0
 2490 0554 1A70     		strb	r2, [r3, #0]
ARM GAS  C:\Users\hoangp\AppData\Local\Temp\ccZOsuqR.s 			page 67


1269:.\Generated_Source\PSoC5/ADC_DelSig_1.c ****          
1270:.\Generated_Source\PSoC5/ADC_DelSig_1.c ****             ADC_DelSig_1_DSM_CR4_REG     = ADC_DelSig_1_CFG3_DSM_CR4;     
 2491              		.loc 1 1270 0
 2492 0556 45F68403 		movw	r3, #:lower16:1073764484
 2493 055a C4F20003 		movt	r3, #:upper16:1073764484
 2494 055e 4FF05002 		mov	r2, #80
 2495 0562 1A70     		strb	r2, [r3, #0]
1271:.\Generated_Source\PSoC5/ADC_DelSig_1.c ****             ADC_DelSig_1_DSM_CR5_REG     = ADC_DelSig_1_CFG3_DSM_CR5;     
 2496              		.loc 1 1271 0
 2497 0564 45F68503 		movw	r3, #:lower16:1073764485
 2498 0568 C4F20003 		movt	r3, #:upper16:1073764485
 2499 056c 4FF02702 		mov	r2, #39
 2500 0570 1A70     		strb	r2, [r3, #0]
1272:.\Generated_Source\PSoC5/ADC_DelSig_1.c ****             ADC_DelSig_1_DSM_CR6_REG     = ADC_DelSig_1_CFG3_DSM_CR6;     
 2501              		.loc 1 1272 0
 2502 0572 45F68603 		movw	r3, #:lower16:1073764486
 2503 0576 C4F20003 		movt	r3, #:upper16:1073764486
 2504 057a 4FF02C02 		mov	r2, #44
 2505 057e 1A70     		strb	r2, [r3, #0]
1273:.\Generated_Source\PSoC5/ADC_DelSig_1.c ****             ADC_DelSig_1_DSM_CR7_REG     = ADC_DelSig_1_CFG3_DSM_CR7;     
 2506              		.loc 1 1273 0
 2507 0580 45F68703 		movw	r3, #:lower16:1073764487
 2508 0584 C4F20003 		movt	r3, #:upper16:1073764487
 2509 0588 4FF00002 		mov	r2, #0
 2510 058c 1A70     		strb	r2, [r3, #0]
1274:.\Generated_Source\PSoC5/ADC_DelSig_1.c ****             ADC_DelSig_1_DSM_CR8_REG     = ADC_DelSig_1_CFG3_DSM_CR8;     
 2511              		.loc 1 1274 0
 2512 058e 45F68803 		movw	r3, #:lower16:1073764488
 2513 0592 C4F20003 		movt	r3, #:upper16:1073764488
 2514 0596 4FF01202 		mov	r2, #18
 2515 059a 1A70     		strb	r2, [r3, #0]
1275:.\Generated_Source\PSoC5/ADC_DelSig_1.c ****             ADC_DelSig_1_DSM_CR9_REG     = ADC_DelSig_1_CFG3_DSM_CR9;     
 2516              		.loc 1 1275 0
 2517 059c 45F68903 		movw	r3, #:lower16:1073764489
 2518 05a0 C4F20003 		movt	r3, #:upper16:1073764489
 2519 05a4 4FF01302 		mov	r2, #19
 2520 05a8 1A70     		strb	r2, [r3, #0]
1276:.\Generated_Source\PSoC5/ADC_DelSig_1.c ****             ADC_DelSig_1_DSM_CR10_REG    = ADC_DelSig_1_CFG3_DSM_CR10;    
 2521              		.loc 1 1276 0
 2522 05aa 45F68A03 		movw	r3, #:lower16:1073764490
 2523 05ae C4F20003 		movt	r3, #:upper16:1073764490
 2524 05b2 4FF05502 		mov	r2, #85
 2525 05b6 1A70     		strb	r2, [r3, #0]
1277:.\Generated_Source\PSoC5/ADC_DelSig_1.c ****             ADC_DelSig_1_DSM_CR11_REG    = ADC_DelSig_1_CFG3_DSM_CR11;    
 2526              		.loc 1 1277 0
 2527 05b8 45F68B03 		movw	r3, #:lower16:1073764491
 2528 05bc C4F20003 		movt	r3, #:upper16:1073764491
 2529 05c0 4FF05A02 		mov	r2, #90
 2530 05c4 1A70     		strb	r2, [r3, #0]
1278:.\Generated_Source\PSoC5/ADC_DelSig_1.c ****             ADC_DelSig_1_DSM_CR12_REG    = ADC_DelSig_1_CFG3_DSM_CR12;    
 2531              		.loc 1 1278 0
 2532 05c6 45F68C03 		movw	r3, #:lower16:1073764492
 2533 05ca C4F20003 		movt	r3, #:upper16:1073764492
 2534 05ce 4FF00502 		mov	r2, #5
 2535 05d2 1A70     		strb	r2, [r3, #0]
1279:.\Generated_Source\PSoC5/ADC_DelSig_1.c ****             ADC_DelSig_1_DSM_CR14_REG    = ADC_DelSig_1_CFG3_DSM_CR14;    
 2536              		.loc 1 1279 0
ARM GAS  C:\Users\hoangp\AppData\Local\Temp\ccZOsuqR.s 			page 68


 2537 05d4 45F68E03 		movw	r3, #:lower16:1073764494
 2538 05d8 C4F20003 		movt	r3, #:upper16:1073764494
 2539 05dc 4FF00102 		mov	r2, #1
 2540 05e0 1A70     		strb	r2, [r3, #0]
1280:.\Generated_Source\PSoC5/ADC_DelSig_1.c ****             ADC_DelSig_1_DSM_CR15_REG    = ADC_DelSig_1_CFG3_DSM_CR15;    
 2541              		.loc 1 1280 0
 2542 05e2 45F68F03 		movw	r3, #:lower16:1073764495
 2543 05e6 C4F20003 		movt	r3, #:upper16:1073764495
 2544 05ea 4FF01102 		mov	r2, #17
 2545 05ee 1A70     		strb	r2, [r3, #0]
1281:.\Generated_Source\PSoC5/ADC_DelSig_1.c ****             ADC_DelSig_1_DSM_CR16_REG    = ADC_DelSig_1_CFG3_DSM_CR16;    
 2546              		.loc 1 1281 0
 2547 05f0 45F69003 		movw	r3, #:lower16:1073764496
 2548 05f4 C4F20003 		movt	r3, #:upper16:1073764496
 2549 05f8 4FF01902 		mov	r2, #25
 2550 05fc 1A70     		strb	r2, [r3, #0]
1282:.\Generated_Source\PSoC5/ADC_DelSig_1.c ****             ADC_DelSig_1_DSM_CR17_REG    = ADC_DelSig_1_CFG3_DSM_CR17;    
 2551              		.loc 1 1282 0
 2552 05fe 45F69103 		movw	r3, #:lower16:1073764497
 2553 0602 C4F20003 		movt	r3, #:upper16:1073764497
 2554 0606 6FF06802 		mvn	r2, #104
 2555 060a 1A70     		strb	r2, [r3, #0]
1283:.\Generated_Source\PSoC5/ADC_DelSig_1.c **** 			/* Set DSM_REF0_REG by disabling and enabling the PRESS cirucit */
1284:.\Generated_Source\PSoC5/ADC_DelSig_1.c **** 			ADC_DelSig_1_SetDSMRef0Reg(ADC_DelSig_1_CFG3_DSM_REF0);
 2556              		.loc 1 1284 0
 2557 060c 4FF04400 		mov	r0, #68
 2558 0610 FFF7FEFF 		bl	ADC_DelSig_1_SetDSMRef0Reg
1285:.\Generated_Source\PSoC5/ADC_DelSig_1.c ****             ADC_DelSig_1_DSM_REF2_REG    = ADC_DelSig_1_CFG3_DSM_REF2;    
 2559              		.loc 1 1285 0
 2560 0614 45F69403 		movw	r3, #:lower16:1073764500
 2561 0618 C4F20003 		movt	r3, #:upper16:1073764500
 2562 061c 4FF05802 		mov	r2, #88
 2563 0620 1A70     		strb	r2, [r3, #0]
1286:.\Generated_Source\PSoC5/ADC_DelSig_1.c ****             ADC_DelSig_1_DSM_REF3_REG    = ADC_DelSig_1_CFG3_DSM_REF3;    
 2564              		.loc 1 1286 0
 2565 0622 45F69503 		movw	r3, #:lower16:1073764501
 2566 0626 C4F20003 		movt	r3, #:upper16:1073764501
 2567 062a 4FF00002 		mov	r2, #0
 2568 062e 1A70     		strb	r2, [r3, #0]
1287:.\Generated_Source\PSoC5/ADC_DelSig_1.c ****         
1288:.\Generated_Source\PSoC5/ADC_DelSig_1.c ****             ADC_DelSig_1_DSM_BUF0_REG    = ADC_DelSig_1_CFG3_DSM_BUF0;    
 2569              		.loc 1 1288 0
 2570 0630 45F69A03 		movw	r3, #:lower16:1073764506
 2571 0634 C4F20003 		movt	r3, #:upper16:1073764506
 2572 0638 4FF00502 		mov	r2, #5
 2573 063c 1A70     		strb	r2, [r3, #0]
1289:.\Generated_Source\PSoC5/ADC_DelSig_1.c ****             ADC_DelSig_1_DSM_BUF1_REG    = ADC_DelSig_1_CFG3_DSM_BUF1;    
 2574              		.loc 1 1289 0
 2575 063e 45F69B03 		movw	r3, #:lower16:1073764507
 2576 0642 C4F20003 		movt	r3, #:upper16:1073764507
 2577 0646 4FF00102 		mov	r2, #1
 2578 064a 1A70     		strb	r2, [r3, #0]
1290:.\Generated_Source\PSoC5/ADC_DelSig_1.c ****             ADC_DelSig_1_DSM_BUF2_REG    = ADC_DelSig_1_CFG3_DSM_BUF2;
 2579              		.loc 1 1290 0
 2580 064c 45F69C03 		movw	r3, #:lower16:1073764508
 2581 0650 C4F20003 		movt	r3, #:upper16:1073764508
 2582 0654 4FF00102 		mov	r2, #1
ARM GAS  C:\Users\hoangp\AppData\Local\Temp\ccZOsuqR.s 			page 69


 2583 0658 1A70     		strb	r2, [r3, #0]
1291:.\Generated_Source\PSoC5/ADC_DelSig_1.c ****             ADC_DelSig_1_DSM_BUF3_REG    = ADC_DelSig_1_CFG3_DSM_BUF3;
 2584              		.loc 1 1291 0
 2585 065a 45F69D03 		movw	r3, #:lower16:1073764509
 2586 065e C4F20003 		movt	r3, #:upper16:1073764509
 2587 0662 4FF00A02 		mov	r2, #10
 2588 0666 1A70     		strb	r2, [r3, #0]
1292:.\Generated_Source\PSoC5/ADC_DelSig_1.c ****             #if (CY_PSOC5A)
1293:.\Generated_Source\PSoC5/ADC_DelSig_1.c ****                 ADC_DelSig_1_DSM_CLK_REG    |= ADC_DelSig_1_CFG1_DSM_CLK; 
 2589              		.loc 1 1293 0
 2590 0668 45F60733 		movw	r3, #:lower16:1073765127
 2591 066c C4F20003 		movt	r3, #:upper16:1073765127
 2592 0670 45F60732 		movw	r2, #:lower16:1073765127
 2593 0674 C4F20002 		movt	r2, #:upper16:1073765127
 2594 0678 1278     		ldrb	r2, [r2, #0]
 2595 067a D2B2     		uxtb	r2, r2
 2596 067c 42F01802 		orr	r2, r2, #24
 2597 0680 D2B2     		uxtb	r2, r2
 2598 0682 1A70     		strb	r2, [r3, #0]
1294:.\Generated_Source\PSoC5/ADC_DelSig_1.c ****             #endif /* CY_PSOC5A */
1295:.\Generated_Source\PSoC5/ADC_DelSig_1.c ****             
1296:.\Generated_Source\PSoC5/ADC_DelSig_1.c ****             /* To select either Vssa or Vref to -ve input of DSM depending on 
1297:.\Generated_Source\PSoC5/ADC_DelSig_1.c ****                the input range selected.
1298:.\Generated_Source\PSoC5/ADC_DelSig_1.c ****             */
1299:.\Generated_Source\PSoC5/ADC_DelSig_1.c ****             
1300:.\Generated_Source\PSoC5/ADC_DelSig_1.c ****             #if(ADC_DelSig_1_DEFAULT_INPUT_MODE)
1301:.\Generated_Source\PSoC5/ADC_DelSig_1.c ****                 #if (CY_PSOC3 || CY_PSOC5LP)
1302:.\Generated_Source\PSoC5/ADC_DelSig_1.c ****                     #if (ADC_DelSig_1_CFG3_INPUT_RANGE == ADC_DelSig_1_IR_VSSA_TO_2VREF)
1303:.\Generated_Source\PSoC5/ADC_DelSig_1.c ****                         ADC_DelSig_1_AMux_Select(1);
1304:.\Generated_Source\PSoC5/ADC_DelSig_1.c ****                     #else
1305:.\Generated_Source\PSoC5/ADC_DelSig_1.c ****                         ADC_DelSig_1_AMux_Select(0);
1306:.\Generated_Source\PSoC5/ADC_DelSig_1.c ****                     #endif /* ADC_DelSig_1_IR_VSSA_TO_2VREF) */
1307:.\Generated_Source\PSoC5/ADC_DelSig_1.c ****                 #elif (CY_PSOC5A)
1308:.\Generated_Source\PSoC5/ADC_DelSig_1.c ****                     ADC_DelSig_1_AMux_Select(0);
1309:.\Generated_Source\PSoC5/ADC_DelSig_1.c ****                 #endif /* CY_PSOC3 || CY_PSOC5LP */
1310:.\Generated_Source\PSoC5/ADC_DelSig_1.c ****             #endif /* ADC_DelSig_1_DEFAULT_INPUT_MODE */
1311:.\Generated_Source\PSoC5/ADC_DelSig_1.c ****                        
1312:.\Generated_Source\PSoC5/ADC_DelSig_1.c ****             /* Set the Conversion stop if resolution is above 16 bit and 
1313:.\Generated_Source\PSoC5/ADC_DelSig_1.c ****                conversion  mode is Single sample */
1314:.\Generated_Source\PSoC5/ADC_DelSig_1.c ****             #if(ADC_DelSig_1_CFG3_RESOLUTION > 16 && \
1315:.\Generated_Source\PSoC5/ADC_DelSig_1.c ****                 ADC_DelSig_1_CFG3_CONVMODE == ADC_DelSig_1_MODE_SINGLE_SAMPLE) 
1316:.\Generated_Source\PSoC5/ADC_DelSig_1.c ****                 ADC_DelSig_1_stopConversion = 1;
1317:.\Generated_Source\PSoC5/ADC_DelSig_1.c ****             #endif /* Single sample with resolution above 16 bits */
1318:.\Generated_Source\PSoC5/ADC_DelSig_1.c ****             
1319:.\Generated_Source\PSoC5/ADC_DelSig_1.c ****             ADC_DelSig_1_CountsPerVolt = (uint32)ADC_DelSig_1_CFG3_COUNTS_PER_VOLT;
 2599              		.loc 1 1319 0
 2600 0684 40F20003 		movw	r3, #:lower16:ADC_DelSig_1_CountsPerVolt
 2601 0688 C0F20003 		movt	r3, #:upper16:ADC_DelSig_1_CountsPerVolt
 2602 068c 4FF4FA42 		mov	r2, #32000
 2603 0690 1A60     		str	r2, [r3, #0]
1320:.\Generated_Source\PSoC5/ADC_DelSig_1.c ****             
1321:.\Generated_Source\PSoC5/ADC_DelSig_1.c ****             /* Start and set interrupt vector */
1322:.\Generated_Source\PSoC5/ADC_DelSig_1.c ****             CyIntSetPriority(ADC_DelSig_1_IRQ__INTC_NUMBER, ADC_DelSig_1_IRQ_INTC_PRIOR_NUMBER);
 2604              		.loc 1 1322 0
 2605 0692 4FF01D00 		mov	r0, #29
 2606 0696 4FF00701 		mov	r1, #7
 2607 069a FFF7FEFF 		bl	CyIntSetPriority
ARM GAS  C:\Users\hoangp\AppData\Local\Temp\ccZOsuqR.s 			page 70


1323:.\Generated_Source\PSoC5/ADC_DelSig_1.c ****             CyIntSetVector(ADC_DelSig_1_IRQ__INTC_NUMBER, ADC_DelSig_1_ISR3 );
 2608              		.loc 1 1323 0
 2609 069e 4FF01D00 		mov	r0, #29
 2610 06a2 40F20001 		movw	r1, #:lower16:ADC_DelSig_1_ISR3
 2611 06a6 C0F20001 		movt	r1, #:upper16:ADC_DelSig_1_ISR3
 2612 06aa FFF7FEFF 		bl	CyIntSetVector
1324:.\Generated_Source\PSoC5/ADC_DelSig_1.c ****             CyIntEnable(ADC_DelSig_1_IRQ__INTC_NUMBER);
 2613              		.loc 1 1324 0
 2614 06ae 4EF20013 		movw	r3, #:lower16:-536813312
 2615 06b2 CEF20003 		movt	r3, #:upper16:-536813312
 2616 06b6 4FF00052 		mov	r2, #536870912
 2617 06ba 1A60     		str	r2, [r3, #0]
 2618              	.L94:
1325:.\Generated_Source\PSoC5/ADC_DelSig_1.c ****         }
1326:.\Generated_Source\PSoC5/ADC_DelSig_1.c ****     #endif /* ADC_DelSig_1_DEFAULT_NUM_CONFIGS > 3 */
1327:.\Generated_Source\PSoC5/ADC_DelSig_1.c **** 
1328:.\Generated_Source\PSoC5/ADC_DelSig_1.c ****     #if(ADC_DelSig_1_DEFAULT_NUM_CONFIGS == 4)
1329:.\Generated_Source\PSoC5/ADC_DelSig_1.c ****         if (config == 4u)
 2619              		.loc 1 1329 0
 2620 06bc FB79     		ldrb	r3, [r7, #7]	@ zero_extendqisi2
 2621 06be 042B     		cmp	r3, #4
 2622 06c0 40F0F280 		bne	.L96
1330:.\Generated_Source\PSoC5/ADC_DelSig_1.c ****         {
1331:.\Generated_Source\PSoC5/ADC_DelSig_1.c ****             /* Fourth Config */
1332:.\Generated_Source\PSoC5/ADC_DelSig_1.c ****             ADC_DelSig_1_DEC_CR_REG      = ADC_DelSig_1_CFG4_DEC_CR;      
 2623              		.loc 1 1332 0
 2624 06c4 44F60063 		movw	r3, #:lower16:1073761792
 2625 06c8 C4F20003 		movt	r3, #:upper16:1073761792
 2626 06cc 4FF03802 		mov	r2, #56
 2627 06d0 1A70     		strb	r2, [r3, #0]
1333:.\Generated_Source\PSoC5/ADC_DelSig_1.c ****             ADC_DelSig_1_DEC_SHIFT1_REG  = ADC_DelSig_1_CFG4_DEC_SHIFT1;  
 2628              		.loc 1 1333 0
 2629 06d2 44F60263 		movw	r3, #:lower16:1073761794
 2630 06d6 C4F20003 		movt	r3, #:upper16:1073761794
 2631 06da 4FF00402 		mov	r2, #4
 2632 06de 1A70     		strb	r2, [r3, #0]
1334:.\Generated_Source\PSoC5/ADC_DelSig_1.c ****             ADC_DelSig_1_DEC_SHIFT2_REG  = ADC_DelSig_1_CFG4_DEC_SHIFT2;  
 2633              		.loc 1 1334 0
 2634 06e0 44F60363 		movw	r3, #:lower16:1073761795
 2635 06e4 C4F20003 		movt	r3, #:upper16:1073761795
 2636 06e8 4FF00702 		mov	r2, #7
 2637 06ec 1A70     		strb	r2, [r3, #0]
1335:.\Generated_Source\PSoC5/ADC_DelSig_1.c ****             ADC_DelSig_1_DEC_DR2_REG     = ADC_DelSig_1_CFG4_DEC_DR2;     
 2638              		.loc 1 1335 0
 2639 06ee 44F60463 		movw	r3, #:lower16:1073761796
 2640 06f2 C4F20003 		movt	r3, #:upper16:1073761796
 2641 06f6 4FF00002 		mov	r2, #0
 2642 06fa 1A70     		strb	r2, [r3, #0]
1336:.\Generated_Source\PSoC5/ADC_DelSig_1.c ****             ADC_DelSig_1_DEC_DR2H_REG    = ADC_DelSig_1_CFG4_DEC_DR2H;    
 2643              		.loc 1 1336 0
 2644 06fc 44F60563 		movw	r3, #:lower16:1073761797
 2645 0700 C4F20003 		movt	r3, #:upper16:1073761797
 2646 0704 4FF00002 		mov	r2, #0
 2647 0708 1A70     		strb	r2, [r3, #0]
1337:.\Generated_Source\PSoC5/ADC_DelSig_1.c ****             ADC_DelSig_1_DEC_DR1_REG     = ADC_DelSig_1_CFG4_DEC_DR1;     
 2648              		.loc 1 1337 0
 2649 070a 44F60663 		movw	r3, #:lower16:1073761798
ARM GAS  C:\Users\hoangp\AppData\Local\Temp\ccZOsuqR.s 			page 71


 2650 070e C4F20003 		movt	r3, #:upper16:1073761798
 2651 0712 4FF03F02 		mov	r2, #63
 2652 0716 1A70     		strb	r2, [r3, #0]
1338:.\Generated_Source\PSoC5/ADC_DelSig_1.c ****             ADC_DelSig_1_DEC_OCOR_REG    = ADC_DelSig_1_CFG4_DEC_OCOR;    
 2653              		.loc 1 1338 0
 2654 0718 44F60863 		movw	r3, #:lower16:1073761800
 2655 071c C4F20003 		movt	r3, #:upper16:1073761800
 2656 0720 4FF00002 		mov	r2, #0
 2657 0724 1A70     		strb	r2, [r3, #0]
1339:.\Generated_Source\PSoC5/ADC_DelSig_1.c ****             ADC_DelSig_1_DEC_OCORM_REG   = ADC_DelSig_1_CFG4_DEC_OCORM;   
 2658              		.loc 1 1339 0
 2659 0726 44F60963 		movw	r3, #:lower16:1073761801
 2660 072a C4F20003 		movt	r3, #:upper16:1073761801
 2661 072e 4FF00002 		mov	r2, #0
 2662 0732 1A70     		strb	r2, [r3, #0]
1340:.\Generated_Source\PSoC5/ADC_DelSig_1.c ****             ADC_DelSig_1_DEC_OCORH_REG   = ADC_DelSig_1_CFG4_DEC_OCORH;   
 2663              		.loc 1 1340 0
 2664 0734 44F60A63 		movw	r3, #:lower16:1073761802
 2665 0738 C4F20003 		movt	r3, #:upper16:1073761802
 2666 073c 4FF00002 		mov	r2, #0
 2667 0740 1A70     		strb	r2, [r3, #0]
1341:.\Generated_Source\PSoC5/ADC_DelSig_1.c **** 
1342:.\Generated_Source\PSoC5/ADC_DelSig_1.c ****             ADC_DelSig_1_DSM_CR4_REG     = ADC_DelSig_1_CFG4_DSM_CR4;     
 2668              		.loc 1 1342 0
 2669 0742 45F68403 		movw	r3, #:lower16:1073764484
 2670 0746 C4F20003 		movt	r3, #:upper16:1073764484
 2671 074a 4FF05002 		mov	r2, #80
 2672 074e 1A70     		strb	r2, [r3, #0]
1343:.\Generated_Source\PSoC5/ADC_DelSig_1.c ****             ADC_DelSig_1_DSM_CR5_REG     = ADC_DelSig_1_CFG4_DSM_CR5;     
 2673              		.loc 1 1343 0
 2674 0750 45F68503 		movw	r3, #:lower16:1073764485
 2675 0754 C4F20003 		movt	r3, #:upper16:1073764485
 2676 0758 4FF02702 		mov	r2, #39
 2677 075c 1A70     		strb	r2, [r3, #0]
1344:.\Generated_Source\PSoC5/ADC_DelSig_1.c ****             ADC_DelSig_1_DSM_CR6_REG     = ADC_DelSig_1_CFG4_DSM_CR6;     
 2678              		.loc 1 1344 0
 2679 075e 45F68603 		movw	r3, #:lower16:1073764486
 2680 0762 C4F20003 		movt	r3, #:upper16:1073764486
 2681 0766 4FF02C02 		mov	r2, #44
 2682 076a 1A70     		strb	r2, [r3, #0]
1345:.\Generated_Source\PSoC5/ADC_DelSig_1.c ****             ADC_DelSig_1_DSM_CR7_REG     = ADC_DelSig_1_CFG4_DSM_CR7;     
 2683              		.loc 1 1345 0
 2684 076c 45F68703 		movw	r3, #:lower16:1073764487
 2685 0770 C4F20003 		movt	r3, #:upper16:1073764487
 2686 0774 4FF00002 		mov	r2, #0
 2687 0778 1A70     		strb	r2, [r3, #0]
1346:.\Generated_Source\PSoC5/ADC_DelSig_1.c ****             ADC_DelSig_1_DSM_CR8_REG     = ADC_DelSig_1_CFG4_DSM_CR8;     
 2688              		.loc 1 1346 0
 2689 077a 45F68803 		movw	r3, #:lower16:1073764488
 2690 077e C4F20003 		movt	r3, #:upper16:1073764488
 2691 0782 4FF01202 		mov	r2, #18
 2692 0786 1A70     		strb	r2, [r3, #0]
1347:.\Generated_Source\PSoC5/ADC_DelSig_1.c ****             ADC_DelSig_1_DSM_CR9_REG     = ADC_DelSig_1_CFG4_DSM_CR9;     
 2693              		.loc 1 1347 0
 2694 0788 45F68903 		movw	r3, #:lower16:1073764489
 2695 078c C4F20003 		movt	r3, #:upper16:1073764489
 2696 0790 4FF01302 		mov	r2, #19
ARM GAS  C:\Users\hoangp\AppData\Local\Temp\ccZOsuqR.s 			page 72


 2697 0794 1A70     		strb	r2, [r3, #0]
1348:.\Generated_Source\PSoC5/ADC_DelSig_1.c ****             ADC_DelSig_1_DSM_CR10_REG    = ADC_DelSig_1_CFG4_DSM_CR10;    
 2698              		.loc 1 1348 0
 2699 0796 45F68A03 		movw	r3, #:lower16:1073764490
 2700 079a C4F20003 		movt	r3, #:upper16:1073764490
 2701 079e 4FF05502 		mov	r2, #85
 2702 07a2 1A70     		strb	r2, [r3, #0]
1349:.\Generated_Source\PSoC5/ADC_DelSig_1.c ****             ADC_DelSig_1_DSM_CR11_REG    = ADC_DelSig_1_CFG4_DSM_CR11;    
 2703              		.loc 1 1349 0
 2704 07a4 45F68B03 		movw	r3, #:lower16:1073764491
 2705 07a8 C4F20003 		movt	r3, #:upper16:1073764491
 2706 07ac 4FF05A02 		mov	r2, #90
 2707 07b0 1A70     		strb	r2, [r3, #0]
1350:.\Generated_Source\PSoC5/ADC_DelSig_1.c ****             ADC_DelSig_1_DSM_CR12_REG    = ADC_DelSig_1_CFG4_DSM_CR12;    
 2708              		.loc 1 1350 0
 2709 07b2 45F68C03 		movw	r3, #:lower16:1073764492
 2710 07b6 C4F20003 		movt	r3, #:upper16:1073764492
 2711 07ba 4FF00502 		mov	r2, #5
 2712 07be 1A70     		strb	r2, [r3, #0]
1351:.\Generated_Source\PSoC5/ADC_DelSig_1.c ****             ADC_DelSig_1_DSM_CR14_REG    = ADC_DelSig_1_CFG4_DSM_CR14;    
 2713              		.loc 1 1351 0
 2714 07c0 45F68E03 		movw	r3, #:lower16:1073764494
 2715 07c4 C4F20003 		movt	r3, #:upper16:1073764494
 2716 07c8 4FF00102 		mov	r2, #1
 2717 07cc 1A70     		strb	r2, [r3, #0]
1352:.\Generated_Source\PSoC5/ADC_DelSig_1.c ****             ADC_DelSig_1_DSM_CR15_REG    = ADC_DelSig_1_CFG4_DSM_CR15;    
 2718              		.loc 1 1352 0
 2719 07ce 45F68F03 		movw	r3, #:lower16:1073764495
 2720 07d2 C4F20003 		movt	r3, #:upper16:1073764495
 2721 07d6 4FF01102 		mov	r2, #17
 2722 07da 1A70     		strb	r2, [r3, #0]
1353:.\Generated_Source\PSoC5/ADC_DelSig_1.c ****             ADC_DelSig_1_DSM_CR16_REG    = ADC_DelSig_1_CFG4_DSM_CR16;    
 2723              		.loc 1 1353 0
 2724 07dc 45F69003 		movw	r3, #:lower16:1073764496
 2725 07e0 C4F20003 		movt	r3, #:upper16:1073764496
 2726 07e4 4FF01902 		mov	r2, #25
 2727 07e8 1A70     		strb	r2, [r3, #0]
1354:.\Generated_Source\PSoC5/ADC_DelSig_1.c ****             ADC_DelSig_1_DSM_CR17_REG    = ADC_DelSig_1_CFG4_DSM_CR17;
 2728              		.loc 1 1354 0
 2729 07ea 45F69103 		movw	r3, #:lower16:1073764497
 2730 07ee C4F20003 		movt	r3, #:upper16:1073764497
 2731 07f2 6FF06802 		mvn	r2, #104
 2732 07f6 1A70     		strb	r2, [r3, #0]
1355:.\Generated_Source\PSoC5/ADC_DelSig_1.c **** 			/* Set DSM_REF0_REG by disabling and enabling the PRESS cirucit */
1356:.\Generated_Source\PSoC5/ADC_DelSig_1.c **** 			ADC_DelSig_1_SetDSMRef0Reg(ADC_DelSig_1_CFG4_DSM_REF0);
 2733              		.loc 1 1356 0
 2734 07f8 4FF04400 		mov	r0, #68
 2735 07fc FFF7FEFF 		bl	ADC_DelSig_1_SetDSMRef0Reg
1357:.\Generated_Source\PSoC5/ADC_DelSig_1.c ****             ADC_DelSig_1_DSM_REF2_REG    = ADC_DelSig_1_CFG4_DSM_REF2;    
 2736              		.loc 1 1357 0
 2737 0800 45F69403 		movw	r3, #:lower16:1073764500
 2738 0804 C4F20003 		movt	r3, #:upper16:1073764500
 2739 0808 4FF05802 		mov	r2, #88
 2740 080c 1A70     		strb	r2, [r3, #0]
1358:.\Generated_Source\PSoC5/ADC_DelSig_1.c ****             ADC_DelSig_1_DSM_REF3_REG    = ADC_DelSig_1_CFG4_DSM_REF3;    
 2741              		.loc 1 1358 0
 2742 080e 45F69503 		movw	r3, #:lower16:1073764501
ARM GAS  C:\Users\hoangp\AppData\Local\Temp\ccZOsuqR.s 			page 73


 2743 0812 C4F20003 		movt	r3, #:upper16:1073764501
 2744 0816 4FF00002 		mov	r2, #0
 2745 081a 1A70     		strb	r2, [r3, #0]
1359:.\Generated_Source\PSoC5/ADC_DelSig_1.c ****         
1360:.\Generated_Source\PSoC5/ADC_DelSig_1.c ****             ADC_DelSig_1_DSM_BUF0_REG    = ADC_DelSig_1_CFG4_DSM_BUF0;    
 2746              		.loc 1 1360 0
 2747 081c 45F69A03 		movw	r3, #:lower16:1073764506
 2748 0820 C4F20003 		movt	r3, #:upper16:1073764506
 2749 0824 4FF00502 		mov	r2, #5
 2750 0828 1A70     		strb	r2, [r3, #0]
1361:.\Generated_Source\PSoC5/ADC_DelSig_1.c ****             ADC_DelSig_1_DSM_BUF1_REG    = ADC_DelSig_1_CFG4_DSM_BUF1;    
 2751              		.loc 1 1361 0
 2752 082a 45F69B03 		movw	r3, #:lower16:1073764507
 2753 082e C4F20003 		movt	r3, #:upper16:1073764507
 2754 0832 4FF00102 		mov	r2, #1
 2755 0836 1A70     		strb	r2, [r3, #0]
1362:.\Generated_Source\PSoC5/ADC_DelSig_1.c ****             ADC_DelSig_1_DSM_BUF2_REG    = ADC_DelSig_1_CFG4_DSM_BUF2;
 2756              		.loc 1 1362 0
 2757 0838 45F69C03 		movw	r3, #:lower16:1073764508
 2758 083c C4F20003 		movt	r3, #:upper16:1073764508
 2759 0840 4FF00102 		mov	r2, #1
 2760 0844 1A70     		strb	r2, [r3, #0]
1363:.\Generated_Source\PSoC5/ADC_DelSig_1.c ****             ADC_DelSig_1_DSM_BUF3_REG    = ADC_DelSig_1_CFG4_DSM_BUF3;
 2761              		.loc 1 1363 0
 2762 0846 45F69D03 		movw	r3, #:lower16:1073764509
 2763 084a C4F20003 		movt	r3, #:upper16:1073764509
 2764 084e 4FF00A02 		mov	r2, #10
 2765 0852 1A70     		strb	r2, [r3, #0]
1364:.\Generated_Source\PSoC5/ADC_DelSig_1.c ****             #if (CY_PSOC5A)
1365:.\Generated_Source\PSoC5/ADC_DelSig_1.c ****                 ADC_DelSig_1_DSM_CLK_REG    |= ADC_DelSig_1_CFG1_DSM_CLK; 
 2766              		.loc 1 1365 0
 2767 0854 45F60733 		movw	r3, #:lower16:1073765127
 2768 0858 C4F20003 		movt	r3, #:upper16:1073765127
 2769 085c 45F60732 		movw	r2, #:lower16:1073765127
 2770 0860 C4F20002 		movt	r2, #:upper16:1073765127
 2771 0864 1278     		ldrb	r2, [r2, #0]
 2772 0866 D2B2     		uxtb	r2, r2
 2773 0868 42F01802 		orr	r2, r2, #24
 2774 086c D2B2     		uxtb	r2, r2
 2775 086e 1A70     		strb	r2, [r3, #0]
1366:.\Generated_Source\PSoC5/ADC_DelSig_1.c ****             #endif /* CY_PSOC5A */
1367:.\Generated_Source\PSoC5/ADC_DelSig_1.c ****             
1368:.\Generated_Source\PSoC5/ADC_DelSig_1.c ****             /* To select either Vssa or Vref to -ve input of DSM depending on 
1369:.\Generated_Source\PSoC5/ADC_DelSig_1.c ****                the input range selected.
1370:.\Generated_Source\PSoC5/ADC_DelSig_1.c ****             */
1371:.\Generated_Source\PSoC5/ADC_DelSig_1.c ****             
1372:.\Generated_Source\PSoC5/ADC_DelSig_1.c ****             #if(ADC_DelSig_1_DEFAULT_INPUT_MODE)
1373:.\Generated_Source\PSoC5/ADC_DelSig_1.c ****                 #if (CY_PSOC3 || CY_PSOC5LP)
1374:.\Generated_Source\PSoC5/ADC_DelSig_1.c ****                     #if (ADC_DelSig_1_CFG4_INPUT_RANGE == ADC_DelSig_1_IR_VSSA_TO_2VREF)
1375:.\Generated_Source\PSoC5/ADC_DelSig_1.c ****                         ADC_DelSig_1_AMux_Select(1);
1376:.\Generated_Source\PSoC5/ADC_DelSig_1.c ****                     #else
1377:.\Generated_Source\PSoC5/ADC_DelSig_1.c ****                         ADC_DelSig_1_AMux_Select(0);
1378:.\Generated_Source\PSoC5/ADC_DelSig_1.c ****                     #endif /* ADC_DelSig_1_IR_VSSA_TO_2VREF) */
1379:.\Generated_Source\PSoC5/ADC_DelSig_1.c ****                 #elif (CY_PSOC5A)
1380:.\Generated_Source\PSoC5/ADC_DelSig_1.c ****                     ADC_DelSig_1_AMux_Select(0);
1381:.\Generated_Source\PSoC5/ADC_DelSig_1.c ****                 #endif /* CY_PSOC3 || CY_PSOC5LP */
1382:.\Generated_Source\PSoC5/ADC_DelSig_1.c ****             #endif /* ADC_DelSig_1_DEFAULT_INPUT_MODE */
ARM GAS  C:\Users\hoangp\AppData\Local\Temp\ccZOsuqR.s 			page 74


1383:.\Generated_Source\PSoC5/ADC_DelSig_1.c ****                        
1384:.\Generated_Source\PSoC5/ADC_DelSig_1.c ****             /* Set the Conversion stop if resolution is above 16 bit and 
1385:.\Generated_Source\PSoC5/ADC_DelSig_1.c ****                conversion mode is Single sample */
1386:.\Generated_Source\PSoC5/ADC_DelSig_1.c ****             #if(ADC_DelSig_1_CFG4_RESOLUTION > 16 && \
1387:.\Generated_Source\PSoC5/ADC_DelSig_1.c ****                 ADC_DelSig_1_CFG4_CONVMODE == ADC_DelSig_1_MODE_SINGLE_SAMPLE) 
1388:.\Generated_Source\PSoC5/ADC_DelSig_1.c ****                 ADC_DelSig_1_stopConversion = 1;
1389:.\Generated_Source\PSoC5/ADC_DelSig_1.c ****             #endif /* Single sample with resolution above 16 bits */
1390:.\Generated_Source\PSoC5/ADC_DelSig_1.c ****             
1391:.\Generated_Source\PSoC5/ADC_DelSig_1.c ****             ADC_DelSig_1_CountsPerVolt = (uint32)ADC_DelSig_1_CFG4_COUNTS_PER_VOLT;
 2776              		.loc 1 1391 0
 2777 0870 40F20003 		movw	r3, #:lower16:ADC_DelSig_1_CountsPerVolt
 2778 0874 C0F20003 		movt	r3, #:upper16:ADC_DelSig_1_CountsPerVolt
 2779 0878 4FF4FA42 		mov	r2, #32000
 2780 087c 1A60     		str	r2, [r3, #0]
1392:.\Generated_Source\PSoC5/ADC_DelSig_1.c **** 
1393:.\Generated_Source\PSoC5/ADC_DelSig_1.c ****             /* Start and set interrupt vector */
1394:.\Generated_Source\PSoC5/ADC_DelSig_1.c ****             CyIntSetPriority(ADC_DelSig_1_IRQ__INTC_NUMBER, ADC_DelSig_1_IRQ_INTC_PRIOR_NUMBER);
 2781              		.loc 1 1394 0
 2782 087e 4FF01D00 		mov	r0, #29
 2783 0882 4FF00701 		mov	r1, #7
 2784 0886 FFF7FEFF 		bl	CyIntSetPriority
1395:.\Generated_Source\PSoC5/ADC_DelSig_1.c ****             CyIntSetVector(ADC_DelSig_1_IRQ__INTC_NUMBER, ADC_DelSig_1_ISR4 );
 2785              		.loc 1 1395 0
 2786 088a 4FF01D00 		mov	r0, #29
 2787 088e 40F20001 		movw	r1, #:lower16:ADC_DelSig_1_ISR4
 2788 0892 C0F20001 		movt	r1, #:upper16:ADC_DelSig_1_ISR4
 2789 0896 FFF7FEFF 		bl	CyIntSetVector
1396:.\Generated_Source\PSoC5/ADC_DelSig_1.c ****             CyIntEnable(ADC_DelSig_1_IRQ__INTC_NUMBER);
 2790              		.loc 1 1396 0
 2791 089a 4EF20013 		movw	r3, #:lower16:-536813312
 2792 089e CEF20003 		movt	r3, #:upper16:-536813312
 2793 08a2 4FF00052 		mov	r2, #536870912
 2794 08a6 1A60     		str	r2, [r3, #0]
 2795              	.L96:
1397:.\Generated_Source\PSoC5/ADC_DelSig_1.c ****         }
1398:.\Generated_Source\PSoC5/ADC_DelSig_1.c ****     #endif /* ADC_DelSig_1_DEFAULT_NUM_CONFIGS > 4 */
1399:.\Generated_Source\PSoC5/ADC_DelSig_1.c **** }
 2796              		.loc 1 1399 0
 2797 08a8 07F10807 		add	r7, r7, #8
 2798 08ac BD46     		mov	sp, r7
 2799 08ae 80BD     		pop	{r7, pc}
 2800              		.cfi_endproc
 2801              	.LFE24:
 2802              		.size	ADC_DelSig_1_InitConfig, .-ADC_DelSig_1_InitConfig
 2803              		.section	.text.ADC_DelSig_1_RoundValue,"ax",%progbits
 2804              		.align	2
 2805              		.global	ADC_DelSig_1_RoundValue
 2806              		.thumb
 2807              		.thumb_func
 2808              		.type	ADC_DelSig_1_RoundValue, %function
 2809              	ADC_DelSig_1_RoundValue:
 2810              	.LFB25:
1400:.\Generated_Source\PSoC5/ADC_DelSig_1.c **** 
1401:.\Generated_Source\PSoC5/ADC_DelSig_1.c **** 
1402:.\Generated_Source\PSoC5/ADC_DelSig_1.c **** /*******************************************************************************
1403:.\Generated_Source\PSoC5/ADC_DelSig_1.c **** * Function Name: ADC_DelSig_1_RoundValue(uint32 busClockFreq, 
1404:.\Generated_Source\PSoC5/ADC_DelSig_1.c **** *                                            uint32 clockFreq)
ARM GAS  C:\Users\hoangp\AppData\Local\Temp\ccZOsuqR.s 			page 75


1405:.\Generated_Source\PSoC5/ADC_DelSig_1.c **** ********************************************************************************
1406:.\Generated_Source\PSoC5/ADC_DelSig_1.c **** *
1407:.\Generated_Source\PSoC5/ADC_DelSig_1.c **** * Summary:
1408:.\Generated_Source\PSoC5/ADC_DelSig_1.c **** *  Function to round an integer value.
1409:.\Generated_Source\PSoC5/ADC_DelSig_1.c **** *
1410:.\Generated_Source\PSoC5/ADC_DelSig_1.c **** * Parameters:  
1411:.\Generated_Source\PSoC5/ADC_DelSig_1.c **** *  busClockFreq:  Frequency of the bus clock.
1412:.\Generated_Source\PSoC5/ADC_DelSig_1.c **** *  clockFreq:  Frequency of the component clock.
1413:.\Generated_Source\PSoC5/ADC_DelSig_1.c **** *
1414:.\Generated_Source\PSoC5/ADC_DelSig_1.c **** * Return: 
1415:.\Generated_Source\PSoC5/ADC_DelSig_1.c **** *  uint16: rounded integer value.
1416:.\Generated_Source\PSoC5/ADC_DelSig_1.c **** *
1417:.\Generated_Source\PSoC5/ADC_DelSig_1.c **** *******************************************************************************/
1418:.\Generated_Source\PSoC5/ADC_DelSig_1.c **** uint16 ADC_DelSig_1_RoundValue(uint32 busClockFreq, uint32 clockFreq) \
1419:.\Generated_Source\PSoC5/ADC_DelSig_1.c ****                                   
1420:.\Generated_Source\PSoC5/ADC_DelSig_1.c **** {
 2811              		.loc 1 1420 0
 2812              		.cfi_startproc
 2813              		@ args = 0, pretend = 0, frame = 16
 2814              		@ frame_needed = 1, uses_anonymous_args = 0
 2815              		@ link register save eliminated.
 2816 0000 80B4     		push	{r7}
 2817              	.LCFI64:
 2818              		.cfi_def_cfa_offset 4
 2819 0002 85B0     		sub	sp, sp, #20
 2820              	.LCFI65:
 2821              		.cfi_def_cfa_offset 24
 2822 0004 00AF     		add	r7, sp, #0
 2823              		.cfi_offset 7, -4
 2824              	.LCFI66:
 2825              		.cfi_def_cfa_register 7
 2826 0006 7860     		str	r0, [r7, #4]
 2827 0008 3960     		str	r1, [r7, #0]
1421:.\Generated_Source\PSoC5/ADC_DelSig_1.c ****     uint16 divider1, divider2;
1422:.\Generated_Source\PSoC5/ADC_DelSig_1.c ****     
1423:.\Generated_Source\PSoC5/ADC_DelSig_1.c ****     divider1 = ((busClockFreq * 10) / clockFreq);
 2828              		.loc 1 1423 0
 2829 000a 7A68     		ldr	r2, [r7, #4]
 2830 000c 1346     		mov	r3, r2
 2831 000e 4FEA8303 		lsl	r3, r3, #2
 2832 0012 1344     		add	r3, r3, r2
 2833 0014 4FEA4303 		lsl	r3, r3, #1
 2834 0018 1A46     		mov	r2, r3
 2835 001a 3B68     		ldr	r3, [r7, #0]
 2836 001c B2FBF3F3 		udiv	r3, r2, r3
 2837 0020 BB81     		strh	r3, [r7, #12]	@ movhi
1424:.\Generated_Source\PSoC5/ADC_DelSig_1.c ****     divider2 = (busClockFreq / clockFreq);
 2838              		.loc 1 1424 0
 2839 0022 7A68     		ldr	r2, [r7, #4]
 2840 0024 3B68     		ldr	r3, [r7, #0]
 2841 0026 B2FBF3F3 		udiv	r3, r2, r3
 2842 002a FB81     		strh	r3, [r7, #14]	@ movhi
1425:.\Generated_Source\PSoC5/ADC_DelSig_1.c ****     if ( divider1 - (divider2 * 10) >= 5)
 2843              		.loc 1 1425 0
 2844 002c BA89     		ldrh	r2, [r7, #12]
 2845 002e FB89     		ldrh	r3, [r7, #14]
 2846 0030 6FF00901 		mvn	r1, #9
ARM GAS  C:\Users\hoangp\AppData\Local\Temp\ccZOsuqR.s 			page 76


 2847 0034 01FB03F3 		mul	r3, r1, r3
 2848 0038 1344     		add	r3, r2, r3
 2849 003a 042B     		cmp	r3, #4
 2850 003c 03DD     		ble	.L98
1426:.\Generated_Source\PSoC5/ADC_DelSig_1.c ****     {
1427:.\Generated_Source\PSoC5/ADC_DelSig_1.c ****         divider2 += 1;
 2851              		.loc 1 1427 0
 2852 003e FB89     		ldrh	r3, [r7, #14]	@ movhi
 2853 0040 03F10103 		add	r3, r3, #1
 2854 0044 FB81     		strh	r3, [r7, #14]	@ movhi
 2855              	.L98:
1428:.\Generated_Source\PSoC5/ADC_DelSig_1.c ****     }
1429:.\Generated_Source\PSoC5/ADC_DelSig_1.c ****     return divider2;
 2856              		.loc 1 1429 0
 2857 0046 FB89     		ldrh	r3, [r7, #14]
1430:.\Generated_Source\PSoC5/ADC_DelSig_1.c **** }
 2858              		.loc 1 1430 0
 2859 0048 1846     		mov	r0, r3
 2860 004a 07F11407 		add	r7, r7, #20
 2861 004e BD46     		mov	sp, r7
 2862 0050 80BC     		pop	{r7}
 2863 0052 7047     		bx	lr
 2864              		.cfi_endproc
 2865              	.LFE25:
 2866              		.size	ADC_DelSig_1_RoundValue, .-ADC_DelSig_1_RoundValue
 2867              		.section	.text.ADC_DelSig_1_SelectConfiguration,"ax",%progbits
 2868              		.align	2
 2869              		.global	ADC_DelSig_1_SelectConfiguration
 2870              		.thumb
 2871              		.thumb_func
 2872              		.type	ADC_DelSig_1_SelectConfiguration, %function
 2873              	ADC_DelSig_1_SelectConfiguration:
 2874              	.LFB26:
1431:.\Generated_Source\PSoC5/ADC_DelSig_1.c ****          
1432:.\Generated_Source\PSoC5/ADC_DelSig_1.c **** 
1433:.\Generated_Source\PSoC5/ADC_DelSig_1.c **** /*******************************************************************************
1434:.\Generated_Source\PSoC5/ADC_DelSig_1.c **** * Function Name: ADC_DelSig_1_SelectCofiguration(uint8 config, 
1435:.\Generated_Source\PSoC5/ADC_DelSig_1.c **** *                                                    uint8 restart)
1436:.\Generated_Source\PSoC5/ADC_DelSig_1.c **** ********************************************************************************
1437:.\Generated_Source\PSoC5/ADC_DelSig_1.c **** *
1438:.\Generated_Source\PSoC5/ADC_DelSig_1.c **** * Summary:
1439:.\Generated_Source\PSoC5/ADC_DelSig_1.c **** *  Selects the user defined configuration. This API first stops the current ADC
1440:.\Generated_Source\PSoC5/ADC_DelSig_1.c **** *  and then initializes the registers with the default values for that config. 
1441:.\Generated_Source\PSoC5/ADC_DelSig_1.c **** *  This also performs calibration by writing GCOR registers with trim values 
1442:.\Generated_Source\PSoC5/ADC_DelSig_1.c **** *  stored in the flash.
1443:.\Generated_Source\PSoC5/ADC_DelSig_1.c **** *
1444:.\Generated_Source\PSoC5/ADC_DelSig_1.c **** * Parameters:  
1445:.\Generated_Source\PSoC5/ADC_DelSig_1.c **** *  config:  configuration user wants to select.
1446:.\Generated_Source\PSoC5/ADC_DelSig_1.c **** *
1447:.\Generated_Source\PSoC5/ADC_DelSig_1.c **** * Return: 
1448:.\Generated_Source\PSoC5/ADC_DelSig_1.c **** *  void
1449:.\Generated_Source\PSoC5/ADC_DelSig_1.c **** *
1450:.\Generated_Source\PSoC5/ADC_DelSig_1.c **** *******************************************************************************/
1451:.\Generated_Source\PSoC5/ADC_DelSig_1.c **** void ADC_DelSig_1_SelectConfiguration(uint8 config, uint8 restart) \
1452:.\Generated_Source\PSoC5/ADC_DelSig_1.c ****                                               
1453:.\Generated_Source\PSoC5/ADC_DelSig_1.c **** {
 2875              		.loc 1 1453 0
ARM GAS  C:\Users\hoangp\AppData\Local\Temp\ccZOsuqR.s 			page 77


 2876              		.cfi_startproc
 2877              		@ args = 0, pretend = 0, frame = 24
 2878              		@ frame_needed = 1, uses_anonymous_args = 0
 2879 0000 80B5     		push	{r7, lr}
 2880              	.LCFI67:
 2881              		.cfi_def_cfa_offset 8
 2882 0002 86B0     		sub	sp, sp, #24
 2883              	.LCFI68:
 2884              		.cfi_def_cfa_offset 32
 2885 0004 00AF     		add	r7, sp, #0
 2886              		.cfi_offset 14, -4
 2887              		.cfi_offset 7, -8
 2888              	.LCFI69:
 2889              		.cfi_def_cfa_register 7
 2890 0006 0246     		mov	r2, r0
 2891 0008 0B46     		mov	r3, r1
 2892 000a FA71     		strb	r2, [r7, #7]
 2893 000c BB71     		strb	r3, [r7, #6]
1454:.\Generated_Source\PSoC5/ADC_DelSig_1.c ****     uint8 inputRange = 0, resolution = 16;
 2894              		.loc 1 1454 0
 2895 000e 4FF00003 		mov	r3, #0
 2896 0012 BB73     		strb	r3, [r7, #14]
 2897 0014 4FF01003 		mov	r3, #16
 2898 0018 FB73     		strb	r3, [r7, #15]
1455:.\Generated_Source\PSoC5/ADC_DelSig_1.c ****     uint16 idealGain = 0, adcClockDivider = 1;    
 2899              		.loc 1 1455 0
 2900 001a 4FF00003 		mov	r3, #0
 2901 001e 3B82     		strh	r3, [r7, #16]	@ movhi
 2902 0020 4FF00103 		mov	r3, #1
 2903 0024 7B82     		strh	r3, [r7, #18]	@ movhi
1456:.\Generated_Source\PSoC5/ADC_DelSig_1.c ****     uint16 cpClockDivider = 1;
 2904              		.loc 1 1456 0
 2905 0026 4FF00103 		mov	r3, #1
 2906 002a BB82     		strh	r3, [r7, #20]	@ movhi
1457:.\Generated_Source\PSoC5/ADC_DelSig_1.c ****     uint16 idealOddGain = 0;
 2907              		.loc 1 1457 0
 2908 002c 4FF00003 		mov	r3, #0
 2909 0030 FB82     		strh	r3, [r7, #22]	@ movhi
1458:.\Generated_Source\PSoC5/ADC_DelSig_1.c ****     
1459:.\Generated_Source\PSoC5/ADC_DelSig_1.c ****     /* Check whether the config is valid or not */
1460:.\Generated_Source\PSoC5/ADC_DelSig_1.c ****     if( config <= ADC_DelSig_1_DEFAULT_NUM_CONFIGS)
 2910              		.loc 1 1460 0
 2911 0032 FB79     		ldrb	r3, [r7, #7]	@ zero_extendqisi2
 2912 0034 042B     		cmp	r3, #4
 2913 0036 00F2DE80 		bhi	.L107
1461:.\Generated_Source\PSoC5/ADC_DelSig_1.c ****     {   
1462:.\Generated_Source\PSoC5/ADC_DelSig_1.c ****        /* Set the flag to ensure start() API dont override the config
1463:.\Generated_Source\PSoC5/ADC_DelSig_1.c ****            selected if ADC is not already started */
1464:.\Generated_Source\PSoC5/ADC_DelSig_1.c ****         if(ADC_DelSig_1_initVar == 0u)
 2914              		.loc 1 1464 0
 2915 003a 40F20003 		movw	r3, #:lower16:ADC_DelSig_1_initVar
 2916 003e C0F20003 		movt	r3, #:upper16:ADC_DelSig_1_initVar
 2917 0042 1B78     		ldrb	r3, [r3, #0]	@ zero_extendqisi2
 2918 0044 002B     		cmp	r3, #0
 2919 0046 06D1     		bne	.L102
1465:.\Generated_Source\PSoC5/ADC_DelSig_1.c ****         {
1466:.\Generated_Source\PSoC5/ADC_DelSig_1.c ****             ADC_DelSig_1_started = 1u;
ARM GAS  C:\Users\hoangp\AppData\Local\Temp\ccZOsuqR.s 			page 78


 2920              		.loc 1 1466 0
 2921 0048 40F20003 		movw	r3, #:lower16:ADC_DelSig_1_started
 2922 004c C0F20003 		movt	r3, #:upper16:ADC_DelSig_1_started
 2923 0050 4FF00102 		mov	r2, #1
 2924 0054 1A70     		strb	r2, [r3, #0]
 2925              	.L102:
1467:.\Generated_Source\PSoC5/ADC_DelSig_1.c ****         }
1468:.\Generated_Source\PSoC5/ADC_DelSig_1.c **** 		
1469:.\Generated_Source\PSoC5/ADC_DelSig_1.c **** 		/* Update the config flag */
1470:.\Generated_Source\PSoC5/ADC_DelSig_1.c **** 		ADC_DelSig_1_Config = config;
 2926              		.loc 1 1470 0
 2927 0056 40F20003 		movw	r3, #:lower16:ADC_DelSig_1_Config
 2928 005a C0F20003 		movt	r3, #:upper16:ADC_DelSig_1_Config
 2929 005e FA79     		ldrb	r2, [r7, #7]
 2930 0060 1A70     		strb	r2, [r3, #0]
1471:.\Generated_Source\PSoC5/ADC_DelSig_1.c ****        
1472:.\Generated_Source\PSoC5/ADC_DelSig_1.c ****         /* Stop the ADC  */
1473:.\Generated_Source\PSoC5/ADC_DelSig_1.c ****         ADC_DelSig_1_Stop();
 2931              		.loc 1 1473 0
 2932 0062 FFF7FEFF 		bl	ADC_DelSig_1_Stop
1474:.\Generated_Source\PSoC5/ADC_DelSig_1.c ****         
1475:.\Generated_Source\PSoC5/ADC_DelSig_1.c ****         #if (CY_PSOC5A)
1476:.\Generated_Source\PSoC5/ADC_DelSig_1.c ****             /* Set the structure field which checks whether or not to
1477:.\Generated_Source\PSoC5/ADC_DelSig_1.c ****                restore the power registers */
1478:.\Generated_Source\PSoC5/ADC_DelSig_1.c ****             ADC_DelSig_1_powerModeBackup.bypassRestore = ADC_DelSig_1_BYPASS_ENABLED;
 2933              		.loc 1 1478 0
 2934 0066 40F20003 		movw	r3, #:lower16:ADC_DelSig_1_powerModeBackup
 2935 006a C0F20003 		movt	r3, #:upper16:ADC_DelSig_1_powerModeBackup
 2936 006e 4FF00102 		mov	r2, #1
 2937 0072 1A72     		strb	r2, [r3, #8]
1479:.\Generated_Source\PSoC5/ADC_DelSig_1.c ****         #endif /* CY_PSOC5A */
1480:.\Generated_Source\PSoC5/ADC_DelSig_1.c ****         
1481:.\Generated_Source\PSoC5/ADC_DelSig_1.c ****         /* Set the  ADC registers based on the configuration */
1482:.\Generated_Source\PSoC5/ADC_DelSig_1.c ****         ADC_DelSig_1_InitConfig(config);
 2938              		.loc 1 1482 0
 2939 0074 FB79     		ldrb	r3, [r7, #7]	@ zero_extendqisi2
 2940 0076 1846     		mov	r0, r3
 2941 0078 FFF7FEFF 		bl	ADC_DelSig_1_InitConfig
1483:.\Generated_Source\PSoC5/ADC_DelSig_1.c ****         
1484:.\Generated_Source\PSoC5/ADC_DelSig_1.c ****         /* Trim value calculation */
1485:.\Generated_Source\PSoC5/ADC_DelSig_1.c ****         if(config == 1u)
 2942              		.loc 1 1485 0
 2943 007c FB79     		ldrb	r3, [r7, #7]	@ zero_extendqisi2
 2944 007e 012B     		cmp	r3, #1
 2945 0080 23D1     		bne	.L103
1486:.\Generated_Source\PSoC5/ADC_DelSig_1.c ****         {
1487:.\Generated_Source\PSoC5/ADC_DelSig_1.c ****             inputRange = ADC_DelSig_1_CFG1_RANGE;
 2946              		.loc 1 1487 0
 2947 0082 4FF00403 		mov	r3, #4
 2948 0086 BB73     		strb	r3, [r7, #14]
1488:.\Generated_Source\PSoC5/ADC_DelSig_1.c ****             resolution = ADC_DelSig_1_CFG1_RESOLUTION;
 2949              		.loc 1 1488 0
 2950 0088 4FF00A03 		mov	r3, #10
 2951 008c FB73     		strb	r3, [r7, #15]
1489:.\Generated_Source\PSoC5/ADC_DelSig_1.c ****             idealGain = ADC_DelSig_1_CFG1_IDEAL_DEC_GAIN;
 2952              		.loc 1 1489 0
 2953 008e 48F6B653 		movw	r3, #36278
ARM GAS  C:\Users\hoangp\AppData\Local\Temp\ccZOsuqR.s 			page 79


 2954 0092 3B82     		strh	r3, [r7, #16]	@ movhi
1490:.\Generated_Source\PSoC5/ADC_DelSig_1.c ****             idealOddGain = ADC_DelSig_1_CFG1_IDEAL_ODDDEC_GAIN;
 2955              		.loc 1 1490 0
 2956 0094 47F60603 		movw	r3, #30726
 2957 0098 FB82     		strh	r3, [r7, #22]	@ movhi
1491:.\Generated_Source\PSoC5/ADC_DelSig_1.c ****             adcClockDivider = ADC_DelSig_1_RoundValue((uint32)BCLK__BUS_CLK__HZ,
 2958              		.loc 1 1491 0
 2959 009a 43F20060 		movw	r0, #:lower16:24000000
 2960 009e C0F26E10 		movt	r0, #:upper16:24000000
 2961 00a2 41F66001 		movw	r1, #:lower16:2300000
 2962 00a6 C0F22301 		movt	r1, #:upper16:2300000
 2963 00aa FFF7FEFF 		bl	ADC_DelSig_1_RoundValue
 2964 00ae 0346     		mov	r3, r0
 2965 00b0 7B82     		strh	r3, [r7, #18]	@ movhi
1492:.\Generated_Source\PSoC5/ADC_DelSig_1.c ****                                                        (uint32)ADC_DelSig_1_CFG1_CLOCK_FREQ);
1493:.\Generated_Source\PSoC5/ADC_DelSig_1.c ****             cpClockDivider = ADC_DelSig_1_RoundValue((uint32)BCLK__BUS_CLK__HZ,
 2966              		.loc 1 1493 0
 2967 00b2 43F20060 		movw	r0, #:lower16:24000000
 2968 00b6 C0F26E10 		movt	r0, #:upper16:24000000
 2969 00ba 46F28011 		movw	r1, #:lower16:9200000
 2970 00be C0F28C01 		movt	r1, #:upper16:9200000
 2971 00c2 FFF7FEFF 		bl	ADC_DelSig_1_RoundValue
 2972 00c6 0346     		mov	r3, r0
 2973 00c8 BB82     		strh	r3, [r7, #20]	@ movhi
 2974              	.L103:
1494:.\Generated_Source\PSoC5/ADC_DelSig_1.c ****                                                        (uint32)ADC_DelSig_1_CFG1_CP_CLOCK_FREQ);
1495:.\Generated_Source\PSoC5/ADC_DelSig_1.c ****         }
1496:.\Generated_Source\PSoC5/ADC_DelSig_1.c **** 
1497:.\Generated_Source\PSoC5/ADC_DelSig_1.c ****         #if (ADC_DelSig_1_DEFAULT_NUM_CONFIGS > 1)
1498:.\Generated_Source\PSoC5/ADC_DelSig_1.c ****             if(config == 2u)
 2975              		.loc 1 1498 0
 2976 00ca FB79     		ldrb	r3, [r7, #7]	@ zero_extendqisi2
 2977 00cc 022B     		cmp	r3, #2
 2978 00ce 23D1     		bne	.L104
1499:.\Generated_Source\PSoC5/ADC_DelSig_1.c ****             {
1500:.\Generated_Source\PSoC5/ADC_DelSig_1.c ****                 inputRange = ADC_DelSig_1_CFG2_INPUT_RANGE;
 2979              		.loc 1 1500 0
 2980 00d0 4FF00403 		mov	r3, #4
 2981 00d4 BB73     		strb	r3, [r7, #14]
1501:.\Generated_Source\PSoC5/ADC_DelSig_1.c ****                 resolution = ADC_DelSig_1_CFG2_RESOLUTION;
 2982              		.loc 1 1501 0
 2983 00d6 4FF01003 		mov	r3, #16
 2984 00da FB73     		strb	r3, [r7, #15]
1502:.\Generated_Source\PSoC5/ADC_DelSig_1.c ****                 idealGain = ADC_DelSig_1_CFG2_IDEAL_DEC_GAIN;
 2985              		.loc 1 1502 0
 2986 00dc 49F2DB03 		movw	r3, #37083
 2987 00e0 3B82     		strh	r3, [r7, #16]	@ movhi
1503:.\Generated_Source\PSoC5/ADC_DelSig_1.c ****                 idealOddGain = ADC_DelSig_1_CFG2_IDEAL_ODDDEC_GAIN;
 2988              		.loc 1 1503 0
 2989 00e2 4FF40043 		mov	r3, #32768
 2990 00e6 FB82     		strh	r3, [r7, #22]	@ movhi
1504:.\Generated_Source\PSoC5/ADC_DelSig_1.c ****                 adcClockDivider = ADC_DelSig_1_RoundValue((uint32)BCLK__BUS_CLK__HZ,
 2991              		.loc 1 1504 0
 2992 00e8 43F20060 		movw	r0, #:lower16:24000000
 2993 00ec C0F26E10 		movt	r0, #:upper16:24000000
 2994 00f0 4CF20041 		movw	r1, #:lower16:640000
 2995 00f4 C0F20901 		movt	r1, #:upper16:640000
ARM GAS  C:\Users\hoangp\AppData\Local\Temp\ccZOsuqR.s 			page 80


 2996 00f8 FFF7FEFF 		bl	ADC_DelSig_1_RoundValue
 2997 00fc 0346     		mov	r3, r0
 2998 00fe 7B82     		strh	r3, [r7, #18]	@ movhi
1505:.\Generated_Source\PSoC5/ADC_DelSig_1.c ****                                                             (uint32)ADC_DelSig_1_CFG2_CLOCK_FREQ);
1506:.\Generated_Source\PSoC5/ADC_DelSig_1.c ****                 cpClockDivider = ADC_DelSig_1_RoundValue((uint32)BCLK__BUS_CLK__HZ,
 2999              		.loc 1 1506 0
 3000 0100 43F20060 		movw	r0, #:lower16:24000000
 3001 0104 C0F26E10 		movt	r0, #:upper16:24000000
 3002 0108 41F20001 		movw	r1, #:lower16:2560000
 3003 010c C0F22701 		movt	r1, #:upper16:2560000
 3004 0110 FFF7FEFF 		bl	ADC_DelSig_1_RoundValue
 3005 0114 0346     		mov	r3, r0
 3006 0116 BB82     		strh	r3, [r7, #20]	@ movhi
 3007              	.L104:
1507:.\Generated_Source\PSoC5/ADC_DelSig_1.c ****                                                        (uint32)ADC_DelSig_1_CFG2_CP_CLOCK_FREQ);
1508:.\Generated_Source\PSoC5/ADC_DelSig_1.c ****             }
1509:.\Generated_Source\PSoC5/ADC_DelSig_1.c ****         #endif /* ADC_DelSig_1_DEFAULT_NUM_CONFIGS > 1 */
1510:.\Generated_Source\PSoC5/ADC_DelSig_1.c **** 
1511:.\Generated_Source\PSoC5/ADC_DelSig_1.c ****         #if(ADC_DelSig_1_DEFAULT_NUM_CONFIGS > 2)
1512:.\Generated_Source\PSoC5/ADC_DelSig_1.c ****             if(config == 3u)
 3008              		.loc 1 1512 0
 3009 0118 FB79     		ldrb	r3, [r7, #7]	@ zero_extendqisi2
 3010 011a 032B     		cmp	r3, #3
 3011 011c 23D1     		bne	.L105
1513:.\Generated_Source\PSoC5/ADC_DelSig_1.c ****             {
1514:.\Generated_Source\PSoC5/ADC_DelSig_1.c ****                 inputRange = ADC_DelSig_1_CFG3_INPUT_RANGE;
 3012              		.loc 1 1514 0
 3013 011e 4FF00403 		mov	r3, #4
 3014 0122 BB73     		strb	r3, [r7, #14]
1515:.\Generated_Source\PSoC5/ADC_DelSig_1.c ****                 resolution = ADC_DelSig_1_CFG3_RESOLUTION;
 3015              		.loc 1 1515 0
 3016 0124 4FF01003 		mov	r3, #16
 3017 0128 FB73     		strb	r3, [r7, #15]
1516:.\Generated_Source\PSoC5/ADC_DelSig_1.c ****                 idealGain = ADC_DelSig_1_CFG3_IDEAL_DEC_GAIN;
 3018              		.loc 1 1516 0
 3019 012a 49F2DB03 		movw	r3, #37083
 3020 012e 3B82     		strh	r3, [r7, #16]	@ movhi
1517:.\Generated_Source\PSoC5/ADC_DelSig_1.c ****                 idealOddGain = ADC_DelSig_1_CFG3_IDEAL_ODDDEC_GAIN;
 3021              		.loc 1 1517 0
 3022 0130 4FF40043 		mov	r3, #32768
 3023 0134 FB82     		strh	r3, [r7, #22]	@ movhi
1518:.\Generated_Source\PSoC5/ADC_DelSig_1.c ****                 adcClockDivider = ADC_DelSig_1_RoundValue((uint32)BCLK__BUS_CLK__HZ,
 3024              		.loc 1 1518 0
 3025 0136 43F20060 		movw	r0, #:lower16:24000000
 3026 013a C0F26E10 		movt	r0, #:upper16:24000000
 3027 013e 4CF20041 		movw	r1, #:lower16:640000
 3028 0142 C0F20901 		movt	r1, #:upper16:640000
 3029 0146 FFF7FEFF 		bl	ADC_DelSig_1_RoundValue
 3030 014a 0346     		mov	r3, r0
 3031 014c 7B82     		strh	r3, [r7, #18]	@ movhi
1519:.\Generated_Source\PSoC5/ADC_DelSig_1.c ****                                                             (uint32)ADC_DelSig_1_CFG3_CLOCK_FREQ);
1520:.\Generated_Source\PSoC5/ADC_DelSig_1.c ****                 cpClockDivider = ADC_DelSig_1_RoundValue((uint32)BCLK__BUS_CLK__HZ,
 3032              		.loc 1 1520 0
 3033 014e 43F20060 		movw	r0, #:lower16:24000000
 3034 0152 C0F26E10 		movt	r0, #:upper16:24000000
 3035 0156 41F20001 		movw	r1, #:lower16:2560000
 3036 015a C0F22701 		movt	r1, #:upper16:2560000
ARM GAS  C:\Users\hoangp\AppData\Local\Temp\ccZOsuqR.s 			page 81


 3037 015e FFF7FEFF 		bl	ADC_DelSig_1_RoundValue
 3038 0162 0346     		mov	r3, r0
 3039 0164 BB82     		strh	r3, [r7, #20]	@ movhi
 3040              	.L105:
1521:.\Generated_Source\PSoC5/ADC_DelSig_1.c ****                                                        (uint32)ADC_DelSig_1_CFG3_CP_CLOCK_FREQ);
1522:.\Generated_Source\PSoC5/ADC_DelSig_1.c ****             }
1523:.\Generated_Source\PSoC5/ADC_DelSig_1.c ****         #endif /* ADC_DelSig_1_DEFAULT_NUM_CONFIGS > 2 */
1524:.\Generated_Source\PSoC5/ADC_DelSig_1.c **** 
1525:.\Generated_Source\PSoC5/ADC_DelSig_1.c ****         #if (ADC_DelSig_1_DEFAULT_NUM_CONFIGS > 3)
1526:.\Generated_Source\PSoC5/ADC_DelSig_1.c ****             if(config == 4u)
 3041              		.loc 1 1526 0
 3042 0166 FB79     		ldrb	r3, [r7, #7]	@ zero_extendqisi2
 3043 0168 042B     		cmp	r3, #4
 3044 016a 23D1     		bne	.L106
1527:.\Generated_Source\PSoC5/ADC_DelSig_1.c ****             {
1528:.\Generated_Source\PSoC5/ADC_DelSig_1.c ****                 inputRange = ADC_DelSig_1_CFG4_INPUT_RANGE;
 3045              		.loc 1 1528 0
 3046 016c 4FF00403 		mov	r3, #4
 3047 0170 BB73     		strb	r3, [r7, #14]
1529:.\Generated_Source\PSoC5/ADC_DelSig_1.c ****                 resolution = ADC_DelSig_1_CFG4_RESOLUTION;
 3048              		.loc 1 1529 0
 3049 0172 4FF01003 		mov	r3, #16
 3050 0176 FB73     		strb	r3, [r7, #15]
1530:.\Generated_Source\PSoC5/ADC_DelSig_1.c ****                 idealGain = ADC_DelSig_1_CFG4_IDEAL_DEC_GAIN;
 3051              		.loc 1 1530 0
 3052 0178 49F2DB03 		movw	r3, #37083
 3053 017c 3B82     		strh	r3, [r7, #16]	@ movhi
1531:.\Generated_Source\PSoC5/ADC_DelSig_1.c ****                 idealOddGain = ADC_DelSig_1_CFG4_IDEAL_ODDDEC_GAIN;
 3054              		.loc 1 1531 0
 3055 017e 4FF40043 		mov	r3, #32768
 3056 0182 FB82     		strh	r3, [r7, #22]	@ movhi
1532:.\Generated_Source\PSoC5/ADC_DelSig_1.c ****                 adcClockDivider = ADC_DelSig_1_RoundValue((uint32)BCLK__BUS_CLK__HZ,  
 3057              		.loc 1 1532 0
 3058 0184 43F20060 		movw	r0, #:lower16:24000000
 3059 0188 C0F26E10 		movt	r0, #:upper16:24000000
 3060 018c 4CF20041 		movw	r1, #:lower16:640000
 3061 0190 C0F20901 		movt	r1, #:upper16:640000
 3062 0194 FFF7FEFF 		bl	ADC_DelSig_1_RoundValue
 3063 0198 0346     		mov	r3, r0
 3064 019a 7B82     		strh	r3, [r7, #18]	@ movhi
1533:.\Generated_Source\PSoC5/ADC_DelSig_1.c ****                                                             (uint32)ADC_DelSig_1_CFG4_CLOCK_FREQ);
1534:.\Generated_Source\PSoC5/ADC_DelSig_1.c ****                 cpClockDivider = ADC_DelSig_1_RoundValue((uint32)BCLK__BUS_CLK__HZ,
 3065              		.loc 1 1534 0
 3066 019c 43F20060 		movw	r0, #:lower16:24000000
 3067 01a0 C0F26E10 		movt	r0, #:upper16:24000000
 3068 01a4 41F20001 		movw	r1, #:lower16:2560000
 3069 01a8 C0F22701 		movt	r1, #:upper16:2560000
 3070 01ac FFF7FEFF 		bl	ADC_DelSig_1_RoundValue
 3071 01b0 0346     		mov	r3, r0
 3072 01b2 BB82     		strh	r3, [r7, #20]	@ movhi
 3073              	.L106:
1535:.\Generated_Source\PSoC5/ADC_DelSig_1.c ****                                                        (uint32)ADC_DelSig_1_CFG4_CP_CLOCK_FREQ);
1536:.\Generated_Source\PSoC5/ADC_DelSig_1.c ****             }
1537:.\Generated_Source\PSoC5/ADC_DelSig_1.c ****         #endif /* ADC_DelSig_1_DEFAULT_NUM_CONFIGS > 3 */
1538:.\Generated_Source\PSoC5/ADC_DelSig_1.c ****         
1539:.\Generated_Source\PSoC5/ADC_DelSig_1.c ****         adcClockDivider = adcClockDivider - 1;
 3074              		.loc 1 1539 0
ARM GAS  C:\Users\hoangp\AppData\Local\Temp\ccZOsuqR.s 			page 82


 3075 01b4 7B8A     		ldrh	r3, [r7, #18]	@ movhi
 3076 01b6 03F1FF33 		add	r3, r3, #-1
 3077 01ba 7B82     		strh	r3, [r7, #18]	@ movhi
1540:.\Generated_Source\PSoC5/ADC_DelSig_1.c ****         /* Set the proper divider for the internal clock */
1541:.\Generated_Source\PSoC5/ADC_DelSig_1.c ****         #if(ADC_DelSig_1_DEFAULT_INTERNAL_CLK)
1542:.\Generated_Source\PSoC5/ADC_DelSig_1.c ****             ADC_DelSig_1_theACLK_SetDividerRegister(adcClockDivider, 1);
 3078              		.loc 1 1542 0
 3079 01bc 7B8A     		ldrh	r3, [r7, #18]
 3080 01be 1846     		mov	r0, r3
 3081 01c0 4FF00101 		mov	r1, #1
 3082 01c4 FFF7FEFF 		bl	ADC_DelSig_1_theACLK_SetDividerRegister
1543:.\Generated_Source\PSoC5/ADC_DelSig_1.c ****         #endif /* ADC_DelSig_1_DEFAULT_INTERNAL_CLK */
1544:.\Generated_Source\PSoC5/ADC_DelSig_1.c ****         
1545:.\Generated_Source\PSoC5/ADC_DelSig_1.c ****         cpClockDivider = cpClockDivider - 1;
 3083              		.loc 1 1545 0
 3084 01c8 BB8A     		ldrh	r3, [r7, #20]	@ movhi
 3085 01ca 03F1FF33 		add	r3, r3, #-1
 3086 01ce BB82     		strh	r3, [r7, #20]	@ movhi
1546:.\Generated_Source\PSoC5/ADC_DelSig_1.c ****         /* Set the proper divider for the Charge pump clock */
1547:.\Generated_Source\PSoC5/ADC_DelSig_1.c ****         ADC_DelSig_1_Ext_CP_Clk_SetDividerRegister(cpClockDivider, 1);
 3087              		.loc 1 1547 0
 3088 01d0 BB8A     		ldrh	r3, [r7, #20]
 3089 01d2 1846     		mov	r0, r3
 3090 01d4 4FF00101 		mov	r1, #1
 3091 01d8 FFF7FEFF 		bl	ADC_DelSig_1_Ext_CP_Clk_SetDividerRegister
1548:.\Generated_Source\PSoC5/ADC_DelSig_1.c ****         
1549:.\Generated_Source\PSoC5/ADC_DelSig_1.c ****         /* Compensate the gain */
1550:.\Generated_Source\PSoC5/ADC_DelSig_1.c ****         ADC_DelSig_1_GainCompensation(inputRange, idealGain, idealOddGain, resolution);
 3092              		.loc 1 1550 0
 3093 01dc B87B     		ldrb	r0, [r7, #14]	@ zero_extendqisi2
 3094 01de 398A     		ldrh	r1, [r7, #16]
 3095 01e0 FA8A     		ldrh	r2, [r7, #22]
 3096 01e2 FB7B     		ldrb	r3, [r7, #15]	@ zero_extendqisi2
 3097 01e4 FFF7FEFF 		bl	ADC_DelSig_1_GainCompensation
1551:.\Generated_Source\PSoC5/ADC_DelSig_1.c ****         
1552:.\Generated_Source\PSoC5/ADC_DelSig_1.c ****         if(restart == 1u)
 3098              		.loc 1 1552 0
 3099 01e8 BB79     		ldrb	r3, [r7, #6]	@ zero_extendqisi2
 3100 01ea 012B     		cmp	r3, #1
 3101 01ec 03D1     		bne	.L107
1553:.\Generated_Source\PSoC5/ADC_DelSig_1.c ****         {        
1554:.\Generated_Source\PSoC5/ADC_DelSig_1.c ****             /* Restart the ADC */
1555:.\Generated_Source\PSoC5/ADC_DelSig_1.c ****             ADC_DelSig_1_Start();
 3102              		.loc 1 1555 0
 3103 01ee FFF7FEFF 		bl	ADC_DelSig_1_Start
1556:.\Generated_Source\PSoC5/ADC_DelSig_1.c ****             
1557:.\Generated_Source\PSoC5/ADC_DelSig_1.c ****             /* Code to disable the REFBUF0 if reference chosen is External ref */
1558:.\Generated_Source\PSoC5/ADC_DelSig_1.c ****             #if (((ADC_DelSig_1_CFG2_REFERENCE == ADC_DelSig_1_EXT_REF_ON_P03) || \
1559:.\Generated_Source\PSoC5/ADC_DelSig_1.c ****                  (ADC_DelSig_1_CFG2_REFERENCE == ADC_DelSig_1_EXT_REF_ON_P32)) || \
1560:.\Generated_Source\PSoC5/ADC_DelSig_1.c ****                  ((ADC_DelSig_1_CFG3_REFERENCE == ADC_DelSig_1_EXT_REF_ON_P03) || \
1561:.\Generated_Source\PSoC5/ADC_DelSig_1.c ****                  (ADC_DelSig_1_CFG3_REFERENCE == ADC_DelSig_1_EXT_REF_ON_P32)) || \
1562:.\Generated_Source\PSoC5/ADC_DelSig_1.c ****                  ((ADC_DelSig_1_CFG4_REFERENCE == ADC_DelSig_1_EXT_REF_ON_P03) || \
1563:.\Generated_Source\PSoC5/ADC_DelSig_1.c ****                  (ADC_DelSig_1_CFG4_REFERENCE == ADC_DelSig_1_EXT_REF_ON_P32)))
1564:.\Generated_Source\PSoC5/ADC_DelSig_1.c ****                 if (((config == 2) && 
1565:.\Generated_Source\PSoC5/ADC_DelSig_1.c ****                     ((ADC_DelSig_1_CFG2_REFERENCE == ADC_DelSig_1_EXT_REF_ON_P03) ||
1566:.\Generated_Source\PSoC5/ADC_DelSig_1.c ****                     (ADC_DelSig_1_CFG2_REFERENCE == ADC_DelSig_1_EXT_REF_ON_P32))) ||
1567:.\Generated_Source\PSoC5/ADC_DelSig_1.c ****                     ((config == 3) && 
ARM GAS  C:\Users\hoangp\AppData\Local\Temp\ccZOsuqR.s 			page 83


1568:.\Generated_Source\PSoC5/ADC_DelSig_1.c ****                     ((ADC_DelSig_1_CFG3_REFERENCE == ADC_DelSig_1_EXT_REF_ON_P03) ||
1569:.\Generated_Source\PSoC5/ADC_DelSig_1.c ****                     (ADC_DelSig_1_CFG3_REFERENCE == ADC_DelSig_1_EXT_REF_ON_P32))) ||
1570:.\Generated_Source\PSoC5/ADC_DelSig_1.c ****                     ((config == 4) && 
1571:.\Generated_Source\PSoC5/ADC_DelSig_1.c ****                     ((ADC_DelSig_1_CFG4_REFERENCE == ADC_DelSig_1_EXT_REF_ON_P03) ||
1572:.\Generated_Source\PSoC5/ADC_DelSig_1.c ****                     (ADC_DelSig_1_CFG4_REFERENCE == ADC_DelSig_1_EXT_REF_ON_P32))))
1573:.\Generated_Source\PSoC5/ADC_DelSig_1.c ****                 {
1574:.\Generated_Source\PSoC5/ADC_DelSig_1.c ****                     /* Disable PRES, Enable power to VCMBUF0, REFBUF0 and 
1575:.\Generated_Source\PSoC5/ADC_DelSig_1.c ****                        REFBUF1, enable PRES */
1576:.\Generated_Source\PSoC5/ADC_DelSig_1.c ****                     #if (CY_PSOC3 || CY_PSOC5LP)
1577:.\Generated_Source\PSoC5/ADC_DelSig_1.c ****                         ADC_DelSig_1_RESET_CR4_REG |= ADC_DelSig_1_IGNORE_PRESA1;
1578:.\Generated_Source\PSoC5/ADC_DelSig_1.c ****                         ADC_DelSig_1_RESET_CR5_REG |= ADC_DelSig_1_IGNORE_PRESA2;
1579:.\Generated_Source\PSoC5/ADC_DelSig_1.c ****                     #elif (CY_PSOC5A)
1580:.\Generated_Source\PSoC5/ADC_DelSig_1.c ****                         ADC_DelSig_1_RESET_CR1_REG |= ADC_DelSig_1_DIS_PRES1;
1581:.\Generated_Source\PSoC5/ADC_DelSig_1.c ****                         ADC_DelSig_1_RESET_CR3_REG |= ADC_DelSig_1_DIS_PRES2;
1582:.\Generated_Source\PSoC5/ADC_DelSig_1.c ****                     #endif /* CY_PSOC5A */
1583:.\Generated_Source\PSoC5/ADC_DelSig_1.c ****         
1584:.\Generated_Source\PSoC5/ADC_DelSig_1.c ****                     /* Disable the REFBUF0 */
1585:.\Generated_Source\PSoC5/ADC_DelSig_1.c ****                     ADC_DelSig_1_DSM_CR17_REG &= ~ADC_DelSig_1_DSM_EN_BUF_VREF;
1586:.\Generated_Source\PSoC5/ADC_DelSig_1.c ****                     
1587:.\Generated_Source\PSoC5/ADC_DelSig_1.c ****                     /* Wait for 3 microseconds */
1588:.\Generated_Source\PSoC5/ADC_DelSig_1.c ****                     CyDelayUs(3);
1589:.\Generated_Source\PSoC5/ADC_DelSig_1.c ****                     /* Enable the press circuit */
1590:.\Generated_Source\PSoC5/ADC_DelSig_1.c ****                     #if (CY_PSOC3 || CY_PSOC5LP)
1591:.\Generated_Source\PSoC5/ADC_DelSig_1.c ****                         ADC_DelSig_1_RESET_CR4_REG &= ~ADC_DelSig_1_IGNORE_PRESA1;
1592:.\Generated_Source\PSoC5/ADC_DelSig_1.c ****                         ADC_DelSig_1_RESET_CR5_REG &= ~ADC_DelSig_1_IGNORE_PRESA2;
1593:.\Generated_Source\PSoC5/ADC_DelSig_1.c ****                     #elif (CY_PSOC5A)
1594:.\Generated_Source\PSoC5/ADC_DelSig_1.c ****                         ADC_DelSig_1_RESET_CR1_REG &= ~ADC_DelSig_1_DIS_PRES1;
1595:.\Generated_Source\PSoC5/ADC_DelSig_1.c ****                         ADC_DelSig_1_RESET_CR3_REG &= ~ADC_DelSig_1_DIS_PRES2;
1596:.\Generated_Source\PSoC5/ADC_DelSig_1.c ****                     #endif /* CY_PSOC5A */
1597:.\Generated_Source\PSoC5/ADC_DelSig_1.c ****                 }
1598:.\Generated_Source\PSoC5/ADC_DelSig_1.c ****             #endif /* */
1599:.\Generated_Source\PSoC5/ADC_DelSig_1.c ****             
1600:.\Generated_Source\PSoC5/ADC_DelSig_1.c ****             #if ((CY_PSOC3 || CY_PSOC5LP) && \
1601:.\Generated_Source\PSoC5/ADC_DelSig_1.c ****                  ((ADC_DelSig_1_CFG2_INPUT_RANGE == ADC_DelSig_1_IR_VSSA_TO_2VREF) || \
1602:.\Generated_Source\PSoC5/ADC_DelSig_1.c ****                   (ADC_DelSig_1_CFG3_INPUT_RANGE == ADC_DelSig_1_IR_VSSA_TO_2VREF) || \
1603:.\Generated_Source\PSoC5/ADC_DelSig_1.c ****                   (ADC_DelSig_1_CFG4_INPUT_RANGE == ADC_DelSig_1_IR_VSSA_TO_2VREF)))
1604:.\Generated_Source\PSoC5/ADC_DelSig_1.c ****                 if(((config == 2) && 
1605:.\Generated_Source\PSoC5/ADC_DelSig_1.c ****                     (ADC_DelSig_1_CFG2_INPUT_RANGE == ADC_DelSig_1_IR_VSSA_TO_2VREF) && 
1606:.\Generated_Source\PSoC5/ADC_DelSig_1.c ****                     ((ADC_DelSig_1_CFG2_REFERENCE != ADC_DelSig_1_EXT_REF_ON_P03) && 
1607:.\Generated_Source\PSoC5/ADC_DelSig_1.c ****                      (ADC_DelSig_1_CFG2_REFERENCE != ADC_DelSig_1_EXT_REF_ON_P32))) ||
1608:.\Generated_Source\PSoC5/ADC_DelSig_1.c ****                      ((config == 3) && 
1609:.\Generated_Source\PSoC5/ADC_DelSig_1.c ****                       (ADC_DelSig_1_CFG3_INPUT_RANGE == ADC_DelSig_1_IR_VSSA_TO_2VREF) && 
1610:.\Generated_Source\PSoC5/ADC_DelSig_1.c ****                      ((ADC_DelSig_1_CFG3_REFERENCE != ADC_DelSig_1_EXT_REF_ON_P03) && 
1611:.\Generated_Source\PSoC5/ADC_DelSig_1.c ****                      (ADC_DelSig_1_CFG3_REFERENCE != ADC_DelSig_1_EXT_REF_ON_P32))) ||
1612:.\Generated_Source\PSoC5/ADC_DelSig_1.c ****                      ((config == 4) && 
1613:.\Generated_Source\PSoC5/ADC_DelSig_1.c ****                       (ADC_DelSig_1_CFG4_INPUT_RANGE == ADC_DelSig_1_IR_VSSA_TO_2VREF) && 
1614:.\Generated_Source\PSoC5/ADC_DelSig_1.c ****                      ((ADC_DelSig_1_CFG4_REFERENCE != ADC_DelSig_1_EXT_REF_ON_P03) && 
1615:.\Generated_Source\PSoC5/ADC_DelSig_1.c ****                      (ADC_DelSig_1_CFG4_REFERENCE != ADC_DelSig_1_EXT_REF_ON_P32))))
1616:.\Generated_Source\PSoC5/ADC_DelSig_1.c ****                 {
1617:.\Generated_Source\PSoC5/ADC_DelSig_1.c ****                     /* Disable PRES, Enable power to VCMBUF0, REFBUF0 and 
1618:.\Generated_Source\PSoC5/ADC_DelSig_1.c ****                        REFBUF1, enable PRES */
1619:.\Generated_Source\PSoC5/ADC_DelSig_1.c ****                     #if (CY_PSOC3 || CY_PSOC5LP)
1620:.\Generated_Source\PSoC5/ADC_DelSig_1.c ****                         ADC_DelSig_1_RESET_CR4_REG |= ADC_DelSig_1_IGNORE_PRESA1;
1621:.\Generated_Source\PSoC5/ADC_DelSig_1.c ****                         ADC_DelSig_1_RESET_CR5_REG |= ADC_DelSig_1_IGNORE_PRESA2;
1622:.\Generated_Source\PSoC5/ADC_DelSig_1.c ****                     #elif (CY_PSOC5A)
1623:.\Generated_Source\PSoC5/ADC_DelSig_1.c ****                         ADC_DelSig_1_RESET_CR1_REG |= ADC_DelSig_1_DIS_PRES1;
1624:.\Generated_Source\PSoC5/ADC_DelSig_1.c ****                         ADC_DelSig_1_RESET_CR3_REG |= ADC_DelSig_1_DIS_PRES2;
ARM GAS  C:\Users\hoangp\AppData\Local\Temp\ccZOsuqR.s 			page 84


1625:.\Generated_Source\PSoC5/ADC_DelSig_1.c ****                     #endif /* CY_PSOC5A */
1626:.\Generated_Source\PSoC5/ADC_DelSig_1.c ****         
1627:.\Generated_Source\PSoC5/ADC_DelSig_1.c ****                     /* Enable the REFBUF1 */
1628:.\Generated_Source\PSoC5/ADC_DelSig_1.c ****                     ADC_DelSig_1_DSM_REF0_REG |= ADC_DelSig_1_DSM_EN_BUF_VREF_INN;
1629:.\Generated_Source\PSoC5/ADC_DelSig_1.c ****                     
1630:.\Generated_Source\PSoC5/ADC_DelSig_1.c ****                     /* Wait for 3 microseconds */
1631:.\Generated_Source\PSoC5/ADC_DelSig_1.c ****                     CyDelayUs(3);
1632:.\Generated_Source\PSoC5/ADC_DelSig_1.c ****                     /* Enable the press circuit */
1633:.\Generated_Source\PSoC5/ADC_DelSig_1.c ****                     #if (CY_PSOC3 || CY_PSOC5LP)
1634:.\Generated_Source\PSoC5/ADC_DelSig_1.c ****                         ADC_DelSig_1_RESET_CR4_REG &= ~ADC_DelSig_1_IGNORE_PRESA1;
1635:.\Generated_Source\PSoC5/ADC_DelSig_1.c ****                         ADC_DelSig_1_RESET_CR5_REG &= ~ADC_DelSig_1_IGNORE_PRESA2;
1636:.\Generated_Source\PSoC5/ADC_DelSig_1.c ****                     #elif (CY_PSOC5A)
1637:.\Generated_Source\PSoC5/ADC_DelSig_1.c ****                         ADC_DelSig_1_RESET_CR1_REG &= ~ADC_DelSig_1_DIS_PRES1;
1638:.\Generated_Source\PSoC5/ADC_DelSig_1.c ****                         ADC_DelSig_1_RESET_CR3_REG &= ~ADC_DelSig_1_DIS_PRES2;
1639:.\Generated_Source\PSoC5/ADC_DelSig_1.c ****                     #endif /* CY_PSOC5A */
1640:.\Generated_Source\PSoC5/ADC_DelSig_1.c ****                 }
1641:.\Generated_Source\PSoC5/ADC_DelSig_1.c ****             #endif /* (CY_PSOC3 || CY_PSOC5LP) */
1642:.\Generated_Source\PSoC5/ADC_DelSig_1.c ****         
1643:.\Generated_Source\PSoC5/ADC_DelSig_1.c ****             /* Restart the ADC conversion */
1644:.\Generated_Source\PSoC5/ADC_DelSig_1.c ****             ADC_DelSig_1_StartConvert();
 3104              		.loc 1 1644 0
 3105 01f2 FFF7FEFF 		bl	ADC_DelSig_1_StartConvert
 3106              	.L107:
1645:.\Generated_Source\PSoC5/ADC_DelSig_1.c ****         }
1646:.\Generated_Source\PSoC5/ADC_DelSig_1.c ****     }
1647:.\Generated_Source\PSoC5/ADC_DelSig_1.c **** }     
 3107              		.loc 1 1647 0
 3108 01f6 07F11807 		add	r7, r7, #24
 3109 01fa BD46     		mov	sp, r7
 3110 01fc 80BD     		pop	{r7, pc}
 3111              		.cfi_endproc
 3112              	.LFE26:
 3113              		.size	ADC_DelSig_1_SelectConfiguration, .-ADC_DelSig_1_SelectConfiguration
 3114 01fe 00BF     		.section	.text.ADC_DelSig_1_GainCompensation,"ax",%progbits
 3115              		.align	2
 3116              		.global	ADC_DelSig_1_GainCompensation
 3117              		.thumb
 3118              		.thumb_func
 3119              		.type	ADC_DelSig_1_GainCompensation, %function
 3120              	ADC_DelSig_1_GainCompensation:
 3121              	.LFB27:
1648:.\Generated_Source\PSoC5/ADC_DelSig_1.c **** 
1649:.\Generated_Source\PSoC5/ADC_DelSig_1.c **** 
1650:.\Generated_Source\PSoC5/ADC_DelSig_1.c **** /*******************************************************************************
1651:.\Generated_Source\PSoC5/ADC_DelSig_1.c **** * Function Name: ADC_DelSig_1_GainCompensation(uint8, uint16, uint16, uint8)
1652:.\Generated_Source\PSoC5/ADC_DelSig_1.c **** ********************************************************************************
1653:.\Generated_Source\PSoC5/ADC_DelSig_1.c **** *
1654:.\Generated_Source\PSoC5/ADC_DelSig_1.c **** * Summary:
1655:.\Generated_Source\PSoC5/ADC_DelSig_1.c **** *  This API calculates the trim value and then loads this to GCOR register.
1656:.\Generated_Source\PSoC5/ADC_DelSig_1.c **** *
1657:.\Generated_Source\PSoC5/ADC_DelSig_1.c **** * Parameters:  
1658:.\Generated_Source\PSoC5/ADC_DelSig_1.c **** *  inputRange:  input range for which trim value is to be calculated.
1659:.\Generated_Source\PSoC5/ADC_DelSig_1.c **** *  IdealDecGain:  Ideal Decimator gain for the selected resolution and 
1660:.\Generated_Source\PSoC5/ADC_DelSig_1.c **** *                 conversion  mode.
1661:.\Generated_Source\PSoC5/ADC_DelSig_1.c **** *  IdealOddDecGain:  Ideal odd decimation gain for the selected resolution and 
1662:.\Generated_Source\PSoC5/ADC_DelSig_1.c ****                      conversion mode.
1663:.\Generated_Source\PSoC5/ADC_DelSig_1.c **** *  resolution:  Resolution to select the proper flash location for trim value.
ARM GAS  C:\Users\hoangp\AppData\Local\Temp\ccZOsuqR.s 			page 85


1664:.\Generated_Source\PSoC5/ADC_DelSig_1.c **** *
1665:.\Generated_Source\PSoC5/ADC_DelSig_1.c **** * Return: 
1666:.\Generated_Source\PSoC5/ADC_DelSig_1.c **** *  void
1667:.\Generated_Source\PSoC5/ADC_DelSig_1.c **** *
1668:.\Generated_Source\PSoC5/ADC_DelSig_1.c **** *******************************************************************************/
1669:.\Generated_Source\PSoC5/ADC_DelSig_1.c **** void ADC_DelSig_1_GainCompensation(uint8 inputRange, uint16 IdealDecGain, uint16 IdealOddDecGain,  
1670:.\Generated_Source\PSoC5/ADC_DelSig_1.c ****                                        uint8 resolution) 
1671:.\Generated_Source\PSoC5/ADC_DelSig_1.c **** {
 3122              		.loc 1 1671 0
 3123              		.cfi_startproc
 3124              		@ args = 0, pretend = 0, frame = 24
 3125              		@ frame_needed = 1, uses_anonymous_args = 0
 3126              		@ link register save eliminated.
 3127 0000 80B4     		push	{r7}
 3128              	.LCFI70:
 3129              		.cfi_def_cfa_offset 4
 3130 0002 87B0     		sub	sp, sp, #28
 3131              	.LCFI71:
 3132              		.cfi_def_cfa_offset 32
 3133 0004 00AF     		add	r7, sp, #0
 3134              		.cfi_offset 7, -4
 3135              	.LCFI72:
 3136              		.cfi_def_cfa_register 7
 3137 0006 F871     		strb	r0, [r7, #7]
 3138 0008 B980     		strh	r1, [r7, #4]	@ movhi
 3139 000a 7A80     		strh	r2, [r7, #2]	@ movhi
 3140 000c 7B70     		strb	r3, [r7, #1]
1672:.\Generated_Source\PSoC5/ADC_DelSig_1.c ****     int8 flash;
1673:.\Generated_Source\PSoC5/ADC_DelSig_1.c ****     int16 Normalised;
1674:.\Generated_Source\PSoC5/ADC_DelSig_1.c ****     uint16 GcorValue;
1675:.\Generated_Source\PSoC5/ADC_DelSig_1.c ****     uint32 GcorTmp;
1676:.\Generated_Source\PSoC5/ADC_DelSig_1.c ****     
1677:.\Generated_Source\PSoC5/ADC_DelSig_1.c ****     switch(inputRange)
 3141              		.loc 1 1677 0
 3142 000e FB79     		ldrb	r3, [r7, #7]	@ zero_extendqisi2
 3143 0010 A3F10403 		sub	r3, r3, #4
 3144 0014 062B     		cmp	r3, #6
 3145 0016 5DD8     		bhi	.L109
 3146 0018 01A2     		adr	r2, .L114
 3147 001a 52F823F0 		ldr	pc, [r2, r3, lsl #2]
 3148 001e 00BF     		.align	2
 3149              	.L114:
 3150 0020 3D000000 		.word	.L110+1
 3151 0024 D5000000 		.word	.L109+1
 3152 0028 D5000000 		.word	.L109+1
 3153 002c 63000000 		.word	.L111+1
 3154 0030 89000000 		.word	.L112+1
 3155 0034 D5000000 		.word	.L109+1
 3156 0038 AF000000 		.word	.L113+1
 3157              	.L110:
1678:.\Generated_Source\PSoC5/ADC_DelSig_1.c ****     {         
1679:.\Generated_Source\PSoC5/ADC_DelSig_1.c ****         case ADC_DelSig_1_IR_VNEG_VREF_DIFF:
1680:.\Generated_Source\PSoC5/ADC_DelSig_1.c ****         
1681:.\Generated_Source\PSoC5/ADC_DelSig_1.c ****         /* Normalize the flash Value */
1682:.\Generated_Source\PSoC5/ADC_DelSig_1.c ****         if(resolution > 15)
 3158              		.loc 1 1682 0
 3159 003c 7B78     		ldrb	r3, [r7, #1]	@ zero_extendqisi2
ARM GAS  C:\Users\hoangp\AppData\Local\Temp\ccZOsuqR.s 			page 86


 3160 003e 0F2B     		cmp	r3, #15
 3161 0040 07D9     		bls	.L115
1683:.\Generated_Source\PSoC5/ADC_DelSig_1.c ****         {
1684:.\Generated_Source\PSoC5/ADC_DelSig_1.c ****             flash = ADC_DelSig_1_DEC_TRIM_VREF_DIFF_16_20; 
 3162              		.loc 1 1684 0
 3163 0042 40F21413 		movw	r3, #:lower16:1224737044
 3164 0046 C4F60013 		movt	r3, #:upper16:1224737044
 3165 004a 1B78     		ldrb	r3, [r3, #0]
 3166 004c DBB2     		uxtb	r3, r3
 3167 004e FB73     		strb	r3, [r7, #15]
1685:.\Generated_Source\PSoC5/ADC_DelSig_1.c ****         }    
1686:.\Generated_Source\PSoC5/ADC_DelSig_1.c ****         else
1687:.\Generated_Source\PSoC5/ADC_DelSig_1.c ****         {
1688:.\Generated_Source\PSoC5/ADC_DelSig_1.c ****             flash = ADC_DelSig_1_DEC_TRIM_VREF_DIFF_8_15;
1689:.\Generated_Source\PSoC5/ADC_DelSig_1.c ****         }        
1690:.\Generated_Source\PSoC5/ADC_DelSig_1.c ****         break;
 3168              		.loc 1 1690 0
 3169 0050 43E0     		b	.L117
 3170              	.L115:
 3171              		.loc 1 1688 0
 3172 0052 40F21813 		movw	r3, #:lower16:1224737048
 3173 0056 C4F60013 		movt	r3, #:upper16:1224737048
 3174 005a 1B78     		ldrb	r3, [r3, #0]
 3175 005c DBB2     		uxtb	r3, r3
 3176 005e FB73     		strb	r3, [r7, #15]
 3177              		.loc 1 1690 0
 3178 0060 3BE0     		b	.L117
 3179              	.L111:
1691:.\Generated_Source\PSoC5/ADC_DelSig_1.c ****         
1692:.\Generated_Source\PSoC5/ADC_DelSig_1.c ****         case ADC_DelSig_1_IR_VNEG_VREF_2_DIFF:
1693:.\Generated_Source\PSoC5/ADC_DelSig_1.c ****         
1694:.\Generated_Source\PSoC5/ADC_DelSig_1.c ****         /* Normalize the flash Value */
1695:.\Generated_Source\PSoC5/ADC_DelSig_1.c ****         if(resolution > 15)
 3180              		.loc 1 1695 0
 3181 0062 7B78     		ldrb	r3, [r7, #1]	@ zero_extendqisi2
 3182 0064 0F2B     		cmp	r3, #15
 3183 0066 07D9     		bls	.L118
1696:.\Generated_Source\PSoC5/ADC_DelSig_1.c ****         {
1697:.\Generated_Source\PSoC5/ADC_DelSig_1.c ****             flash = ADC_DelSig_1_DEC_TRIM_VREF_2_DIFF_16_20;
 3184              		.loc 1 1697 0
 3185 0068 40F21513 		movw	r3, #:lower16:1224737045
 3186 006c C4F60013 		movt	r3, #:upper16:1224737045
 3187 0070 1B78     		ldrb	r3, [r3, #0]
 3188 0072 DBB2     		uxtb	r3, r3
 3189 0074 FB73     		strb	r3, [r7, #15]
1698:.\Generated_Source\PSoC5/ADC_DelSig_1.c ****         }    
1699:.\Generated_Source\PSoC5/ADC_DelSig_1.c ****         else
1700:.\Generated_Source\PSoC5/ADC_DelSig_1.c ****         {
1701:.\Generated_Source\PSoC5/ADC_DelSig_1.c ****             flash = ADC_DelSig_1_DEC_TRIM_VREF_2_DIFF_8_15;
1702:.\Generated_Source\PSoC5/ADC_DelSig_1.c ****         }    
1703:.\Generated_Source\PSoC5/ADC_DelSig_1.c ****         break;
 3190              		.loc 1 1703 0
 3191 0076 30E0     		b	.L117
 3192              	.L118:
 3193              		.loc 1 1701 0
 3194 0078 40F21913 		movw	r3, #:lower16:1224737049
 3195 007c C4F60013 		movt	r3, #:upper16:1224737049
ARM GAS  C:\Users\hoangp\AppData\Local\Temp\ccZOsuqR.s 			page 87


 3196 0080 1B78     		ldrb	r3, [r3, #0]
 3197 0082 DBB2     		uxtb	r3, r3
 3198 0084 FB73     		strb	r3, [r7, #15]
 3199              		.loc 1 1703 0
 3200 0086 28E0     		b	.L117
 3201              	.L112:
1704:.\Generated_Source\PSoC5/ADC_DelSig_1.c ****         
1705:.\Generated_Source\PSoC5/ADC_DelSig_1.c ****         case ADC_DelSig_1_IR_VNEG_VREF_4_DIFF:
1706:.\Generated_Source\PSoC5/ADC_DelSig_1.c ****         
1707:.\Generated_Source\PSoC5/ADC_DelSig_1.c ****         /* Normalize the flash Value */
1708:.\Generated_Source\PSoC5/ADC_DelSig_1.c ****         if(resolution > 15)
 3202              		.loc 1 1708 0
 3203 0088 7B78     		ldrb	r3, [r7, #1]	@ zero_extendqisi2
 3204 008a 0F2B     		cmp	r3, #15
 3205 008c 07D9     		bls	.L120
1709:.\Generated_Source\PSoC5/ADC_DelSig_1.c ****         {
1710:.\Generated_Source\PSoC5/ADC_DelSig_1.c ****             flash = ADC_DelSig_1_DEC_TRIM_VREF_4_DIFF_16_20;
 3206              		.loc 1 1710 0
 3207 008e 40F21613 		movw	r3, #:lower16:1224737046
 3208 0092 C4F60013 		movt	r3, #:upper16:1224737046
 3209 0096 1B78     		ldrb	r3, [r3, #0]
 3210 0098 DBB2     		uxtb	r3, r3
 3211 009a FB73     		strb	r3, [r7, #15]
1711:.\Generated_Source\PSoC5/ADC_DelSig_1.c ****         }    
1712:.\Generated_Source\PSoC5/ADC_DelSig_1.c ****         else
1713:.\Generated_Source\PSoC5/ADC_DelSig_1.c ****         {
1714:.\Generated_Source\PSoC5/ADC_DelSig_1.c ****             flash = ADC_DelSig_1_DEC_TRIM_VREF_4_DIFF_8_15;
1715:.\Generated_Source\PSoC5/ADC_DelSig_1.c ****         }    
1716:.\Generated_Source\PSoC5/ADC_DelSig_1.c ****         break;
 3212              		.loc 1 1716 0
 3213 009c 1DE0     		b	.L117
 3214              	.L120:
 3215              		.loc 1 1714 0
 3216 009e 40F21A13 		movw	r3, #:lower16:1224737050
 3217 00a2 C4F60013 		movt	r3, #:upper16:1224737050
 3218 00a6 1B78     		ldrb	r3, [r3, #0]
 3219 00a8 DBB2     		uxtb	r3, r3
 3220 00aa FB73     		strb	r3, [r7, #15]
 3221              		.loc 1 1716 0
 3222 00ac 15E0     		b	.L117
 3223              	.L113:
1717:.\Generated_Source\PSoC5/ADC_DelSig_1.c ****         
1718:.\Generated_Source\PSoC5/ADC_DelSig_1.c ****         case ADC_DelSig_1_IR_VNEG_VREF_16_DIFF:
1719:.\Generated_Source\PSoC5/ADC_DelSig_1.c ****         
1720:.\Generated_Source\PSoC5/ADC_DelSig_1.c ****         /* Normalize the flash Value */
1721:.\Generated_Source\PSoC5/ADC_DelSig_1.c ****         if(resolution > 15)
 3224              		.loc 1 1721 0
 3225 00ae 7B78     		ldrb	r3, [r7, #1]	@ zero_extendqisi2
 3226 00b0 0F2B     		cmp	r3, #15
 3227 00b2 07D9     		bls	.L122
1722:.\Generated_Source\PSoC5/ADC_DelSig_1.c ****         {
1723:.\Generated_Source\PSoC5/ADC_DelSig_1.c ****             flash = ADC_DelSig_1_DEC_TRIM_VREF_16_DIFF_16_20;
 3228              		.loc 1 1723 0
 3229 00b4 40F21713 		movw	r3, #:lower16:1224737047
 3230 00b8 C4F60013 		movt	r3, #:upper16:1224737047
 3231 00bc 1B78     		ldrb	r3, [r3, #0]
 3232 00be DBB2     		uxtb	r3, r3
ARM GAS  C:\Users\hoangp\AppData\Local\Temp\ccZOsuqR.s 			page 88


 3233 00c0 FB73     		strb	r3, [r7, #15]
1724:.\Generated_Source\PSoC5/ADC_DelSig_1.c ****         }    
1725:.\Generated_Source\PSoC5/ADC_DelSig_1.c ****         else
1726:.\Generated_Source\PSoC5/ADC_DelSig_1.c ****         {
1727:.\Generated_Source\PSoC5/ADC_DelSig_1.c ****             flash = ADC_DelSig_1_DEC_TRIM_VREF_16_DIFF_8_15;
1728:.\Generated_Source\PSoC5/ADC_DelSig_1.c ****         }    
1729:.\Generated_Source\PSoC5/ADC_DelSig_1.c ****         break;
 3234              		.loc 1 1729 0
 3235 00c2 0AE0     		b	.L117
 3236              	.L122:
 3237              		.loc 1 1727 0
 3238 00c4 40F21B13 		movw	r3, #:lower16:1224737051
 3239 00c8 C4F60013 		movt	r3, #:upper16:1224737051
 3240 00cc 1B78     		ldrb	r3, [r3, #0]
 3241 00ce DBB2     		uxtb	r3, r3
 3242 00d0 FB73     		strb	r3, [r7, #15]
 3243              		.loc 1 1729 0
 3244 00d2 02E0     		b	.L117
 3245              	.L109:
1730:.\Generated_Source\PSoC5/ADC_DelSig_1.c ****         
1731:.\Generated_Source\PSoC5/ADC_DelSig_1.c ****         default:
1732:.\Generated_Source\PSoC5/ADC_DelSig_1.c ****             flash = 0;
 3246              		.loc 1 1732 0
 3247 00d4 4FF00003 		mov	r3, #0
 3248 00d8 FB73     		strb	r3, [r7, #15]
 3249              	.L117:
1733:.\Generated_Source\PSoC5/ADC_DelSig_1.c ****         break;
1734:.\Generated_Source\PSoC5/ADC_DelSig_1.c ****     }    
1735:.\Generated_Source\PSoC5/ADC_DelSig_1.c ****     if(inputRange == ADC_DelSig_1_IR_VSSA_TO_VREF || inputRange == ADC_DelSig_1_IR_VSSA_TO_2VREF ||
 3250              		.loc 1 1735 0
 3251 00da FB79     		ldrb	r3, [r7, #7]	@ zero_extendqisi2
 3252 00dc 002B     		cmp	r3, #0
 3253 00de 11D0     		beq	.L124
 3254 00e0 FB79     		ldrb	r3, [r7, #7]	@ zero_extendqisi2
 3255 00e2 012B     		cmp	r3, #1
 3256 00e4 0ED0     		beq	.L124
 3257 00e6 FB79     		ldrb	r3, [r7, #7]	@ zero_extendqisi2
 3258 00e8 022B     		cmp	r3, #2
 3259 00ea 0BD0     		beq	.L124
 3260 00ec FB79     		ldrb	r3, [r7, #7]	@ zero_extendqisi2
 3261 00ee 032B     		cmp	r3, #3
 3262 00f0 08D0     		beq	.L124
 3263 00f2 FB79     		ldrb	r3, [r7, #7]	@ zero_extendqisi2
 3264 00f4 052B     		cmp	r3, #5
 3265 00f6 05D0     		beq	.L124
 3266 00f8 FB79     		ldrb	r3, [r7, #7]	@ zero_extendqisi2
 3267 00fa 062B     		cmp	r3, #6
 3268 00fc 02D0     		beq	.L124
 3269 00fe FB79     		ldrb	r3, [r7, #7]	@ zero_extendqisi2
 3270 0100 092B     		cmp	r3, #9
 3271 0102 03D1     		bne	.L125
 3272              	.L124:
1736:.\Generated_Source\PSoC5/ADC_DelSig_1.c ****        inputRange == ADC_DelSig_1_IR_VSSA_TO_VDDA || inputRange == ADC_DelSig_1_IR_VSSA_TO_6VREF ||
1737:.\Generated_Source\PSoC5/ADC_DelSig_1.c ****        inputRange == ADC_DelSig_1_IR_VNEG_2VREF_DIFF || inputRange == ADC_DelSig_1_IR_VNEG_6VREF_DI
1738:.\Generated_Source\PSoC5/ADC_DelSig_1.c ****        inputRange == ADC_DelSig_1_IR_VNEG_VREF_8_DIFF)
1739:.\Generated_Source\PSoC5/ADC_DelSig_1.c ****     {
1740:.\Generated_Source\PSoC5/ADC_DelSig_1.c ****         Normalised  = 0;
ARM GAS  C:\Users\hoangp\AppData\Local\Temp\ccZOsuqR.s 			page 89


 3273              		.loc 1 1740 0
 3274 0104 4FF00003 		mov	r3, #0
 3275 0108 3B82     		strh	r3, [r7, #16]	@ movhi
 3276              		.loc 1 1735 0
 3277 010a 06E0     		b	.L126
 3278              	.L125:
1741:.\Generated_Source\PSoC5/ADC_DelSig_1.c ****     }
1742:.\Generated_Source\PSoC5/ADC_DelSig_1.c ****     else
1743:.\Generated_Source\PSoC5/ADC_DelSig_1.c ****     {
1744:.\Generated_Source\PSoC5/ADC_DelSig_1.c ****         Normalised  = ((int16)flash) * 32;
 3279              		.loc 1 1744 0
 3280 010c 97F90F30 		ldrsb	r3, [r7, #15]
 3281 0110 9BB2     		uxth	r3, r3
 3282 0112 4FEA4313 		lsl	r3, r3, #5
 3283 0116 9BB2     		uxth	r3, r3
 3284 0118 3B82     		strh	r3, [r7, #16]	@ movhi
 3285              	.L126:
1745:.\Generated_Source\PSoC5/ADC_DelSig_1.c ****     }
1746:.\Generated_Source\PSoC5/ADC_DelSig_1.c ****                     
1747:.\Generated_Source\PSoC5/ADC_DelSig_1.c ****     /* Add two values */
1748:.\Generated_Source\PSoC5/ADC_DelSig_1.c ****     GcorValue = IdealDecGain + Normalised;  
 3286              		.loc 1 1748 0
 3287 011a 3A8A     		ldrh	r2, [r7, #16]
 3288 011c BB88     		ldrh	r3, [r7, #4]	@ movhi
 3289 011e 1344     		add	r3, r2, r3
 3290 0120 7B82     		strh	r3, [r7, #18]	@ movhi
1749:.\Generated_Source\PSoC5/ADC_DelSig_1.c ****     GcorTmp = (uint32)GcorValue * (uint32)IdealOddDecGain;
 3291              		.loc 1 1749 0
 3292 0122 7B8A     		ldrh	r3, [r7, #18]
 3293 0124 7A88     		ldrh	r2, [r7, #2]
 3294 0126 02FB03F3 		mul	r3, r2, r3
 3295 012a 7B61     		str	r3, [r7, #20]
1750:.\Generated_Source\PSoC5/ADC_DelSig_1.c ****     GcorValue = (uint16)(GcorTmp / ADC_DelSig_1_IDEAL_GAIN_CONST);
 3296              		.loc 1 1750 0
 3297 012c 7B69     		ldr	r3, [r7, #20]
 3298 012e 4FEAD333 		lsr	r3, r3, #15
 3299 0132 7B82     		strh	r3, [r7, #18]	@ movhi
1751:.\Generated_Source\PSoC5/ADC_DelSig_1.c ****         
1752:.\Generated_Source\PSoC5/ADC_DelSig_1.c ****     if (resolution < 14)
 3300              		.loc 1 1752 0
 3301 0134 7B78     		ldrb	r3, [r7, #1]	@ zero_extendqisi2
 3302 0136 0D2B     		cmp	r3, #13
 3303 0138 12D8     		bhi	.L127
1753:.\Generated_Source\PSoC5/ADC_DelSig_1.c ****     {
1754:.\Generated_Source\PSoC5/ADC_DelSig_1.c ****         GcorValue = (GcorValue >> (15 - (resolution + 1)));
 3304              		.loc 1 1754 0
 3305 013a 7A8A     		ldrh	r2, [r7, #18]
 3306 013c 7B78     		ldrb	r3, [r7, #1]	@ zero_extendqisi2
 3307 013e 6FEA0303 		mvn	r3, r3
 3308 0142 03F10F03 		add	r3, r3, #15
 3309 0146 42FA03F3 		asr	r3, r2, r3
 3310 014a 7B82     		strh	r3, [r7, #18]	@ movhi
1755:.\Generated_Source\PSoC5/ADC_DelSig_1.c ****         ADC_DelSig_1_DEC_GVAL_REG = (resolution + 1);
 3311              		.loc 1 1755 0
 3312 014c 44F60E63 		movw	r3, #:lower16:1073761806
 3313 0150 C4F20003 		movt	r3, #:upper16:1073761806
 3314 0154 7A78     		ldrb	r2, [r7, #1]
ARM GAS  C:\Users\hoangp\AppData\Local\Temp\ccZOsuqR.s 			page 90


 3315 0156 02F10102 		add	r2, r2, #1
 3316 015a D2B2     		uxtb	r2, r2
 3317 015c 1A70     		strb	r2, [r3, #0]
 3318 015e 06E0     		b	.L128
 3319              	.L127:
1756:.\Generated_Source\PSoC5/ADC_DelSig_1.c ****     }
1757:.\Generated_Source\PSoC5/ADC_DelSig_1.c ****     else
1758:.\Generated_Source\PSoC5/ADC_DelSig_1.c ****     {
1759:.\Generated_Source\PSoC5/ADC_DelSig_1.c ****         /* Use all 16 bits */
1760:.\Generated_Source\PSoC5/ADC_DelSig_1.c ****         ADC_DelSig_1_DEC_GVAL_REG = 15u;  
 3320              		.loc 1 1760 0
 3321 0160 44F60E63 		movw	r3, #:lower16:1073761806
 3322 0164 C4F20003 		movt	r3, #:upper16:1073761806
 3323 0168 4FF00F02 		mov	r2, #15
 3324 016c 1A70     		strb	r2, [r3, #0]
 3325              	.L128:
1761:.\Generated_Source\PSoC5/ADC_DelSig_1.c ****     }
1762:.\Generated_Source\PSoC5/ADC_DelSig_1.c ****       
1763:.\Generated_Source\PSoC5/ADC_DelSig_1.c ****     /* Load the gain correction register */    
1764:.\Generated_Source\PSoC5/ADC_DelSig_1.c ****     ADC_DelSig_1_DEC_GCOR_REG  = (uint8)GcorValue;
 3326              		.loc 1 1764 0
 3327 016e 44F60C63 		movw	r3, #:lower16:1073761804
 3328 0172 C4F20003 		movt	r3, #:upper16:1073761804
 3329 0176 7A8A     		ldrh	r2, [r7, #18]	@ movhi
 3330 0178 D2B2     		uxtb	r2, r2
 3331 017a 1A70     		strb	r2, [r3, #0]
1765:.\Generated_Source\PSoC5/ADC_DelSig_1.c ****     ADC_DelSig_1_DEC_GCORH_REG = (uint8)(GcorValue >> 8);    
 3332              		.loc 1 1765 0
 3333 017c 44F60D63 		movw	r3, #:lower16:1073761805
 3334 0180 C4F20003 		movt	r3, #:upper16:1073761805
 3335 0184 7A8A     		ldrh	r2, [r7, #18]
 3336 0186 4FEA1222 		lsr	r2, r2, #8
 3337 018a 92B2     		uxth	r2, r2
 3338 018c D2B2     		uxtb	r2, r2
 3339 018e 1A70     		strb	r2, [r3, #0]
1766:.\Generated_Source\PSoC5/ADC_DelSig_1.c ****     
1767:.\Generated_Source\PSoC5/ADC_DelSig_1.c ****     /* Workaround for 0 to 2*Vref mode with PSoC5A siliocn */
1768:.\Generated_Source\PSoC5/ADC_DelSig_1.c ****     #if( CY_PSOC5A) 
1769:.\Generated_Source\PSoC5/ADC_DelSig_1.c ****         if( inputRange == ADC_DelSig_1_IR_VSSA_TO_2VREF)
 3340              		.loc 1 1769 0
 3341 0190 FB79     		ldrb	r3, [r7, #7]	@ zero_extendqisi2
 3342 0192 012B     		cmp	r3, #1
 3343 0194 14D1     		bne	.L130
1770:.\Generated_Source\PSoC5/ADC_DelSig_1.c ****         {
1771:.\Generated_Source\PSoC5/ADC_DelSig_1.c ****             ADC_DelSig_1_DEC_GCOR_REG = 0x00u;
 3344              		.loc 1 1771 0
 3345 0196 44F60C63 		movw	r3, #:lower16:1073761804
 3346 019a C4F20003 		movt	r3, #:upper16:1073761804
 3347 019e 4FF00002 		mov	r2, #0
 3348 01a2 1A70     		strb	r2, [r3, #0]
1772:.\Generated_Source\PSoC5/ADC_DelSig_1.c ****             ADC_DelSig_1_DEC_GCORH_REG = 0x00u;
 3349              		.loc 1 1772 0
 3350 01a4 44F60D63 		movw	r3, #:lower16:1073761805
 3351 01a8 C4F20003 		movt	r3, #:upper16:1073761805
 3352 01ac 4FF00002 		mov	r2, #0
 3353 01b0 1A70     		strb	r2, [r3, #0]
1773:.\Generated_Source\PSoC5/ADC_DelSig_1.c ****             ADC_DelSig_1_DEC_GVAL_REG = 0x00u;
ARM GAS  C:\Users\hoangp\AppData\Local\Temp\ccZOsuqR.s 			page 91


 3354              		.loc 1 1773 0
 3355 01b2 44F60E63 		movw	r3, #:lower16:1073761806
 3356 01b6 C4F20003 		movt	r3, #:upper16:1073761806
 3357 01ba 4FF00002 		mov	r2, #0
 3358 01be 1A70     		strb	r2, [r3, #0]
 3359              	.L130:
1774:.\Generated_Source\PSoC5/ADC_DelSig_1.c ****         }
1775:.\Generated_Source\PSoC5/ADC_DelSig_1.c ****     #endif /* CY_PSOC5A */
1776:.\Generated_Source\PSoC5/ADC_DelSig_1.c **** }
 3360              		.loc 1 1776 0
 3361 01c0 07F11C07 		add	r7, r7, #28
 3362 01c4 BD46     		mov	sp, r7
 3363 01c6 80BC     		pop	{r7}
 3364 01c8 7047     		bx	lr
 3365              		.cfi_endproc
 3366              	.LFE27:
 3367              		.size	ADC_DelSig_1_GainCompensation, .-ADC_DelSig_1_GainCompensation
 3368 01ca 00BF     		.section	.text.ADC_DelSig_1_SetDSMRef0Reg,"ax",%progbits
 3369              		.align	2
 3370              		.global	ADC_DelSig_1_SetDSMRef0Reg
 3371              		.thumb
 3372              		.thumb_func
 3373              		.type	ADC_DelSig_1_SetDSMRef0Reg, %function
 3374              	ADC_DelSig_1_SetDSMRef0Reg:
 3375              	.LFB28:
1777:.\Generated_Source\PSoC5/ADC_DelSig_1.c **** 
1778:.\Generated_Source\PSoC5/ADC_DelSig_1.c **** 
1779:.\Generated_Source\PSoC5/ADC_DelSig_1.c **** /******************************************************************************
1780:.\Generated_Source\PSoC5/ADC_DelSig_1.c **** * Function Name: ADC_DelSig_1_SetDSMRef0Reg(uint8)
1781:.\Generated_Source\PSoC5/ADC_DelSig_1.c **** ******************************************************************************
1782:.\Generated_Source\PSoC5/ADC_DelSig_1.c **** *
1783:.\Generated_Source\PSoC5/ADC_DelSig_1.c **** * Summary:
1784:.\Generated_Source\PSoC5/ADC_DelSig_1.c **** *  This API sets the DSM_REF0 register. This is written for internal use.
1785:.\Generated_Source\PSoC5/ADC_DelSig_1.c **** *
1786:.\Generated_Source\PSoC5/ADC_DelSig_1.c **** * Parameters:  
1787:.\Generated_Source\PSoC5/ADC_DelSig_1.c **** *  value:  Value to be written to DSM_REF0 register.
1788:.\Generated_Source\PSoC5/ADC_DelSig_1.c **** *
1789:.\Generated_Source\PSoC5/ADC_DelSig_1.c **** * Return: 
1790:.\Generated_Source\PSoC5/ADC_DelSig_1.c **** *  void
1791:.\Generated_Source\PSoC5/ADC_DelSig_1.c **** *
1792:.\Generated_Source\PSoC5/ADC_DelSig_1.c **** ******************************************************************************/
1793:.\Generated_Source\PSoC5/ADC_DelSig_1.c **** void ADC_DelSig_1_SetDSMRef0Reg(uint8 value) 
1794:.\Generated_Source\PSoC5/ADC_DelSig_1.c **** {
 3376              		.loc 1 1794 0
 3377              		.cfi_startproc
 3378              		@ args = 0, pretend = 0, frame = 8
 3379              		@ frame_needed = 1, uses_anonymous_args = 0
 3380 0000 80B5     		push	{r7, lr}
 3381              	.LCFI73:
 3382              		.cfi_def_cfa_offset 8
 3383 0002 82B0     		sub	sp, sp, #8
 3384              	.LCFI74:
 3385              		.cfi_def_cfa_offset 16
 3386 0004 00AF     		add	r7, sp, #0
 3387              		.cfi_offset 14, -4
 3388              		.cfi_offset 7, -8
 3389              	.LCFI75:
ARM GAS  C:\Users\hoangp\AppData\Local\Temp\ccZOsuqR.s 			page 92


 3390              		.cfi_def_cfa_register 7
 3391 0006 0346     		mov	r3, r0
 3392 0008 FB71     		strb	r3, [r7, #7]
1795:.\Generated_Source\PSoC5/ADC_DelSig_1.c ****     /* Disable PRES, Enable power to VCMBUF0, REFBUF0 and REFBUF1, enable 
1796:.\Generated_Source\PSoC5/ADC_DelSig_1.c ****        PRES */
1797:.\Generated_Source\PSoC5/ADC_DelSig_1.c ****     #if (CY_PSOC3 || CY_PSOC5LP)
1798:.\Generated_Source\PSoC5/ADC_DelSig_1.c ****         ADC_DelSig_1_RESET_CR4_REG |= (ADC_DelSig_1_IGNORE_PRESA1 | ADC_DelSig_1_IGNORE_PRESD1);
1799:.\Generated_Source\PSoC5/ADC_DelSig_1.c ****         ADC_DelSig_1_RESET_CR5_REG |= (ADC_DelSig_1_IGNORE_PRESA2 | ADC_DelSig_1_IGNORE_PRESD2);
1800:.\Generated_Source\PSoC5/ADC_DelSig_1.c ****     #elif (CY_PSOC5A)
1801:.\Generated_Source\PSoC5/ADC_DelSig_1.c ****         ADC_DelSig_1_RESET_CR1_REG |= ADC_DelSig_1_DIS_PRES1;
 3393              		.loc 1 1801 0
 3394 000a 44F2F563 		movw	r3, #:lower16:1073759989
 3395 000e C4F20003 		movt	r3, #:upper16:1073759989
 3396 0012 44F2F562 		movw	r2, #:lower16:1073759989
 3397 0016 C4F20002 		movt	r2, #:upper16:1073759989
 3398 001a 1278     		ldrb	r2, [r2, #0]
 3399 001c D2B2     		uxtb	r2, r2
 3400 001e 42F01002 		orr	r2, r2, #16
 3401 0022 D2B2     		uxtb	r2, r2
 3402 0024 1A70     		strb	r2, [r3, #0]
1802:.\Generated_Source\PSoC5/ADC_DelSig_1.c ****         ADC_DelSig_1_RESET_CR3_REG |= ADC_DelSig_1_DIS_PRES2;
 3403              		.loc 1 1802 0
 3404 0026 44F2F763 		movw	r3, #:lower16:1073759991
 3405 002a C4F20003 		movt	r3, #:upper16:1073759991
 3406 002e 44F2F762 		movw	r2, #:lower16:1073759991
 3407 0032 C4F20002 		movt	r2, #:upper16:1073759991
 3408 0036 1278     		ldrb	r2, [r2, #0]
 3409 0038 D2B2     		uxtb	r2, r2
 3410 003a 42F00802 		orr	r2, r2, #8
 3411 003e D2B2     		uxtb	r2, r2
 3412 0040 1A70     		strb	r2, [r3, #0]
1803:.\Generated_Source\PSoC5/ADC_DelSig_1.c ****     #endif /* CY_PSOC5A */
1804:.\Generated_Source\PSoC5/ADC_DelSig_1.c ****         ADC_DelSig_1_DSM_REF0_REG = value;   
 3413              		.loc 1 1804 0
 3414 0042 45F69203 		movw	r3, #:lower16:1073764498
 3415 0046 C4F20003 		movt	r3, #:upper16:1073764498
 3416 004a FA79     		ldrb	r2, [r7, #7]
 3417 004c 1A70     		strb	r2, [r3, #0]
1805:.\Generated_Source\PSoC5/ADC_DelSig_1.c **** 		
1806:.\Generated_Source\PSoC5/ADC_DelSig_1.c **** 	/* Wait for 3 microseconds */
1807:.\Generated_Source\PSoC5/ADC_DelSig_1.c ****     CyDelayUs(3);
 3418              		.loc 1 1807 0
 3419 004e 4FF00300 		mov	r0, #3
 3420 0052 FFF7FEFF 		bl	CyDelayUs
1808:.\Generated_Source\PSoC5/ADC_DelSig_1.c ****     /* Enable the press circuit */
1809:.\Generated_Source\PSoC5/ADC_DelSig_1.c ****     #if (CY_PSOC3 || CY_PSOC5LP)
1810:.\Generated_Source\PSoC5/ADC_DelSig_1.c ****         ADC_DelSig_1_RESET_CR4_REG &= ~(ADC_DelSig_1_IGNORE_PRESA1 | ADC_DelSig_1_IGNORE_PRESD1);
1811:.\Generated_Source\PSoC5/ADC_DelSig_1.c ****         ADC_DelSig_1_RESET_CR5_REG &= ~(ADC_DelSig_1_IGNORE_PRESA2 | ADC_DelSig_1_IGNORE_PRESD2);
1812:.\Generated_Source\PSoC5/ADC_DelSig_1.c ****     #elif (CY_PSOC5A)
1813:.\Generated_Source\PSoC5/ADC_DelSig_1.c ****         ADC_DelSig_1_RESET_CR1_REG &= ~ADC_DelSig_1_DIS_PRES1;
 3421              		.loc 1 1813 0
 3422 0056 44F2F563 		movw	r3, #:lower16:1073759989
 3423 005a C4F20003 		movt	r3, #:upper16:1073759989
 3424 005e 44F2F562 		movw	r2, #:lower16:1073759989
 3425 0062 C4F20002 		movt	r2, #:upper16:1073759989
 3426 0066 1278     		ldrb	r2, [r2, #0]
 3427 0068 D2B2     		uxtb	r2, r2
ARM GAS  C:\Users\hoangp\AppData\Local\Temp\ccZOsuqR.s 			page 93


 3428 006a 02F0EF02 		and	r2, r2, #239
 3429 006e 1A70     		strb	r2, [r3, #0]
1814:.\Generated_Source\PSoC5/ADC_DelSig_1.c ****         ADC_DelSig_1_RESET_CR3_REG &= ~ADC_DelSig_1_DIS_PRES2;
 3430              		.loc 1 1814 0
 3431 0070 44F2F763 		movw	r3, #:lower16:1073759991
 3432 0074 C4F20003 		movt	r3, #:upper16:1073759991
 3433 0078 44F2F762 		movw	r2, #:lower16:1073759991
 3434 007c C4F20002 		movt	r2, #:upper16:1073759991
 3435 0080 1278     		ldrb	r2, [r2, #0]
 3436 0082 D2B2     		uxtb	r2, r2
 3437 0084 02F0F702 		and	r2, r2, #247
 3438 0088 1A70     		strb	r2, [r3, #0]
1815:.\Generated_Source\PSoC5/ADC_DelSig_1.c ****     #endif /* CY_PSOC5A */
1816:.\Generated_Source\PSoC5/ADC_DelSig_1.c **** }
 3439              		.loc 1 1816 0
 3440 008a 07F10807 		add	r7, r7, #8
 3441 008e BD46     		mov	sp, r7
 3442 0090 80BD     		pop	{r7, pc}
 3443              		.cfi_endproc
 3444              	.LFE28:
 3445              		.size	ADC_DelSig_1_SetDSMRef0Reg, .-ADC_DelSig_1_SetDSMRef0Reg
 3446 0092 00BF     		.text
 3447              	.Letext0:
 3448              		.section	.debug_loc,"",%progbits
 3449              	.Ldebug_loc0:
 3450              	.LLST0:
 3451 0000 00000000 		.4byte	.LFB0
 3452 0004 02000000 		.4byte	.LCFI0
 3453 0008 0100     		.2byte	0x1
 3454 000a 5D       		.byte	0x5d
 3455 000b 02000000 		.4byte	.LCFI0
 3456 000f 04000000 		.4byte	.LCFI1
 3457 0013 0200     		.2byte	0x2
 3458 0015 7D       		.byte	0x7d
 3459 0016 08       		.sleb128 8
 3460 0017 04000000 		.4byte	.LCFI1
 3461 001b 32000000 		.4byte	.LFE0
 3462 001f 0200     		.2byte	0x2
 3463 0021 77       		.byte	0x77
 3464 0022 08       		.sleb128 8
 3465 0023 00000000 		.4byte	0x0
 3466 0027 00000000 		.4byte	0x0
 3467              	.LLST1:
 3468 002b 00000000 		.4byte	.LFB1
 3469 002f 02000000 		.4byte	.LCFI2
 3470 0033 0100     		.2byte	0x1
 3471 0035 5D       		.byte	0x5d
 3472 0036 02000000 		.4byte	.LCFI2
 3473 003a 04000000 		.4byte	.LCFI3
 3474 003e 0200     		.2byte	0x2
 3475 0040 7D       		.byte	0x7d
 3476 0041 08       		.sleb128 8
 3477 0042 04000000 		.4byte	.LCFI3
 3478 0046 C2010000 		.4byte	.LFE1
 3479 004a 0200     		.2byte	0x2
 3480 004c 77       		.byte	0x77
 3481 004d 08       		.sleb128 8
ARM GAS  C:\Users\hoangp\AppData\Local\Temp\ccZOsuqR.s 			page 94


 3482 004e 00000000 		.4byte	0x0
 3483 0052 00000000 		.4byte	0x0
 3484              	.LLST2:
 3485 0056 00000000 		.4byte	.LFB2
 3486 005a 02000000 		.4byte	.LCFI4
 3487 005e 0100     		.2byte	0x1
 3488 0060 5D       		.byte	0x5d
 3489 0061 02000000 		.4byte	.LCFI4
 3490 0065 04000000 		.4byte	.LCFI5
 3491 0069 0200     		.2byte	0x2
 3492 006b 7D       		.byte	0x7d
 3493 006c 04       		.sleb128 4
 3494 006d 04000000 		.4byte	.LCFI5
 3495 0071 AA000000 		.4byte	.LFE2
 3496 0075 0200     		.2byte	0x2
 3497 0077 77       		.byte	0x77
 3498 0078 04       		.sleb128 4
 3499 0079 00000000 		.4byte	0x0
 3500 007d 00000000 		.4byte	0x0
 3501              	.LLST3:
 3502 0081 00000000 		.4byte	.LFB3
 3503 0085 02000000 		.4byte	.LCFI6
 3504 0089 0100     		.2byte	0x1
 3505 008b 5D       		.byte	0x5d
 3506 008c 02000000 		.4byte	.LCFI6
 3507 0090 04000000 		.4byte	.LCFI7
 3508 0094 0200     		.2byte	0x2
 3509 0096 7D       		.byte	0x7d
 3510 0097 04       		.sleb128 4
 3511 0098 04000000 		.4byte	.LCFI7
 3512 009c BA000000 		.4byte	.LFE3
 3513 00a0 0200     		.2byte	0x2
 3514 00a2 77       		.byte	0x77
 3515 00a3 04       		.sleb128 4
 3516 00a4 00000000 		.4byte	0x0
 3517 00a8 00000000 		.4byte	0x0
 3518              	.LLST4:
 3519 00ac 00000000 		.4byte	.LFB4
 3520 00b0 02000000 		.4byte	.LCFI8
 3521 00b4 0100     		.2byte	0x1
 3522 00b6 5D       		.byte	0x5d
 3523 00b7 02000000 		.4byte	.LCFI8
 3524 00bb 04000000 		.4byte	.LCFI9
 3525 00bf 0200     		.2byte	0x2
 3526 00c1 7D       		.byte	0x7d
 3527 00c2 04       		.sleb128 4
 3528 00c3 04000000 		.4byte	.LCFI9
 3529 00c7 36010000 		.4byte	.LFE4
 3530 00cb 0200     		.2byte	0x2
 3531 00cd 77       		.byte	0x77
 3532 00ce 04       		.sleb128 4
 3533 00cf 00000000 		.4byte	0x0
 3534 00d3 00000000 		.4byte	0x0
 3535              	.LLST5:
 3536 00d7 00000000 		.4byte	.LFB5
 3537 00db 02000000 		.4byte	.LCFI10
 3538 00df 0100     		.2byte	0x1
ARM GAS  C:\Users\hoangp\AppData\Local\Temp\ccZOsuqR.s 			page 95


 3539 00e1 5D       		.byte	0x5d
 3540 00e2 02000000 		.4byte	.LCFI10
 3541 00e6 04000000 		.4byte	.LCFI11
 3542 00ea 0200     		.2byte	0x2
 3543 00ec 7D       		.byte	0x7d
 3544 00ed 08       		.sleb128 8
 3545 00ee 04000000 		.4byte	.LCFI11
 3546 00f2 3A000000 		.4byte	.LFE5
 3547 00f6 0200     		.2byte	0x2
 3548 00f8 77       		.byte	0x77
 3549 00f9 08       		.sleb128 8
 3550 00fa 00000000 		.4byte	0x0
 3551 00fe 00000000 		.4byte	0x0
 3552              	.LLST6:
 3553 0102 00000000 		.4byte	.LFB6
 3554 0106 02000000 		.4byte	.LCFI12
 3555 010a 0100     		.2byte	0x1
 3556 010c 5D       		.byte	0x5d
 3557 010d 02000000 		.4byte	.LCFI12
 3558 0111 04000000 		.4byte	.LCFI13
 3559 0115 0200     		.2byte	0x2
 3560 0117 7D       		.byte	0x7d
 3561 0118 08       		.sleb128 8
 3562 0119 04000000 		.4byte	.LCFI13
 3563 011d B0010000 		.4byte	.LFE6
 3564 0121 0200     		.2byte	0x2
 3565 0123 77       		.byte	0x77
 3566 0124 08       		.sleb128 8
 3567 0125 00000000 		.4byte	0x0
 3568 0129 00000000 		.4byte	0x0
 3569              	.LLST7:
 3570 012d 00000000 		.4byte	.LFB7
 3571 0131 02000000 		.4byte	.LCFI14
 3572 0135 0100     		.2byte	0x1
 3573 0137 5D       		.byte	0x5d
 3574 0138 02000000 		.4byte	.LCFI14
 3575 013c 04000000 		.4byte	.LCFI15
 3576 0140 0200     		.2byte	0x2
 3577 0142 7D       		.byte	0x7d
 3578 0143 04       		.sleb128 4
 3579 0144 04000000 		.4byte	.LCFI15
 3580 0148 06000000 		.4byte	.LCFI16
 3581 014c 0200     		.2byte	0x2
 3582 014e 7D       		.byte	0x7d
 3583 014f 18       		.sleb128 24
 3584 0150 06000000 		.4byte	.LCFI16
 3585 0154 44000000 		.4byte	.LFE7
 3586 0158 0200     		.2byte	0x2
 3587 015a 77       		.byte	0x77
 3588 015b 18       		.sleb128 24
 3589 015c 00000000 		.4byte	0x0
 3590 0160 00000000 		.4byte	0x0
 3591              	.LLST8:
 3592 0164 00000000 		.4byte	.LFB8
 3593 0168 02000000 		.4byte	.LCFI17
 3594 016c 0100     		.2byte	0x1
 3595 016e 5D       		.byte	0x5d
ARM GAS  C:\Users\hoangp\AppData\Local\Temp\ccZOsuqR.s 			page 96


 3596 016f 02000000 		.4byte	.LCFI17
 3597 0173 04000000 		.4byte	.LCFI18
 3598 0177 0200     		.2byte	0x2
 3599 0179 7D       		.byte	0x7d
 3600 017a 04       		.sleb128 4
 3601 017b 04000000 		.4byte	.LCFI18
 3602 017f 06000000 		.4byte	.LCFI19
 3603 0183 0200     		.2byte	0x2
 3604 0185 7D       		.byte	0x7d
 3605 0186 18       		.sleb128 24
 3606 0187 06000000 		.4byte	.LCFI19
 3607 018b 3C000000 		.4byte	.LFE8
 3608 018f 0200     		.2byte	0x2
 3609 0191 77       		.byte	0x77
 3610 0192 18       		.sleb128 24
 3611 0193 00000000 		.4byte	0x0
 3612 0197 00000000 		.4byte	0x0
 3613              	.LLST9:
 3614 019b 00000000 		.4byte	.LFB9
 3615 019f 02000000 		.4byte	.LCFI20
 3616 01a3 0100     		.2byte	0x1
 3617 01a5 5D       		.byte	0x5d
 3618 01a6 02000000 		.4byte	.LCFI20
 3619 01aa 04000000 		.4byte	.LCFI21
 3620 01ae 0200     		.2byte	0x2
 3621 01b0 7D       		.byte	0x7d
 3622 01b1 0C       		.sleb128 12
 3623 01b2 04000000 		.4byte	.LCFI21
 3624 01b6 06000000 		.4byte	.LCFI22
 3625 01ba 0200     		.2byte	0x2
 3626 01bc 7D       		.byte	0x7d
 3627 01bd 20       		.sleb128 32
 3628 01be 06000000 		.4byte	.LCFI22
 3629 01c2 E4000000 		.4byte	.LFE9
 3630 01c6 0200     		.2byte	0x2
 3631 01c8 77       		.byte	0x77
 3632 01c9 20       		.sleb128 32
 3633 01ca 00000000 		.4byte	0x0
 3634 01ce 00000000 		.4byte	0x0
 3635              	.LLST10:
 3636 01d2 00000000 		.4byte	.LFB10
 3637 01d6 02000000 		.4byte	.LCFI23
 3638 01da 0100     		.2byte	0x1
 3639 01dc 5D       		.byte	0x5d
 3640 01dd 02000000 		.4byte	.LCFI23
 3641 01e1 04000000 		.4byte	.LCFI24
 3642 01e5 0200     		.2byte	0x2
 3643 01e7 7D       		.byte	0x7d
 3644 01e8 04       		.sleb128 4
 3645 01e9 04000000 		.4byte	.LCFI24
 3646 01ed 06000000 		.4byte	.LCFI25
 3647 01f1 0200     		.2byte	0x2
 3648 01f3 7D       		.byte	0x7d
 3649 01f4 10       		.sleb128 16
 3650 01f5 06000000 		.4byte	.LCFI25
 3651 01f9 BA000000 		.4byte	.LFE10
 3652 01fd 0200     		.2byte	0x2
ARM GAS  C:\Users\hoangp\AppData\Local\Temp\ccZOsuqR.s 			page 97


 3653 01ff 77       		.byte	0x77
 3654 0200 10       		.sleb128 16
 3655 0201 00000000 		.4byte	0x0
 3656 0205 00000000 		.4byte	0x0
 3657              	.LLST11:
 3658 0209 00000000 		.4byte	.LFB11
 3659 020d 02000000 		.4byte	.LCFI26
 3660 0211 0100     		.2byte	0x1
 3661 0213 5D       		.byte	0x5d
 3662 0214 02000000 		.4byte	.LCFI26
 3663 0218 04000000 		.4byte	.LCFI27
 3664 021c 0200     		.2byte	0x2
 3665 021e 7D       		.byte	0x7d
 3666 021f 04       		.sleb128 4
 3667 0220 04000000 		.4byte	.LCFI27
 3668 0224 06000000 		.4byte	.LCFI28
 3669 0228 0200     		.2byte	0x2
 3670 022a 7D       		.byte	0x7d
 3671 022b 10       		.sleb128 16
 3672 022c 06000000 		.4byte	.LCFI28
 3673 0230 44000000 		.4byte	.LFE11
 3674 0234 0200     		.2byte	0x2
 3675 0236 77       		.byte	0x77
 3676 0237 10       		.sleb128 16
 3677 0238 00000000 		.4byte	0x0
 3678 023c 00000000 		.4byte	0x0
 3679              	.LLST12:
 3680 0240 00000000 		.4byte	.LFB12
 3681 0244 02000000 		.4byte	.LCFI29
 3682 0248 0100     		.2byte	0x1
 3683 024a 5D       		.byte	0x5d
 3684 024b 02000000 		.4byte	.LCFI29
 3685 024f 04000000 		.4byte	.LCFI30
 3686 0253 0200     		.2byte	0x2
 3687 0255 7D       		.byte	0x7d
 3688 0256 04       		.sleb128 4
 3689 0257 04000000 		.4byte	.LCFI30
 3690 025b 26000000 		.4byte	.LFE12
 3691 025f 0200     		.2byte	0x2
 3692 0261 77       		.byte	0x77
 3693 0262 04       		.sleb128 4
 3694 0263 00000000 		.4byte	0x0
 3695 0267 00000000 		.4byte	0x0
 3696              	.LLST13:
 3697 026b 00000000 		.4byte	.LFB13
 3698 026f 02000000 		.4byte	.LCFI31
 3699 0273 0100     		.2byte	0x1
 3700 0275 5D       		.byte	0x5d
 3701 0276 02000000 		.4byte	.LCFI31
 3702 027a 04000000 		.4byte	.LCFI32
 3703 027e 0200     		.2byte	0x2
 3704 0280 7D       		.byte	0x7d
 3705 0281 04       		.sleb128 4
 3706 0282 04000000 		.4byte	.LCFI32
 3707 0286 32000000 		.4byte	.LFE13
 3708 028a 0200     		.2byte	0x2
 3709 028c 77       		.byte	0x77
ARM GAS  C:\Users\hoangp\AppData\Local\Temp\ccZOsuqR.s 			page 98


 3710 028d 04       		.sleb128 4
 3711 028e 00000000 		.4byte	0x0
 3712 0292 00000000 		.4byte	0x0
 3713              	.LLST14:
 3714 0296 00000000 		.4byte	.LFB14
 3715 029a 02000000 		.4byte	.LCFI33
 3716 029e 0100     		.2byte	0x1
 3717 02a0 5D       		.byte	0x5d
 3718 02a1 02000000 		.4byte	.LCFI33
 3719 02a5 04000000 		.4byte	.LCFI34
 3720 02a9 0200     		.2byte	0x2
 3721 02ab 7D       		.byte	0x7d
 3722 02ac 04       		.sleb128 4
 3723 02ad 04000000 		.4byte	.LCFI34
 3724 02b1 06000000 		.4byte	.LCFI35
 3725 02b5 0200     		.2byte	0x2
 3726 02b7 7D       		.byte	0x7d
 3727 02b8 18       		.sleb128 24
 3728 02b9 06000000 		.4byte	.LCFI35
 3729 02bd 60000000 		.4byte	.LFE14
 3730 02c1 0200     		.2byte	0x2
 3731 02c3 77       		.byte	0x77
 3732 02c4 18       		.sleb128 24
 3733 02c5 00000000 		.4byte	0x0
 3734 02c9 00000000 		.4byte	0x0
 3735              	.LLST15:
 3736 02cd 00000000 		.4byte	.LFB15
 3737 02d1 02000000 		.4byte	.LCFI36
 3738 02d5 0100     		.2byte	0x1
 3739 02d7 5D       		.byte	0x5d
 3740 02d8 02000000 		.4byte	.LCFI36
 3741 02dc 04000000 		.4byte	.LCFI37
 3742 02e0 0200     		.2byte	0x2
 3743 02e2 7D       		.byte	0x7d
 3744 02e3 04       		.sleb128 4
 3745 02e4 04000000 		.4byte	.LCFI37
 3746 02e8 1A000000 		.4byte	.LFE15
 3747 02ec 0200     		.2byte	0x2
 3748 02ee 77       		.byte	0x77
 3749 02ef 04       		.sleb128 4
 3750 02f0 00000000 		.4byte	0x0
 3751 02f4 00000000 		.4byte	0x0
 3752              	.LLST16:
 3753 02f8 00000000 		.4byte	.LFB16
 3754 02fc 02000000 		.4byte	.LCFI38
 3755 0300 0100     		.2byte	0x1
 3756 0302 5D       		.byte	0x5d
 3757 0303 02000000 		.4byte	.LCFI38
 3758 0307 04000000 		.4byte	.LCFI39
 3759 030b 0200     		.2byte	0x2
 3760 030d 7D       		.byte	0x7d
 3761 030e 04       		.sleb128 4
 3762 030f 04000000 		.4byte	.LCFI39
 3763 0313 06000000 		.4byte	.LCFI40
 3764 0317 0200     		.2byte	0x2
 3765 0319 7D       		.byte	0x7d
 3766 031a 10       		.sleb128 16
ARM GAS  C:\Users\hoangp\AppData\Local\Temp\ccZOsuqR.s 			page 99


 3767 031b 06000000 		.4byte	.LCFI40
 3768 031f 22000000 		.4byte	.LFE16
 3769 0323 0200     		.2byte	0x2
 3770 0325 77       		.byte	0x77
 3771 0326 10       		.sleb128 16
 3772 0327 00000000 		.4byte	0x0
 3773 032b 00000000 		.4byte	0x0
 3774              	.LLST17:
 3775 032f 00000000 		.4byte	.LFB17
 3776 0333 02000000 		.4byte	.LCFI41
 3777 0337 0100     		.2byte	0x1
 3778 0339 5D       		.byte	0x5d
 3779 033a 02000000 		.4byte	.LCFI41
 3780 033e 04000000 		.4byte	.LCFI42
 3781 0342 0200     		.2byte	0x2
 3782 0344 7D       		.byte	0x7d
 3783 0345 04       		.sleb128 4
 3784 0346 04000000 		.4byte	.LCFI42
 3785 034a 06000000 		.4byte	.LCFI43
 3786 034e 0200     		.2byte	0x2
 3787 0350 7D       		.byte	0x7d
 3788 0351 10       		.sleb128 16
 3789 0352 06000000 		.4byte	.LCFI43
 3790 0356 3A000000 		.4byte	.LFE17
 3791 035a 0200     		.2byte	0x2
 3792 035c 77       		.byte	0x77
 3793 035d 10       		.sleb128 16
 3794 035e 00000000 		.4byte	0x0
 3795 0362 00000000 		.4byte	0x0
 3796              	.LLST18:
 3797 0366 00000000 		.4byte	.LFB18
 3798 036a 02000000 		.4byte	.LCFI44
 3799 036e 0100     		.2byte	0x1
 3800 0370 5D       		.byte	0x5d
 3801 0371 02000000 		.4byte	.LCFI44
 3802 0375 04000000 		.4byte	.LCFI45
 3803 0379 0200     		.2byte	0x2
 3804 037b 7D       		.byte	0x7d
 3805 037c 04       		.sleb128 4
 3806 037d 04000000 		.4byte	.LCFI45
 3807 0381 06000000 		.4byte	.LCFI46
 3808 0385 0200     		.2byte	0x2
 3809 0387 7D       		.byte	0x7d
 3810 0388 10       		.sleb128 16
 3811 0389 06000000 		.4byte	.LCFI46
 3812 038d 1E000000 		.4byte	.LFE18
 3813 0391 0200     		.2byte	0x2
 3814 0393 77       		.byte	0x77
 3815 0394 10       		.sleb128 16
 3816 0395 00000000 		.4byte	0x0
 3817 0399 00000000 		.4byte	0x0
 3818              	.LLST19:
 3819 039d 00000000 		.4byte	.LFB19
 3820 03a1 02000000 		.4byte	.LCFI47
 3821 03a5 0100     		.2byte	0x1
 3822 03a7 5D       		.byte	0x5d
 3823 03a8 02000000 		.4byte	.LCFI47
ARM GAS  C:\Users\hoangp\AppData\Local\Temp\ccZOsuqR.s 			page 100


 3824 03ac 04000000 		.4byte	.LCFI48
 3825 03b0 0200     		.2byte	0x2
 3826 03b2 7D       		.byte	0x7d
 3827 03b3 04       		.sleb128 4
 3828 03b4 04000000 		.4byte	.LCFI48
 3829 03b8 06000000 		.4byte	.LCFI49
 3830 03bc 0200     		.2byte	0x2
 3831 03be 7D       		.byte	0x7d
 3832 03bf 10       		.sleb128 16
 3833 03c0 06000000 		.4byte	.LCFI49
 3834 03c4 1E000000 		.4byte	.LFE19
 3835 03c8 0200     		.2byte	0x2
 3836 03ca 77       		.byte	0x77
 3837 03cb 10       		.sleb128 16
 3838 03cc 00000000 		.4byte	0x0
 3839 03d0 00000000 		.4byte	0x0
 3840              	.LLST20:
 3841 03d4 00000000 		.4byte	.LFB20
 3842 03d8 02000000 		.4byte	.LCFI50
 3843 03dc 0100     		.2byte	0x1
 3844 03de 5D       		.byte	0x5d
 3845 03df 02000000 		.4byte	.LCFI50
 3846 03e3 04000000 		.4byte	.LCFI51
 3847 03e7 0200     		.2byte	0x2
 3848 03e9 7D       		.byte	0x7d
 3849 03ea 04       		.sleb128 4
 3850 03eb 04000000 		.4byte	.LCFI51
 3851 03ef 06000000 		.4byte	.LCFI52
 3852 03f3 0200     		.2byte	0x2
 3853 03f5 7D       		.byte	0x7d
 3854 03f6 20       		.sleb128 32
 3855 03f7 06000000 		.4byte	.LCFI52
 3856 03fb C4000000 		.4byte	.LFE20
 3857 03ff 0200     		.2byte	0x2
 3858 0401 77       		.byte	0x77
 3859 0402 20       		.sleb128 32
 3860 0403 00000000 		.4byte	0x0
 3861 0407 00000000 		.4byte	0x0
 3862              	.LLST21:
 3863 040b 00000000 		.4byte	.LFB21
 3864 040f 02000000 		.4byte	.LCFI53
 3865 0413 0100     		.2byte	0x1
 3866 0415 5D       		.byte	0x5d
 3867 0416 02000000 		.4byte	.LCFI53
 3868 041a 04000000 		.4byte	.LCFI54
 3869 041e 0200     		.2byte	0x2
 3870 0420 7D       		.byte	0x7d
 3871 0421 0C       		.sleb128 12
 3872 0422 04000000 		.4byte	.LCFI54
 3873 0426 06000000 		.4byte	.LCFI55
 3874 042a 0200     		.2byte	0x2
 3875 042c 7D       		.byte	0x7d
 3876 042d 20       		.sleb128 32
 3877 042e 06000000 		.4byte	.LCFI55
 3878 0432 54000000 		.4byte	.LFE21
 3879 0436 0200     		.2byte	0x2
 3880 0438 77       		.byte	0x77
ARM GAS  C:\Users\hoangp\AppData\Local\Temp\ccZOsuqR.s 			page 101


 3881 0439 20       		.sleb128 32
 3882 043a 00000000 		.4byte	0x0
 3883 043e 00000000 		.4byte	0x0
 3884              	.LLST22:
 3885 0442 00000000 		.4byte	.LFB22
 3886 0446 02000000 		.4byte	.LCFI56
 3887 044a 0100     		.2byte	0x1
 3888 044c 5D       		.byte	0x5d
 3889 044d 02000000 		.4byte	.LCFI56
 3890 0451 04000000 		.4byte	.LCFI57
 3891 0455 0200     		.2byte	0x2
 3892 0457 7D       		.byte	0x7d
 3893 0458 04       		.sleb128 4
 3894 0459 04000000 		.4byte	.LCFI57
 3895 045d 06000000 		.4byte	.LCFI58
 3896 0461 0200     		.2byte	0x2
 3897 0463 7D       		.byte	0x7d
 3898 0464 20       		.sleb128 32
 3899 0465 06000000 		.4byte	.LCFI58
 3900 0469 F0000000 		.4byte	.LFE22
 3901 046d 0200     		.2byte	0x2
 3902 046f 77       		.byte	0x77
 3903 0470 20       		.sleb128 32
 3904 0471 00000000 		.4byte	0x0
 3905 0475 00000000 		.4byte	0x0
 3906              	.LLST23:
 3907 0479 00000000 		.4byte	.LFB23
 3908 047d 02000000 		.4byte	.LCFI59
 3909 0481 0100     		.2byte	0x1
 3910 0483 5D       		.byte	0x5d
 3911 0484 02000000 		.4byte	.LCFI59
 3912 0488 04000000 		.4byte	.LCFI60
 3913 048c 0200     		.2byte	0x2
 3914 048e 7D       		.byte	0x7d
 3915 048f 08       		.sleb128 8
 3916 0490 04000000 		.4byte	.LCFI60
 3917 0494 3E000000 		.4byte	.LFE23
 3918 0498 0200     		.2byte	0x2
 3919 049a 77       		.byte	0x77
 3920 049b 08       		.sleb128 8
 3921 049c 00000000 		.4byte	0x0
 3922 04a0 00000000 		.4byte	0x0
 3923              	.LLST24:
 3924 04a4 00000000 		.4byte	.LFB24
 3925 04a8 02000000 		.4byte	.LCFI61
 3926 04ac 0100     		.2byte	0x1
 3927 04ae 5D       		.byte	0x5d
 3928 04af 02000000 		.4byte	.LCFI61
 3929 04b3 04000000 		.4byte	.LCFI62
 3930 04b7 0200     		.2byte	0x2
 3931 04b9 7D       		.byte	0x7d
 3932 04ba 08       		.sleb128 8
 3933 04bb 04000000 		.4byte	.LCFI62
 3934 04bf 06000000 		.4byte	.LCFI63
 3935 04c3 0200     		.2byte	0x2
 3936 04c5 7D       		.byte	0x7d
 3937 04c6 10       		.sleb128 16
ARM GAS  C:\Users\hoangp\AppData\Local\Temp\ccZOsuqR.s 			page 102


 3938 04c7 06000000 		.4byte	.LCFI63
 3939 04cb B0080000 		.4byte	.LFE24
 3940 04cf 0200     		.2byte	0x2
 3941 04d1 77       		.byte	0x77
 3942 04d2 10       		.sleb128 16
 3943 04d3 00000000 		.4byte	0x0
 3944 04d7 00000000 		.4byte	0x0
 3945              	.LLST25:
 3946 04db 00000000 		.4byte	.LFB25
 3947 04df 02000000 		.4byte	.LCFI64
 3948 04e3 0100     		.2byte	0x1
 3949 04e5 5D       		.byte	0x5d
 3950 04e6 02000000 		.4byte	.LCFI64
 3951 04ea 04000000 		.4byte	.LCFI65
 3952 04ee 0200     		.2byte	0x2
 3953 04f0 7D       		.byte	0x7d
 3954 04f1 04       		.sleb128 4
 3955 04f2 04000000 		.4byte	.LCFI65
 3956 04f6 06000000 		.4byte	.LCFI66
 3957 04fa 0200     		.2byte	0x2
 3958 04fc 7D       		.byte	0x7d
 3959 04fd 18       		.sleb128 24
 3960 04fe 06000000 		.4byte	.LCFI66
 3961 0502 54000000 		.4byte	.LFE25
 3962 0506 0200     		.2byte	0x2
 3963 0508 77       		.byte	0x77
 3964 0509 18       		.sleb128 24
 3965 050a 00000000 		.4byte	0x0
 3966 050e 00000000 		.4byte	0x0
 3967              	.LLST26:
 3968 0512 00000000 		.4byte	.LFB26
 3969 0516 02000000 		.4byte	.LCFI67
 3970 051a 0100     		.2byte	0x1
 3971 051c 5D       		.byte	0x5d
 3972 051d 02000000 		.4byte	.LCFI67
 3973 0521 04000000 		.4byte	.LCFI68
 3974 0525 0200     		.2byte	0x2
 3975 0527 7D       		.byte	0x7d
 3976 0528 08       		.sleb128 8
 3977 0529 04000000 		.4byte	.LCFI68
 3978 052d 06000000 		.4byte	.LCFI69
 3979 0531 0200     		.2byte	0x2
 3980 0533 7D       		.byte	0x7d
 3981 0534 20       		.sleb128 32
 3982 0535 06000000 		.4byte	.LCFI69
 3983 0539 FE010000 		.4byte	.LFE26
 3984 053d 0200     		.2byte	0x2
 3985 053f 77       		.byte	0x77
 3986 0540 20       		.sleb128 32
 3987 0541 00000000 		.4byte	0x0
 3988 0545 00000000 		.4byte	0x0
 3989              	.LLST27:
 3990 0549 00000000 		.4byte	.LFB27
 3991 054d 02000000 		.4byte	.LCFI70
 3992 0551 0100     		.2byte	0x1
 3993 0553 5D       		.byte	0x5d
 3994 0554 02000000 		.4byte	.LCFI70
ARM GAS  C:\Users\hoangp\AppData\Local\Temp\ccZOsuqR.s 			page 103


 3995 0558 04000000 		.4byte	.LCFI71
 3996 055c 0200     		.2byte	0x2
 3997 055e 7D       		.byte	0x7d
 3998 055f 04       		.sleb128 4
 3999 0560 04000000 		.4byte	.LCFI71
 4000 0564 06000000 		.4byte	.LCFI72
 4001 0568 0200     		.2byte	0x2
 4002 056a 7D       		.byte	0x7d
 4003 056b 20       		.sleb128 32
 4004 056c 06000000 		.4byte	.LCFI72
 4005 0570 CA010000 		.4byte	.LFE27
 4006 0574 0200     		.2byte	0x2
 4007 0576 77       		.byte	0x77
 4008 0577 20       		.sleb128 32
 4009 0578 00000000 		.4byte	0x0
 4010 057c 00000000 		.4byte	0x0
 4011              	.LLST28:
 4012 0580 00000000 		.4byte	.LFB28
 4013 0584 02000000 		.4byte	.LCFI73
 4014 0588 0100     		.2byte	0x1
 4015 058a 5D       		.byte	0x5d
 4016 058b 02000000 		.4byte	.LCFI73
 4017 058f 04000000 		.4byte	.LCFI74
 4018 0593 0200     		.2byte	0x2
 4019 0595 7D       		.byte	0x7d
 4020 0596 08       		.sleb128 8
 4021 0597 04000000 		.4byte	.LCFI74
 4022 059b 06000000 		.4byte	.LCFI75
 4023 059f 0200     		.2byte	0x2
 4024 05a1 7D       		.byte	0x7d
 4025 05a2 10       		.sleb128 16
 4026 05a3 06000000 		.4byte	.LCFI75
 4027 05a7 92000000 		.4byte	.LFE28
 4028 05ab 0200     		.2byte	0x2
 4029 05ad 77       		.byte	0x77
 4030 05ae 10       		.sleb128 16
 4031 05af 00000000 		.4byte	0x0
 4032 05b3 00000000 		.4byte	0x0
 4033              		.file 2 ".\\Generated_Source\\PSoC5\\/cytypes.h"
 4034              		.file 3 ".\\Generated_Source\\PSoC5\\/ADC_DelSig_1.h"
 4035              		.section	.debug_info
 4036 0000 16080000 		.4byte	0x816
 4037 0004 0200     		.2byte	0x2
 4038 0006 00000000 		.4byte	.Ldebug_abbrev0
 4039 000a 04       		.byte	0x4
 4040 000b 01       		.uleb128 0x1
 4041 000c 70000000 		.4byte	.LASF103
 4042 0010 01       		.byte	0x1
 4043 0011 AA010000 		.4byte	.LASF104
 4044 0015 36060000 		.4byte	.LASF105
 4045 0019 00000000 		.4byte	0x0
 4046 001d 00000000 		.4byte	0x0
 4047 0021 00000000 		.4byte	.Ldebug_ranges0+0x0
 4048 0025 00000000 		.4byte	.Ldebug_line0
 4049 0029 02       		.uleb128 0x2
 4050 002a 01       		.byte	0x1
 4051 002b 06       		.byte	0x6
ARM GAS  C:\Users\hoangp\AppData\Local\Temp\ccZOsuqR.s 			page 104


 4052 002c E4000000 		.4byte	.LASF0
 4053 0030 02       		.uleb128 0x2
 4054 0031 01       		.byte	0x1
 4055 0032 08       		.byte	0x8
 4056 0033 4B030000 		.4byte	.LASF1
 4057 0037 02       		.uleb128 0x2
 4058 0038 02       		.byte	0x2
 4059 0039 05       		.byte	0x5
 4060 003a 7A030000 		.4byte	.LASF2
 4061 003e 02       		.uleb128 0x2
 4062 003f 02       		.byte	0x2
 4063 0040 07       		.byte	0x7
 4064 0041 20020000 		.4byte	.LASF3
 4065 0045 02       		.uleb128 0x2
 4066 0046 04       		.byte	0x4
 4067 0047 05       		.byte	0x5
 4068 0048 20010000 		.4byte	.LASF4
 4069 004c 02       		.uleb128 0x2
 4070 004d 04       		.byte	0x4
 4071 004e 07       		.byte	0x7
 4072 004f E6010000 		.4byte	.LASF5
 4073 0053 02       		.uleb128 0x2
 4074 0054 08       		.byte	0x8
 4075 0055 05       		.byte	0x5
 4076 0056 D6000000 		.4byte	.LASF6
 4077 005a 02       		.uleb128 0x2
 4078 005b 08       		.byte	0x8
 4079 005c 07       		.byte	0x7
 4080 005d 59000000 		.4byte	.LASF7
 4081 0061 03       		.uleb128 0x3
 4082 0062 04       		.byte	0x4
 4083 0063 05       		.byte	0x5
 4084 0064 696E7400 		.ascii	"int\000"
 4085 0068 02       		.uleb128 0x2
 4086 0069 04       		.byte	0x4
 4087 006a 07       		.byte	0x7
 4088 006b D2010000 		.4byte	.LASF8
 4089 006f 04       		.uleb128 0x4
 4090 0070 51010000 		.4byte	.LASF9
 4091 0074 02       		.byte	0x2
 4092 0075 4C       		.byte	0x4c
 4093 0076 30000000 		.4byte	0x30
 4094 007a 04       		.uleb128 0x4
 4095 007b 00000000 		.4byte	.LASF10
 4096 007f 02       		.byte	0x2
 4097 0080 4D       		.byte	0x4d
 4098 0081 3E000000 		.4byte	0x3e
 4099 0085 04       		.uleb128 0x4
 4100 0086 84010000 		.4byte	.LASF11
 4101 008a 02       		.byte	0x2
 4102 008b 4E       		.byte	0x4e
 4103 008c 4C000000 		.4byte	0x4c
 4104 0090 04       		.uleb128 0x4
 4105 0091 33020000 		.4byte	.LASF12
 4106 0095 02       		.byte	0x2
 4107 0096 4F       		.byte	0x4f
 4108 0097 29000000 		.4byte	0x29
ARM GAS  C:\Users\hoangp\AppData\Local\Temp\ccZOsuqR.s 			page 105


 4109 009b 04       		.uleb128 0x4
 4110 009c A6050000 		.4byte	.LASF13
 4111 00a0 02       		.byte	0x2
 4112 00a1 50       		.byte	0x50
 4113 00a2 37000000 		.4byte	0x37
 4114 00a6 04       		.uleb128 0x4
 4115 00a7 1A010000 		.4byte	.LASF14
 4116 00ab 02       		.byte	0x2
 4117 00ac 51       		.byte	0x51
 4118 00ad 45000000 		.4byte	0x45
 4119 00b1 02       		.uleb128 0x2
 4120 00b2 04       		.byte	0x4
 4121 00b3 04       		.byte	0x4
 4122 00b4 00030000 		.4byte	.LASF15
 4123 00b8 02       		.uleb128 0x2
 4124 00b9 08       		.byte	0x8
 4125 00ba 04       		.byte	0x4
 4126 00bb 77010000 		.4byte	.LASF16
 4127 00bf 02       		.uleb128 0x2
 4128 00c0 01       		.byte	0x1
 4129 00c1 08       		.byte	0x8
 4130 00c2 4B040000 		.4byte	.LASF17
 4131 00c6 05       		.uleb128 0x5
 4132 00c7 6F000000 		.4byte	0x6f
 4133 00cb 06       		.uleb128 0x6
 4134 00cc 04       		.byte	0x4
 4135 00cd 07       		.byte	0x7
 4136 00ce 07       		.uleb128 0x7
 4137 00cf 9D030000 		.4byte	.LASF106
 4138 00d3 09       		.byte	0x9
 4139 00d4 03       		.byte	0x3
 4140 00d5 35       		.byte	0x35
 4141 00d6 59010000 		.4byte	0x159
 4142 00da 08       		.uleb128 0x8
 4143 00db 29010000 		.4byte	.LASF18
 4144 00df 03       		.byte	0x3
 4145 00e0 36       		.byte	0x36
 4146 00e1 6F000000 		.4byte	0x6f
 4147 00e5 02       		.byte	0x2
 4148 00e6 23       		.byte	0x23
 4149 00e7 00       		.uleb128 0x0
 4150 00e8 08       		.uleb128 0x8
 4151 00e9 33010000 		.4byte	.LASF19
 4152 00ed 03       		.byte	0x3
 4153 00ee 37       		.byte	0x37
 4154 00ef 6F000000 		.4byte	0x6f
 4155 00f3 02       		.byte	0x2
 4156 00f4 23       		.byte	0x23
 4157 00f5 01       		.uleb128 0x1
 4158 00f6 08       		.uleb128 0x8
 4159 00f7 3D010000 		.4byte	.LASF20
 4160 00fb 03       		.byte	0x3
 4161 00fc 38       		.byte	0x38
 4162 00fd 6F000000 		.4byte	0x6f
 4163 0101 02       		.byte	0x2
 4164 0102 23       		.byte	0x23
 4165 0103 02       		.uleb128 0x2
ARM GAS  C:\Users\hoangp\AppData\Local\Temp\ccZOsuqR.s 			page 106


 4166 0104 08       		.uleb128 0x8
 4167 0105 47010000 		.4byte	.LASF21
 4168 0109 03       		.byte	0x3
 4169 010a 39       		.byte	0x39
 4170 010b 6F000000 		.4byte	0x6f
 4171 010f 02       		.byte	0x2
 4172 0110 23       		.byte	0x23
 4173 0111 03       		.uleb128 0x3
 4174 0112 08       		.uleb128 0x8
 4175 0113 9B010000 		.4byte	.LASF22
 4176 0117 03       		.byte	0x3
 4177 0118 3A       		.byte	0x3a
 4178 0119 6F000000 		.4byte	0x6f
 4179 011d 02       		.byte	0x2
 4180 011e 23       		.byte	0x23
 4181 011f 04       		.uleb128 0x4
 4182 0120 08       		.uleb128 0x8
 4183 0121 08010000 		.4byte	.LASF23
 4184 0125 03       		.byte	0x3
 4185 0126 3B       		.byte	0x3b
 4186 0127 6F000000 		.4byte	0x6f
 4187 012b 02       		.byte	0x2
 4188 012c 23       		.byte	0x23
 4189 012d 05       		.uleb128 0x5
 4190 012e 08       		.uleb128 0x8
 4191 012f 11010000 		.4byte	.LASF24
 4192 0133 03       		.byte	0x3
 4193 0134 3C       		.byte	0x3c
 4194 0135 6F000000 		.4byte	0x6f
 4195 0139 02       		.byte	0x2
 4196 013a 23       		.byte	0x23
 4197 013b 06       		.uleb128 0x6
 4198 013c 08       		.uleb128 0x8
 4199 013d 9C060000 		.4byte	.LASF25
 4200 0141 03       		.byte	0x3
 4201 0142 3D       		.byte	0x3d
 4202 0143 6F000000 		.4byte	0x6f
 4203 0147 02       		.byte	0x2
 4204 0148 23       		.byte	0x23
 4205 0149 07       		.uleb128 0x7
 4206 014a 08       		.uleb128 0x8
 4207 014b 1C040000 		.4byte	.LASF26
 4208 014f 03       		.byte	0x3
 4209 0150 40       		.byte	0x40
 4210 0151 6F000000 		.4byte	0x6f
 4211 0155 02       		.byte	0x2
 4212 0156 23       		.byte	0x23
 4213 0157 08       		.uleb128 0x8
 4214 0158 00       		.byte	0x0
 4215 0159 04       		.uleb128 0x4
 4216 015a F7030000 		.4byte	.LASF27
 4217 015e 03       		.byte	0x3
 4218 015f 41       		.byte	0x41
 4219 0160 CE000000 		.4byte	0xce
 4220 0164 09       		.uleb128 0x9
 4221 0165 01       		.byte	0x1
 4222 0166 B3020000 		.4byte	.LASF28
ARM GAS  C:\Users\hoangp\AppData\Local\Temp\ccZOsuqR.s 			page 107


 4223 016a 01       		.byte	0x1
 4224 016b 5D       		.byte	0x5d
 4225 016c 01       		.byte	0x1
 4226 016d 00000000 		.4byte	.LFB0
 4227 0171 32000000 		.4byte	.LFE0
 4228 0175 00000000 		.4byte	.LLST0
 4229 0179 09       		.uleb128 0x9
 4230 017a 01       		.byte	0x1
 4231 017b 0F000000 		.4byte	.LASF29
 4232 017f 01       		.byte	0x1
 4233 0180 81       		.byte	0x81
 4234 0181 01       		.byte	0x1
 4235 0182 00000000 		.4byte	.LFB1
 4236 0186 C2010000 		.4byte	.LFE1
 4237 018a 2B000000 		.4byte	.LLST1
 4238 018e 09       		.uleb128 0x9
 4239 018f 01       		.byte	0x1
 4240 0190 2A050000 		.4byte	.LASF30
 4241 0194 01       		.byte	0x1
 4242 0195 E0       		.byte	0xe0
 4243 0196 01       		.byte	0x1
 4244 0197 00000000 		.4byte	.LFB2
 4245 019b AA000000 		.4byte	.LFE2
 4246 019f 56000000 		.4byte	.LLST2
 4247 01a3 09       		.uleb128 0x9
 4248 01a4 01       		.byte	0x1
 4249 01a5 57010000 		.4byte	.LASF31
 4250 01a9 01       		.byte	0x1
 4251 01aa FE       		.byte	0xfe
 4252 01ab 01       		.byte	0x1
 4253 01ac 00000000 		.4byte	.LFB3
 4254 01b0 BA000000 		.4byte	.LFE3
 4255 01b4 81000000 		.4byte	.LLST3
 4256 01b8 0A       		.uleb128 0xa
 4257 01b9 01       		.byte	0x1
 4258 01ba 84030000 		.4byte	.LASF32
 4259 01be 01       		.byte	0x1
 4260 01bf 1C01     		.2byte	0x11c
 4261 01c1 01       		.byte	0x1
 4262 01c2 00000000 		.4byte	.LFB4
 4263 01c6 36010000 		.4byte	.LFE4
 4264 01ca AC000000 		.4byte	.LLST4
 4265 01ce 0A       		.uleb128 0xa
 4266 01cf 01       		.byte	0x1
 4267 01d0 93050000 		.4byte	.LASF33
 4268 01d4 01       		.byte	0x1
 4269 01d5 5001     		.2byte	0x150
 4270 01d7 01       		.byte	0x1
 4271 01d8 00000000 		.4byte	.LFB5
 4272 01dc 3A000000 		.4byte	.LFE5
 4273 01e0 D7000000 		.4byte	.LLST5
 4274 01e4 0A       		.uleb128 0xa
 4275 01e5 01       		.byte	0x1
 4276 01e6 87000000 		.4byte	.LASF34
 4277 01ea 01       		.byte	0x1
 4278 01eb 6E01     		.2byte	0x16e
 4279 01ed 01       		.byte	0x1
ARM GAS  C:\Users\hoangp\AppData\Local\Temp\ccZOsuqR.s 			page 108


 4280 01ee 00000000 		.4byte	.LFB6
 4281 01f2 B0010000 		.4byte	.LFE6
 4282 01f6 02010000 		.4byte	.LLST6
 4283 01fa 0B       		.uleb128 0xb
 4284 01fb 01       		.byte	0x1
 4285 01fc 7A060000 		.4byte	.LASF35
 4286 0200 01       		.byte	0x1
 4287 0201 C201     		.2byte	0x1c2
 4288 0203 01       		.byte	0x1
 4289 0204 00000000 		.4byte	.LFB7
 4290 0208 44000000 		.4byte	.LFE7
 4291 020c 2D010000 		.4byte	.LLST7
 4292 0210 33020000 		.4byte	0x233
 4293 0214 0C       		.uleb128 0xc
 4294 0215 31030000 		.4byte	.LASF37
 4295 0219 01       		.byte	0x1
 4296 021a C201     		.2byte	0x1c2
 4297 021c 6F000000 		.4byte	0x6f
 4298 0220 02       		.byte	0x2
 4299 0221 91       		.byte	0x91
 4300 0222 6F       		.sleb128 -17
 4301 0223 0D       		.uleb128 0xd
 4302 0224 95060000 		.4byte	.LASF39
 4303 0228 01       		.byte	0x1
 4304 0229 C401     		.2byte	0x1c4
 4305 022b 6F000000 		.4byte	0x6f
 4306 022f 02       		.byte	0x2
 4307 0230 91       		.byte	0x91
 4308 0231 77       		.sleb128 -9
 4309 0232 00       		.byte	0x0
 4310 0233 0B       		.uleb128 0xb
 4311 0234 01       		.byte	0x1
 4312 0235 50040000 		.4byte	.LASF36
 4313 0239 01       		.byte	0x1
 4314 023a E101     		.2byte	0x1e1
 4315 023c 01       		.byte	0x1
 4316 023d 00000000 		.4byte	.LFB8
 4317 0241 3C000000 		.4byte	.LFE8
 4318 0245 64010000 		.4byte	.LLST8
 4319 0249 6C020000 		.4byte	0x26c
 4320 024d 0C       		.uleb128 0xc
 4321 024e F6020000 		.4byte	.LASF38
 4322 0252 01       		.byte	0x1
 4323 0253 E101     		.2byte	0x1e1
 4324 0255 6F000000 		.4byte	0x6f
 4325 0259 02       		.byte	0x2
 4326 025a 91       		.byte	0x91
 4327 025b 6F       		.sleb128 -17
 4328 025c 0D       		.uleb128 0xd
 4329 025d 95060000 		.4byte	.LASF39
 4330 0261 01       		.byte	0x1
 4331 0262 E301     		.2byte	0x1e3
 4332 0264 6F000000 		.4byte	0x6f
 4333 0268 02       		.byte	0x2
 4334 0269 91       		.byte	0x91
 4335 026a 77       		.sleb128 -9
 4336 026b 00       		.byte	0x0
ARM GAS  C:\Users\hoangp\AppData\Local\Temp\ccZOsuqR.s 			page 109


 4337 026c 0E       		.uleb128 0xe
 4338 026d 01       		.byte	0x1
 4339 026e 4D050000 		.4byte	.LASF43
 4340 0272 01       		.byte	0x1
 4341 0273 FF01     		.2byte	0x1ff
 4342 0275 01       		.byte	0x1
 4343 0276 6F000000 		.4byte	0x6f
 4344 027a 00000000 		.4byte	.LFB9
 4345 027e E4000000 		.4byte	.LFE9
 4346 0282 9B010000 		.4byte	.LLST9
 4347 0286 C7020000 		.4byte	0x2c7
 4348 028a 0C       		.uleb128 0xc
 4349 028b 88050000 		.4byte	.LASF40
 4350 028f 01       		.byte	0x1
 4351 0290 FF01     		.2byte	0x1ff
 4352 0292 B1000000 		.4byte	0xb1
 4353 0296 02       		.byte	0x2
 4354 0297 91       		.byte	0x91
 4355 0298 64       		.sleb128 -28
 4356 0299 0D       		.uleb128 0xd
 4357 029a 95060000 		.4byte	.LASF39
 4358 029e 01       		.byte	0x1
 4359 029f 0102     		.2byte	0x201
 4360 02a1 7A000000 		.4byte	0x7a
 4361 02a5 02       		.byte	0x2
 4362 02a6 91       		.byte	0x91
 4363 02a7 68       		.sleb128 -24
 4364 02a8 0D       		.uleb128 0xd
 4365 02a9 69050000 		.4byte	.LASF41
 4366 02ad 01       		.byte	0x1
 4367 02ae 0202     		.2byte	0x202
 4368 02b0 6F000000 		.4byte	0x6f
 4369 02b4 02       		.byte	0x2
 4370 02b5 91       		.byte	0x91
 4371 02b6 6B       		.sleb128 -21
 4372 02b7 0D       		.uleb128 0xd
 4373 02b8 AD040000 		.4byte	.LASF42
 4374 02bc 01       		.byte	0x1
 4375 02bd 0302     		.2byte	0x203
 4376 02bf B1000000 		.4byte	0xb1
 4377 02c3 02       		.byte	0x2
 4378 02c4 91       		.byte	0x91
 4379 02c5 6C       		.sleb128 -20
 4380 02c6 00       		.byte	0x0
 4381 02c7 0E       		.uleb128 0xe
 4382 02c8 01       		.byte	0x1
 4383 02c9 D4060000 		.4byte	.LASF44
 4384 02cd 01       		.byte	0x1
 4385 02ce 2C02     		.2byte	0x22c
 4386 02d0 01       		.byte	0x1
 4387 02d1 7A000000 		.4byte	0x7a
 4388 02d5 00000000 		.4byte	.LFB10
 4389 02d9 BA000000 		.4byte	.LFE10
 4390 02dd D2010000 		.4byte	.LLST10
 4391 02e1 13030000 		.4byte	0x313
 4392 02e5 0D       		.uleb128 0xd
 4393 02e6 62050000 		.4byte	.LASF45
ARM GAS  C:\Users\hoangp\AppData\Local\Temp\ccZOsuqR.s 			page 110


 4394 02ea 01       		.byte	0x1
 4395 02eb 2E02     		.2byte	0x22e
 4396 02ed 6F000000 		.4byte	0x6f
 4397 02f1 02       		.byte	0x2
 4398 02f2 91       		.byte	0x91
 4399 02f3 73       		.sleb128 -13
 4400 02f4 0D       		.uleb128 0xd
 4401 02f5 38020000 		.4byte	.LASF46
 4402 02f9 01       		.byte	0x1
 4403 02fa 2F02     		.2byte	0x22f
 4404 02fc 7A000000 		.4byte	0x7a
 4405 0300 02       		.byte	0x2
 4406 0301 91       		.byte	0x91
 4407 0302 74       		.sleb128 -12
 4408 0303 0D       		.uleb128 0xd
 4409 0304 FE010000 		.4byte	.LASF47
 4410 0308 01       		.byte	0x1
 4411 0309 2F02     		.2byte	0x22f
 4412 030b 7A000000 		.4byte	0x7a
 4413 030f 02       		.byte	0x2
 4414 0310 91       		.byte	0x91
 4415 0311 76       		.sleb128 -10
 4416 0312 00       		.byte	0x0
 4417 0313 0B       		.uleb128 0xb
 4418 0314 01       		.byte	0x1
 4419 0315 DA050000 		.4byte	.LASF48
 4420 0319 01       		.byte	0x1
 4421 031a 6602     		.2byte	0x266
 4422 031c 01       		.byte	0x1
 4423 031d 00000000 		.4byte	.LFB11
 4424 0321 44000000 		.4byte	.LFE11
 4425 0325 09020000 		.4byte	.LLST11
 4426 0329 4C030000 		.4byte	0x34c
 4427 032d 0C       		.uleb128 0xc
 4428 032e F5050000 		.4byte	.LASF49
 4429 0332 01       		.byte	0x1
 4430 0333 6602     		.2byte	0x266
 4431 0335 6F000000 		.4byte	0x6f
 4432 0339 02       		.byte	0x2
 4433 033a 91       		.byte	0x91
 4434 033b 77       		.sleb128 -9
 4435 033c 0C       		.uleb128 0xc
 4436 033d 9C040000 		.4byte	.LASF50
 4437 0341 01       		.byte	0x1
 4438 0342 6602     		.2byte	0x266
 4439 0344 6F000000 		.4byte	0x6f
 4440 0348 02       		.byte	0x2
 4441 0349 91       		.byte	0x91
 4442 034a 76       		.sleb128 -10
 4443 034b 00       		.byte	0x0
 4444 034c 0A       		.uleb128 0xa
 4445 034d 01       		.byte	0x1
 4446 034e D2030000 		.4byte	.LASF51
 4447 0352 01       		.byte	0x1
 4448 0353 8202     		.2byte	0x282
 4449 0355 01       		.byte	0x1
 4450 0356 00000000 		.4byte	.LFB12
ARM GAS  C:\Users\hoangp\AppData\Local\Temp\ccZOsuqR.s 			page 111


 4451 035a 26000000 		.4byte	.LFE12
 4452 035e 40020000 		.4byte	.LLST12
 4453 0362 0A       		.uleb128 0xa
 4454 0363 01       		.byte	0x1
 4455 0364 AC050000 		.4byte	.LASF52
 4456 0368 01       		.byte	0x1
 4457 0369 9B02     		.2byte	0x29b
 4458 036b 01       		.byte	0x1
 4459 036c 00000000 		.4byte	.LFB13
 4460 0370 32000000 		.4byte	.LFE13
 4461 0374 6B020000 		.4byte	.LLST13
 4462 0378 0E       		.uleb128 0xe
 4463 0379 01       		.byte	0x1
 4464 037a EF040000 		.4byte	.LASF53
 4465 037e 01       		.byte	0x1
 4466 037f BA02     		.2byte	0x2ba
 4467 0381 01       		.byte	0x1
 4468 0382 6F000000 		.4byte	0x6f
 4469 0386 00000000 		.4byte	.LFB14
 4470 038a 60000000 		.4byte	.LFE14
 4471 038e 96020000 		.4byte	.LLST14
 4472 0392 B5030000 		.4byte	0x3b5
 4473 0396 0C       		.uleb128 0xc
 4474 0397 F8010000 		.4byte	.LASF54
 4475 039b 01       		.byte	0x1
 4476 039c BA02     		.2byte	0x2ba
 4477 039e 6F000000 		.4byte	0x6f
 4478 03a2 02       		.byte	0x2
 4479 03a3 91       		.byte	0x91
 4480 03a4 6F       		.sleb128 -17
 4481 03a5 0D       		.uleb128 0xd
 4482 03a6 69050000 		.4byte	.LASF41
 4483 03aa 01       		.byte	0x1
 4484 03ab BC02     		.2byte	0x2bc
 4485 03ad 6F000000 		.4byte	0x6f
 4486 03b1 02       		.byte	0x2
 4487 03b2 91       		.byte	0x91
 4488 03b3 77       		.sleb128 -9
 4489 03b4 00       		.byte	0x0
 4490 03b5 0F       		.uleb128 0xf
 4491 03b6 01       		.byte	0x1
 4492 03b7 BE000000 		.4byte	.LASF107
 4493 03bb 01       		.byte	0x1
 4494 03bc E002     		.2byte	0x2e0
 4495 03be 01       		.byte	0x1
 4496 03bf 90000000 		.4byte	0x90
 4497 03c3 00000000 		.4byte	.LFB15
 4498 03c7 1A000000 		.4byte	.LFE15
 4499 03cb CD020000 		.4byte	.LLST15
 4500 03cf 0E       		.uleb128 0xe
 4501 03d0 01       		.byte	0x1
 4502 03d1 7A020000 		.4byte	.LASF55
 4503 03d5 01       		.byte	0x1
 4504 03d6 F402     		.2byte	0x2f4
 4505 03d8 01       		.byte	0x1
 4506 03d9 9B000000 		.4byte	0x9b
 4507 03dd 00000000 		.4byte	.LFB16
ARM GAS  C:\Users\hoangp\AppData\Local\Temp\ccZOsuqR.s 			page 112


 4508 03e1 22000000 		.4byte	.LFE16
 4509 03e5 F8020000 		.4byte	.LLST16
 4510 03e9 FD030000 		.4byte	0x3fd
 4511 03ed 0D       		.uleb128 0xd
 4512 03ee A4060000 		.4byte	.LASF56
 4513 03f2 01       		.byte	0x1
 4514 03f3 F602     		.2byte	0x2f6
 4515 03f5 7A000000 		.4byte	0x7a
 4516 03f9 02       		.byte	0x2
 4517 03fa 91       		.byte	0x91
 4518 03fb 76       		.sleb128 -10
 4519 03fc 00       		.byte	0x0
 4520 03fd 0E       		.uleb128 0xe
 4521 03fe 01       		.byte	0x1
 4522 03ff 32040000 		.4byte	.LASF57
 4523 0403 01       		.byte	0x1
 4524 0404 1103     		.2byte	0x311
 4525 0406 01       		.byte	0x1
 4526 0407 A6000000 		.4byte	0xa6
 4527 040b 00000000 		.4byte	.LFB17
 4528 040f 3A000000 		.4byte	.LFE17
 4529 0413 2F030000 		.4byte	.LLST17
 4530 0417 2B040000 		.4byte	0x42b
 4531 041b 0D       		.uleb128 0xd
 4532 041c A4060000 		.4byte	.LASF56
 4533 0420 01       		.byte	0x1
 4534 0421 1303     		.2byte	0x313
 4535 0423 85000000 		.4byte	0x85
 4536 0427 02       		.byte	0x2
 4537 0428 91       		.byte	0x91
 4538 0429 74       		.sleb128 -12
 4539 042a 00       		.byte	0x0
 4540 042b 0B       		.uleb128 0xb
 4541 042c 01       		.byte	0x1
 4542 042d 59030000 		.4byte	.LASF58
 4543 0431 01       		.byte	0x1
 4544 0432 3803     		.2byte	0x338
 4545 0434 01       		.byte	0x1
 4546 0435 00000000 		.4byte	.LFB18
 4547 0439 1E000000 		.4byte	.LFE18
 4548 043d 66030000 		.4byte	.LLST18
 4549 0441 55040000 		.4byte	0x455
 4550 0445 0C       		.uleb128 0xc
 4551 0446 DE040000 		.4byte	.LASF59
 4552 044a 01       		.byte	0x1
 4553 044b 3803     		.2byte	0x338
 4554 044d A6000000 		.4byte	0xa6
 4555 0451 02       		.byte	0x2
 4556 0452 91       		.byte	0x91
 4557 0453 74       		.sleb128 -12
 4558 0454 00       		.byte	0x0
 4559 0455 0B       		.uleb128 0xb
 4560 0456 01       		.byte	0x1
 4561 0457 C5050000 		.4byte	.LASF60
 4562 045b 01       		.byte	0x1
 4563 045c 5103     		.2byte	0x351
 4564 045e 01       		.byte	0x1
ARM GAS  C:\Users\hoangp\AppData\Local\Temp\ccZOsuqR.s 			page 113


 4565 045f 00000000 		.4byte	.LFB19
 4566 0463 1E000000 		.4byte	.LFE19
 4567 0467 9D030000 		.4byte	.LLST19
 4568 046b 7F040000 		.4byte	0x47f
 4569 046f 0C       		.uleb128 0xc
 4570 0470 07000000 		.4byte	.LASF61
 4571 0474 01       		.byte	0x1
 4572 0475 5103     		.2byte	0x351
 4573 0477 A6000000 		.4byte	0xa6
 4574 047b 02       		.byte	0x2
 4575 047c 91       		.byte	0x91
 4576 047d 74       		.sleb128 -12
 4577 047e 00       		.byte	0x0
 4578 047f 0E       		.uleb128 0xe
 4579 0480 01       		.byte	0x1
 4580 0481 FC050000 		.4byte	.LASF62
 4581 0485 01       		.byte	0x1
 4582 0486 6B03     		.2byte	0x36b
 4583 0488 01       		.byte	0x1
 4584 0489 9B000000 		.4byte	0x9b
 4585 048d 00000000 		.4byte	.LFB20
 4586 0491 C4000000 		.4byte	.LFE20
 4587 0495 D4030000 		.4byte	.LLST20
 4588 0499 E5040000 		.4byte	0x4e5
 4589 049d 0C       		.uleb128 0xc
 4590 049e E5040000 		.4byte	.LASF63
 4591 04a2 01       		.byte	0x1
 4592 04a3 6B03     		.2byte	0x36b
 4593 04a5 A6000000 		.4byte	0xa6
 4594 04a9 02       		.byte	0x2
 4595 04aa 91       		.byte	0x91
 4596 04ab 64       		.sleb128 -28
 4597 04ac 0D       		.uleb128 0xd
 4598 04ad 51020000 		.4byte	.LASF64
 4599 04b1 01       		.byte	0x1
 4600 04b2 6E03     		.2byte	0x36e
 4601 04b4 A6000000 		.4byte	0xa6
 4602 04b8 02       		.byte	0x2
 4603 04b9 91       		.byte	0x91
 4604 04ba 68       		.sleb128 -24
 4605 04bb 10       		.uleb128 0x10
 4606 04bc 4100     		.ascii	"A\000"
 4607 04be 01       		.byte	0x1
 4608 04bf 6F03     		.2byte	0x36f
 4609 04c1 A6000000 		.4byte	0xa6
 4610 04c5 02       		.byte	0x2
 4611 04c6 91       		.byte	0x91
 4612 04c7 6C       		.sleb128 -20
 4613 04c8 10       		.uleb128 0x10
 4614 04c9 4200     		.ascii	"B\000"
 4615 04cb 01       		.byte	0x1
 4616 04cc 6F03     		.2byte	0x36f
 4617 04ce A6000000 		.4byte	0xa6
 4618 04d2 02       		.byte	0x2
 4619 04d3 91       		.byte	0x91
 4620 04d4 70       		.sleb128 -16
 4621 04d5 0D       		.uleb128 0xd
ARM GAS  C:\Users\hoangp\AppData\Local\Temp\ccZOsuqR.s 			page 114


 4622 04d6 EC030000 		.4byte	.LASF65
 4623 04da 01       		.byte	0x1
 4624 04db 7003     		.2byte	0x370
 4625 04dd 6F000000 		.4byte	0x6f
 4626 04e1 02       		.byte	0x2
 4627 04e2 91       		.byte	0x91
 4628 04e3 77       		.sleb128 -9
 4629 04e4 00       		.byte	0x0
 4630 04e5 0E       		.uleb128 0xe
 4631 04e6 01       		.byte	0x1
 4632 04e7 5E020000 		.4byte	.LASF66
 4633 04eb 01       		.byte	0x1
 4634 04ec AB03     		.2byte	0x3ab
 4635 04ee 01       		.byte	0x1
 4636 04ef B1000000 		.4byte	0xb1
 4637 04f3 00000000 		.4byte	.LFB21
 4638 04f7 54000000 		.4byte	.LFE21
 4639 04fb 0B040000 		.4byte	.LLST21
 4640 04ff 22050000 		.4byte	0x522
 4641 0503 0C       		.uleb128 0xc
 4642 0504 E5040000 		.4byte	.LASF63
 4643 0508 01       		.byte	0x1
 4644 0509 AB03     		.2byte	0x3ab
 4645 050b A6000000 		.4byte	0xa6
 4646 050f 02       		.byte	0x2
 4647 0510 91       		.byte	0x91
 4648 0511 64       		.sleb128 -28
 4649 0512 0D       		.uleb128 0xd
 4650 0513 7E010000 		.4byte	.LASF67
 4651 0517 01       		.byte	0x1
 4652 0518 AE03     		.2byte	0x3ae
 4653 051a B1000000 		.4byte	0xb1
 4654 051e 02       		.byte	0x2
 4655 051f 91       		.byte	0x91
 4656 0520 6C       		.sleb128 -20
 4657 0521 00       		.byte	0x0
 4658 0522 0E       		.uleb128 0xe
 4659 0523 01       		.byte	0x1
 4660 0524 C5020000 		.4byte	.LASF68
 4661 0528 01       		.byte	0x1
 4662 0529 D903     		.2byte	0x3d9
 4663 052b 01       		.byte	0x1
 4664 052c A6000000 		.4byte	0xa6
 4665 0530 00000000 		.4byte	.LFB22
 4666 0534 F0000000 		.4byte	.LFE22
 4667 0538 42040000 		.4byte	.LLST22
 4668 053c 88050000 		.4byte	0x588
 4669 0540 0C       		.uleb128 0xc
 4670 0541 E5040000 		.4byte	.LASF63
 4671 0545 01       		.byte	0x1
 4672 0546 D903     		.2byte	0x3d9
 4673 0548 A6000000 		.4byte	0xa6
 4674 054c 02       		.byte	0x2
 4675 054d 91       		.byte	0x91
 4676 054e 64       		.sleb128 -28
 4677 054f 0D       		.uleb128 0xd
 4678 0550 DF010000 		.4byte	.LASF69
ARM GAS  C:\Users\hoangp\AppData\Local\Temp\ccZOsuqR.s 			page 115


 4679 0554 01       		.byte	0x1
 4680 0555 DC03     		.2byte	0x3dc
 4681 0557 A6000000 		.4byte	0xa6
 4682 055b 02       		.byte	0x2
 4683 055c 91       		.byte	0x91
 4684 055d 68       		.sleb128 -24
 4685 055e 10       		.uleb128 0x10
 4686 055f 4100     		.ascii	"A\000"
 4687 0561 01       		.byte	0x1
 4688 0562 DD03     		.2byte	0x3dd
 4689 0564 A6000000 		.4byte	0xa6
 4690 0568 02       		.byte	0x2
 4691 0569 91       		.byte	0x91
 4692 056a 6C       		.sleb128 -20
 4693 056b 10       		.uleb128 0x10
 4694 056c 4200     		.ascii	"B\000"
 4695 056e 01       		.byte	0x1
 4696 056f DD03     		.2byte	0x3dd
 4697 0571 A6000000 		.4byte	0xa6
 4698 0575 02       		.byte	0x2
 4699 0576 91       		.byte	0x91
 4700 0577 70       		.sleb128 -16
 4701 0578 0D       		.uleb128 0xd
 4702 0579 EC030000 		.4byte	.LASF65
 4703 057d 01       		.byte	0x1
 4704 057e DE03     		.2byte	0x3de
 4705 0580 6F000000 		.4byte	0x6f
 4706 0584 02       		.byte	0x2
 4707 0585 91       		.byte	0x91
 4708 0586 77       		.sleb128 -9
 4709 0587 00       		.byte	0x0
 4710 0588 0A       		.uleb128 0xa
 4711 0589 01       		.byte	0x1
 4712 058a 1A030000 		.4byte	.LASF70
 4713 058e 01       		.byte	0x1
 4714 058f 2004     		.2byte	0x420
 4715 0591 01       		.byte	0x1
 4716 0592 00000000 		.4byte	.LFB23
 4717 0596 3E000000 		.4byte	.LFE23
 4718 059a 79040000 		.4byte	.LLST23
 4719 059e 0B       		.uleb128 0xb
 4720 059f 01       		.byte	0x1
 4721 05a0 A6000000 		.4byte	.LASF71
 4722 05a4 01       		.byte	0x1
 4723 05a5 4204     		.2byte	0x442
 4724 05a7 01       		.byte	0x1
 4725 05a8 00000000 		.4byte	.LFB24
 4726 05ac B0080000 		.4byte	.LFE24
 4727 05b0 A4040000 		.4byte	.LLST24
 4728 05b4 C8050000 		.4byte	0x5c8
 4729 05b8 0C       		.uleb128 0xc
 4730 05b9 85040000 		.4byte	.LASF72
 4731 05bd 01       		.byte	0x1
 4732 05be 4204     		.2byte	0x442
 4733 05c0 6F000000 		.4byte	0x6f
 4734 05c4 02       		.byte	0x2
 4735 05c5 91       		.byte	0x91
ARM GAS  C:\Users\hoangp\AppData\Local\Temp\ccZOsuqR.s 			page 116


 4736 05c6 77       		.sleb128 -9
 4737 05c7 00       		.byte	0x0
 4738 05c8 0E       		.uleb128 0xe
 4739 05c9 01       		.byte	0x1
 4740 05ca F0000000 		.4byte	.LASF73
 4741 05ce 01       		.byte	0x1
 4742 05cf 8A05     		.2byte	0x58a
 4743 05d1 01       		.byte	0x1
 4744 05d2 7A000000 		.4byte	0x7a
 4745 05d6 00000000 		.4byte	.LFB25
 4746 05da 54000000 		.4byte	.LFE25
 4747 05de DB040000 		.4byte	.LLST25
 4748 05e2 23060000 		.4byte	0x623
 4749 05e6 0C       		.uleb128 0xc
 4750 05e7 99000000 		.4byte	.LASF74
 4751 05eb 01       		.byte	0x1
 4752 05ec 8A05     		.2byte	0x58a
 4753 05ee 85000000 		.4byte	0x85
 4754 05f2 02       		.byte	0x2
 4755 05f3 91       		.byte	0x91
 4756 05f4 6C       		.sleb128 -20
 4757 05f5 0C       		.uleb128 0xc
 4758 05f6 4F000000 		.4byte	.LASF75
 4759 05fa 01       		.byte	0x1
 4760 05fb 8A05     		.2byte	0x58a
 4761 05fd 85000000 		.4byte	0x85
 4762 0601 02       		.byte	0x2
 4763 0602 91       		.byte	0x91
 4764 0603 68       		.sleb128 -24
 4765 0604 0D       		.uleb128 0xd
 4766 0605 C0030000 		.4byte	.LASF76
 4767 0609 01       		.byte	0x1
 4768 060a 8D05     		.2byte	0x58d
 4769 060c 7A000000 		.4byte	0x7a
 4770 0610 02       		.byte	0x2
 4771 0611 91       		.byte	0x91
 4772 0612 74       		.sleb128 -12
 4773 0613 0D       		.uleb128 0xd
 4774 0614 C9030000 		.4byte	.LASF77
 4775 0618 01       		.byte	0x1
 4776 0619 8D05     		.2byte	0x58d
 4777 061b 7A000000 		.4byte	0x7a
 4778 061f 02       		.byte	0x2
 4779 0620 91       		.byte	0x91
 4780 0621 76       		.sleb128 -10
 4781 0622 00       		.byte	0x0
 4782 0623 0B       		.uleb128 0xb
 4783 0624 01       		.byte	0x1
 4784 0625 2E000000 		.4byte	.LASF78
 4785 0629 01       		.byte	0x1
 4786 062a AB05     		.2byte	0x5ab
 4787 062c 01       		.byte	0x1
 4788 062d 00000000 		.4byte	.LFB26
 4789 0631 FE010000 		.4byte	.LFE26
 4790 0635 12050000 		.4byte	.LLST26
 4791 0639 B6060000 		.4byte	0x6b6
 4792 063d 0C       		.uleb128 0xc
ARM GAS  C:\Users\hoangp\AppData\Local\Temp\ccZOsuqR.s 			page 117


 4793 063e 85040000 		.4byte	.LASF72
 4794 0642 01       		.byte	0x1
 4795 0643 AB05     		.2byte	0x5ab
 4796 0645 6F000000 		.4byte	0x6f
 4797 0649 02       		.byte	0x2
 4798 064a 91       		.byte	0x91
 4799 064b 67       		.sleb128 -25
 4800 064c 0C       		.uleb128 0xc
 4801 064d A5040000 		.4byte	.LASF79
 4802 0651 01       		.byte	0x1
 4803 0652 AB05     		.2byte	0x5ab
 4804 0654 6F000000 		.4byte	0x6f
 4805 0658 02       		.byte	0x2
 4806 0659 91       		.byte	0x91
 4807 065a 66       		.sleb128 -26
 4808 065b 0D       		.uleb128 0xd
 4809 065c 23000000 		.4byte	.LASF80
 4810 0660 01       		.byte	0x1
 4811 0661 AE05     		.2byte	0x5ae
 4812 0663 6F000000 		.4byte	0x6f
 4813 0667 02       		.byte	0x2
 4814 0668 91       		.byte	0x91
 4815 0669 6E       		.sleb128 -18
 4816 066a 0D       		.uleb128 0xd
 4817 066b EC030000 		.4byte	.LASF65
 4818 066f 01       		.byte	0x1
 4819 0670 AE05     		.2byte	0x5ae
 4820 0672 6F000000 		.4byte	0x6f
 4821 0676 02       		.byte	0x2
 4822 0677 91       		.byte	0x91
 4823 0678 6F       		.sleb128 -17
 4824 0679 0D       		.uleb128 0xd
 4825 067a 93020000 		.4byte	.LASF81
 4826 067e 01       		.byte	0x1
 4827 067f AF05     		.2byte	0x5af
 4828 0681 7A000000 		.4byte	0x7a
 4829 0685 02       		.byte	0x2
 4830 0686 91       		.byte	0x91
 4831 0687 70       		.sleb128 -16
 4832 0688 0D       		.uleb128 0xd
 4833 0689 8C040000 		.4byte	.LASF82
 4834 068d 01       		.byte	0x1
 4835 068e AF05     		.2byte	0x5af
 4836 0690 7A000000 		.4byte	0x7a
 4837 0694 02       		.byte	0x2
 4838 0695 91       		.byte	0x91
 4839 0696 72       		.sleb128 -14
 4840 0697 0D       		.uleb128 0xd
 4841 0698 42020000 		.4byte	.LASF83
 4842 069c 01       		.byte	0x1
 4843 069d B005     		.2byte	0x5b0
 4844 069f 7A000000 		.4byte	0x7a
 4845 06a3 02       		.byte	0x2
 4846 06a4 91       		.byte	0x91
 4847 06a5 74       		.sleb128 -12
 4848 06a6 0D       		.uleb128 0xd
 4849 06a7 B6040000 		.4byte	.LASF84
ARM GAS  C:\Users\hoangp\AppData\Local\Temp\ccZOsuqR.s 			page 118


 4850 06ab 01       		.byte	0x1
 4851 06ac B105     		.2byte	0x5b1
 4852 06ae 7A000000 		.4byte	0x7a
 4853 06b2 02       		.byte	0x2
 4854 06b3 91       		.byte	0x91
 4855 06b4 76       		.sleb128 -10
 4856 06b5 00       		.byte	0x0
 4857 06b6 0B       		.uleb128 0xb
 4858 06b7 01       		.byte	0x1
 4859 06b8 0C050000 		.4byte	.LASF85
 4860 06bc 01       		.byte	0x1
 4861 06bd 8506     		.2byte	0x685
 4862 06bf 01       		.byte	0x1
 4863 06c0 00000000 		.4byte	.LFB27
 4864 06c4 CA010000 		.4byte	.LFE27
 4865 06c8 49050000 		.4byte	.LLST27
 4866 06cc 49070000 		.4byte	0x749
 4867 06d0 0C       		.uleb128 0xc
 4868 06d1 23000000 		.4byte	.LASF80
 4869 06d5 01       		.byte	0x1
 4870 06d6 8506     		.2byte	0x685
 4871 06d8 6F000000 		.4byte	0x6f
 4872 06dc 02       		.byte	0x2
 4873 06dd 91       		.byte	0x91
 4874 06de 67       		.sleb128 -25
 4875 06df 0C       		.uleb128 0xc
 4876 06e0 AB060000 		.4byte	.LASF86
 4877 06e4 01       		.byte	0x1
 4878 06e5 8506     		.2byte	0x685
 4879 06e7 7A000000 		.4byte	0x7a
 4880 06eb 02       		.byte	0x2
 4881 06ec 91       		.byte	0x91
 4882 06ed 64       		.sleb128 -28
 4883 06ee 0C       		.uleb128 0xc
 4884 06ef 8B010000 		.4byte	.LASF87
 4885 06f3 01       		.byte	0x1
 4886 06f4 8506     		.2byte	0x685
 4887 06f6 7A000000 		.4byte	0x7a
 4888 06fa 02       		.byte	0x2
 4889 06fb 91       		.byte	0x91
 4890 06fc 62       		.sleb128 -30
 4891 06fd 0C       		.uleb128 0xc
 4892 06fe EC030000 		.4byte	.LASF65
 4893 0702 01       		.byte	0x1
 4894 0703 8606     		.2byte	0x686
 4895 0705 6F000000 		.4byte	0x6f
 4896 0709 02       		.byte	0x2
 4897 070a 91       		.byte	0x91
 4898 070b 61       		.sleb128 -31
 4899 070c 0D       		.uleb128 0xd
 4900 070d 58020000 		.4byte	.LASF88
 4901 0711 01       		.byte	0x1
 4902 0712 8806     		.2byte	0x688
 4903 0714 90000000 		.4byte	0x90
 4904 0718 02       		.byte	0x2
 4905 0719 91       		.byte	0x91
 4906 071a 6F       		.sleb128 -17
ARM GAS  C:\Users\hoangp\AppData\Local\Temp\ccZOsuqR.s 			page 119


 4907 071b 0D       		.uleb128 0xd
 4908 071c 7C000000 		.4byte	.LASF89
 4909 0720 01       		.byte	0x1
 4910 0721 8906     		.2byte	0x689
 4911 0723 9B000000 		.4byte	0x9b
 4912 0727 02       		.byte	0x2
 4913 0728 91       		.byte	0x91
 4914 0729 70       		.sleb128 -16
 4915 072a 0D       		.uleb128 0xd
 4916 072b 70030000 		.4byte	.LASF90
 4917 072f 01       		.byte	0x1
 4918 0730 8A06     		.2byte	0x68a
 4919 0732 7A000000 		.4byte	0x7a
 4920 0736 02       		.byte	0x2
 4921 0737 91       		.byte	0x91
 4922 0738 72       		.sleb128 -14
 4923 0739 0D       		.uleb128 0xd
 4924 073a 2A040000 		.4byte	.LASF91
 4925 073e 01       		.byte	0x1
 4926 073f 8B06     		.2byte	0x68b
 4927 0741 85000000 		.4byte	0x85
 4928 0745 02       		.byte	0x2
 4929 0746 91       		.byte	0x91
 4930 0747 74       		.sleb128 -12
 4931 0748 00       		.byte	0x0
 4932 0749 0B       		.uleb128 0xb
 4933 074a 01       		.byte	0x1
 4934 074b C3040000 		.4byte	.LASF92
 4935 074f 01       		.byte	0x1
 4936 0750 0107     		.2byte	0x701
 4937 0752 01       		.byte	0x1
 4938 0753 00000000 		.4byte	.LFB28
 4939 0757 92000000 		.4byte	.LFE28
 4940 075b 80050000 		.4byte	.LLST28
 4941 075f 73070000 		.4byte	0x773
 4942 0763 0C       		.uleb128 0xc
 4943 0764 A4010000 		.4byte	.LASF93
 4944 0768 01       		.byte	0x1
 4945 0769 0107     		.2byte	0x701
 4946 076b 6F000000 		.4byte	0x6f
 4947 076f 02       		.byte	0x2
 4948 0770 91       		.byte	0x91
 4949 0771 77       		.sleb128 -9
 4950 0772 00       		.byte	0x0
 4951 0773 11       		.uleb128 0x11
 4952 0774 19060000 		.4byte	.LASF94
 4953 0778 01       		.byte	0x1
 4954 0779 3B       		.byte	0x3b
 4955 077a 59010000 		.4byte	0x159
 4956 077e 05       		.byte	0x5
 4957 077f 03       		.byte	0x3
 4958 0780 08000000 		.4byte	ADC_DelSig_1_powerModeBackup
 4959 0784 12       		.uleb128 0x12
 4960 0785 9D020000 		.4byte	.LASF95
 4961 0789 01       		.byte	0x1
 4962 078a 1F       		.byte	0x1f
 4963 078b C6000000 		.4byte	0xc6
ARM GAS  C:\Users\hoangp\AppData\Local\Temp\ccZOsuqR.s 			page 120


 4964 078f 01       		.byte	0x1
 4965 0790 05       		.byte	0x5
 4966 0791 03       		.byte	0x3
 4967 0792 00000000 		.4byte	ADC_DelSig_1_convDone
 4968 0796 12       		.uleb128 0x12
 4969 0797 B8060000 		.4byte	.LASF96
 4970 079b 01       		.byte	0x1
 4971 079c 23       		.byte	0x23
 4972 079d C6000000 		.4byte	0xc6
 4973 07a1 01       		.byte	0x1
 4974 07a2 05       		.byte	0x5
 4975 07a3 03       		.byte	0x3
 4976 07a4 00000000 		.4byte	ADC_DelSig_1_stopConversion
 4977 07a8 12       		.uleb128 0x12
 4978 07a9 36030000 		.4byte	.LASF97
 4979 07ad 01       		.byte	0x1
 4980 07ae 26       		.byte	0x26
 4981 07af 6F000000 		.4byte	0x6f
 4982 07b3 01       		.byte	0x1
 4983 07b4 05       		.byte	0x5
 4984 07b5 03       		.byte	0x3
 4985 07b6 00000000 		.4byte	ADC_DelSig_1_initVar
 4986 07ba 12       		.uleb128 0x12
 4987 07bb 0B020000 		.4byte	.LASF98
 4988 07bf 01       		.byte	0x1
 4989 07c0 29       		.byte	0x29
 4990 07c1 C6000000 		.4byte	0xc6
 4991 07c5 01       		.byte	0x1
 4992 07c6 05       		.byte	0x5
 4993 07c7 03       		.byte	0x3
 4994 07c8 00000000 		.4byte	ADC_DelSig_1_started
 4995 07cc 12       		.uleb128 0x12
 4996 07cd E2020000 		.4byte	.LASF99
 4997 07d1 01       		.byte	0x1
 4998 07d2 2C       		.byte	0x2c
 4999 07d3 C6000000 		.4byte	0xc6
 5000 07d7 01       		.byte	0x1
 5001 07d8 05       		.byte	0x5
 5002 07d9 03       		.byte	0x3
 5003 07da 00000000 		.4byte	ADC_DelSig_1_Config
 5004 07de 12       		.uleb128 0x12
 5005 07df 06030000 		.4byte	.LASF100
 5006 07e3 01       		.byte	0x1
 5007 07e4 2E       		.byte	0x2e
 5008 07e5 F0070000 		.4byte	0x7f0
 5009 07e9 01       		.byte	0x1
 5010 07ea 05       		.byte	0x5
 5011 07eb 03       		.byte	0x3
 5012 07ec 00000000 		.4byte	ADC_DelSig_1_Offset
 5013 07f0 05       		.uleb128 0x5
 5014 07f1 A6000000 		.4byte	0xa6
 5015 07f5 12       		.uleb128 0x12
 5016 07f6 6A040000 		.4byte	.LASF101
 5017 07fa 01       		.byte	0x1
 5018 07fb 2F       		.byte	0x2f
 5019 07fc F0070000 		.4byte	0x7f0
 5020 0800 01       		.byte	0x1
ARM GAS  C:\Users\hoangp\AppData\Local\Temp\ccZOsuqR.s 			page 121


 5021 0801 05       		.byte	0x5
 5022 0802 03       		.byte	0x3
 5023 0803 00000000 		.4byte	ADC_DelSig_1_CountsPerVolt
 5024 0807 12       		.uleb128 0x12
 5025 0808 70050000 		.4byte	.LASF102
 5026 080c 01       		.byte	0x1
 5027 080d 35       		.byte	0x35
 5028 080e 6F000000 		.4byte	0x6f
 5029 0812 01       		.byte	0x1
 5030 0813 05       		.byte	0x5
 5031 0814 03       		.byte	0x3
 5032 0815 00000000 		.4byte	ADC_DelSig_1_restoreReg
 5033 0819 00       		.byte	0x0
 5034              		.section	.debug_abbrev
 5035 0000 01       		.uleb128 0x1
 5036 0001 11       		.uleb128 0x11
 5037 0002 01       		.byte	0x1
 5038 0003 25       		.uleb128 0x25
 5039 0004 0E       		.uleb128 0xe
 5040 0005 13       		.uleb128 0x13
 5041 0006 0B       		.uleb128 0xb
 5042 0007 03       		.uleb128 0x3
 5043 0008 0E       		.uleb128 0xe
 5044 0009 1B       		.uleb128 0x1b
 5045 000a 0E       		.uleb128 0xe
 5046 000b 11       		.uleb128 0x11
 5047 000c 01       		.uleb128 0x1
 5048 000d 52       		.uleb128 0x52
 5049 000e 01       		.uleb128 0x1
 5050 000f 55       		.uleb128 0x55
 5051 0010 06       		.uleb128 0x6
 5052 0011 10       		.uleb128 0x10
 5053 0012 06       		.uleb128 0x6
 5054 0013 00       		.byte	0x0
 5055 0014 00       		.byte	0x0
 5056 0015 02       		.uleb128 0x2
 5057 0016 24       		.uleb128 0x24
 5058 0017 00       		.byte	0x0
 5059 0018 0B       		.uleb128 0xb
 5060 0019 0B       		.uleb128 0xb
 5061 001a 3E       		.uleb128 0x3e
 5062 001b 0B       		.uleb128 0xb
 5063 001c 03       		.uleb128 0x3
 5064 001d 0E       		.uleb128 0xe
 5065 001e 00       		.byte	0x0
 5066 001f 00       		.byte	0x0
 5067 0020 03       		.uleb128 0x3
 5068 0021 24       		.uleb128 0x24
 5069 0022 00       		.byte	0x0
 5070 0023 0B       		.uleb128 0xb
 5071 0024 0B       		.uleb128 0xb
 5072 0025 3E       		.uleb128 0x3e
 5073 0026 0B       		.uleb128 0xb
 5074 0027 03       		.uleb128 0x3
 5075 0028 08       		.uleb128 0x8
 5076 0029 00       		.byte	0x0
 5077 002a 00       		.byte	0x0
ARM GAS  C:\Users\hoangp\AppData\Local\Temp\ccZOsuqR.s 			page 122


 5078 002b 04       		.uleb128 0x4
 5079 002c 16       		.uleb128 0x16
 5080 002d 00       		.byte	0x0
 5081 002e 03       		.uleb128 0x3
 5082 002f 0E       		.uleb128 0xe
 5083 0030 3A       		.uleb128 0x3a
 5084 0031 0B       		.uleb128 0xb
 5085 0032 3B       		.uleb128 0x3b
 5086 0033 0B       		.uleb128 0xb
 5087 0034 49       		.uleb128 0x49
 5088 0035 13       		.uleb128 0x13
 5089 0036 00       		.byte	0x0
 5090 0037 00       		.byte	0x0
 5091 0038 05       		.uleb128 0x5
 5092 0039 35       		.uleb128 0x35
 5093 003a 00       		.byte	0x0
 5094 003b 49       		.uleb128 0x49
 5095 003c 13       		.uleb128 0x13
 5096 003d 00       		.byte	0x0
 5097 003e 00       		.byte	0x0
 5098 003f 06       		.uleb128 0x6
 5099 0040 24       		.uleb128 0x24
 5100 0041 00       		.byte	0x0
 5101 0042 0B       		.uleb128 0xb
 5102 0043 0B       		.uleb128 0xb
 5103 0044 3E       		.uleb128 0x3e
 5104 0045 0B       		.uleb128 0xb
 5105 0046 00       		.byte	0x0
 5106 0047 00       		.byte	0x0
 5107 0048 07       		.uleb128 0x7
 5108 0049 13       		.uleb128 0x13
 5109 004a 01       		.byte	0x1
 5110 004b 03       		.uleb128 0x3
 5111 004c 0E       		.uleb128 0xe
 5112 004d 0B       		.uleb128 0xb
 5113 004e 0B       		.uleb128 0xb
 5114 004f 3A       		.uleb128 0x3a
 5115 0050 0B       		.uleb128 0xb
 5116 0051 3B       		.uleb128 0x3b
 5117 0052 0B       		.uleb128 0xb
 5118 0053 01       		.uleb128 0x1
 5119 0054 13       		.uleb128 0x13
 5120 0055 00       		.byte	0x0
 5121 0056 00       		.byte	0x0
 5122 0057 08       		.uleb128 0x8
 5123 0058 0D       		.uleb128 0xd
 5124 0059 00       		.byte	0x0
 5125 005a 03       		.uleb128 0x3
 5126 005b 0E       		.uleb128 0xe
 5127 005c 3A       		.uleb128 0x3a
 5128 005d 0B       		.uleb128 0xb
 5129 005e 3B       		.uleb128 0x3b
 5130 005f 0B       		.uleb128 0xb
 5131 0060 49       		.uleb128 0x49
 5132 0061 13       		.uleb128 0x13
 5133 0062 38       		.uleb128 0x38
 5134 0063 0A       		.uleb128 0xa
ARM GAS  C:\Users\hoangp\AppData\Local\Temp\ccZOsuqR.s 			page 123


 5135 0064 00       		.byte	0x0
 5136 0065 00       		.byte	0x0
 5137 0066 09       		.uleb128 0x9
 5138 0067 2E       		.uleb128 0x2e
 5139 0068 00       		.byte	0x0
 5140 0069 3F       		.uleb128 0x3f
 5141 006a 0C       		.uleb128 0xc
 5142 006b 03       		.uleb128 0x3
 5143 006c 0E       		.uleb128 0xe
 5144 006d 3A       		.uleb128 0x3a
 5145 006e 0B       		.uleb128 0xb
 5146 006f 3B       		.uleb128 0x3b
 5147 0070 0B       		.uleb128 0xb
 5148 0071 27       		.uleb128 0x27
 5149 0072 0C       		.uleb128 0xc
 5150 0073 11       		.uleb128 0x11
 5151 0074 01       		.uleb128 0x1
 5152 0075 12       		.uleb128 0x12
 5153 0076 01       		.uleb128 0x1
 5154 0077 40       		.uleb128 0x40
 5155 0078 06       		.uleb128 0x6
 5156 0079 00       		.byte	0x0
 5157 007a 00       		.byte	0x0
 5158 007b 0A       		.uleb128 0xa
 5159 007c 2E       		.uleb128 0x2e
 5160 007d 00       		.byte	0x0
 5161 007e 3F       		.uleb128 0x3f
 5162 007f 0C       		.uleb128 0xc
 5163 0080 03       		.uleb128 0x3
 5164 0081 0E       		.uleb128 0xe
 5165 0082 3A       		.uleb128 0x3a
 5166 0083 0B       		.uleb128 0xb
 5167 0084 3B       		.uleb128 0x3b
 5168 0085 05       		.uleb128 0x5
 5169 0086 27       		.uleb128 0x27
 5170 0087 0C       		.uleb128 0xc
 5171 0088 11       		.uleb128 0x11
 5172 0089 01       		.uleb128 0x1
 5173 008a 12       		.uleb128 0x12
 5174 008b 01       		.uleb128 0x1
 5175 008c 40       		.uleb128 0x40
 5176 008d 06       		.uleb128 0x6
 5177 008e 00       		.byte	0x0
 5178 008f 00       		.byte	0x0
 5179 0090 0B       		.uleb128 0xb
 5180 0091 2E       		.uleb128 0x2e
 5181 0092 01       		.byte	0x1
 5182 0093 3F       		.uleb128 0x3f
 5183 0094 0C       		.uleb128 0xc
 5184 0095 03       		.uleb128 0x3
 5185 0096 0E       		.uleb128 0xe
 5186 0097 3A       		.uleb128 0x3a
 5187 0098 0B       		.uleb128 0xb
 5188 0099 3B       		.uleb128 0x3b
 5189 009a 05       		.uleb128 0x5
 5190 009b 27       		.uleb128 0x27
 5191 009c 0C       		.uleb128 0xc
ARM GAS  C:\Users\hoangp\AppData\Local\Temp\ccZOsuqR.s 			page 124


 5192 009d 11       		.uleb128 0x11
 5193 009e 01       		.uleb128 0x1
 5194 009f 12       		.uleb128 0x12
 5195 00a0 01       		.uleb128 0x1
 5196 00a1 40       		.uleb128 0x40
 5197 00a2 06       		.uleb128 0x6
 5198 00a3 01       		.uleb128 0x1
 5199 00a4 13       		.uleb128 0x13
 5200 00a5 00       		.byte	0x0
 5201 00a6 00       		.byte	0x0
 5202 00a7 0C       		.uleb128 0xc
 5203 00a8 05       		.uleb128 0x5
 5204 00a9 00       		.byte	0x0
 5205 00aa 03       		.uleb128 0x3
 5206 00ab 0E       		.uleb128 0xe
 5207 00ac 3A       		.uleb128 0x3a
 5208 00ad 0B       		.uleb128 0xb
 5209 00ae 3B       		.uleb128 0x3b
 5210 00af 05       		.uleb128 0x5
 5211 00b0 49       		.uleb128 0x49
 5212 00b1 13       		.uleb128 0x13
 5213 00b2 02       		.uleb128 0x2
 5214 00b3 0A       		.uleb128 0xa
 5215 00b4 00       		.byte	0x0
 5216 00b5 00       		.byte	0x0
 5217 00b6 0D       		.uleb128 0xd
 5218 00b7 34       		.uleb128 0x34
 5219 00b8 00       		.byte	0x0
 5220 00b9 03       		.uleb128 0x3
 5221 00ba 0E       		.uleb128 0xe
 5222 00bb 3A       		.uleb128 0x3a
 5223 00bc 0B       		.uleb128 0xb
 5224 00bd 3B       		.uleb128 0x3b
 5225 00be 05       		.uleb128 0x5
 5226 00bf 49       		.uleb128 0x49
 5227 00c0 13       		.uleb128 0x13
 5228 00c1 02       		.uleb128 0x2
 5229 00c2 0A       		.uleb128 0xa
 5230 00c3 00       		.byte	0x0
 5231 00c4 00       		.byte	0x0
 5232 00c5 0E       		.uleb128 0xe
 5233 00c6 2E       		.uleb128 0x2e
 5234 00c7 01       		.byte	0x1
 5235 00c8 3F       		.uleb128 0x3f
 5236 00c9 0C       		.uleb128 0xc
 5237 00ca 03       		.uleb128 0x3
 5238 00cb 0E       		.uleb128 0xe
 5239 00cc 3A       		.uleb128 0x3a
 5240 00cd 0B       		.uleb128 0xb
 5241 00ce 3B       		.uleb128 0x3b
 5242 00cf 05       		.uleb128 0x5
 5243 00d0 27       		.uleb128 0x27
 5244 00d1 0C       		.uleb128 0xc
 5245 00d2 49       		.uleb128 0x49
 5246 00d3 13       		.uleb128 0x13
 5247 00d4 11       		.uleb128 0x11
 5248 00d5 01       		.uleb128 0x1
ARM GAS  C:\Users\hoangp\AppData\Local\Temp\ccZOsuqR.s 			page 125


 5249 00d6 12       		.uleb128 0x12
 5250 00d7 01       		.uleb128 0x1
 5251 00d8 40       		.uleb128 0x40
 5252 00d9 06       		.uleb128 0x6
 5253 00da 01       		.uleb128 0x1
 5254 00db 13       		.uleb128 0x13
 5255 00dc 00       		.byte	0x0
 5256 00dd 00       		.byte	0x0
 5257 00de 0F       		.uleb128 0xf
 5258 00df 2E       		.uleb128 0x2e
 5259 00e0 00       		.byte	0x0
 5260 00e1 3F       		.uleb128 0x3f
 5261 00e2 0C       		.uleb128 0xc
 5262 00e3 03       		.uleb128 0x3
 5263 00e4 0E       		.uleb128 0xe
 5264 00e5 3A       		.uleb128 0x3a
 5265 00e6 0B       		.uleb128 0xb
 5266 00e7 3B       		.uleb128 0x3b
 5267 00e8 05       		.uleb128 0x5
 5268 00e9 27       		.uleb128 0x27
 5269 00ea 0C       		.uleb128 0xc
 5270 00eb 49       		.uleb128 0x49
 5271 00ec 13       		.uleb128 0x13
 5272 00ed 11       		.uleb128 0x11
 5273 00ee 01       		.uleb128 0x1
 5274 00ef 12       		.uleb128 0x12
 5275 00f0 01       		.uleb128 0x1
 5276 00f1 40       		.uleb128 0x40
 5277 00f2 06       		.uleb128 0x6
 5278 00f3 00       		.byte	0x0
 5279 00f4 00       		.byte	0x0
 5280 00f5 10       		.uleb128 0x10
 5281 00f6 34       		.uleb128 0x34
 5282 00f7 00       		.byte	0x0
 5283 00f8 03       		.uleb128 0x3
 5284 00f9 08       		.uleb128 0x8
 5285 00fa 3A       		.uleb128 0x3a
 5286 00fb 0B       		.uleb128 0xb
 5287 00fc 3B       		.uleb128 0x3b
 5288 00fd 05       		.uleb128 0x5
 5289 00fe 49       		.uleb128 0x49
 5290 00ff 13       		.uleb128 0x13
 5291 0100 02       		.uleb128 0x2
 5292 0101 0A       		.uleb128 0xa
 5293 0102 00       		.byte	0x0
 5294 0103 00       		.byte	0x0
 5295 0104 11       		.uleb128 0x11
 5296 0105 34       		.uleb128 0x34
 5297 0106 00       		.byte	0x0
 5298 0107 03       		.uleb128 0x3
 5299 0108 0E       		.uleb128 0xe
 5300 0109 3A       		.uleb128 0x3a
 5301 010a 0B       		.uleb128 0xb
 5302 010b 3B       		.uleb128 0x3b
 5303 010c 0B       		.uleb128 0xb
 5304 010d 49       		.uleb128 0x49
 5305 010e 13       		.uleb128 0x13
ARM GAS  C:\Users\hoangp\AppData\Local\Temp\ccZOsuqR.s 			page 126


 5306 010f 02       		.uleb128 0x2
 5307 0110 0A       		.uleb128 0xa
 5308 0111 00       		.byte	0x0
 5309 0112 00       		.byte	0x0
 5310 0113 12       		.uleb128 0x12
 5311 0114 34       		.uleb128 0x34
 5312 0115 00       		.byte	0x0
 5313 0116 03       		.uleb128 0x3
 5314 0117 0E       		.uleb128 0xe
 5315 0118 3A       		.uleb128 0x3a
 5316 0119 0B       		.uleb128 0xb
 5317 011a 3B       		.uleb128 0x3b
 5318 011b 0B       		.uleb128 0xb
 5319 011c 49       		.uleb128 0x49
 5320 011d 13       		.uleb128 0x13
 5321 011e 3F       		.uleb128 0x3f
 5322 011f 0C       		.uleb128 0xc
 5323 0120 02       		.uleb128 0x2
 5324 0121 0A       		.uleb128 0xa
 5325 0122 00       		.byte	0x0
 5326 0123 00       		.byte	0x0
 5327 0124 00       		.byte	0x0
 5328              		.section	.debug_pubnames,"",%progbits
 5329 0000 38040000 		.4byte	0x438
 5330 0004 0200     		.2byte	0x2
 5331 0006 00000000 		.4byte	.Ldebug_info0
 5332 000a 1A080000 		.4byte	0x81a
 5333 000e 64010000 		.4byte	0x164
 5334 0012 4144435F 		.ascii	"ADC_DelSig_1_Init\000"
 5334      44656C53 
 5334      69675F31 
 5334      5F496E69 
 5334      7400
 5335 0024 79010000 		.4byte	0x179
 5336 0028 4144435F 		.ascii	"ADC_DelSig_1_Enable\000"
 5336      44656C53 
 5336      69675F31 
 5336      5F456E61 
 5336      626C6500 
 5337 003c 8E010000 		.4byte	0x18e
 5338 0040 4144435F 		.ascii	"ADC_DelSig_1_RestorePowerRegisters\000"
 5338      44656C53 
 5338      69675F31 
 5338      5F526573 
 5338      746F7265 
 5339 0063 A3010000 		.4byte	0x1a3
 5340 0067 4144435F 		.ascii	"ADC_DelSig_1_SavePowerRegisters\000"
 5340      44656C53 
 5340      69675F31 
 5340      5F536176 
 5340      65506F77 
 5341 0087 B8010000 		.4byte	0x1b8
 5342 008b 4144435F 		.ascii	"ADC_DelSig_1_SetLowPower\000"
 5342      44656C53 
 5342      69675F31 
 5342      5F536574 
 5342      4C6F7750 
ARM GAS  C:\Users\hoangp\AppData\Local\Temp\ccZOsuqR.s 			page 127


 5343 00a4 CE010000 		.4byte	0x1ce
 5344 00a8 4144435F 		.ascii	"ADC_DelSig_1_Start\000"
 5344      44656C53 
 5344      69675F31 
 5344      5F537461 
 5344      727400
 5345 00bb E4010000 		.4byte	0x1e4
 5346 00bf 4144435F 		.ascii	"ADC_DelSig_1_Stop\000"
 5346      44656C53 
 5346      69675F31 
 5346      5F53746F 
 5346      7000
 5347 00d1 FA010000 		.4byte	0x1fa
 5348 00d5 4144435F 		.ascii	"ADC_DelSig_1_SetBufferGain\000"
 5348      44656C53 
 5348      69675F31 
 5348      5F536574 
 5348      42756666 
 5349 00f0 33020000 		.4byte	0x233
 5350 00f4 4144435F 		.ascii	"ADC_DelSig_1_SetCoherency\000"
 5350      44656C53 
 5350      69675F31 
 5350      5F536574 
 5350      436F6865 
 5351 010e 6C020000 		.4byte	0x26c
 5352 0112 4144435F 		.ascii	"ADC_DelSig_1_SetGCOR\000"
 5352      44656C53 
 5352      69675F31 
 5352      5F536574 
 5352      47434F52 
 5353 0127 C7020000 		.4byte	0x2c7
 5354 012b 4144435F 		.ascii	"ADC_DelSig_1_ReadGCOR\000"
 5354      44656C53 
 5354      69675F31 
 5354      5F526561 
 5354      6447434F 
 5355 0141 13030000 		.4byte	0x313
 5356 0145 4144435F 		.ascii	"ADC_DelSig_1_SetBufferChop\000"
 5356      44656C53 
 5356      69675F31 
 5356      5F536574 
 5356      42756666 
 5357 0160 4C030000 		.4byte	0x34c
 5358 0164 4144435F 		.ascii	"ADC_DelSig_1_StartConvert\000"
 5358      44656C53 
 5358      69675F31 
 5358      5F537461 
 5358      7274436F 
 5359 017e 62030000 		.4byte	0x362
 5360 0182 4144435F 		.ascii	"ADC_DelSig_1_StopConvert\000"
 5360      44656C53 
 5360      69675F31 
 5360      5F53746F 
 5360      70436F6E 
 5361 019b 78030000 		.4byte	0x378
 5362 019f 4144435F 		.ascii	"ADC_DelSig_1_IsEndConversion\000"
 5362      44656C53 
ARM GAS  C:\Users\hoangp\AppData\Local\Temp\ccZOsuqR.s 			page 128


 5362      69675F31 
 5362      5F497345 
 5362      6E64436F 
 5363 01bc B5030000 		.4byte	0x3b5
 5364 01c0 4144435F 		.ascii	"ADC_DelSig_1_GetResult8\000"
 5364      44656C53 
 5364      69675F31 
 5364      5F476574 
 5364      52657375 
 5365 01d8 CF030000 		.4byte	0x3cf
 5366 01dc 4144435F 		.ascii	"ADC_DelSig_1_GetResult16\000"
 5366      44656C53 
 5366      69675F31 
 5366      5F476574 
 5366      52657375 
 5367 01f5 FD030000 		.4byte	0x3fd
 5368 01f9 4144435F 		.ascii	"ADC_DelSig_1_GetResult32\000"
 5368      44656C53 
 5368      69675F31 
 5368      5F476574 
 5368      52657375 
 5369 0212 2B040000 		.4byte	0x42b
 5370 0216 4144435F 		.ascii	"ADC_DelSig_1_SetOffset\000"
 5370      44656C53 
 5370      69675F31 
 5370      5F536574 
 5370      4F666673 
 5371 022d 55040000 		.4byte	0x455
 5372 0231 4144435F 		.ascii	"ADC_DelSig_1_SetGain\000"
 5372      44656C53 
 5372      69675F31 
 5372      5F536574 
 5372      4761696E 
 5373 0246 7F040000 		.4byte	0x47f
 5374 024a 4144435F 		.ascii	"ADC_DelSig_1_CountsTo_mVolts\000"
 5374      44656C53 
 5374      69675F31 
 5374      5F436F75 
 5374      6E747354 
 5375 0267 E5040000 		.4byte	0x4e5
 5376 026b 4144435F 		.ascii	"ADC_DelSig_1_CountsTo_Volts\000"
 5376      44656C53 
 5376      69675F31 
 5376      5F436F75 
 5376      6E747354 
 5377 0287 22050000 		.4byte	0x522
 5378 028b 4144435F 		.ascii	"ADC_DelSig_1_CountsTo_uVolts\000"
 5378      44656C53 
 5378      69675F31 
 5378      5F436F75 
 5378      6E747354 
 5379 02a8 88050000 		.4byte	0x588
 5380 02ac 4144435F 		.ascii	"ADC_DelSig_1_IRQ_Start\000"
 5380      44656C53 
 5380      69675F31 
 5380      5F495251 
 5380      5F537461 
ARM GAS  C:\Users\hoangp\AppData\Local\Temp\ccZOsuqR.s 			page 129


 5381 02c3 9E050000 		.4byte	0x59e
 5382 02c7 4144435F 		.ascii	"ADC_DelSig_1_InitConfig\000"
 5382      44656C53 
 5382      69675F31 
 5382      5F496E69 
 5382      74436F6E 
 5383 02df C8050000 		.4byte	0x5c8
 5384 02e3 4144435F 		.ascii	"ADC_DelSig_1_RoundValue\000"
 5384      44656C53 
 5384      69675F31 
 5384      5F526F75 
 5384      6E645661 
 5385 02fb 23060000 		.4byte	0x623
 5386 02ff 4144435F 		.ascii	"ADC_DelSig_1_SelectConfiguration\000"
 5386      44656C53 
 5386      69675F31 
 5386      5F53656C 
 5386      65637443 
 5387 0320 B6060000 		.4byte	0x6b6
 5388 0324 4144435F 		.ascii	"ADC_DelSig_1_GainCompensation\000"
 5388      44656C53 
 5388      69675F31 
 5388      5F476169 
 5388      6E436F6D 
 5389 0342 49070000 		.4byte	0x749
 5390 0346 4144435F 		.ascii	"ADC_DelSig_1_SetDSMRef0Reg\000"
 5390      44656C53 
 5390      69675F31 
 5390      5F536574 
 5390      44534D52 
 5391 0361 84070000 		.4byte	0x784
 5392 0365 4144435F 		.ascii	"ADC_DelSig_1_convDone\000"
 5392      44656C53 
 5392      69675F31 
 5392      5F636F6E 
 5392      76446F6E 
 5393 037b 96070000 		.4byte	0x796
 5394 037f 4144435F 		.ascii	"ADC_DelSig_1_stopConversion\000"
 5394      44656C53 
 5394      69675F31 
 5394      5F73746F 
 5394      70436F6E 
 5395 039b A8070000 		.4byte	0x7a8
 5396 039f 4144435F 		.ascii	"ADC_DelSig_1_initVar\000"
 5396      44656C53 
 5396      69675F31 
 5396      5F696E69 
 5396      74566172 
 5397 03b4 BA070000 		.4byte	0x7ba
 5398 03b8 4144435F 		.ascii	"ADC_DelSig_1_started\000"
 5398      44656C53 
 5398      69675F31 
 5398      5F737461 
 5398      72746564 
 5399 03cd CC070000 		.4byte	0x7cc
 5400 03d1 4144435F 		.ascii	"ADC_DelSig_1_Config\000"
 5400      44656C53 
ARM GAS  C:\Users\hoangp\AppData\Local\Temp\ccZOsuqR.s 			page 130


 5400      69675F31 
 5400      5F436F6E 
 5400      66696700 
 5401 03e5 DE070000 		.4byte	0x7de
 5402 03e9 4144435F 		.ascii	"ADC_DelSig_1_Offset\000"
 5402      44656C53 
 5402      69675F31 
 5402      5F4F6666 
 5402      73657400 
 5403 03fd F5070000 		.4byte	0x7f5
 5404 0401 4144435F 		.ascii	"ADC_DelSig_1_CountsPerVolt\000"
 5404      44656C53 
 5404      69675F31 
 5404      5F436F75 
 5404      6E747350 
 5405 041c 07080000 		.4byte	0x807
 5406 0420 4144435F 		.ascii	"ADC_DelSig_1_restoreReg\000"
 5406      44656C53 
 5406      69675F31 
 5406      5F726573 
 5406      746F7265 
 5407 0438 00000000 		.4byte	0x0
 5408              		.section	.debug_aranges,"",%progbits
 5409 0000 FC000000 		.4byte	0xfc
 5410 0004 0200     		.2byte	0x2
 5411 0006 00000000 		.4byte	.Ldebug_info0
 5412 000a 04       		.byte	0x4
 5413 000b 00       		.byte	0x0
 5414 000c 0000     		.2byte	0x0
 5415 000e 0000     		.2byte	0x0
 5416 0010 00000000 		.4byte	.LFB0
 5417 0014 32000000 		.4byte	.LFE0-.LFB0
 5418 0018 00000000 		.4byte	.LFB1
 5419 001c C2010000 		.4byte	.LFE1-.LFB1
 5420 0020 00000000 		.4byte	.LFB2
 5421 0024 AA000000 		.4byte	.LFE2-.LFB2
 5422 0028 00000000 		.4byte	.LFB3
 5423 002c BA000000 		.4byte	.LFE3-.LFB3
 5424 0030 00000000 		.4byte	.LFB4
 5425 0034 36010000 		.4byte	.LFE4-.LFB4
 5426 0038 00000000 		.4byte	.LFB5
 5427 003c 3A000000 		.4byte	.LFE5-.LFB5
 5428 0040 00000000 		.4byte	.LFB6
 5429 0044 B0010000 		.4byte	.LFE6-.LFB6
 5430 0048 00000000 		.4byte	.LFB7
 5431 004c 44000000 		.4byte	.LFE7-.LFB7
 5432 0050 00000000 		.4byte	.LFB8
 5433 0054 3C000000 		.4byte	.LFE8-.LFB8
 5434 0058 00000000 		.4byte	.LFB9
 5435 005c E4000000 		.4byte	.LFE9-.LFB9
 5436 0060 00000000 		.4byte	.LFB10
 5437 0064 BA000000 		.4byte	.LFE10-.LFB10
 5438 0068 00000000 		.4byte	.LFB11
 5439 006c 44000000 		.4byte	.LFE11-.LFB11
 5440 0070 00000000 		.4byte	.LFB12
 5441 0074 26000000 		.4byte	.LFE12-.LFB12
 5442 0078 00000000 		.4byte	.LFB13
ARM GAS  C:\Users\hoangp\AppData\Local\Temp\ccZOsuqR.s 			page 131


 5443 007c 32000000 		.4byte	.LFE13-.LFB13
 5444 0080 00000000 		.4byte	.LFB14
 5445 0084 60000000 		.4byte	.LFE14-.LFB14
 5446 0088 00000000 		.4byte	.LFB15
 5447 008c 1A000000 		.4byte	.LFE15-.LFB15
 5448 0090 00000000 		.4byte	.LFB16
 5449 0094 22000000 		.4byte	.LFE16-.LFB16
 5450 0098 00000000 		.4byte	.LFB17
 5451 009c 3A000000 		.4byte	.LFE17-.LFB17
 5452 00a0 00000000 		.4byte	.LFB18
 5453 00a4 1E000000 		.4byte	.LFE18-.LFB18
 5454 00a8 00000000 		.4byte	.LFB19
 5455 00ac 1E000000 		.4byte	.LFE19-.LFB19
 5456 00b0 00000000 		.4byte	.LFB20
 5457 00b4 C4000000 		.4byte	.LFE20-.LFB20
 5458 00b8 00000000 		.4byte	.LFB21
 5459 00bc 54000000 		.4byte	.LFE21-.LFB21
 5460 00c0 00000000 		.4byte	.LFB22
 5461 00c4 F0000000 		.4byte	.LFE22-.LFB22
 5462 00c8 00000000 		.4byte	.LFB23
 5463 00cc 3E000000 		.4byte	.LFE23-.LFB23
 5464 00d0 00000000 		.4byte	.LFB24
 5465 00d4 B0080000 		.4byte	.LFE24-.LFB24
 5466 00d8 00000000 		.4byte	.LFB25
 5467 00dc 54000000 		.4byte	.LFE25-.LFB25
 5468 00e0 00000000 		.4byte	.LFB26
 5469 00e4 FE010000 		.4byte	.LFE26-.LFB26
 5470 00e8 00000000 		.4byte	.LFB27
 5471 00ec CA010000 		.4byte	.LFE27-.LFB27
 5472 00f0 00000000 		.4byte	.LFB28
 5473 00f4 92000000 		.4byte	.LFE28-.LFB28
 5474 00f8 00000000 		.4byte	0x0
 5475 00fc 00000000 		.4byte	0x0
 5476              		.section	.debug_ranges,"",%progbits
 5477              	.Ldebug_ranges0:
 5478 0000 00000000 		.4byte	.Ltext0
 5479 0004 00000000 		.4byte	.Letext0
 5480 0008 00000000 		.4byte	.LFB0
 5481 000c 32000000 		.4byte	.LFE0
 5482 0010 00000000 		.4byte	.LFB1
 5483 0014 C2010000 		.4byte	.LFE1
 5484 0018 00000000 		.4byte	.LFB2
 5485 001c AA000000 		.4byte	.LFE2
 5486 0020 00000000 		.4byte	.LFB3
 5487 0024 BA000000 		.4byte	.LFE3
 5488 0028 00000000 		.4byte	.LFB4
 5489 002c 36010000 		.4byte	.LFE4
 5490 0030 00000000 		.4byte	.LFB5
 5491 0034 3A000000 		.4byte	.LFE5
 5492 0038 00000000 		.4byte	.LFB6
 5493 003c B0010000 		.4byte	.LFE6
 5494 0040 00000000 		.4byte	.LFB7
 5495 0044 44000000 		.4byte	.LFE7
 5496 0048 00000000 		.4byte	.LFB8
 5497 004c 3C000000 		.4byte	.LFE8
 5498 0050 00000000 		.4byte	.LFB9
 5499 0054 E4000000 		.4byte	.LFE9
ARM GAS  C:\Users\hoangp\AppData\Local\Temp\ccZOsuqR.s 			page 132


 5500 0058 00000000 		.4byte	.LFB10
 5501 005c BA000000 		.4byte	.LFE10
 5502 0060 00000000 		.4byte	.LFB11
 5503 0064 44000000 		.4byte	.LFE11
 5504 0068 00000000 		.4byte	.LFB12
 5505 006c 26000000 		.4byte	.LFE12
 5506 0070 00000000 		.4byte	.LFB13
 5507 0074 32000000 		.4byte	.LFE13
 5508 0078 00000000 		.4byte	.LFB14
 5509 007c 60000000 		.4byte	.LFE14
 5510 0080 00000000 		.4byte	.LFB15
 5511 0084 1A000000 		.4byte	.LFE15
 5512 0088 00000000 		.4byte	.LFB16
 5513 008c 22000000 		.4byte	.LFE16
 5514 0090 00000000 		.4byte	.LFB17
 5515 0094 3A000000 		.4byte	.LFE17
 5516 0098 00000000 		.4byte	.LFB18
 5517 009c 1E000000 		.4byte	.LFE18
 5518 00a0 00000000 		.4byte	.LFB19
 5519 00a4 1E000000 		.4byte	.LFE19
 5520 00a8 00000000 		.4byte	.LFB20
 5521 00ac C4000000 		.4byte	.LFE20
 5522 00b0 00000000 		.4byte	.LFB21
 5523 00b4 54000000 		.4byte	.LFE21
 5524 00b8 00000000 		.4byte	.LFB22
 5525 00bc F0000000 		.4byte	.LFE22
 5526 00c0 00000000 		.4byte	.LFB23
 5527 00c4 3E000000 		.4byte	.LFE23
 5528 00c8 00000000 		.4byte	.LFB24
 5529 00cc B0080000 		.4byte	.LFE24
 5530 00d0 00000000 		.4byte	.LFB25
 5531 00d4 54000000 		.4byte	.LFE25
 5532 00d8 00000000 		.4byte	.LFB26
 5533 00dc FE010000 		.4byte	.LFE26
 5534 00e0 00000000 		.4byte	.LFB27
 5535 00e4 CA010000 		.4byte	.LFE27
 5536 00e8 00000000 		.4byte	.LFB28
 5537 00ec 92000000 		.4byte	.LFE28
 5538 00f0 00000000 		.4byte	0x0
 5539 00f4 00000000 		.4byte	0x0
 5540              		.section	.debug_str,"MS",%progbits,1
 5541              	.LASF10:
 5542 0000 75696E74 		.ascii	"uint16\000"
 5542      313600
 5543              	.LASF61:
 5544 0007 61646347 		.ascii	"adcGain\000"
 5544      61696E00 
 5545              	.LASF29:
 5546 000f 4144435F 		.ascii	"ADC_DelSig_1_Enable\000"
 5546      44656C53 
 5546      69675F31 
 5546      5F456E61 
 5546      626C6500 
 5547              	.LASF80:
 5548 0023 696E7075 		.ascii	"inputRange\000"
 5548      7452616E 
 5548      676500
ARM GAS  C:\Users\hoangp\AppData\Local\Temp\ccZOsuqR.s 			page 133


 5549              	.LASF78:
 5550 002e 4144435F 		.ascii	"ADC_DelSig_1_SelectConfiguration\000"
 5550      44656C53 
 5550      69675F31 
 5550      5F53656C 
 5550      65637443 
 5551              	.LASF75:
 5552 004f 636C6F63 		.ascii	"clockFreq\000"
 5552      6B467265 
 5552      7100
 5553              	.LASF7:
 5554 0059 6C6F6E67 		.ascii	"long long unsigned int\000"
 5554      206C6F6E 
 5554      6720756E 
 5554      7369676E 
 5554      65642069 
 5555              	.LASF103:
 5556 0070 474E5520 		.ascii	"GNU C 4.4.1\000"
 5556      4320342E 
 5556      342E3100 
 5557              	.LASF89:
 5558 007c 4E6F726D 		.ascii	"Normalised\000"
 5558      616C6973 
 5558      656400
 5559              	.LASF34:
 5560 0087 4144435F 		.ascii	"ADC_DelSig_1_Stop\000"
 5560      44656C53 
 5560      69675F31 
 5560      5F53746F 
 5560      7000
 5561              	.LASF74:
 5562 0099 62757343 		.ascii	"busClockFreq\000"
 5562      6C6F636B 
 5562      46726571 
 5562      00
 5563              	.LASF71:
 5564 00a6 4144435F 		.ascii	"ADC_DelSig_1_InitConfig\000"
 5564      44656C53 
 5564      69675F31 
 5564      5F496E69 
 5564      74436F6E 
 5565              	.LASF107:
 5566 00be 4144435F 		.ascii	"ADC_DelSig_1_GetResult8\000"
 5566      44656C53 
 5566      69675F31 
 5566      5F476574 
 5566      52657375 
 5567              	.LASF6:
 5568 00d6 6C6F6E67 		.ascii	"long long int\000"
 5568      206C6F6E 
 5568      6720696E 
 5568      7400
 5569              	.LASF0:
 5570 00e4 7369676E 		.ascii	"signed char\000"
 5570      65642063 
 5570      68617200 
 5571              	.LASF73:
ARM GAS  C:\Users\hoangp\AppData\Local\Temp\ccZOsuqR.s 			page 134


 5572 00f0 4144435F 		.ascii	"ADC_DelSig_1_RoundValue\000"
 5572      44656C53 
 5572      69675F31 
 5572      5F526F75 
 5572      6E645661 
 5573              	.LASF23:
 5574 0108 44534D5F 		.ascii	"DSM_BUF0\000"
 5574      42554630 
 5574      00
 5575              	.LASF24:
 5576 0111 44534D5F 		.ascii	"DSM_BUF1\000"
 5576      42554631 
 5576      00
 5577              	.LASF14:
 5578 011a 696E7433 		.ascii	"int32\000"
 5578      3200
 5579              	.LASF4:
 5580 0120 6C6F6E67 		.ascii	"long int\000"
 5580      20696E74 
 5580      00
 5581              	.LASF18:
 5582 0129 44534D5F 		.ascii	"DSM_CR_14\000"
 5582      43525F31 
 5582      3400
 5583              	.LASF19:
 5584 0133 44534D5F 		.ascii	"DSM_CR_15\000"
 5584      43525F31 
 5584      3500
 5585              	.LASF20:
 5586 013d 44534D5F 		.ascii	"DSM_CR_16\000"
 5586      43525F31 
 5586      3600
 5587              	.LASF21:
 5588 0147 44534D5F 		.ascii	"DSM_CR_17\000"
 5588      43525F31 
 5588      3700
 5589              	.LASF9:
 5590 0151 75696E74 		.ascii	"uint8\000"
 5590      3800
 5591              	.LASF31:
 5592 0157 4144435F 		.ascii	"ADC_DelSig_1_SavePowerRegisters\000"
 5592      44656C53 
 5592      69675F31 
 5592      5F536176 
 5592      65506F77 
 5593              	.LASF16:
 5594 0177 646F7562 		.ascii	"double\000"
 5594      6C6500
 5595              	.LASF67:
 5596 017e 566F6C74 		.ascii	"Volts\000"
 5596      7300
 5597              	.LASF11:
 5598 0184 75696E74 		.ascii	"uint32\000"
 5598      333200
 5599              	.LASF87:
 5600 018b 49646561 		.ascii	"IdealOddDecGain\000"
 5600      6C4F6464 
ARM GAS  C:\Users\hoangp\AppData\Local\Temp\ccZOsuqR.s 			page 135


 5600      44656347 
 5600      61696E00 
 5601              	.LASF22:
 5602 019b 44534D5F 		.ascii	"DSM_REF0\000"
 5602      52454630 
 5602      00
 5603              	.LASF93:
 5604 01a4 76616C75 		.ascii	"value\000"
 5604      6500
 5605              	.LASF104:
 5606 01aa 2E5C4765 		.ascii	".\\Generated_Source\\PSoC5\\ADC_DelSig_1.c\000"
 5606      6E657261 
 5606      7465645F 
 5606      536F7572 
 5606      63655C50 
 5607              	.LASF8:
 5608 01d2 756E7369 		.ascii	"unsigned int\000"
 5608      676E6564 
 5608      20696E74 
 5608      00
 5609              	.LASF69:
 5610 01df 75566F6C 		.ascii	"uVolts\000"
 5610      747300
 5611              	.LASF5:
 5612 01e6 6C6F6E67 		.ascii	"long unsigned int\000"
 5612      20756E73 
 5612      69676E65 
 5612      6420696E 
 5612      7400
 5613              	.LASF54:
 5614 01f8 774D6F64 		.ascii	"wMode\000"
 5614      6500
 5615              	.LASF47:
 5616 01fe 67636F72 		.ascii	"gcorRegValue\000"
 5616      52656756 
 5616      616C7565 
 5616      00
 5617              	.LASF98:
 5618 020b 4144435F 		.ascii	"ADC_DelSig_1_started\000"
 5618      44656C53 
 5618      69675F31 
 5618      5F737461 
 5618      72746564 
 5619              	.LASF3:
 5620 0220 73686F72 		.ascii	"short unsigned int\000"
 5620      7420756E 
 5620      7369676E 
 5620      65642069 
 5620      6E7400
 5621              	.LASF12:
 5622 0233 696E7438 		.ascii	"int8\000"
 5622      00
 5623              	.LASF46:
 5624 0238 67636F72 		.ascii	"gcorValue\000"
 5624      56616C75 
 5624      6500
 5625              	.LASF83:
ARM GAS  C:\Users\hoangp\AppData\Local\Temp\ccZOsuqR.s 			page 136


 5626 0242 6370436C 		.ascii	"cpClockDivider\000"
 5626      6F636B44 
 5626      69766964 
 5626      657200
 5627              	.LASF64:
 5628 0251 6D566F6C 		.ascii	"mVolts\000"
 5628      747300
 5629              	.LASF88:
 5630 0258 666C6173 		.ascii	"flash\000"
 5630      6800
 5631              	.LASF66:
 5632 025e 4144435F 		.ascii	"ADC_DelSig_1_CountsTo_Volts\000"
 5632      44656C53 
 5632      69675F31 
 5632      5F436F75 
 5632      6E747354 
 5633              	.LASF55:
 5634 027a 4144435F 		.ascii	"ADC_DelSig_1_GetResult16\000"
 5634      44656C53 
 5634      69675F31 
 5634      5F476574 
 5634      52657375 
 5635              	.LASF81:
 5636 0293 69646561 		.ascii	"idealGain\000"
 5636      6C476169 
 5636      6E00
 5637              	.LASF95:
 5638 029d 4144435F 		.ascii	"ADC_DelSig_1_convDone\000"
 5638      44656C53 
 5638      69675F31 
 5638      5F636F6E 
 5638      76446F6E 
 5639              	.LASF28:
 5640 02b3 4144435F 		.ascii	"ADC_DelSig_1_Init\000"
 5640      44656C53 
 5640      69675F31 
 5640      5F496E69 
 5640      7400
 5641              	.LASF68:
 5642 02c5 4144435F 		.ascii	"ADC_DelSig_1_CountsTo_uVolts\000"
 5642      44656C53 
 5642      69675F31 
 5642      5F436F75 
 5642      6E747354 
 5643              	.LASF99:
 5644 02e2 4144435F 		.ascii	"ADC_DelSig_1_Config\000"
 5644      44656C53 
 5644      69675F31 
 5644      5F436F6E 
 5644      66696700 
 5645              	.LASF38:
 5646 02f6 636F6865 		.ascii	"coherency\000"
 5646      72656E63 
 5646      7900
 5647              	.LASF15:
 5648 0300 666C6F61 		.ascii	"float\000"
 5648      7400
ARM GAS  C:\Users\hoangp\AppData\Local\Temp\ccZOsuqR.s 			page 137


 5649              	.LASF100:
 5650 0306 4144435F 		.ascii	"ADC_DelSig_1_Offset\000"
 5650      44656C53 
 5650      69675F31 
 5650      5F4F6666 
 5650      73657400 
 5651              	.LASF70:
 5652 031a 4144435F 		.ascii	"ADC_DelSig_1_IRQ_Start\000"
 5652      44656C53 
 5652      69675F31 
 5652      5F495251 
 5652      5F537461 
 5653              	.LASF37:
 5654 0331 6761696E 		.ascii	"gain\000"
 5654      00
 5655              	.LASF97:
 5656 0336 4144435F 		.ascii	"ADC_DelSig_1_initVar\000"
 5656      44656C53 
 5656      69675F31 
 5656      5F696E69 
 5656      74566172 
 5657              	.LASF1:
 5658 034b 756E7369 		.ascii	"unsigned char\000"
 5658      676E6564 
 5658      20636861 
 5658      7200
 5659              	.LASF58:
 5660 0359 4144435F 		.ascii	"ADC_DelSig_1_SetOffset\000"
 5660      44656C53 
 5660      69675F31 
 5660      5F536574 
 5660      4F666673 
 5661              	.LASF90:
 5662 0370 47636F72 		.ascii	"GcorValue\000"
 5662      56616C75 
 5662      6500
 5663              	.LASF2:
 5664 037a 73686F72 		.ascii	"short int\000"
 5664      7420696E 
 5664      7400
 5665              	.LASF32:
 5666 0384 4144435F 		.ascii	"ADC_DelSig_1_SetLowPower\000"
 5666      44656C53 
 5666      69675F31 
 5666      5F536574 
 5666      4C6F7750 
 5667              	.LASF106:
 5668 039d 4144435F 		.ascii	"ADC_DelSig_1_powerModeBackupStruct\000"
 5668      44656C53 
 5668      69675F31 
 5668      5F706F77 
 5668      65724D6F 
 5669              	.LASF76:
 5670 03c0 64697669 		.ascii	"divider1\000"
 5670      64657231 
 5670      00
 5671              	.LASF77:
ARM GAS  C:\Users\hoangp\AppData\Local\Temp\ccZOsuqR.s 			page 138


 5672 03c9 64697669 		.ascii	"divider2\000"
 5672      64657232 
 5672      00
 5673              	.LASF51:
 5674 03d2 4144435F 		.ascii	"ADC_DelSig_1_StartConvert\000"
 5674      44656C53 
 5674      69675F31 
 5674      5F537461 
 5674      7274436F 
 5675              	.LASF65:
 5676 03ec 7265736F 		.ascii	"resolution\000"
 5676      6C757469 
 5676      6F6E00
 5677              	.LASF27:
 5678 03f7 4144435F 		.ascii	"ADC_DelSig_1_POWERMODE_BACKUP_STRUCT\000"
 5678      44656C53 
 5678      69675F31 
 5678      5F504F57 
 5678      45524D4F 
 5679              	.LASF26:
 5680 041c 62797061 		.ascii	"bypassRestore\000"
 5680      73735265 
 5680      73746F72 
 5680      6500
 5681              	.LASF91:
 5682 042a 47636F72 		.ascii	"GcorTmp\000"
 5682      546D7000 
 5683              	.LASF57:
 5684 0432 4144435F 		.ascii	"ADC_DelSig_1_GetResult32\000"
 5684      44656C53 
 5684      69675F31 
 5684      5F476574 
 5684      52657375 
 5685              	.LASF17:
 5686 044b 63686172 		.ascii	"char\000"
 5686      00
 5687              	.LASF36:
 5688 0450 4144435F 		.ascii	"ADC_DelSig_1_SetCoherency\000"
 5688      44656C53 
 5688      69675F31 
 5688      5F536574 
 5688      436F6865 
 5689              	.LASF101:
 5690 046a 4144435F 		.ascii	"ADC_DelSig_1_CountsPerVolt\000"
 5690      44656C53 
 5690      69675F31 
 5690      5F436F75 
 5690      6E747350 
 5691              	.LASF72:
 5692 0485 636F6E66 		.ascii	"config\000"
 5692      696700
 5693              	.LASF82:
 5694 048c 61646343 		.ascii	"adcClockDivider\000"
 5694      6C6F636B 
 5694      44697669 
 5694      64657200 
 5695              	.LASF50:
ARM GAS  C:\Users\hoangp\AppData\Local\Temp\ccZOsuqR.s 			page 139


 5696 049c 63686F70 		.ascii	"chopFreq\000"
 5696      46726571 
 5696      00
 5697              	.LASF79:
 5698 04a5 72657374 		.ascii	"restart\000"
 5698      61727400 
 5699              	.LASF42:
 5700 04ad 746D7056 		.ascii	"tmpValue\000"
 5700      616C7565 
 5700      00
 5701              	.LASF84:
 5702 04b6 69646561 		.ascii	"idealOddGain\000"
 5702      6C4F6464 
 5702      4761696E 
 5702      00
 5703              	.LASF92:
 5704 04c3 4144435F 		.ascii	"ADC_DelSig_1_SetDSMRef0Reg\000"
 5704      44656C53 
 5704      69675F31 
 5704      5F536574 
 5704      44534D52 
 5705              	.LASF59:
 5706 04de 6F666673 		.ascii	"offset\000"
 5706      657400
 5707              	.LASF63:
 5708 04e5 61646343 		.ascii	"adcCounts\000"
 5708      6F756E74 
 5708      7300
 5709              	.LASF53:
 5710 04ef 4144435F 		.ascii	"ADC_DelSig_1_IsEndConversion\000"
 5710      44656C53 
 5710      69675F31 
 5710      5F497345 
 5710      6E64436F 
 5711              	.LASF85:
 5712 050c 4144435F 		.ascii	"ADC_DelSig_1_GainCompensation\000"
 5712      44656C53 
 5712      69675F31 
 5712      5F476169 
 5712      6E436F6D 
 5713              	.LASF30:
 5714 052a 4144435F 		.ascii	"ADC_DelSig_1_RestorePowerRegisters\000"
 5714      44656C53 
 5714      69675F31 
 5714      5F526573 
 5714      746F7265 
 5715              	.LASF43:
 5716 054d 4144435F 		.ascii	"ADC_DelSig_1_SetGCOR\000"
 5716      44656C53 
 5716      69675F31 
 5716      5F536574 
 5716      47434F52 
 5717              	.LASF45:
 5718 0562 6756616C 		.ascii	"gValue\000"
 5718      756500
 5719              	.LASF41:
 5720 0569 73746174 		.ascii	"status\000"
ARM GAS  C:\Users\hoangp\AppData\Local\Temp\ccZOsuqR.s 			page 140


 5720      757300
 5721              	.LASF102:
 5722 0570 4144435F 		.ascii	"ADC_DelSig_1_restoreReg\000"
 5722      44656C53 
 5722      69675F31 
 5722      5F726573 
 5722      746F7265 
 5723              	.LASF40:
 5724 0588 6761696E 		.ascii	"gainAdjust\000"
 5724      41646A75 
 5724      737400
 5725              	.LASF33:
 5726 0593 4144435F 		.ascii	"ADC_DelSig_1_Start\000"
 5726      44656C53 
 5726      69675F31 
 5726      5F537461 
 5726      727400
 5727              	.LASF13:
 5728 05a6 696E7431 		.ascii	"int16\000"
 5728      3600
 5729              	.LASF52:
 5730 05ac 4144435F 		.ascii	"ADC_DelSig_1_StopConvert\000"
 5730      44656C53 
 5730      69675F31 
 5730      5F53746F 
 5730      70436F6E 
 5731              	.LASF60:
 5732 05c5 4144435F 		.ascii	"ADC_DelSig_1_SetGain\000"
 5732      44656C53 
 5732      69675F31 
 5732      5F536574 
 5732      4761696E 
 5733              	.LASF48:
 5734 05da 4144435F 		.ascii	"ADC_DelSig_1_SetBufferChop\000"
 5734      44656C53 
 5734      69675F31 
 5734      5F536574 
 5734      42756666 
 5735              	.LASF49:
 5736 05f5 63686F70 		.ascii	"chopen\000"
 5736      656E00
 5737              	.LASF62:
 5738 05fc 4144435F 		.ascii	"ADC_DelSig_1_CountsTo_mVolts\000"
 5738      44656C53 
 5738      69675F31 
 5738      5F436F75 
 5738      6E747354 
 5739              	.LASF94:
 5740 0619 4144435F 		.ascii	"ADC_DelSig_1_powerModeBackup\000"
 5740      44656C53 
 5740      69675F31 
 5740      5F706F77 
 5740      65724D6F 
 5741              	.LASF105:
 5742 0636 433A5C55 		.ascii	"C:\\Users\\hoangp\\Documents\\GitHub\\EE542\\firmwa"
 5742      73657273 
 5742      5C686F61 
ARM GAS  C:\Users\hoangp\AppData\Local\Temp\ccZOsuqR.s 			page 141


 5742      6E67705C 
 5742      446F6375 
 5743 0663 72655C69 		.ascii	"re\\invert\\invert.cydsn\000"
 5743      6E766572 
 5743      745C696E 
 5743      76657274 
 5743      2E637964 
 5744              	.LASF35:
 5745 067a 4144435F 		.ascii	"ADC_DelSig_1_SetBufferGain\000"
 5745      44656C53 
 5745      69675F31 
 5745      5F536574 
 5745      42756666 
 5746              	.LASF39:
 5747 0695 746D7052 		.ascii	"tmpReg\000"
 5747      656700
 5748              	.LASF25:
 5749 069c 44534D5F 		.ascii	"DSM_CLK\000"
 5749      434C4B00 
 5750              	.LASF56:
 5751 06a4 72657375 		.ascii	"result\000"
 5751      6C7400
 5752              	.LASF86:
 5753 06ab 49646561 		.ascii	"IdealDecGain\000"
 5753      6C446563 
 5753      4761696E 
 5753      00
 5754              	.LASF96:
 5755 06b8 4144435F 		.ascii	"ADC_DelSig_1_stopConversion\000"
 5755      44656C53 
 5755      69675F31 
 5755      5F73746F 
 5755      70436F6E 
 5756              	.LASF44:
 5757 06d4 4144435F 		.ascii	"ADC_DelSig_1_ReadGCOR\000"
 5757      44656C53 
 5757      69675F31 
 5757      5F526561 
 5757      6447434F 
 5758              		.ident	"GCC: (Sourcery G++ Lite 2010q1-188) 4.4.1"
