ARM GAS  C:\Users\hoangp\AppData\Local\Temp\ccDJmztG.s 			page 1


   1              		.syntax unified
   2              		.cpu cortex-m3
   3              		.fpu softvfp
   4              		.eabi_attribute 20, 1
   5              		.eabi_attribute 21, 1
   6              		.eabi_attribute 23, 3
   7              		.eabi_attribute 24, 1
   8              		.eabi_attribute 25, 1
   9              		.eabi_attribute 26, 1
  10              		.eabi_attribute 30, 6
  11              		.eabi_attribute 18, 4
  12              		.thumb
  13              		.file	"Counter_1_PM.c"
  20 0000 CB000000 		.text
  20      02007400 
  20      00000201 
  20      FB0E0D00 
  20      01010101 
  21              	.Ltext0:
  22              		.cfi_sections	.debug_frame
  23              		.bss
  24              		.align	2
  25              	Counter_1_backup:
  26 0000 00000000 		.space	10
  26      00000000 
  26      0000
  27 000a 0000     		.section	.text.Counter_1_SaveConfig,"ax",%progbits
  28              		.align	2
  29              		.global	Counter_1_SaveConfig
  30              		.thumb
  31              		.thumb_func
  32              		.type	Counter_1_SaveConfig, %function
  33              	Counter_1_SaveConfig:
  34              	.LFB0:
  35              		.file 1 ".\\Generated_Source\\PSoC5\\Counter_1_PM.c"
   1:.\Generated_Source\PSoC5/Counter_1_PM.c **** /*******************************************************************************
   2:.\Generated_Source\PSoC5/Counter_1_PM.c **** * File Name: Counter_1_PM.c  
   3:.\Generated_Source\PSoC5/Counter_1_PM.c **** * Version 2.40
   4:.\Generated_Source\PSoC5/Counter_1_PM.c **** *
   5:.\Generated_Source\PSoC5/Counter_1_PM.c **** *  Description:
   6:.\Generated_Source\PSoC5/Counter_1_PM.c **** *    This file provides the power management source code to API for the
   7:.\Generated_Source\PSoC5/Counter_1_PM.c **** *    Counter.  
   8:.\Generated_Source\PSoC5/Counter_1_PM.c **** *
   9:.\Generated_Source\PSoC5/Counter_1_PM.c **** *   Note:
  10:.\Generated_Source\PSoC5/Counter_1_PM.c **** *     None
  11:.\Generated_Source\PSoC5/Counter_1_PM.c **** *
  12:.\Generated_Source\PSoC5/Counter_1_PM.c **** *******************************************************************************
  13:.\Generated_Source\PSoC5/Counter_1_PM.c **** * Copyright 2008-2012, Cypress Semiconductor Corporation.  All rights reserved.
  14:.\Generated_Source\PSoC5/Counter_1_PM.c **** * You may use this file only in accordance with the license, terms, conditions, 
  15:.\Generated_Source\PSoC5/Counter_1_PM.c **** * disclaimers, and limitations in the end user license agreement accompanying 
  16:.\Generated_Source\PSoC5/Counter_1_PM.c **** * the software package with which this file was provided.
ARM GAS  C:\Users\hoangp\AppData\Local\Temp\ccDJmztG.s 			page 2


  17:.\Generated_Source\PSoC5/Counter_1_PM.c **** ********************************************************************************/
  18:.\Generated_Source\PSoC5/Counter_1_PM.c **** 
  19:.\Generated_Source\PSoC5/Counter_1_PM.c **** #include "Counter_1.h"
  20:.\Generated_Source\PSoC5/Counter_1_PM.c **** 
  21:.\Generated_Source\PSoC5/Counter_1_PM.c **** static Counter_1_backupStruct Counter_1_backup;
  22:.\Generated_Source\PSoC5/Counter_1_PM.c **** 
  23:.\Generated_Source\PSoC5/Counter_1_PM.c **** 
  24:.\Generated_Source\PSoC5/Counter_1_PM.c **** /*******************************************************************************
  25:.\Generated_Source\PSoC5/Counter_1_PM.c **** * Function Name: Counter_1_SaveConfig
  26:.\Generated_Source\PSoC5/Counter_1_PM.c **** ********************************************************************************
  27:.\Generated_Source\PSoC5/Counter_1_PM.c **** * Summary:
  28:.\Generated_Source\PSoC5/Counter_1_PM.c **** *     Save the current user configuration
  29:.\Generated_Source\PSoC5/Counter_1_PM.c **** *
  30:.\Generated_Source\PSoC5/Counter_1_PM.c **** * Parameters:  
  31:.\Generated_Source\PSoC5/Counter_1_PM.c **** *  void
  32:.\Generated_Source\PSoC5/Counter_1_PM.c **** *
  33:.\Generated_Source\PSoC5/Counter_1_PM.c **** * Return: 
  34:.\Generated_Source\PSoC5/Counter_1_PM.c **** *  void
  35:.\Generated_Source\PSoC5/Counter_1_PM.c **** *
  36:.\Generated_Source\PSoC5/Counter_1_PM.c **** * Global variables:
  37:.\Generated_Source\PSoC5/Counter_1_PM.c **** *  Counter_1_backup:  Variables of this global structure are modified to 
  38:.\Generated_Source\PSoC5/Counter_1_PM.c **** *  store the values of non retention configuration registers when Sleep() API is 
  39:.\Generated_Source\PSoC5/Counter_1_PM.c **** *  called.
  40:.\Generated_Source\PSoC5/Counter_1_PM.c **** *
  41:.\Generated_Source\PSoC5/Counter_1_PM.c **** *******************************************************************************/
  42:.\Generated_Source\PSoC5/Counter_1_PM.c **** void Counter_1_SaveConfig(void) 
  43:.\Generated_Source\PSoC5/Counter_1_PM.c **** {
  36              		.loc 1 43 0
  37              		.cfi_startproc
  38              		@ args = 0, pretend = 0, frame = 0
  39              		@ frame_needed = 1, uses_anonymous_args = 0
  40              		@ link register save eliminated.
  41 0000 80B4     		push	{r7}
  42              	.LCFI0:
  43              		.cfi_def_cfa_offset 4
  44 0002 00AF     		add	r7, sp, #0
  45              		.cfi_offset 7, -4
  46              	.LCFI1:
  47              		.cfi_def_cfa_register 7
  44:.\Generated_Source\PSoC5/Counter_1_PM.c ****     #if (!Counter_1_UsingFixedFunction)
  45:.\Generated_Source\PSoC5/Counter_1_PM.c **** 
  46:.\Generated_Source\PSoC5/Counter_1_PM.c ****         Counter_1_backup.CounterUdb = Counter_1_ReadCounter();
  47:.\Generated_Source\PSoC5/Counter_1_PM.c **** 
  48:.\Generated_Source\PSoC5/Counter_1_PM.c ****         #if (CY_UDB_V0)
  49:.\Generated_Source\PSoC5/Counter_1_PM.c ****             Counter_1_backup.CounterPeriod = Counter_1_ReadPeriod();
  50:.\Generated_Source\PSoC5/Counter_1_PM.c ****             Counter_1_backup.CompareValue = Counter_1_ReadCompare();
  51:.\Generated_Source\PSoC5/Counter_1_PM.c ****             Counter_1_backup.InterruptMaskValue = Counter_1_STATUS_MASK;
  52:.\Generated_Source\PSoC5/Counter_1_PM.c ****         #endif /* CY_UDB_V0 */
  53:.\Generated_Source\PSoC5/Counter_1_PM.c **** 
  54:.\Generated_Source\PSoC5/Counter_1_PM.c ****         #if(!Counter_1_ControlRegRemoved)
  55:.\Generated_Source\PSoC5/Counter_1_PM.c ****             Counter_1_backup.CounterControlRegister = Counter_1_ReadControlRegister();
  56:.\Generated_Source\PSoC5/Counter_1_PM.c ****         #endif /* (!Counter_1_ControlRegRemoved) */
  57:.\Generated_Source\PSoC5/Counter_1_PM.c **** 
  58:.\Generated_Source\PSoC5/Counter_1_PM.c ****     #endif /* (!Counter_1_UsingFixedFunction) */
  59:.\Generated_Source\PSoC5/Counter_1_PM.c **** }
  48              		.loc 1 59 0
  49 0004 BD46     		mov	sp, r7
ARM GAS  C:\Users\hoangp\AppData\Local\Temp\ccDJmztG.s 			page 3


  50 0006 80BC     		pop	{r7}
  51 0008 7047     		bx	lr
  52              		.cfi_endproc
  53              	.LFE0:
  54              		.size	Counter_1_SaveConfig, .-Counter_1_SaveConfig
  55 000a 00BF     		.section	.text.Counter_1_RestoreConfig,"ax",%progbits
  56              		.align	2
  57              		.global	Counter_1_RestoreConfig
  58              		.thumb
  59              		.thumb_func
  60              		.type	Counter_1_RestoreConfig, %function
  61              	Counter_1_RestoreConfig:
  62              	.LFB1:
  60:.\Generated_Source\PSoC5/Counter_1_PM.c **** 
  61:.\Generated_Source\PSoC5/Counter_1_PM.c **** 
  62:.\Generated_Source\PSoC5/Counter_1_PM.c **** /*******************************************************************************
  63:.\Generated_Source\PSoC5/Counter_1_PM.c **** * Function Name: Counter_1_RestoreConfig
  64:.\Generated_Source\PSoC5/Counter_1_PM.c **** ********************************************************************************
  65:.\Generated_Source\PSoC5/Counter_1_PM.c **** *
  66:.\Generated_Source\PSoC5/Counter_1_PM.c **** * Summary:
  67:.\Generated_Source\PSoC5/Counter_1_PM.c **** *  Restores the current user configuration.
  68:.\Generated_Source\PSoC5/Counter_1_PM.c **** *
  69:.\Generated_Source\PSoC5/Counter_1_PM.c **** * Parameters:  
  70:.\Generated_Source\PSoC5/Counter_1_PM.c **** *  void
  71:.\Generated_Source\PSoC5/Counter_1_PM.c **** *
  72:.\Generated_Source\PSoC5/Counter_1_PM.c **** * Return: 
  73:.\Generated_Source\PSoC5/Counter_1_PM.c **** *  void
  74:.\Generated_Source\PSoC5/Counter_1_PM.c **** *
  75:.\Generated_Source\PSoC5/Counter_1_PM.c **** * Global variables:
  76:.\Generated_Source\PSoC5/Counter_1_PM.c **** *  Counter_1_backup:  Variables of this global structure are used to 
  77:.\Generated_Source\PSoC5/Counter_1_PM.c **** *  restore the values of non retention registers on wakeup from sleep mode.
  78:.\Generated_Source\PSoC5/Counter_1_PM.c **** *
  79:.\Generated_Source\PSoC5/Counter_1_PM.c **** *******************************************************************************/
  80:.\Generated_Source\PSoC5/Counter_1_PM.c **** void Counter_1_RestoreConfig(void) 
  81:.\Generated_Source\PSoC5/Counter_1_PM.c **** {      
  63              		.loc 1 81 0
  64              		.cfi_startproc
  65              		@ args = 0, pretend = 0, frame = 0
  66              		@ frame_needed = 1, uses_anonymous_args = 0
  67              		@ link register save eliminated.
  68 0000 80B4     		push	{r7}
  69              	.LCFI2:
  70              		.cfi_def_cfa_offset 4
  71 0002 00AF     		add	r7, sp, #0
  72              		.cfi_offset 7, -4
  73              	.LCFI3:
  74              		.cfi_def_cfa_register 7
  82:.\Generated_Source\PSoC5/Counter_1_PM.c ****     #if (!Counter_1_UsingFixedFunction)
  83:.\Generated_Source\PSoC5/Counter_1_PM.c **** 
  84:.\Generated_Source\PSoC5/Counter_1_PM.c ****         #if (CY_UDB_V0)
  85:.\Generated_Source\PSoC5/Counter_1_PM.c ****             uint8 Counter_1_interruptState;
  86:.\Generated_Source\PSoC5/Counter_1_PM.c ****         #endif  /* (CY_UDB_V0) */
  87:.\Generated_Source\PSoC5/Counter_1_PM.c **** 
  88:.\Generated_Source\PSoC5/Counter_1_PM.c ****        Counter_1_WriteCounter(Counter_1_backup.CounterUdb);
  89:.\Generated_Source\PSoC5/Counter_1_PM.c **** 
  90:.\Generated_Source\PSoC5/Counter_1_PM.c ****         #if (CY_UDB_V0)
  91:.\Generated_Source\PSoC5/Counter_1_PM.c ****             Counter_1_WritePeriod(Counter_1_backup.CounterPeriod);
ARM GAS  C:\Users\hoangp\AppData\Local\Temp\ccDJmztG.s 			page 4


  92:.\Generated_Source\PSoC5/Counter_1_PM.c ****             Counter_1_WriteCompare(Counter_1_backup.CompareValue);
  93:.\Generated_Source\PSoC5/Counter_1_PM.c **** 
  94:.\Generated_Source\PSoC5/Counter_1_PM.c ****             Counter_1_interruptState = CyEnterCriticalSection();
  95:.\Generated_Source\PSoC5/Counter_1_PM.c ****             Counter_1_STATUS_AUX_CTRL |= Counter_1_STATUS_ACTL_INT_EN_MASK;
  96:.\Generated_Source\PSoC5/Counter_1_PM.c ****             CyExitCriticalSection(Counter_1_interruptState);
  97:.\Generated_Source\PSoC5/Counter_1_PM.c **** 
  98:.\Generated_Source\PSoC5/Counter_1_PM.c ****             Counter_1_STATUS_MASK = Counter_1_backup.InterruptMaskValue;
  99:.\Generated_Source\PSoC5/Counter_1_PM.c ****         #endif  /* (CY_UDB_V0) */
 100:.\Generated_Source\PSoC5/Counter_1_PM.c **** 
 101:.\Generated_Source\PSoC5/Counter_1_PM.c ****         #if(!Counter_1_ControlRegRemoved)
 102:.\Generated_Source\PSoC5/Counter_1_PM.c ****             Counter_1_WriteControlRegister(Counter_1_backup.CounterControlRegister);
 103:.\Generated_Source\PSoC5/Counter_1_PM.c ****         #endif /* (!Counter_1_ControlRegRemoved) */
 104:.\Generated_Source\PSoC5/Counter_1_PM.c **** 
 105:.\Generated_Source\PSoC5/Counter_1_PM.c ****     #endif /* (!Counter_1_UsingFixedFunction) */
 106:.\Generated_Source\PSoC5/Counter_1_PM.c **** }
  75              		.loc 1 106 0
  76 0004 BD46     		mov	sp, r7
  77 0006 80BC     		pop	{r7}
  78 0008 7047     		bx	lr
  79              		.cfi_endproc
  80              	.LFE1:
  81              		.size	Counter_1_RestoreConfig, .-Counter_1_RestoreConfig
  82 000a 00BF     		.section	.text.Counter_1_Sleep,"ax",%progbits
  83              		.align	2
  84              		.global	Counter_1_Sleep
  85              		.thumb
  86              		.thumb_func
  87              		.type	Counter_1_Sleep, %function
  88              	Counter_1_Sleep:
  89              	.LFB2:
 107:.\Generated_Source\PSoC5/Counter_1_PM.c **** 
 108:.\Generated_Source\PSoC5/Counter_1_PM.c **** 
 109:.\Generated_Source\PSoC5/Counter_1_PM.c **** /*******************************************************************************
 110:.\Generated_Source\PSoC5/Counter_1_PM.c **** * Function Name: Counter_1_Sleep
 111:.\Generated_Source\PSoC5/Counter_1_PM.c **** ********************************************************************************
 112:.\Generated_Source\PSoC5/Counter_1_PM.c **** * Summary:
 113:.\Generated_Source\PSoC5/Counter_1_PM.c **** *     Stop and Save the user configuration
 114:.\Generated_Source\PSoC5/Counter_1_PM.c **** *
 115:.\Generated_Source\PSoC5/Counter_1_PM.c **** * Parameters:  
 116:.\Generated_Source\PSoC5/Counter_1_PM.c **** *  void
 117:.\Generated_Source\PSoC5/Counter_1_PM.c **** *
 118:.\Generated_Source\PSoC5/Counter_1_PM.c **** * Return: 
 119:.\Generated_Source\PSoC5/Counter_1_PM.c **** *  void
 120:.\Generated_Source\PSoC5/Counter_1_PM.c **** *
 121:.\Generated_Source\PSoC5/Counter_1_PM.c **** * Global variables:
 122:.\Generated_Source\PSoC5/Counter_1_PM.c **** *  Counter_1_backup.enableState:  Is modified depending on the enable 
 123:.\Generated_Source\PSoC5/Counter_1_PM.c **** *  state of the block before entering sleep mode.
 124:.\Generated_Source\PSoC5/Counter_1_PM.c **** *
 125:.\Generated_Source\PSoC5/Counter_1_PM.c **** *******************************************************************************/
 126:.\Generated_Source\PSoC5/Counter_1_PM.c **** void Counter_1_Sleep(void) 
 127:.\Generated_Source\PSoC5/Counter_1_PM.c **** {
  90              		.loc 1 127 0
  91              		.cfi_startproc
  92              		@ args = 0, pretend = 0, frame = 0
  93              		@ frame_needed = 1, uses_anonymous_args = 0
  94 0000 80B5     		push	{r7, lr}
  95              	.LCFI4:
ARM GAS  C:\Users\hoangp\AppData\Local\Temp\ccDJmztG.s 			page 5


  96              		.cfi_def_cfa_offset 8
  97 0002 00AF     		add	r7, sp, #0
  98              		.cfi_offset 14, -4
  99              		.cfi_offset 7, -8
 100              	.LCFI5:
 101              		.cfi_def_cfa_register 7
 128:.\Generated_Source\PSoC5/Counter_1_PM.c ****     #if(!Counter_1_ControlRegRemoved)
 129:.\Generated_Source\PSoC5/Counter_1_PM.c ****         /* Save Counter's enable state */
 130:.\Generated_Source\PSoC5/Counter_1_PM.c ****         if(Counter_1_CTRL_ENABLE == (Counter_1_CONTROL & Counter_1_CTRL_ENABLE))
 102              		.loc 1 130 0
 103 0004 44F60073 		movw	r3, #:lower16:1073762048
 104 0008 C4F20003 		movt	r3, #:upper16:1073762048
 105 000c 1B78     		ldrb	r3, [r3, #0]
 106 000e DBB2     		uxtb	r3, r3
 107 0010 03F00103 		and	r3, r3, #1
 108 0014 DBB2     		uxtb	r3, r3
 109 0016 002B     		cmp	r3, #0
 110 0018 07D0     		beq	.L6
 131:.\Generated_Source\PSoC5/Counter_1_PM.c ****         {
 132:.\Generated_Source\PSoC5/Counter_1_PM.c ****             /* Counter is enabled */
 133:.\Generated_Source\PSoC5/Counter_1_PM.c ****             Counter_1_backup.CounterEnableState = 1u;
 111              		.loc 1 133 0
 112 001a 40F20003 		movw	r3, #:lower16:Counter_1_backup
 113 001e C0F20003 		movt	r3, #:upper16:Counter_1_backup
 114 0022 4FF00102 		mov	r2, #1
 115 0026 1A70     		strb	r2, [r3, #0]
 116 0028 06E0     		b	.L7
 117              	.L6:
 134:.\Generated_Source\PSoC5/Counter_1_PM.c ****         }
 135:.\Generated_Source\PSoC5/Counter_1_PM.c ****         else
 136:.\Generated_Source\PSoC5/Counter_1_PM.c ****         {
 137:.\Generated_Source\PSoC5/Counter_1_PM.c ****             /* Counter is disabled */
 138:.\Generated_Source\PSoC5/Counter_1_PM.c ****             Counter_1_backup.CounterEnableState = 0u;
 118              		.loc 1 138 0
 119 002a 40F20003 		movw	r3, #:lower16:Counter_1_backup
 120 002e C0F20003 		movt	r3, #:upper16:Counter_1_backup
 121 0032 4FF00002 		mov	r2, #0
 122 0036 1A70     		strb	r2, [r3, #0]
 123              	.L7:
 139:.\Generated_Source\PSoC5/Counter_1_PM.c ****         }
 140:.\Generated_Source\PSoC5/Counter_1_PM.c ****     #else
 141:.\Generated_Source\PSoC5/Counter_1_PM.c ****         Counter_1_backup.CounterEnableState = 1u;
 142:.\Generated_Source\PSoC5/Counter_1_PM.c ****         if(Counter_1_backup.CounterEnableState != 0u)
 143:.\Generated_Source\PSoC5/Counter_1_PM.c ****         {
 144:.\Generated_Source\PSoC5/Counter_1_PM.c ****             Counter_1_backup.CounterEnableState = 0u;
 145:.\Generated_Source\PSoC5/Counter_1_PM.c ****         }
 146:.\Generated_Source\PSoC5/Counter_1_PM.c ****     #endif /* (!Counter_1_ControlRegRemoved) */
 147:.\Generated_Source\PSoC5/Counter_1_PM.c ****     
 148:.\Generated_Source\PSoC5/Counter_1_PM.c ****     Counter_1_Stop();
 124              		.loc 1 148 0
 125 0038 FFF7FEFF 		bl	Counter_1_Stop
 149:.\Generated_Source\PSoC5/Counter_1_PM.c ****     Counter_1_SaveConfig();
 126              		.loc 1 149 0
 127 003c FFF7FEFF 		bl	Counter_1_SaveConfig
 150:.\Generated_Source\PSoC5/Counter_1_PM.c **** }
 128              		.loc 1 150 0
 129 0040 80BD     		pop	{r7, pc}
ARM GAS  C:\Users\hoangp\AppData\Local\Temp\ccDJmztG.s 			page 6


 130              		.cfi_endproc
 131              	.LFE2:
 132              		.size	Counter_1_Sleep, .-Counter_1_Sleep
 133 0042 00BF     		.section	.text.Counter_1_Wakeup,"ax",%progbits
 134              		.align	2
 135              		.global	Counter_1_Wakeup
 136              		.thumb
 137              		.thumb_func
 138              		.type	Counter_1_Wakeup, %function
 139              	Counter_1_Wakeup:
 140              	.LFB3:
 151:.\Generated_Source\PSoC5/Counter_1_PM.c **** 
 152:.\Generated_Source\PSoC5/Counter_1_PM.c **** 
 153:.\Generated_Source\PSoC5/Counter_1_PM.c **** /*******************************************************************************
 154:.\Generated_Source\PSoC5/Counter_1_PM.c **** * Function Name: Counter_1_Wakeup
 155:.\Generated_Source\PSoC5/Counter_1_PM.c **** ********************************************************************************
 156:.\Generated_Source\PSoC5/Counter_1_PM.c **** *
 157:.\Generated_Source\PSoC5/Counter_1_PM.c **** * Summary:
 158:.\Generated_Source\PSoC5/Counter_1_PM.c **** *  Restores and enables the user configuration
 159:.\Generated_Source\PSoC5/Counter_1_PM.c **** *  
 160:.\Generated_Source\PSoC5/Counter_1_PM.c **** * Parameters:  
 161:.\Generated_Source\PSoC5/Counter_1_PM.c **** *  void
 162:.\Generated_Source\PSoC5/Counter_1_PM.c **** *
 163:.\Generated_Source\PSoC5/Counter_1_PM.c **** * Return: 
 164:.\Generated_Source\PSoC5/Counter_1_PM.c **** *  void
 165:.\Generated_Source\PSoC5/Counter_1_PM.c **** *
 166:.\Generated_Source\PSoC5/Counter_1_PM.c **** * Global variables:
 167:.\Generated_Source\PSoC5/Counter_1_PM.c **** *  Counter_1_backup.enableState:  Is used to restore the enable state of 
 168:.\Generated_Source\PSoC5/Counter_1_PM.c **** *  block on wakeup from sleep mode.
 169:.\Generated_Source\PSoC5/Counter_1_PM.c **** *
 170:.\Generated_Source\PSoC5/Counter_1_PM.c **** *******************************************************************************/
 171:.\Generated_Source\PSoC5/Counter_1_PM.c **** void Counter_1_Wakeup(void) 
 172:.\Generated_Source\PSoC5/Counter_1_PM.c **** {
 141              		.loc 1 172 0
 142              		.cfi_startproc
 143              		@ args = 0, pretend = 0, frame = 0
 144              		@ frame_needed = 1, uses_anonymous_args = 0
 145 0000 80B5     		push	{r7, lr}
 146              	.LCFI6:
 147              		.cfi_def_cfa_offset 8
 148 0002 00AF     		add	r7, sp, #0
 149              		.cfi_offset 14, -4
 150              		.cfi_offset 7, -8
 151              	.LCFI7:
 152              		.cfi_def_cfa_register 7
 173:.\Generated_Source\PSoC5/Counter_1_PM.c ****     Counter_1_RestoreConfig();
 153              		.loc 1 173 0
 154 0004 FFF7FEFF 		bl	Counter_1_RestoreConfig
 174:.\Generated_Source\PSoC5/Counter_1_PM.c ****     #if(!Counter_1_ControlRegRemoved)
 175:.\Generated_Source\PSoC5/Counter_1_PM.c ****         if(Counter_1_backup.CounterEnableState == 1u)
 155              		.loc 1 175 0
 156 0008 40F20003 		movw	r3, #:lower16:Counter_1_backup
 157 000c C0F20003 		movt	r3, #:upper16:Counter_1_backup
 158 0010 1B78     		ldrb	r3, [r3, #0]	@ zero_extendqisi2
 159 0012 012B     		cmp	r3, #1
 160 0014 01D1     		bne	.L11
 176:.\Generated_Source\PSoC5/Counter_1_PM.c ****         {
ARM GAS  C:\Users\hoangp\AppData\Local\Temp\ccDJmztG.s 			page 7


 177:.\Generated_Source\PSoC5/Counter_1_PM.c ****             /* Enable Counter's operation */
 178:.\Generated_Source\PSoC5/Counter_1_PM.c ****             Counter_1_Enable();
 161              		.loc 1 178 0
 162 0016 FFF7FEFF 		bl	Counter_1_Enable
 163              	.L11:
 179:.\Generated_Source\PSoC5/Counter_1_PM.c ****         } /* Do nothing if Counter was disabled before */    
 180:.\Generated_Source\PSoC5/Counter_1_PM.c ****     #endif /* (!Counter_1_ControlRegRemoved) */
 181:.\Generated_Source\PSoC5/Counter_1_PM.c ****     
 182:.\Generated_Source\PSoC5/Counter_1_PM.c **** }
 164              		.loc 1 182 0
 165 001a 80BD     		pop	{r7, pc}
 166              		.cfi_endproc
 167              	.LFE3:
 168              		.size	Counter_1_Wakeup, .-Counter_1_Wakeup
 169              		.text
 170              	.Letext0: