ARM GAS  C:\Users\hoangp\AppData\Local\Temp\ccil7xJT.s 			page 1


   1              		.syntax unified
   2              		.cpu cortex-m3
   3              		.fpu softvfp
   4              		.eabi_attribute 20, 1
   5              		.eabi_attribute 21, 1
   6              		.eabi_attribute 23, 3
   7              		.eabi_attribute 24, 1
   8              		.eabi_attribute 25, 1
   9              		.eabi_attribute 26, 1
  10              		.eabi_attribute 30, 6
  11              		.eabi_attribute 18, 4
  12              		.thumb
  13              		.file	"DFB_1.c"
  20 0000 7A020000 		.text
  20      02006900 
  20      00000201 
  20      FB0E0D00 
  20      01010101 
  21              	.Ltext0:
  22              		.cfi_sections	.debug_frame
  23              		.global	DFB_1_initVar
  24              		.bss
  25              		.type	DFB_1_initVar, %object
  26              		.size	DFB_1_initVar, 1
  27              	DFB_1_initVar:
  28 0000 00       		.space	1
  29              		.section	.text.DFB_1_LoadReg32,"ax",%progbits
  30              		.align	2
  31              		.thumb
  32              		.thumb_func
  33              		.type	DFB_1_LoadReg32, %function
  34              	DFB_1_LoadReg32:
  35              	.LFB0:
  36              		.file 1 ".\\Generated_Source\\PSoC5\\DFB_1.c"
   1:.\Generated_Source\PSoC5/DFB_1.c **** /*******************************************************************************
   2:.\Generated_Source\PSoC5/DFB_1.c **** * File Name: DFB_1.c
   3:.\Generated_Source\PSoC5/DFB_1.c **** * Version 1.20
   4:.\Generated_Source\PSoC5/DFB_1.c **** *
   5:.\Generated_Source\PSoC5/DFB_1.c **** * Description:
   6:.\Generated_Source\PSoC5/DFB_1.c **** *  This file provides the API source code for the DFB component.
   7:.\Generated_Source\PSoC5/DFB_1.c **** *
   8:.\Generated_Source\PSoC5/DFB_1.c **** * Note:
   9:.\Generated_Source\PSoC5/DFB_1.c **** *  None
  10:.\Generated_Source\PSoC5/DFB_1.c **** *
  11:.\Generated_Source\PSoC5/DFB_1.c **** ********************************************************************************
  12:.\Generated_Source\PSoC5/DFB_1.c **** * Copyright 2011-2012, Cypress Semiconductor Corporation.  All rights reserved.
  13:.\Generated_Source\PSoC5/DFB_1.c **** * You may use this file only in accordance with the license, terms, conditions,
  14:.\Generated_Source\PSoC5/DFB_1.c **** * disclaimers, and limitations in the end user license agreement accompanying
  15:.\Generated_Source\PSoC5/DFB_1.c **** * the software package with which this file was provided.
  16:.\Generated_Source\PSoC5/DFB_1.c **** *******************************************************************************/
  17:.\Generated_Source\PSoC5/DFB_1.c **** 
ARM GAS  C:\Users\hoangp\AppData\Local\Temp\ccil7xJT.s 			page 2


  18:.\Generated_Source\PSoC5/DFB_1.c **** #include "DFB_1.h"
  19:.\Generated_Source\PSoC5/DFB_1.c **** 
  20:.\Generated_Source\PSoC5/DFB_1.c **** static void DFB_1_LoadReg32(reg32 regAddress[], const uint32 source[], uint8 count);
  21:.\Generated_Source\PSoC5/DFB_1.c **** static void DFB_1_ZeroReg32(reg32 regAddress[], uint8 count);
  22:.\Generated_Source\PSoC5/DFB_1.c **** 
  23:.\Generated_Source\PSoC5/DFB_1.c **** uint8 DFB_1_initVar = 0u;
  24:.\Generated_Source\PSoC5/DFB_1.c **** 
  25:.\Generated_Source\PSoC5/DFB_1.c **** 
  26:.\Generated_Source\PSoC5/DFB_1.c **** /*******************************************************************************
  27:.\Generated_Source\PSoC5/DFB_1.c **** * Function Name: DFB_1_LoadReg32
  28:.\Generated_Source\PSoC5/DFB_1.c **** ********************************************************************************
  29:.\Generated_Source\PSoC5/DFB_1.c **** * 
  30:.\Generated_Source\PSoC5/DFB_1.c **** * Summary:
  31:.\Generated_Source\PSoC5/DFB_1.c **** *  This function loads initial values/data to appropriate registers.
  32:.\Generated_Source\PSoC5/DFB_1.c **** *
  33:.\Generated_Source\PSoC5/DFB_1.c **** * Parameters:
  34:.\Generated_Source\PSoC5/DFB_1.c **** *  reg32 regAddress[]: register address;
  35:.\Generated_Source\PSoC5/DFB_1.c **** *  const uint32 source[]: data for load;
  36:.\Generated_Source\PSoC5/DFB_1.c **** *  uint8 count: number of 32-bit registers for load.
  37:.\Generated_Source\PSoC5/DFB_1.c **** *
  38:.\Generated_Source\PSoC5/DFB_1.c **** * Return:
  39:.\Generated_Source\PSoC5/DFB_1.c **** *  None.
  40:.\Generated_Source\PSoC5/DFB_1.c **** *
  41:.\Generated_Source\PSoC5/DFB_1.c **** * Note:
  42:.\Generated_Source\PSoC5/DFB_1.c **** *  Data loads starts from "regAddress" address and affects on "count" numbers of
  43:.\Generated_Source\PSoC5/DFB_1.c **** *  successive registers.
  44:.\Generated_Source\PSoC5/DFB_1.c **** *
  45:.\Generated_Source\PSoC5/DFB_1.c **** *******************************************************************************/
  46:.\Generated_Source\PSoC5/DFB_1.c **** static void DFB_1_LoadReg32(reg32 regAddress[], const uint32 source[], uint8 count)
  47:.\Generated_Source\PSoC5/DFB_1.c **** {
  37              		.loc 1 47 0
  38              		.cfi_startproc
  39              		@ args = 0, pretend = 0, frame = 24
  40              		@ frame_needed = 1, uses_anonymous_args = 0
  41              		@ link register save eliminated.
  42 0000 80B4     		push	{r7}
  43              	.LCFI0:
  44              		.cfi_def_cfa_offset 4
  45 0002 87B0     		sub	sp, sp, #28
  46              	.LCFI1:
  47              		.cfi_def_cfa_offset 32
  48 0004 00AF     		add	r7, sp, #0
  49              		.cfi_offset 7, -4
  50              	.LCFI2:
  51              		.cfi_def_cfa_register 7
  52 0006 F860     		str	r0, [r7, #12]
  53 0008 B960     		str	r1, [r7, #8]
  54 000a 1346     		mov	r3, r2
  55 000c FB71     		strb	r3, [r7, #7]
  48:.\Generated_Source\PSoC5/DFB_1.c ****     uint8 i = 0u;
  56              		.loc 1 48 0
  57 000e 4FF00003 		mov	r3, #0
  58 0012 FB75     		strb	r3, [r7, #23]
  49:.\Generated_Source\PSoC5/DFB_1.c ****     
  50:.\Generated_Source\PSoC5/DFB_1.c ****     while (count > 0u)
  59              		.loc 1 50 0
  60 0014 13E0     		b	.L2
ARM GAS  C:\Users\hoangp\AppData\Local\Temp\ccil7xJT.s 			page 3


  61              	.L3:
  51:.\Generated_Source\PSoC5/DFB_1.c ****     {
  52:.\Generated_Source\PSoC5/DFB_1.c ****         CY_SET_REG32(& regAddress[i], source[i]);
  62              		.loc 1 52 0
  63 0016 FB7D     		ldrb	r3, [r7, #23]	@ zero_extendqisi2
  64 0018 4FEA8302 		lsl	r2, r3, #2
  65 001c FB68     		ldr	r3, [r7, #12]
  66 001e 1344     		add	r3, r2, r3
  67 0020 FA7D     		ldrb	r2, [r7, #23]	@ zero_extendqisi2
  68 0022 4FEA8201 		lsl	r1, r2, #2
  69 0026 BA68     		ldr	r2, [r7, #8]
  70 0028 0A44     		add	r2, r1, r2
  71 002a 1268     		ldr	r2, [r2, #0]
  72 002c 1A60     		str	r2, [r3, #0]
  53:.\Generated_Source\PSoC5/DFB_1.c ****         count--;
  73              		.loc 1 53 0
  74 002e FB79     		ldrb	r3, [r7, #7]
  75 0030 03F1FF33 		add	r3, r3, #-1
  76 0034 FB71     		strb	r3, [r7, #7]
  54:.\Generated_Source\PSoC5/DFB_1.c ****         i++;
  77              		.loc 1 54 0
  78 0036 FB7D     		ldrb	r3, [r7, #23]
  79 0038 03F10103 		add	r3, r3, #1
  80 003c FB75     		strb	r3, [r7, #23]
  81              	.L2:
  82              		.loc 1 50 0
  83 003e FB79     		ldrb	r3, [r7, #7]	@ zero_extendqisi2
  84 0040 002B     		cmp	r3, #0
  85 0042 E8D1     		bne	.L3
  55:.\Generated_Source\PSoC5/DFB_1.c ****     }
  56:.\Generated_Source\PSoC5/DFB_1.c **** }
  86              		.loc 1 56 0
  87 0044 07F11C07 		add	r7, r7, #28
  88 0048 BD46     		mov	sp, r7
  89 004a 80BC     		pop	{r7}
  90 004c 7047     		bx	lr
  91              		.cfi_endproc
  92              	.LFE0:
  93              		.size	DFB_1_LoadReg32, .-DFB_1_LoadReg32
  94 004e 00BF     		.section	.text.DFB_1_ZeroReg32,"ax",%progbits
  95              		.align	2
  96              		.thumb
  97              		.thumb_func
  98              		.type	DFB_1_ZeroReg32, %function
  99              	DFB_1_ZeroReg32:
 100              	.LFB1:
  57:.\Generated_Source\PSoC5/DFB_1.c **** 
  58:.\Generated_Source\PSoC5/DFB_1.c **** 
  59:.\Generated_Source\PSoC5/DFB_1.c **** /*******************************************************************************
  60:.\Generated_Source\PSoC5/DFB_1.c **** * Function Name: DFB_1_ZeroReg32
  61:.\Generated_Source\PSoC5/DFB_1.c **** ********************************************************************************
  62:.\Generated_Source\PSoC5/DFB_1.c **** * 
  63:.\Generated_Source\PSoC5/DFB_1.c **** * Summary:
  64:.\Generated_Source\PSoC5/DFB_1.c **** *  This function zeroize registers.
  65:.\Generated_Source\PSoC5/DFB_1.c **** *
  66:.\Generated_Source\PSoC5/DFB_1.c **** * Parameters:
  67:.\Generated_Source\PSoC5/DFB_1.c **** *  reg32 regAddress[]: register address;
ARM GAS  C:\Users\hoangp\AppData\Local\Temp\ccil7xJT.s 			page 4


  68:.\Generated_Source\PSoC5/DFB_1.c **** *  uint8 count: number of 32-bit registers for zeroing.
  69:.\Generated_Source\PSoC5/DFB_1.c **** *
  70:.\Generated_Source\PSoC5/DFB_1.c **** * Return:
  71:.\Generated_Source\PSoC5/DFB_1.c **** *  None.
  72:.\Generated_Source\PSoC5/DFB_1.c **** *
  73:.\Generated_Source\PSoC5/DFB_1.c **** * Note:
  74:.\Generated_Source\PSoC5/DFB_1.c **** *  Zeroing starts from "regAddress" address and affects on "count" numbers of
  75:.\Generated_Source\PSoC5/DFB_1.c **** *  successive registers.
  76:.\Generated_Source\PSoC5/DFB_1.c **** *
  77:.\Generated_Source\PSoC5/DFB_1.c **** *******************************************************************************/
  78:.\Generated_Source\PSoC5/DFB_1.c **** static void DFB_1_ZeroReg32(reg32 regAddress[], uint8 count)
  79:.\Generated_Source\PSoC5/DFB_1.c **** {
 101              		.loc 1 79 0
 102              		.cfi_startproc
 103              		@ args = 0, pretend = 0, frame = 16
 104              		@ frame_needed = 1, uses_anonymous_args = 0
 105              		@ link register save eliminated.
 106 0000 80B4     		push	{r7}
 107              	.LCFI3:
 108              		.cfi_def_cfa_offset 4
 109 0002 85B0     		sub	sp, sp, #20
 110              	.LCFI4:
 111              		.cfi_def_cfa_offset 24
 112 0004 00AF     		add	r7, sp, #0
 113              		.cfi_offset 7, -4
 114              	.LCFI5:
 115              		.cfi_def_cfa_register 7
 116 0006 7860     		str	r0, [r7, #4]
 117 0008 0B46     		mov	r3, r1
 118 000a FB70     		strb	r3, [r7, #3]
  80:.\Generated_Source\PSoC5/DFB_1.c ****     uint8 i = 0u;
 119              		.loc 1 80 0
 120 000c 4FF00003 		mov	r3, #0
 121 0010 FB73     		strb	r3, [r7, #15]
  81:.\Generated_Source\PSoC5/DFB_1.c ****     
  82:.\Generated_Source\PSoC5/DFB_1.c ****     while (count > 0u)
 122              		.loc 1 82 0
 123 0012 0FE0     		b	.L6
 124              	.L7:
  83:.\Generated_Source\PSoC5/DFB_1.c ****     {
  84:.\Generated_Source\PSoC5/DFB_1.c ****         CY_SET_REG32(& regAddress[i], 0u);
 125              		.loc 1 84 0
 126 0014 FB7B     		ldrb	r3, [r7, #15]	@ zero_extendqisi2
 127 0016 4FEA8302 		lsl	r2, r3, #2
 128 001a 7B68     		ldr	r3, [r7, #4]
 129 001c 1344     		add	r3, r2, r3
 130 001e 4FF00002 		mov	r2, #0
 131 0022 1A60     		str	r2, [r3, #0]
  85:.\Generated_Source\PSoC5/DFB_1.c ****         count--;
 132              		.loc 1 85 0
 133 0024 FB78     		ldrb	r3, [r7, #3]
 134 0026 03F1FF33 		add	r3, r3, #-1
 135 002a FB70     		strb	r3, [r7, #3]
  86:.\Generated_Source\PSoC5/DFB_1.c ****         i++;
 136              		.loc 1 86 0
 137 002c FB7B     		ldrb	r3, [r7, #15]
 138 002e 03F10103 		add	r3, r3, #1
ARM GAS  C:\Users\hoangp\AppData\Local\Temp\ccil7xJT.s 			page 5


 139 0032 FB73     		strb	r3, [r7, #15]
 140              	.L6:
 141              		.loc 1 82 0
 142 0034 FB78     		ldrb	r3, [r7, #3]	@ zero_extendqisi2
 143 0036 002B     		cmp	r3, #0
 144 0038 ECD1     		bne	.L7
  87:.\Generated_Source\PSoC5/DFB_1.c ****     }
  88:.\Generated_Source\PSoC5/DFB_1.c **** }
 145              		.loc 1 88 0
 146 003a 07F11407 		add	r7, r7, #20
 147 003e BD46     		mov	sp, r7
 148 0040 80BC     		pop	{r7}
 149 0042 7047     		bx	lr
 150              		.cfi_endproc
 151              	.LFE1:
 152              		.size	DFB_1_ZeroReg32, .-DFB_1_ZeroReg32
 153              		.section	.text.DFB_1_Init,"ax",%progbits
 154              		.align	2
 155              		.global	DFB_1_Init
 156              		.thumb
 157              		.thumb_func
 158              		.type	DFB_1_Init, %function
 159              	DFB_1_Init:
 160              	.LFB2:
  89:.\Generated_Source\PSoC5/DFB_1.c **** 
  90:.\Generated_Source\PSoC5/DFB_1.c **** 
  91:.\Generated_Source\PSoC5/DFB_1.c **** /*******************************************************************************
  92:.\Generated_Source\PSoC5/DFB_1.c **** * Function Name: DFB_1_Init
  93:.\Generated_Source\PSoC5/DFB_1.c **** ********************************************************************************
  94:.\Generated_Source\PSoC5/DFB_1.c **** * 
  95:.\Generated_Source\PSoC5/DFB_1.c **** * Summary:
  96:.\Generated_Source\PSoC5/DFB_1.c **** *  This function initializes or restores default the DFB component configuration
  97:.\Generated_Source\PSoC5/DFB_1.c **** *  provided with customizer:
  98:.\Generated_Source\PSoC5/DFB_1.c **** *   powers on DFB(PM_ACT_CFG), power on the RAM(DFB_RAM_EN),
  99:.\Generated_Source\PSoC5/DFB_1.c **** *   moves CSA/CSB/FSM/DataA/DataB/ACU data to the DFB ram using an 8051/ARM
 100:.\Generated_Source\PSoC5/DFB_1.c **** *   core,
 101:.\Generated_Source\PSoC5/DFB_1.c **** *   changes RAM DIR to DFB,
 102:.\Generated_Source\PSoC5/DFB_1.c **** *   sets interrupt mode,
 103:.\Generated_Source\PSoC5/DFB_1.c **** *   sets DMA mode,
 104:.\Generated_Source\PSoC5/DFB_1.c **** *   sets DSI outputs,
 105:.\Generated_Source\PSoC5/DFB_1.c **** *   clears all semaphore bits an pending interrupts.
 106:.\Generated_Source\PSoC5/DFB_1.c **** *
 107:.\Generated_Source\PSoC5/DFB_1.c **** * Parameters:
 108:.\Generated_Source\PSoC5/DFB_1.c **** *  None.
 109:.\Generated_Source\PSoC5/DFB_1.c **** *
 110:.\Generated_Source\PSoC5/DFB_1.c **** * Return:
 111:.\Generated_Source\PSoC5/DFB_1.c **** *  None.
 112:.\Generated_Source\PSoC5/DFB_1.c **** *
 113:.\Generated_Source\PSoC5/DFB_1.c **** * Side Effects:
 114:.\Generated_Source\PSoC5/DFB_1.c **** *  All registers will be reset to their initial values. This will reinitializes
 115:.\Generated_Source\PSoC5/DFB_1.c **** *  the component. This function turns off Run bit and enables power to the DFB
 116:.\Generated_Source\PSoC5/DFB_1.c **** *  block.
 117:.\Generated_Source\PSoC5/DFB_1.c **** *  Program loading takes ~6 ms.
 118:.\Generated_Source\PSoC5/DFB_1.c **** *
 119:.\Generated_Source\PSoC5/DFB_1.c **** *******************************************************************************/
 120:.\Generated_Source\PSoC5/DFB_1.c **** void DFB_1_Init(void) 
 121:.\Generated_Source\PSoC5/DFB_1.c **** {
ARM GAS  C:\Users\hoangp\AppData\Local\Temp\ccil7xJT.s 			page 6


 161              		.loc 1 121 0
 162              		.cfi_startproc
 163              		@ args = 0, pretend = 0, frame = 8
 164              		@ frame_needed = 1, uses_anonymous_args = 0
 165 0000 80B5     		push	{r7, lr}
 166              	.LCFI6:
 167              		.cfi_def_cfa_offset 8
 168 0002 82B0     		sub	sp, sp, #8
 169              	.LCFI7:
 170              		.cfi_def_cfa_offset 16
 171 0004 00AF     		add	r7, sp, #0
 172              		.cfi_offset 14, -4
 173              		.cfi_offset 7, -8
 174              	.LCFI8:
 175              		.cfi_def_cfa_register 7
 122:.\Generated_Source\PSoC5/DFB_1.c ****     uint8 enableInterrupts;
 123:.\Generated_Source\PSoC5/DFB_1.c **** 
 124:.\Generated_Source\PSoC5/DFB_1.c ****     enableInterrupts = CyEnterCriticalSection();
 176              		.loc 1 124 0
 177 0006 FFF7FEFF 		bl	CyEnterCriticalSection
 178 000a 0346     		mov	r3, r0
 179 000c FB71     		strb	r3, [r7, #7]
 125:.\Generated_Source\PSoC5/DFB_1.c **** 
 126:.\Generated_Source\PSoC5/DFB_1.c ****     /* Powers on DFB block */
 127:.\Generated_Source\PSoC5/DFB_1.c ****     DFB_1_PM_ACT_CFG_REG |= DFB_1_PM_ACT_MSK;
 180              		.loc 1 127 0
 181 000e 44F2A633 		movw	r3, #:lower16:1073759142
 182 0012 C4F20003 		movt	r3, #:upper16:1073759142
 183 0016 44F2A632 		movw	r2, #:lower16:1073759142
 184 001a C4F20002 		movt	r2, #:upper16:1073759142
 185 001e 1278     		ldrb	r2, [r2, #0]
 186 0020 D2B2     		uxtb	r2, r2
 187 0022 42F01002 		orr	r2, r2, #16
 188 0026 D2B2     		uxtb	r2, r2
 189 0028 1A70     		strb	r2, [r3, #0]
 128:.\Generated_Source\PSoC5/DFB_1.c ****     /* Enables DFB block in Alternate Active (Standby) mode */
 129:.\Generated_Source\PSoC5/DFB_1.c ****     DFB_1_PM_STBY_CFG_REG |= DFB_1_PM_STBY_MSK;
 190              		.loc 1 129 0
 191 002a 44F2B633 		movw	r3, #:lower16:1073759158
 192 002e C4F20003 		movt	r3, #:upper16:1073759158
 193 0032 44F2B632 		movw	r2, #:lower16:1073759158
 194 0036 C4F20002 		movt	r2, #:upper16:1073759158
 195 003a 1278     		ldrb	r2, [r2, #0]
 196 003c D2B2     		uxtb	r2, r2
 197 003e 42F01002 		orr	r2, r2, #16
 198 0042 D2B2     		uxtb	r2, r2
 199 0044 1A70     		strb	r2, [r3, #0]
 130:.\Generated_Source\PSoC5/DFB_1.c **** 
 131:.\Generated_Source\PSoC5/DFB_1.c ****     CyExitCriticalSection(enableInterrupts);
 200              		.loc 1 131 0
 201 0046 FB79     		ldrb	r3, [r7, #7]	@ zero_extendqisi2
 202 0048 1846     		mov	r0, r3
 203 004a FFF7FEFF 		bl	CyExitCriticalSection
 132:.\Generated_Source\PSoC5/DFB_1.c **** 
 133:.\Generated_Source\PSoC5/DFB_1.c ****     /* Turns off Run Bit */
 134:.\Generated_Source\PSoC5/DFB_1.c ****     DFB_1_CR_REG &= (uint8) (~DFB_1_RUN_MASK);
 204              		.loc 1 134 0
ARM GAS  C:\Users\hoangp\AppData\Local\Temp\ccil7xJT.s 			page 7


 205 004e 4CF28073 		movw	r3, #:lower16:1073792896
 206 0052 C4F20003 		movt	r3, #:upper16:1073792896
 207 0056 4CF28072 		movw	r2, #:lower16:1073792896
 208 005a C4F20002 		movt	r2, #:upper16:1073792896
 209 005e 1278     		ldrb	r2, [r2, #0]
 210 0060 D2B2     		uxtb	r2, r2
 211 0062 02F0FE02 		and	r2, r2, #254
 212 0066 1A70     		strb	r2, [r3, #0]
 135:.\Generated_Source\PSoC5/DFB_1.c ****     /* Powers up the DFB RAMS */
 136:.\Generated_Source\PSoC5/DFB_1.c ****     DFB_1_RAM_EN_REG = DFB_1_RAM_DIR_BUS;
 213              		.loc 1 136 0
 214 0068 4CF28873 		movw	r3, #:lower16:1073792904
 215 006c C4F20003 		movt	r3, #:upper16:1073792904
 216 0070 4FF03F02 		mov	r2, #63
 217 0074 1A70     		strb	r2, [r3, #0]
 137:.\Generated_Source\PSoC5/DFB_1.c ****     /* Puts DFB RAM on the bus */
 138:.\Generated_Source\PSoC5/DFB_1.c ****     DFB_1_RAM_DIR_REG = DFB_1_RAM_DIR_BUS;
 218              		.loc 1 138 0
 219 0076 4CF28C73 		movw	r3, #:lower16:1073792908
 220 007a C4F20003 		movt	r3, #:upper16:1073792908
 221 007e 4FF03F02 		mov	r2, #63
 222 0082 1A70     		strb	r2, [r3, #0]
 139:.\Generated_Source\PSoC5/DFB_1.c **** 
 140:.\Generated_Source\PSoC5/DFB_1.c ****     /* Clears all DFB RAM */
 141:.\Generated_Source\PSoC5/DFB_1.c ****     DFB_1_ZeroReg32(DFB_1_DA_RAM_PTR, DFB_1_DA_RAM_SIZE);
 223              		.loc 1 141 0
 224 0084 4CF20000 		movw	r0, #:lower16:1073790976
 225 0088 C4F20000 		movt	r0, #:upper16:1073790976
 226 008c 4FF08001 		mov	r1, #128
 227 0090 FFF7FEFF 		bl	DFB_1_ZeroReg32
 142:.\Generated_Source\PSoC5/DFB_1.c ****     DFB_1_ZeroReg32(DFB_1_DB_RAM_PTR, DFB_1_DB_RAM_SIZE);
 228              		.loc 1 142 0
 229 0094 4CF20020 		movw	r0, #:lower16:1073791488
 230 0098 C4F20000 		movt	r0, #:upper16:1073791488
 231 009c 4FF08001 		mov	r1, #128
 232 00a0 FFF7FEFF 		bl	DFB_1_ZeroReg32
 143:.\Generated_Source\PSoC5/DFB_1.c ****     DFB_1_ZeroReg32(DFB_1_CSA_RAM_PTR, DFB_1_CSA_RAM_SIZE);
 233              		.loc 1 143 0
 234 00a4 4CF20040 		movw	r0, #:lower16:1073792000
 235 00a8 C4F20000 		movt	r0, #:upper16:1073792000
 236 00ac 4FF04001 		mov	r1, #64
 237 00b0 FFF7FEFF 		bl	DFB_1_ZeroReg32
 144:.\Generated_Source\PSoC5/DFB_1.c ****     DFB_1_ZeroReg32(DFB_1_CSB_RAM_PTR, DFB_1_CSB_RAM_SIZE);
 238              		.loc 1 144 0
 239 00b4 4CF20050 		movw	r0, #:lower16:1073792256
 240 00b8 C4F20000 		movt	r0, #:upper16:1073792256
 241 00bc 4FF04001 		mov	r1, #64
 242 00c0 FFF7FEFF 		bl	DFB_1_ZeroReg32
 145:.\Generated_Source\PSoC5/DFB_1.c ****     DFB_1_ZeroReg32(DFB_1_ACU_RAM_PTR, DFB_1_ACU_RAM_SIZE);
 243              		.loc 1 145 0
 244 00c4 4CF20070 		movw	r0, #:lower16:1073792768
 245 00c8 C4F20000 		movt	r0, #:upper16:1073792768
 246 00cc 4FF01001 		mov	r1, #16
 247 00d0 FFF7FEFF 		bl	DFB_1_ZeroReg32
 146:.\Generated_Source\PSoC5/DFB_1.c ****     DFB_1_ZeroReg32(DFB_1_CFSM_RAM_PTR, DFB_1_CFSM_RAM_SIZE);
 248              		.loc 1 146 0
 249 00d4 4CF20060 		movw	r0, #:lower16:1073792512
ARM GAS  C:\Users\hoangp\AppData\Local\Temp\ccil7xJT.s 			page 8


 250 00d8 C4F20000 		movt	r0, #:upper16:1073792512
 251 00dc 4FF04001 		mov	r1, #64
 252 00e0 FFF7FEFF 		bl	DFB_1_ZeroReg32
 147:.\Generated_Source\PSoC5/DFB_1.c **** 
 148:.\Generated_Source\PSoC5/DFB_1.c ****     /* Writes DFB RAMs */
 149:.\Generated_Source\PSoC5/DFB_1.c ****     /* Control Store RAMs */
 150:.\Generated_Source\PSoC5/DFB_1.c ****     #if (DFB_1_OPTIMIZE_ASSEMBLY)
 151:.\Generated_Source\PSoC5/DFB_1.c ****         DFB_1_LoadReg32(DFB_1_CSA_RAM_PTR, DFB_1_cstoreA,
 152:.\Generated_Source\PSoC5/DFB_1.c ****                                     DFB_1_CSA_RAM_SIZE_CUR);
 153:.\Generated_Source\PSoC5/DFB_1.c ****         DFB_1_LoadReg32(DFB_1_CSB_RAM_PTR, DFB_1_cstoreB,
 154:.\Generated_Source\PSoC5/DFB_1.c ****                                     DFB_1_CSB_RAM_SIZE_CUR);
 155:.\Generated_Source\PSoC5/DFB_1.c ****     #else
 156:.\Generated_Source\PSoC5/DFB_1.c ****         DFB_1_LoadReg32(DFB_1_CSA_RAM_PTR, DFB_1_control,
 253              		.loc 1 156 0
 254 00e4 4CF20040 		movw	r0, #:lower16:1073792000
 255 00e8 C4F20000 		movt	r0, #:upper16:1073792000
 256 00ec 40F20001 		movw	r1, #:lower16:DFB_1_control
 257 00f0 C0F20001 		movt	r1, #:upper16:DFB_1_control
 258 00f4 4FF00102 		mov	r2, #1
 259 00f8 FFF7FEFF 		bl	DFB_1_LoadReg32
 157:.\Generated_Source\PSoC5/DFB_1.c ****                                     DFB_1_CSA_RAM_SIZE_CUR);
 158:.\Generated_Source\PSoC5/DFB_1.c ****         DFB_1_LoadReg32(DFB_1_CSB_RAM_PTR, DFB_1_control,
 260              		.loc 1 158 0
 261 00fc 4CF20050 		movw	r0, #:lower16:1073792256
 262 0100 C4F20000 		movt	r0, #:upper16:1073792256
 263 0104 40F20001 		movw	r1, #:lower16:DFB_1_control
 264 0108 C0F20001 		movt	r1, #:upper16:DFB_1_control
 265 010c 4FF00102 		mov	r2, #1
 266 0110 FFF7FEFF 		bl	DFB_1_LoadReg32
 159:.\Generated_Source\PSoC5/DFB_1.c ****                                     DFB_1_CSB_RAM_SIZE_CUR);
 160:.\Generated_Source\PSoC5/DFB_1.c ****     #endif /* DFB_1_OPTIMIZE_ASSEMBLY */
 161:.\Generated_Source\PSoC5/DFB_1.c **** 
 162:.\Generated_Source\PSoC5/DFB_1.c ****     /* Loads initial data to Data RAMs */
 163:.\Generated_Source\PSoC5/DFB_1.c ****     DFB_1_LoadReg32(DFB_1_DA_RAM_PTR, DFB_1_data_a, DFB_1_DA_RAM_SIZE_CUR);
 267              		.loc 1 163 0
 268 0114 4CF20000 		movw	r0, #:lower16:1073790976
 269 0118 C4F20000 		movt	r0, #:upper16:1073790976
 270 011c 40F20001 		movw	r1, #:lower16:DFB_1_data_a
 271 0120 C0F20001 		movt	r1, #:upper16:DFB_1_data_a
 272 0124 4FF00102 		mov	r2, #1
 273 0128 FFF7FEFF 		bl	DFB_1_LoadReg32
 164:.\Generated_Source\PSoC5/DFB_1.c ****     DFB_1_LoadReg32(DFB_1_DB_RAM_PTR, DFB_1_data_b, DFB_1_DB_RAM_SIZE_CUR);
 274              		.loc 1 164 0
 275 012c 4CF20020 		movw	r0, #:lower16:1073791488
 276 0130 C4F20000 		movt	r0, #:upper16:1073791488
 277 0134 40F20001 		movw	r1, #:lower16:DFB_1_data_b
 278 0138 C0F20001 		movt	r1, #:upper16:DFB_1_data_b
 279 013c 4FF00102 		mov	r2, #1
 280 0140 FFF7FEFF 		bl	DFB_1_LoadReg32
 165:.\Generated_Source\PSoC5/DFB_1.c ****     /* Loads initial data to ACU RAM */
 166:.\Generated_Source\PSoC5/DFB_1.c ****     DFB_1_LoadReg32(DFB_1_ACU_RAM_PTR, DFB_1_acu, DFB_1_ACU_RAM_SIZE_CUR);
 281              		.loc 1 166 0
 282 0144 4CF20070 		movw	r0, #:lower16:1073792768
 283 0148 C4F20000 		movt	r0, #:upper16:1073792768
 284 014c 40F20001 		movw	r1, #:lower16:DFB_1_acu
 285 0150 C0F20001 		movt	r1, #:upper16:DFB_1_acu
 286 0154 4FF00102 		mov	r2, #1
ARM GAS  C:\Users\hoangp\AppData\Local\Temp\ccil7xJT.s 			page 9


 287 0158 FFF7FEFF 		bl	DFB_1_LoadReg32
 167:.\Generated_Source\PSoC5/DFB_1.c ****     /* Loads initial data to CFSM RAM */
 168:.\Generated_Source\PSoC5/DFB_1.c ****     DFB_1_LoadReg32(DFB_1_CFSM_RAM_PTR, DFB_1_cfsm,
 288              		.loc 1 168 0
 289 015c 4CF20060 		movw	r0, #:lower16:1073792512
 290 0160 C4F20000 		movt	r0, #:upper16:1073792512
 291 0164 40F20001 		movw	r1, #:lower16:DFB_1_cfsm
 292 0168 C0F20001 		movt	r1, #:upper16:DFB_1_cfsm
 293 016c 4FF00202 		mov	r2, #2
 294 0170 FFF7FEFF 		bl	DFB_1_LoadReg32
 169:.\Generated_Source\PSoC5/DFB_1.c ****                                 DFB_1_CFSM_RAM_SIZE_CUR);
 170:.\Generated_Source\PSoC5/DFB_1.c **** 
 171:.\Generated_Source\PSoC5/DFB_1.c ****     /* Takes DFB RAM off the bus */
 172:.\Generated_Source\PSoC5/DFB_1.c ****     DFB_1_RAM_DIR_REG = DFB_1_RAM_DIR_DFB;
 295              		.loc 1 172 0
 296 0174 4CF28C73 		movw	r3, #:lower16:1073792908
 297 0178 C4F20003 		movt	r3, #:upper16:1073792908
 298 017c 4FF00002 		mov	r2, #0
 299 0180 1A70     		strb	r2, [r3, #0]
 173:.\Generated_Source\PSoC5/DFB_1.c **** 
 174:.\Generated_Source\PSoC5/DFB_1.c ****     /* Sets up interrupt and DMA events */
 175:.\Generated_Source\PSoC5/DFB_1.c ****     DFB_1_SetInterruptMode(DFB_1_INIT_INTERRUPT_MODE);
 300              		.loc 1 175 0
 301 0182 4FF00000 		mov	r0, #0
 302 0186 FFF7FEFF 		bl	DFB_1_SetInterruptMode
 176:.\Generated_Source\PSoC5/DFB_1.c ****     DFB_1_SetDMAMode(DFB_1_INIT_DMA_MODE);
 303              		.loc 1 176 0
 304 018a 4FF00000 		mov	r0, #0
 305 018e FFF7FEFF 		bl	DFB_1_SetDMAMode
 177:.\Generated_Source\PSoC5/DFB_1.c **** 
 178:.\Generated_Source\PSoC5/DFB_1.c ****     /* Sets up internal signals, which will be mapped to the DSI outputs */
 179:.\Generated_Source\PSoC5/DFB_1.c ****     DFB_1_SetOutput1Source(DFB_1_INIT_OUT1_SOURCE);
 306              		.loc 1 179 0
 307 0192 4FF00000 		mov	r0, #0
 308 0196 FFF7FEFF 		bl	DFB_1_SetOutput1Source
 180:.\Generated_Source\PSoC5/DFB_1.c ****     DFB_1_SetOutput2Source(DFB_1_INIT_OUT2_SOURCE);
 309              		.loc 1 180 0
 310 019a 4FF00000 		mov	r0, #0
 311 019e FFF7FEFF 		bl	DFB_1_SetOutput2Source
 181:.\Generated_Source\PSoC5/DFB_1.c **** 
 182:.\Generated_Source\PSoC5/DFB_1.c ****     /* Clears any pending interrupts and semaphore bits */
 183:.\Generated_Source\PSoC5/DFB_1.c ****     DFB_1_SR_REG = 0xFFu;
 312              		.loc 1 183 0
 313 01a2 4CF28473 		movw	r3, #:lower16:1073792900
 314 01a6 C4F20003 		movt	r3, #:upper16:1073792900
 315 01aa 4FF0FF32 		mov	r2, #-1
 316 01ae 1A70     		strb	r2, [r3, #0]
 184:.\Generated_Source\PSoC5/DFB_1.c **** }
 317              		.loc 1 184 0
 318 01b0 07F10807 		add	r7, r7, #8
 319 01b4 BD46     		mov	sp, r7
 320 01b6 80BD     		pop	{r7, pc}
 321              		.cfi_endproc
 322              	.LFE2:
 323              		.size	DFB_1_Init, .-DFB_1_Init
 324              		.section	.text.DFB_1_Enable,"ax",%progbits
 325              		.align	2
ARM GAS  C:\Users\hoangp\AppData\Local\Temp\ccil7xJT.s 			page 10


 326              		.global	DFB_1_Enable
 327              		.thumb
 328              		.thumb_func
 329              		.type	DFB_1_Enable, %function
 330              	DFB_1_Enable:
 331              	.LFB3:
 185:.\Generated_Source\PSoC5/DFB_1.c **** 
 186:.\Generated_Source\PSoC5/DFB_1.c **** 
 187:.\Generated_Source\PSoC5/DFB_1.c **** /*******************************************************************************
 188:.\Generated_Source\PSoC5/DFB_1.c **** * Function Name: DFB_1_Enable
 189:.\Generated_Source\PSoC5/DFB_1.c **** ********************************************************************************
 190:.\Generated_Source\PSoC5/DFB_1.c **** *
 191:.\Generated_Source\PSoC5/DFB_1.c **** * Summary:
 192:.\Generated_Source\PSoC5/DFB_1.c **** *  This function enables the DFB hardware block, sets the DFB run bit and powers
 193:.\Generated_Source\PSoC5/DFB_1.c **** *  on the DFB block.
 194:.\Generated_Source\PSoC5/DFB_1.c **** *
 195:.\Generated_Source\PSoC5/DFB_1.c **** * Parameters:
 196:.\Generated_Source\PSoC5/DFB_1.c **** *  None.
 197:.\Generated_Source\PSoC5/DFB_1.c **** *
 198:.\Generated_Source\PSoC5/DFB_1.c **** * Return:
 199:.\Generated_Source\PSoC5/DFB_1.c **** *  None.
 200:.\Generated_Source\PSoC5/DFB_1.c **** *
 201:.\Generated_Source\PSoC5/DFB_1.c **** *******************************************************************************/
 202:.\Generated_Source\PSoC5/DFB_1.c **** void DFB_1_Enable(void) 
 203:.\Generated_Source\PSoC5/DFB_1.c **** {
 332              		.loc 1 203 0
 333              		.cfi_startproc
 334              		@ args = 0, pretend = 0, frame = 8
 335              		@ frame_needed = 1, uses_anonymous_args = 0
 336 0000 80B5     		push	{r7, lr}
 337              	.LCFI9:
 338              		.cfi_def_cfa_offset 8
 339 0002 82B0     		sub	sp, sp, #8
 340              	.LCFI10:
 341              		.cfi_def_cfa_offset 16
 342 0004 00AF     		add	r7, sp, #0
 343              		.cfi_offset 14, -4
 344              		.cfi_offset 7, -8
 345              	.LCFI11:
 346              		.cfi_def_cfa_register 7
 204:.\Generated_Source\PSoC5/DFB_1.c ****     uint8 enableInterrupts;
 205:.\Generated_Source\PSoC5/DFB_1.c **** 
 206:.\Generated_Source\PSoC5/DFB_1.c ****     enableInterrupts = CyEnterCriticalSection();
 347              		.loc 1 206 0
 348 0006 FFF7FEFF 		bl	CyEnterCriticalSection
 349 000a 0346     		mov	r3, r0
 350 000c FB71     		strb	r3, [r7, #7]
 207:.\Generated_Source\PSoC5/DFB_1.c **** 
 208:.\Generated_Source\PSoC5/DFB_1.c ****     /* Powers on DFB block */
 209:.\Generated_Source\PSoC5/DFB_1.c ****     DFB_1_PM_ACT_CFG_REG |= DFB_1_PM_ACT_MSK;
 351              		.loc 1 209 0
 352 000e 44F2A633 		movw	r3, #:lower16:1073759142
 353 0012 C4F20003 		movt	r3, #:upper16:1073759142
 354 0016 44F2A632 		movw	r2, #:lower16:1073759142
 355 001a C4F20002 		movt	r2, #:upper16:1073759142
 356 001e 1278     		ldrb	r2, [r2, #0]
 357 0020 D2B2     		uxtb	r2, r2
ARM GAS  C:\Users\hoangp\AppData\Local\Temp\ccil7xJT.s 			page 11


 358 0022 42F01002 		orr	r2, r2, #16
 359 0026 D2B2     		uxtb	r2, r2
 360 0028 1A70     		strb	r2, [r3, #0]
 210:.\Generated_Source\PSoC5/DFB_1.c ****     /* Enables DFB block in Alternate Active (Standby) mode */
 211:.\Generated_Source\PSoC5/DFB_1.c ****     DFB_1_PM_STBY_CFG_REG |= DFB_1_PM_STBY_MSK;
 361              		.loc 1 211 0
 362 002a 44F2B633 		movw	r3, #:lower16:1073759158
 363 002e C4F20003 		movt	r3, #:upper16:1073759158
 364 0032 44F2B632 		movw	r2, #:lower16:1073759158
 365 0036 C4F20002 		movt	r2, #:upper16:1073759158
 366 003a 1278     		ldrb	r2, [r2, #0]
 367 003c D2B2     		uxtb	r2, r2
 368 003e 42F01002 		orr	r2, r2, #16
 369 0042 D2B2     		uxtb	r2, r2
 370 0044 1A70     		strb	r2, [r3, #0]
 212:.\Generated_Source\PSoC5/DFB_1.c **** 
 213:.\Generated_Source\PSoC5/DFB_1.c ****     CyExitCriticalSection(enableInterrupts);
 371              		.loc 1 213 0
 372 0046 FB79     		ldrb	r3, [r7, #7]	@ zero_extendqisi2
 373 0048 1846     		mov	r0, r3
 374 004a FFF7FEFF 		bl	CyExitCriticalSection
 214:.\Generated_Source\PSoC5/DFB_1.c ****     
 215:.\Generated_Source\PSoC5/DFB_1.c ****     /* Powers up the DFB RAMS */
 216:.\Generated_Source\PSoC5/DFB_1.c ****     DFB_1_RAM_EN_REG = DFB_1_RAM_DIR_BUS;
 375              		.loc 1 216 0
 376 004e 4CF28873 		movw	r3, #:lower16:1073792904
 377 0052 C4F20003 		movt	r3, #:upper16:1073792904
 378 0056 4FF03F02 		mov	r2, #63
 379 005a 1A70     		strb	r2, [r3, #0]
 217:.\Generated_Source\PSoC5/DFB_1.c ****     /* Turns on Run Bit */
 218:.\Generated_Source\PSoC5/DFB_1.c ****     DFB_1_CR_REG |= DFB_1_RUN_MASK;
 380              		.loc 1 218 0
 381 005c 4CF28073 		movw	r3, #:lower16:1073792896
 382 0060 C4F20003 		movt	r3, #:upper16:1073792896
 383 0064 4CF28072 		movw	r2, #:lower16:1073792896
 384 0068 C4F20002 		movt	r2, #:upper16:1073792896
 385 006c 1278     		ldrb	r2, [r2, #0]
 386 006e D2B2     		uxtb	r2, r2
 387 0070 42F00102 		orr	r2, r2, #1
 388 0074 D2B2     		uxtb	r2, r2
 389 0076 1A70     		strb	r2, [r3, #0]
 219:.\Generated_Source\PSoC5/DFB_1.c **** }
 390              		.loc 1 219 0
 391 0078 07F10807 		add	r7, r7, #8
 392 007c BD46     		mov	sp, r7
 393 007e 80BD     		pop	{r7, pc}
 394              		.cfi_endproc
 395              	.LFE3:
 396              		.size	DFB_1_Enable, .-DFB_1_Enable
 397              		.section	.text.DFB_1_Start,"ax",%progbits
 398              		.align	2
 399              		.global	DFB_1_Start
 400              		.thumb
 401              		.thumb_func
 402              		.type	DFB_1_Start, %function
 403              	DFB_1_Start:
 404              	.LFB4:
ARM GAS  C:\Users\hoangp\AppData\Local\Temp\ccil7xJT.s 			page 12


 220:.\Generated_Source\PSoC5/DFB_1.c **** 
 221:.\Generated_Source\PSoC5/DFB_1.c **** 
 222:.\Generated_Source\PSoC5/DFB_1.c **** /*******************************************************************************
 223:.\Generated_Source\PSoC5/DFB_1.c **** * Function Name: DFB_1_Start
 224:.\Generated_Source\PSoC5/DFB_1.c **** ********************************************************************************
 225:.\Generated_Source\PSoC5/DFB_1.c **** *
 226:.\Generated_Source\PSoC5/DFB_1.c **** * Summary:
 227:.\Generated_Source\PSoC5/DFB_1.c **** *  This function initializes and enables the DFB component using the DFB_Init()
 228:.\Generated_Source\PSoC5/DFB_1.c **** *  and DFB_Enable() functions.
 229:.\Generated_Source\PSoC5/DFB_1.c **** *
 230:.\Generated_Source\PSoC5/DFB_1.c **** * Parameters:
 231:.\Generated_Source\PSoC5/DFB_1.c **** *  None.
 232:.\Generated_Source\PSoC5/DFB_1.c **** *
 233:.\Generated_Source\PSoC5/DFB_1.c **** * Return:
 234:.\Generated_Source\PSoC5/DFB_1.c **** *  None.
 235:.\Generated_Source\PSoC5/DFB_1.c **** *
 236:.\Generated_Source\PSoC5/DFB_1.c **** * Global variables:
 237:.\Generated_Source\PSoC5/DFB_1.c **** *  DFB_1_initVar - used to check initial configuration, modified on
 238:.\Generated_Source\PSoC5/DFB_1.c **** *  first function call.
 239:.\Generated_Source\PSoC5/DFB_1.c **** *
 240:.\Generated_Source\PSoC5/DFB_1.c **** * Reentrant:
 241:.\Generated_Source\PSoC5/DFB_1.c **** *  No.
 242:.\Generated_Source\PSoC5/DFB_1.c **** *
 243:.\Generated_Source\PSoC5/DFB_1.c **** *******************************************************************************/
 244:.\Generated_Source\PSoC5/DFB_1.c **** void DFB_1_Start(void) 
 245:.\Generated_Source\PSoC5/DFB_1.c **** {
 405              		.loc 1 245 0
 406              		.cfi_startproc
 407              		@ args = 0, pretend = 0, frame = 0
 408              		@ frame_needed = 1, uses_anonymous_args = 0
 409 0000 80B5     		push	{r7, lr}
 410              	.LCFI12:
 411              		.cfi_def_cfa_offset 8
 412 0002 00AF     		add	r7, sp, #0
 413              		.cfi_offset 14, -4
 414              		.cfi_offset 7, -8
 415              	.LCFI13:
 416              		.cfi_def_cfa_register 7
 246:.\Generated_Source\PSoC5/DFB_1.c ****     if (DFB_1_initVar == 0u)
 417              		.loc 1 246 0
 418 0004 40F20003 		movw	r3, #:lower16:DFB_1_initVar
 419 0008 C0F20003 		movt	r3, #:upper16:DFB_1_initVar
 420 000c 1B78     		ldrb	r3, [r3, #0]	@ zero_extendqisi2
 421 000e 002B     		cmp	r3, #0
 422 0010 08D1     		bne	.L14
 247:.\Generated_Source\PSoC5/DFB_1.c ****     {
 248:.\Generated_Source\PSoC5/DFB_1.c ****         DFB_1_Init();
 423              		.loc 1 248 0
 424 0012 FFF7FEFF 		bl	DFB_1_Init
 249:.\Generated_Source\PSoC5/DFB_1.c ****         DFB_1_initVar = 1u;
 425              		.loc 1 249 0
 426 0016 40F20003 		movw	r3, #:lower16:DFB_1_initVar
 427 001a C0F20003 		movt	r3, #:upper16:DFB_1_initVar
 428 001e 4FF00102 		mov	r2, #1
 429 0022 1A70     		strb	r2, [r3, #0]
 430              	.L14:
 250:.\Generated_Source\PSoC5/DFB_1.c ****     }
ARM GAS  C:\Users\hoangp\AppData\Local\Temp\ccil7xJT.s 			page 13


 251:.\Generated_Source\PSoC5/DFB_1.c **** 
 252:.\Generated_Source\PSoC5/DFB_1.c ****     DFB_1_Enable();
 431              		.loc 1 252 0
 432 0024 FFF7FEFF 		bl	DFB_1_Enable
 253:.\Generated_Source\PSoC5/DFB_1.c **** }
 433              		.loc 1 253 0
 434 0028 80BD     		pop	{r7, pc}
 435              		.cfi_endproc
 436              	.LFE4:
 437              		.size	DFB_1_Start, .-DFB_1_Start
 438 002a 00BF     		.section	.text.DFB_1_Stop,"ax",%progbits
 439              		.align	2
 440              		.global	DFB_1_Stop
 441              		.thumb
 442              		.thumb_func
 443              		.type	DFB_1_Stop, %function
 444              	DFB_1_Stop:
 445              	.LFB5:
 254:.\Generated_Source\PSoC5/DFB_1.c **** 
 255:.\Generated_Source\PSoC5/DFB_1.c **** 
 256:.\Generated_Source\PSoC5/DFB_1.c **** /*******************************************************************************
 257:.\Generated_Source\PSoC5/DFB_1.c **** * Function Name: DFB_1_Stop
 258:.\Generated_Source\PSoC5/DFB_1.c **** ********************************************************************************
 259:.\Generated_Source\PSoC5/DFB_1.c **** *
 260:.\Generated_Source\PSoC5/DFB_1.c **** * Summary:
 261:.\Generated_Source\PSoC5/DFB_1.c **** *  This function turns off the run bit. If DMA control is used to feed the
 262:.\Generated_Source\PSoC5/DFB_1.c **** *  channels, function allows arguments to turn off one of the TD channels off.
 263:.\Generated_Source\PSoC5/DFB_1.c **** *
 264:.\Generated_Source\PSoC5/DFB_1.c **** * Parameters:
 265:.\Generated_Source\PSoC5/DFB_1.c **** *  None.
 266:.\Generated_Source\PSoC5/DFB_1.c **** *
 267:.\Generated_Source\PSoC5/DFB_1.c **** * Return:
 268:.\Generated_Source\PSoC5/DFB_1.c **** *  None.
 269:.\Generated_Source\PSoC5/DFB_1.c **** *
 270:.\Generated_Source\PSoC5/DFB_1.c **** * Side Effects:
 271:.\Generated_Source\PSoC5/DFB_1.c **** *  Disables power to the DFB Core.
 272:.\Generated_Source\PSoC5/DFB_1.c **** *
 273:.\Generated_Source\PSoC5/DFB_1.c **** *******************************************************************************/
 274:.\Generated_Source\PSoC5/DFB_1.c **** void DFB_1_Stop(void) 
 275:.\Generated_Source\PSoC5/DFB_1.c **** {
 446              		.loc 1 275 0
 447              		.cfi_startproc
 448              		@ args = 0, pretend = 0, frame = 8
 449              		@ frame_needed = 1, uses_anonymous_args = 0
 450 0000 80B5     		push	{r7, lr}
 451              	.LCFI14:
 452              		.cfi_def_cfa_offset 8
 453 0002 82B0     		sub	sp, sp, #8
 454              	.LCFI15:
 455              		.cfi_def_cfa_offset 16
 456 0004 00AF     		add	r7, sp, #0
 457              		.cfi_offset 14, -4
 458              		.cfi_offset 7, -8
 459              	.LCFI16:
 460              		.cfi_def_cfa_register 7
 276:.\Generated_Source\PSoC5/DFB_1.c ****     uint8 enableInterrupts;
 277:.\Generated_Source\PSoC5/DFB_1.c **** 
ARM GAS  C:\Users\hoangp\AppData\Local\Temp\ccil7xJT.s 			page 14


 278:.\Generated_Source\PSoC5/DFB_1.c ****     enableInterrupts = CyEnterCriticalSection();
 461              		.loc 1 278 0
 462 0006 FFF7FEFF 		bl	CyEnterCriticalSection
 463 000a 0346     		mov	r3, r0
 464 000c FB71     		strb	r3, [r7, #7]
 279:.\Generated_Source\PSoC5/DFB_1.c **** 
 280:.\Generated_Source\PSoC5/DFB_1.c ****     /* Powers off DFB */
 281:.\Generated_Source\PSoC5/DFB_1.c ****     DFB_1_PM_ACT_CFG_REG &= (uint8) (~DFB_1_PM_ACT_MSK);
 465              		.loc 1 281 0
 466 000e 44F2A633 		movw	r3, #:lower16:1073759142
 467 0012 C4F20003 		movt	r3, #:upper16:1073759142
 468 0016 44F2A632 		movw	r2, #:lower16:1073759142
 469 001a C4F20002 		movt	r2, #:upper16:1073759142
 470 001e 1278     		ldrb	r2, [r2, #0]
 471 0020 D2B2     		uxtb	r2, r2
 472 0022 02F0EF02 		and	r2, r2, #239
 473 0026 1A70     		strb	r2, [r3, #0]
 282:.\Generated_Source\PSoC5/DFB_1.c ****     /* Disables DFB block in Alternate Active (Standby) mode */
 283:.\Generated_Source\PSoC5/DFB_1.c ****     DFB_1_PM_STBY_CFG_REG &= (uint8) (~DFB_1_PM_STBY_MSK);
 474              		.loc 1 283 0
 475 0028 44F2B633 		movw	r3, #:lower16:1073759158
 476 002c C4F20003 		movt	r3, #:upper16:1073759158
 477 0030 44F2B632 		movw	r2, #:lower16:1073759158
 478 0034 C4F20002 		movt	r2, #:upper16:1073759158
 479 0038 1278     		ldrb	r2, [r2, #0]
 480 003a D2B2     		uxtb	r2, r2
 481 003c 02F0EF02 		and	r2, r2, #239
 482 0040 1A70     		strb	r2, [r3, #0]
 284:.\Generated_Source\PSoC5/DFB_1.c **** 
 285:.\Generated_Source\PSoC5/DFB_1.c ****     CyExitCriticalSection(enableInterrupts);
 483              		.loc 1 285 0
 484 0042 FB79     		ldrb	r3, [r7, #7]	@ zero_extendqisi2
 485 0044 1846     		mov	r0, r3
 486 0046 FFF7FEFF 		bl	CyExitCriticalSection
 286:.\Generated_Source\PSoC5/DFB_1.c **** 
 287:.\Generated_Source\PSoC5/DFB_1.c ****     /* Turns off Run Bit */
 288:.\Generated_Source\PSoC5/DFB_1.c ****     DFB_1_CR_REG &= (uint8) (~DFB_1_RUN_MASK);
 487              		.loc 1 288 0
 488 004a 4CF28073 		movw	r3, #:lower16:1073792896
 489 004e C4F20003 		movt	r3, #:upper16:1073792896
 490 0052 4CF28072 		movw	r2, #:lower16:1073792896
 491 0056 C4F20002 		movt	r2, #:upper16:1073792896
 492 005a 1278     		ldrb	r2, [r2, #0]
 493 005c D2B2     		uxtb	r2, r2
 494 005e 02F0FE02 		and	r2, r2, #254
 495 0062 1A70     		strb	r2, [r3, #0]
 289:.\Generated_Source\PSoC5/DFB_1.c **** }
 496              		.loc 1 289 0
 497 0064 07F10807 		add	r7, r7, #8
 498 0068 BD46     		mov	sp, r7
 499 006a 80BD     		pop	{r7, pc}
 500              		.cfi_endproc
 501              	.LFE5:
 502              		.size	DFB_1_Stop, .-DFB_1_Stop
 503              		.section	.text.DFB_1_Pause,"ax",%progbits
 504              		.align	2
 505              		.global	DFB_1_Pause
ARM GAS  C:\Users\hoangp\AppData\Local\Temp\ccil7xJT.s 			page 15


 506              		.thumb
 507              		.thumb_func
 508              		.type	DFB_1_Pause, %function
 509              	DFB_1_Pause:
 510              	.LFB6:
 290:.\Generated_Source\PSoC5/DFB_1.c **** 
 291:.\Generated_Source\PSoC5/DFB_1.c **** 
 292:.\Generated_Source\PSoC5/DFB_1.c **** /*******************************************************************************
 293:.\Generated_Source\PSoC5/DFB_1.c **** * Function Name: DFB_1_Pause
 294:.\Generated_Source\PSoC5/DFB_1.c **** ********************************************************************************
 295:.\Generated_Source\PSoC5/DFB_1.c **** *
 296:.\Generated_Source\PSoC5/DFB_1.c **** * Summary:
 297:.\Generated_Source\PSoC5/DFB_1.c **** *  This function pauses DFB and enables writing to the DFB RAM:
 298:.\Generated_Source\PSoC5/DFB_1.c **** *   turns off the Run bit,
 299:.\Generated_Source\PSoC5/DFB_1.c **** *   connects the DFB RAM to the data bus,
 300:.\Generated_Source\PSoC5/DFB_1.c **** *   clears the DFB run bit and passes the control of all DFB RAMs onto bus.
 301:.\Generated_Source\PSoC5/DFB_1.c **** *
 302:.\Generated_Source\PSoC5/DFB_1.c **** * Parameters:
 303:.\Generated_Source\PSoC5/DFB_1.c **** *  None.
 304:.\Generated_Source\PSoC5/DFB_1.c **** *
 305:.\Generated_Source\PSoC5/DFB_1.c **** * Return:
 306:.\Generated_Source\PSoC5/DFB_1.c **** *  None.
 307:.\Generated_Source\PSoC5/DFB_1.c **** *
 308:.\Generated_Source\PSoC5/DFB_1.c **** *******************************************************************************/
 309:.\Generated_Source\PSoC5/DFB_1.c **** void DFB_1_Pause(void) 
 310:.\Generated_Source\PSoC5/DFB_1.c **** {
 511              		.loc 1 310 0
 512              		.cfi_startproc
 513              		@ args = 0, pretend = 0, frame = 0
 514              		@ frame_needed = 1, uses_anonymous_args = 0
 515              		@ link register save eliminated.
 516 0000 80B4     		push	{r7}
 517              	.LCFI17:
 518              		.cfi_def_cfa_offset 4
 519 0002 00AF     		add	r7, sp, #0
 520              		.cfi_offset 7, -4
 521              	.LCFI18:
 522              		.cfi_def_cfa_register 7
 311:.\Generated_Source\PSoC5/DFB_1.c ****      /* Turns off Run Bit */
 312:.\Generated_Source\PSoC5/DFB_1.c ****     DFB_1_CR_REG &= (uint8) (~DFB_1_RUN_MASK);
 523              		.loc 1 312 0
 524 0004 4CF28073 		movw	r3, #:lower16:1073792896
 525 0008 C4F20003 		movt	r3, #:upper16:1073792896
 526 000c 4CF28072 		movw	r2, #:lower16:1073792896
 527 0010 C4F20002 		movt	r2, #:upper16:1073792896
 528 0014 1278     		ldrb	r2, [r2, #0]
 529 0016 D2B2     		uxtb	r2, r2
 530 0018 02F0FE02 		and	r2, r2, #254
 531 001c 1A70     		strb	r2, [r3, #0]
 313:.\Generated_Source\PSoC5/DFB_1.c ****      /* Puts DFB RAM on the bus */
 314:.\Generated_Source\PSoC5/DFB_1.c ****     DFB_1_RAM_DIR_REG = DFB_1_RAM_DIR_BUS;
 532              		.loc 1 314 0
 533 001e 4CF28C73 		movw	r3, #:lower16:1073792908
 534 0022 C4F20003 		movt	r3, #:upper16:1073792908
 535 0026 4FF03F02 		mov	r2, #63
 536 002a 1A70     		strb	r2, [r3, #0]
 315:.\Generated_Source\PSoC5/DFB_1.c **** }
ARM GAS  C:\Users\hoangp\AppData\Local\Temp\ccil7xJT.s 			page 16


 537              		.loc 1 315 0
 538 002c BD46     		mov	sp, r7
 539 002e 80BC     		pop	{r7}
 540 0030 7047     		bx	lr
 541              		.cfi_endproc
 542              	.LFE6:
 543              		.size	DFB_1_Pause, .-DFB_1_Pause
 544 0032 00BF     		.section	.text.DFB_1_Resume,"ax",%progbits
 545              		.align	2
 546              		.global	DFB_1_Resume
 547              		.thumb
 548              		.thumb_func
 549              		.type	DFB_1_Resume, %function
 550              	DFB_1_Resume:
 551              	.LFB7:
 316:.\Generated_Source\PSoC5/DFB_1.c **** 
 317:.\Generated_Source\PSoC5/DFB_1.c **** 
 318:.\Generated_Source\PSoC5/DFB_1.c **** /*******************************************************************************
 319:.\Generated_Source\PSoC5/DFB_1.c **** * Function Name: DFB_1_Resume
 320:.\Generated_Source\PSoC5/DFB_1.c **** ********************************************************************************
 321:.\Generated_Source\PSoC5/DFB_1.c **** *
 322:.\Generated_Source\PSoC5/DFB_1.c **** * Summary:
 323:.\Generated_Source\PSoC5/DFB_1.c **** *  This function disables writing to the DFB RAM, clear any pending interrupts,
 324:.\Generated_Source\PSoC5/DFB_1.c **** *  disconnects the DFB RAM from the data bus, and runs the DFB.
 325:.\Generated_Source\PSoC5/DFB_1.c **** *  It passes the control of all DFB RAM to the DFB and then sets the run bit.
 326:.\Generated_Source\PSoC5/DFB_1.c **** *
 327:.\Generated_Source\PSoC5/DFB_1.c **** * Parameters:
 328:.\Generated_Source\PSoC5/DFB_1.c **** *  None.
 329:.\Generated_Source\PSoC5/DFB_1.c **** *
 330:.\Generated_Source\PSoC5/DFB_1.c **** * Return:
 331:.\Generated_Source\PSoC5/DFB_1.c **** *  None.
 332:.\Generated_Source\PSoC5/DFB_1.c **** *
 333:.\Generated_Source\PSoC5/DFB_1.c **** *******************************************************************************/
 334:.\Generated_Source\PSoC5/DFB_1.c **** void DFB_1_Resume(void) 
 335:.\Generated_Source\PSoC5/DFB_1.c **** {
 552              		.loc 1 335 0
 553              		.cfi_startproc
 554              		@ args = 0, pretend = 0, frame = 0
 555              		@ frame_needed = 1, uses_anonymous_args = 0
 556              		@ link register save eliminated.
 557 0000 80B4     		push	{r7}
 558              	.LCFI19:
 559              		.cfi_def_cfa_offset 4
 560 0002 00AF     		add	r7, sp, #0
 561              		.cfi_offset 7, -4
 562              	.LCFI20:
 563              		.cfi_def_cfa_register 7
 336:.\Generated_Source\PSoC5/DFB_1.c ****     /* Takes DFB RAM off the bus */
 337:.\Generated_Source\PSoC5/DFB_1.c ****     DFB_1_RAM_DIR_REG = DFB_1_RAM_DIR_DFB;
 564              		.loc 1 337 0
 565 0004 4CF28C73 		movw	r3, #:lower16:1073792908
 566 0008 C4F20003 		movt	r3, #:upper16:1073792908
 567 000c 4FF00002 		mov	r2, #0
 568 0010 1A70     		strb	r2, [r3, #0]
 338:.\Generated_Source\PSoC5/DFB_1.c ****     /* Clears any pending interrupts */
 339:.\Generated_Source\PSoC5/DFB_1.c ****     DFB_1_SR_REG = 0xFFu;
 569              		.loc 1 339 0
ARM GAS  C:\Users\hoangp\AppData\Local\Temp\ccil7xJT.s 			page 17


 570 0012 4CF28473 		movw	r3, #:lower16:1073792900
 571 0016 C4F20003 		movt	r3, #:upper16:1073792900
 572 001a 4FF0FF32 		mov	r2, #-1
 573 001e 1A70     		strb	r2, [r3, #0]
 340:.\Generated_Source\PSoC5/DFB_1.c ****     /* Turns on Run Bit */
 341:.\Generated_Source\PSoC5/DFB_1.c ****     DFB_1_CR_REG |= DFB_1_RUN_MASK;
 574              		.loc 1 341 0
 575 0020 4CF28073 		movw	r3, #:lower16:1073792896
 576 0024 C4F20003 		movt	r3, #:upper16:1073792896
 577 0028 4CF28072 		movw	r2, #:lower16:1073792896
 578 002c C4F20002 		movt	r2, #:upper16:1073792896
 579 0030 1278     		ldrb	r2, [r2, #0]
 580 0032 D2B2     		uxtb	r2, r2
 581 0034 42F00102 		orr	r2, r2, #1
 582 0038 D2B2     		uxtb	r2, r2
 583 003a 1A70     		strb	r2, [r3, #0]
 342:.\Generated_Source\PSoC5/DFB_1.c **** }
 584              		.loc 1 342 0
 585 003c BD46     		mov	sp, r7
 586 003e 80BC     		pop	{r7}
 587 0040 7047     		bx	lr
 588              		.cfi_endproc
 589              	.LFE7:
 590              		.size	DFB_1_Resume, .-DFB_1_Resume
 591 0042 00BF     		.section	.text.DFB_1_SetCoherency,"ax",%progbits
 592              		.align	2
 593              		.global	DFB_1_SetCoherency
 594              		.thumb
 595              		.thumb_func
 596              		.type	DFB_1_SetCoherency, %function
 597              	DFB_1_SetCoherency:
 598              	.LFB8:
 343:.\Generated_Source\PSoC5/DFB_1.c **** 
 344:.\Generated_Source\PSoC5/DFB_1.c **** 
 345:.\Generated_Source\PSoC5/DFB_1.c **** /*******************************************************************************
 346:.\Generated_Source\PSoC5/DFB_1.c **** * Function Name: DFB_1_SetCoherency
 347:.\Generated_Source\PSoC5/DFB_1.c **** ********************************************************************************
 348:.\Generated_Source\PSoC5/DFB_1.c **** *
 349:.\Generated_Source\PSoC5/DFB_1.c **** * Summary:
 350:.\Generated_Source\PSoC5/DFB_1.c **** *  This function sets the coherency key to low/mid/high byte based on the
 351:.\Generated_Source\PSoC5/DFB_1.c **** *  coherencyKey parameter that is passed to the DFB.
 352:.\Generated_Source\PSoC5/DFB_1.c **** *  Function allows you to select which of the 3 bytes of each of the STAGEA,
 353:.\Generated_Source\PSoC5/DFB_1.c **** *  STAGEB, HOLDA and HOLDB will be used as the Key Coherency Byte. Coherency
 354:.\Generated_Source\PSoC5/DFB_1.c **** *  refers to the HW added to this block to protect against malfunctions of the
 355:.\Generated_Source\PSoC5/DFB_1.c **** *  block in cases where register fields are wider than the bus access, leaving
 356:.\Generated_Source\PSoC5/DFB_1.c **** *  intervals in time when fields are partially written/read (incoherent). The
 357:.\Generated_Source\PSoC5/DFB_1.c **** *  Key Coherency Byte is the SW's way of telling the HW which byte of the field
 358:.\Generated_Source\PSoC5/DFB_1.c **** *  will be written/read last when an update to the field is desired. When the
 359:.\Generated_Source\PSoC5/DFB_1.c **** *  Key byte is written/read, the field is flagged coherent. If any other byte
 360:.\Generated_Source\PSoC5/DFB_1.c **** *  is written or read, the field is flagged incoherent.
 361:.\Generated_Source\PSoC5/DFB_1.c **** *
 362:.\Generated_Source\PSoC5/DFB_1.c **** * Parameters:
 363:.\Generated_Source\PSoC5/DFB_1.c **** *  uint8 coherencyKeyByte: specifies bits in the DFB Coherency Register.
 364:.\Generated_Source\PSoC5/DFB_1.c **** *   Sets the Key Coherency Byte of the Staging A register
 365:.\Generated_Source\PSoC5/DFB_1.c **** *    Define                             Description
 366:.\Generated_Source\PSoC5/DFB_1.c **** *     DFB_1_STGA_KEY_LOW      Key Byte is low byte.
 367:.\Generated_Source\PSoC5/DFB_1.c **** *     DFB_1_STGA_KEY_MID      Key Byte is med byte.
ARM GAS  C:\Users\hoangp\AppData\Local\Temp\ccil7xJT.s 			page 18


 368:.\Generated_Source\PSoC5/DFB_1.c **** *     DFB_1_STGA_KEY_HIGH     Key Byte is high byte.
 369:.\Generated_Source\PSoC5/DFB_1.c **** *   Sets the Key Coherency Byte of the Staging B register
 370:.\Generated_Source\PSoC5/DFB_1.c **** *    Define                             Description
 371:.\Generated_Source\PSoC5/DFB_1.c **** *     DFB_1_STGB_KEY_LOW      Key Byte is low byte.
 372:.\Generated_Source\PSoC5/DFB_1.c **** *     DFB_1_STGB_KEY_MID      Key Byte is med byte.
 373:.\Generated_Source\PSoC5/DFB_1.c **** *     DFB_1_STGB_KEY_HIGH     Key Byte is high byte.
 374:.\Generated_Source\PSoC5/DFB_1.c **** *   Sets the Key Coherency Byte of the Holding A register
 375:.\Generated_Source\PSoC5/DFB_1.c **** *    Define                             Description
 376:.\Generated_Source\PSoC5/DFB_1.c **** *     DFB_1_HOLDA_KEY_LOW     Key Byte is low byte.
 377:.\Generated_Source\PSoC5/DFB_1.c **** *     DFB_1_HOLDA_KEY_MID     Key Byte is med byte.
 378:.\Generated_Source\PSoC5/DFB_1.c **** *     DFB_1_HOLDA_KEY_HIGH    Key Byte is high byte.
 379:.\Generated_Source\PSoC5/DFB_1.c **** *   Sets the Key Coherency Byte of the Holding B register
 380:.\Generated_Source\PSoC5/DFB_1.c **** *    Define                             Description
 381:.\Generated_Source\PSoC5/DFB_1.c **** *     DFB_1_HOLDB_KEY_LOW     Key Byte is low byte.
 382:.\Generated_Source\PSoC5/DFB_1.c **** *     DFB_1_HOLDB_KEY_MID     Key Byte is med byte.
 383:.\Generated_Source\PSoC5/DFB_1.c **** *     DFB_1_HOLDB_KEY_HIGH    Key Byte is high byte.
 384:.\Generated_Source\PSoC5/DFB_1.c **** *
 385:.\Generated_Source\PSoC5/DFB_1.c **** * Return:
 386:.\Generated_Source\PSoC5/DFB_1.c **** *  None.
 387:.\Generated_Source\PSoC5/DFB_1.c **** *
 388:.\Generated_Source\PSoC5/DFB_1.c **** * Note:
 389:.\Generated_Source\PSoC5/DFB_1.c **** *  Default key byte configuration for Staging A and B, and Holding A and B
 390:.\Generated_Source\PSoC5/DFB_1.c **** *  registers is high byte.
 391:.\Generated_Source\PSoC5/DFB_1.c **** *
 392:.\Generated_Source\PSoC5/DFB_1.c **** * Side Effects:
 393:.\Generated_Source\PSoC5/DFB_1.c **** *  Coherency affects data loading using the LoadInputValue() function and
 394:.\Generated_Source\PSoC5/DFB_1.c **** *  data retrieval using the GetOutputValue() function.
 395:.\Generated_Source\PSoC5/DFB_1.c **** *
 396:.\Generated_Source\PSoC5/DFB_1.c **** *******************************************************************************/
 397:.\Generated_Source\PSoC5/DFB_1.c **** void DFB_1_SetCoherency(uint8 coherencyKeyByte) 
 398:.\Generated_Source\PSoC5/DFB_1.c **** {
 599              		.loc 1 398 0
 600              		.cfi_startproc
 601              		@ args = 0, pretend = 0, frame = 8
 602              		@ frame_needed = 1, uses_anonymous_args = 0
 603              		@ link register save eliminated.
 604 0000 80B4     		push	{r7}
 605              	.LCFI21:
 606              		.cfi_def_cfa_offset 4
 607 0002 83B0     		sub	sp, sp, #12
 608              	.LCFI22:
 609              		.cfi_def_cfa_offset 16
 610 0004 00AF     		add	r7, sp, #0
 611              		.cfi_offset 7, -4
 612              	.LCFI23:
 613              		.cfi_def_cfa_register 7
 614 0006 0346     		mov	r3, r0
 615 0008 FB71     		strb	r3, [r7, #7]
 399:.\Generated_Source\PSoC5/DFB_1.c ****     DFB_1_COHER_REG = coherencyKeyByte;
 616              		.loc 1 399 0
 617 000a 4CF2B073 		movw	r3, #:lower16:1073792944
 618 000e C4F20003 		movt	r3, #:upper16:1073792944
 619 0012 FA79     		ldrb	r2, [r7, #7]
 620 0014 1A70     		strb	r2, [r3, #0]
 400:.\Generated_Source\PSoC5/DFB_1.c **** }
 621              		.loc 1 400 0
 622 0016 07F10C07 		add	r7, r7, #12
ARM GAS  C:\Users\hoangp\AppData\Local\Temp\ccil7xJT.s 			page 19


 623 001a BD46     		mov	sp, r7
 624 001c 80BC     		pop	{r7}
 625 001e 7047     		bx	lr
 626              		.cfi_endproc
 627              	.LFE8:
 628              		.size	DFB_1_SetCoherency, .-DFB_1_SetCoherency
 629              		.section	.text.DFB_1_SetDalign,"ax",%progbits
 630              		.align	2
 631              		.global	DFB_1_SetDalign
 632              		.thumb
 633              		.thumb_func
 634              		.type	DFB_1_SetDalign, %function
 635              	DFB_1_SetDalign:
 636              	.LFB9:
 401:.\Generated_Source\PSoC5/DFB_1.c **** 
 402:.\Generated_Source\PSoC5/DFB_1.c **** 
 403:.\Generated_Source\PSoC5/DFB_1.c **** /*******************************************************************************
 404:.\Generated_Source\PSoC5/DFB_1.c **** * Function Name: DFB_1_SetDalign
 405:.\Generated_Source\PSoC5/DFB_1.c **** ********************************************************************************
 406:.\Generated_Source\PSoC5/DFB_1.c **** *
 407:.\Generated_Source\PSoC5/DFB_1.c **** * Summary:
 408:.\Generated_Source\PSoC5/DFB_1.c **** *  This feature allows 9- to 16-bit input and output samples to travel as 16-bit
 409:.\Generated_Source\PSoC5/DFB_1.c **** *  values on the AHB bus. These bits when set high cause an 8-bit shift in the
 410:.\Generated_Source\PSoC5/DFB_1.c **** *  data to all access of the corresponding Staging and Holding registers.
 411:.\Generated_Source\PSoC5/DFB_1.c **** *  Because the DFB datapath is inherently MSB aligned, it is convenient to the
 412:.\Generated_Source\PSoC5/DFB_1.c **** *  System SW to align values on bits 23:8 of the Staging and Holding register
 413:.\Generated_Source\PSoC5/DFB_1.c **** *  to bits 15:0 of the bus. A read of this register produces the last value
 414:.\Generated_Source\PSoC5/DFB_1.c **** *  written to this register.
 415:.\Generated_Source\PSoC5/DFB_1.c **** *
 416:.\Generated_Source\PSoC5/DFB_1.c **** * Parameters:
 417:.\Generated_Source\PSoC5/DFB_1.c **** *  uint8 dalignKeyByte: specifies bits in the DFB Data Alignment Register.
 418:.\Generated_Source\PSoC5/DFB_1.c **** *   Shifts the write left by a byte.
 419:.\Generated_Source\PSoC5/DFB_1.c **** *    Define                               Description
 420:.\Generated_Source\PSoC5/DFB_1.c **** *     DFB_1_STGA_DALIGN_LOW     Writes normally.
 421:.\Generated_Source\PSoC5/DFB_1.c **** *     DFB_1_STGA_DALIGN_HIGH    Writes shifted left by 8-bits.
 422:.\Generated_Source\PSoC5/DFB_1.c **** *   Shifts the write left by a byte.
 423:.\Generated_Source\PSoC5/DFB_1.c **** *    Define                               Description
 424:.\Generated_Source\PSoC5/DFB_1.c **** *     DFB_1_STGB_DALIGN_LOW     Writes normally.
 425:.\Generated_Source\PSoC5/DFB_1.c **** *     DFB_1_STGB_DALIGN_HIGH    Writes shifted left by 8-bits.
 426:.\Generated_Source\PSoC5/DFB_1.c **** *   Shifts the read right by a byte.
 427:.\Generated_Source\PSoC5/DFB_1.c **** *    Define                               Description
 428:.\Generated_Source\PSoC5/DFB_1.c **** *     DFB_1_HOLDA_DALIGN_LOW     Reads normally.
 429:.\Generated_Source\PSoC5/DFB_1.c **** *     DFB_1_HOLDA_DALIGN_HIGH    Reads shifted right by 8-bits.
 430:.\Generated_Source\PSoC5/DFB_1.c **** *   Shifts the read right by a byte.
 431:.\Generated_Source\PSoC5/DFB_1.c **** *    Define                               Description
 432:.\Generated_Source\PSoC5/DFB_1.c **** *     DFB_1_HOLDB_DALIGN_LOW     Reads normally.
 433:.\Generated_Source\PSoC5/DFB_1.c **** *     DFB_1_HOLDB_DALIGN_HIGH    Reads shifted right by 8-bits.
 434:.\Generated_Source\PSoC5/DFB_1.c **** *
 435:.\Generated_Source\PSoC5/DFB_1.c **** * Return:
 436:.\Generated_Source\PSoC5/DFB_1.c **** *  None.
 437:.\Generated_Source\PSoC5/DFB_1.c **** *
 438:.\Generated_Source\PSoC5/DFB_1.c **** *******************************************************************************/
 439:.\Generated_Source\PSoC5/DFB_1.c **** void DFB_1_SetDalign(uint8 dalignKeyByte) 
 440:.\Generated_Source\PSoC5/DFB_1.c **** {
 637              		.loc 1 440 0
 638              		.cfi_startproc
 639              		@ args = 0, pretend = 0, frame = 8
ARM GAS  C:\Users\hoangp\AppData\Local\Temp\ccil7xJT.s 			page 20


 640              		@ frame_needed = 1, uses_anonymous_args = 0
 641              		@ link register save eliminated.
 642 0000 80B4     		push	{r7}
 643              	.LCFI24:
 644              		.cfi_def_cfa_offset 4
 645 0002 83B0     		sub	sp, sp, #12
 646              	.LCFI25:
 647              		.cfi_def_cfa_offset 16
 648 0004 00AF     		add	r7, sp, #0
 649              		.cfi_offset 7, -4
 650              	.LCFI26:
 651              		.cfi_def_cfa_register 7
 652 0006 0346     		mov	r3, r0
 653 0008 FB71     		strb	r3, [r7, #7]
 441:.\Generated_Source\PSoC5/DFB_1.c ****     DFB_1_DALIGN_REG = dalignKeyByte;
 654              		.loc 1 441 0
 655 000a 4CF2B473 		movw	r3, #:lower16:1073792948
 656 000e C4F20003 		movt	r3, #:upper16:1073792948
 657 0012 FA79     		ldrb	r2, [r7, #7]
 658 0014 1A70     		strb	r2, [r3, #0]
 442:.\Generated_Source\PSoC5/DFB_1.c **** }
 659              		.loc 1 442 0
 660 0016 07F10C07 		add	r7, r7, #12
 661 001a BD46     		mov	sp, r7
 662 001c 80BC     		pop	{r7}
 663 001e 7047     		bx	lr
 664              		.cfi_endproc
 665              	.LFE9:
 666              		.size	DFB_1_SetDalign, .-DFB_1_SetDalign
 667              		.section	.text.DFB_1_LoadDataRAMA,"ax",%progbits
 668              		.align	2
 669              		.global	DFB_1_LoadDataRAMA
 670              		.thumb
 671              		.thumb_func
 672              		.type	DFB_1_LoadDataRAMA, %function
 673              	DFB_1_LoadDataRAMA:
 674              	.LFB10:
 443:.\Generated_Source\PSoC5/DFB_1.c **** 
 444:.\Generated_Source\PSoC5/DFB_1.c **** 
 445:.\Generated_Source\PSoC5/DFB_1.c **** /*******************************************************************************
 446:.\Generated_Source\PSoC5/DFB_1.c **** * Function Name: DFB_1_LoadDataRAMA
 447:.\Generated_Source\PSoC5/DFB_1.c **** ********************************************************************************
 448:.\Generated_Source\PSoC5/DFB_1.c **** *
 449:.\Generated_Source\PSoC5/DFB_1.c **** * Summary:
 450:.\Generated_Source\PSoC5/DFB_1.c **** *  This function loads data to DFB RAM A memory.
 451:.\Generated_Source\PSoC5/DFB_1.c **** *
 452:.\Generated_Source\PSoC5/DFB_1.c **** * Parameters:
 453:.\Generated_Source\PSoC5/DFB_1.c **** *  const int32 ptr[]: pointer on data source for load;
 454:.\Generated_Source\PSoC5/DFB_1.c **** *  uint32     addr[]: start address for loading the data in DFB RAM A;
 455:.\Generated_Source\PSoC5/DFB_1.c **** *  uint8        size: number of data words to load.
 456:.\Generated_Source\PSoC5/DFB_1.c **** *
 457:.\Generated_Source\PSoC5/DFB_1.c **** * Return:
 458:.\Generated_Source\PSoC5/DFB_1.c **** *  DFB_1_SUCCESS - Loading data is successful.
 459:.\Generated_Source\PSoC5/DFB_1.c **** *  DFB_1_ADDRESS_OUT_OF_RANGE - error code, indicates that the
 460:.\Generated_Source\PSoC5/DFB_1.c **** *  address is out of range.
 461:.\Generated_Source\PSoC5/DFB_1.c **** *  DFB_1_DATA_OUT_OF_RANGE - error code, indicates a data overflow
 462:.\Generated_Source\PSoC5/DFB_1.c **** *  error.
ARM GAS  C:\Users\hoangp\AppData\Local\Temp\ccil7xJT.s 			page 21


 463:.\Generated_Source\PSoC5/DFB_1.c **** *
 464:.\Generated_Source\PSoC5/DFB_1.c **** * Side Effects:
 465:.\Generated_Source\PSoC5/DFB_1.c **** *  This API doesn't stop the DFB if it is already started. Hence, recommended
 466:.\Generated_Source\PSoC5/DFB_1.c **** *  method is to call Init() API, then LoadDataRAMA() API and then Enable() API.
 467:.\Generated_Source\PSoC5/DFB_1.c **** *
 468:.\Generated_Source\PSoC5/DFB_1.c **** *******************************************************************************/
 469:.\Generated_Source\PSoC5/DFB_1.c **** uint8 DFB_1_LoadDataRAMA(const int32 ptr[], uint32 addr[], uint8 size)
 470:.\Generated_Source\PSoC5/DFB_1.c ****      
 471:.\Generated_Source\PSoC5/DFB_1.c **** {
 675              		.loc 1 471 0
 676              		.cfi_startproc
 677              		@ args = 0, pretend = 0, frame = 24
 678              		@ frame_needed = 1, uses_anonymous_args = 0
 679              		@ link register save eliminated.
 680 0000 80B4     		push	{r7}
 681              	.LCFI27:
 682              		.cfi_def_cfa_offset 4
 683 0002 87B0     		sub	sp, sp, #28
 684              	.LCFI28:
 685              		.cfi_def_cfa_offset 32
 686 0004 00AF     		add	r7, sp, #0
 687              		.cfi_offset 7, -4
 688              	.LCFI29:
 689              		.cfi_def_cfa_register 7
 690 0006 F860     		str	r0, [r7, #12]
 691 0008 B960     		str	r1, [r7, #8]
 692 000a 1346     		mov	r3, r2
 693 000c FB71     		strb	r3, [r7, #7]
 472:.\Generated_Source\PSoC5/DFB_1.c ****     uint8 result = DFB_1_SUCCESS;
 694              		.loc 1 472 0
 695 000e 4FF00003 		mov	r3, #0
 696 0012 BB75     		strb	r3, [r7, #22]
 473:.\Generated_Source\PSoC5/DFB_1.c ****     uint8 i = 0u;
 697              		.loc 1 473 0
 698 0014 4FF00003 		mov	r3, #0
 699 0018 FB75     		strb	r3, [r7, #23]
 474:.\Generated_Source\PSoC5/DFB_1.c **** 
 475:.\Generated_Source\PSoC5/DFB_1.c ****     if (((& addr[0u]) < DFB_1_DA_RAM_PTR) || ((& addr[0u]) > DFB_1_DA_RAM_LAST_ELEM_PTR))
 700              		.loc 1 475 0
 701 001a BA68     		ldr	r2, [r7, #8]
 702 001c 4BF6FF73 		movw	r3, #:lower16:1073790975
 703 0020 C4F20003 		movt	r3, #:upper16:1073790975
 704 0024 9A42     		cmp	r2, r3
 705 0026 06D9     		bls	.L27
 706 0028 BA68     		ldr	r2, [r7, #8]
 707 002a 4CF2FC13 		movw	r3, #:lower16:1073791484
 708 002e C4F20003 		movt	r3, #:upper16:1073791484
 709 0032 9A42     		cmp	r2, r3
 710 0034 03D9     		bls	.L28
 711              	.L27:
 476:.\Generated_Source\PSoC5/DFB_1.c ****     {
 477:.\Generated_Source\PSoC5/DFB_1.c ****         result = DFB_1_ADDRESS_OUT_OF_RANGE;
 712              		.loc 1 477 0
 713 0036 4FF0FF33 		mov	r3, #-1
 714 003a BB75     		strb	r3, [r7, #22]
 715              		.loc 1 475 0
 716 003c 47E0     		b	.L29
ARM GAS  C:\Users\hoangp\AppData\Local\Temp\ccil7xJT.s 			page 22


 717              	.L28:
 478:.\Generated_Source\PSoC5/DFB_1.c ****     }
 479:.\Generated_Source\PSoC5/DFB_1.c ****     else if ((size == 0u) || ((& addr[size - 1u]) > DFB_1_DA_RAM_LAST_ELEM_PTR))
 718              		.loc 1 479 0
 719 003e FB79     		ldrb	r3, [r7, #7]	@ zero_extendqisi2
 720 0040 002B     		cmp	r3, #0
 721 0042 0DD0     		beq	.L30
 722 0044 FB79     		ldrb	r3, [r7, #7]	@ zero_extendqisi2
 723 0046 03F1FF33 		add	r3, r3, #-1
 724 004a 4FEA8302 		lsl	r2, r3, #2
 725 004e BB68     		ldr	r3, [r7, #8]
 726 0050 1344     		add	r3, r2, r3
 727 0052 1A46     		mov	r2, r3
 728 0054 4CF2FC13 		movw	r3, #:lower16:1073791484
 729 0058 C4F20003 		movt	r3, #:upper16:1073791484
 730 005c 9A42     		cmp	r2, r3
 731 005e 03D9     		bls	.L31
 732              	.L30:
 480:.\Generated_Source\PSoC5/DFB_1.c ****     {
 481:.\Generated_Source\PSoC5/DFB_1.c ****         result = DFB_1_DATA_OUT_OF_RANGE;
 733              		.loc 1 481 0
 734 0060 6FF00103 		mvn	r3, #1
 735 0064 BB75     		strb	r3, [r7, #22]
 736              		.loc 1 479 0
 737 0066 32E0     		b	.L29
 738              	.L31:
 482:.\Generated_Source\PSoC5/DFB_1.c ****     }
 483:.\Generated_Source\PSoC5/DFB_1.c ****     else
 484:.\Generated_Source\PSoC5/DFB_1.c ****     {
 485:.\Generated_Source\PSoC5/DFB_1.c ****         /* Puts DFB RAM on the bus */
 486:.\Generated_Source\PSoC5/DFB_1.c ****         DFB_1_RAM_DIR_REG |= DFB_1_RAM_DPA_DIR;
 739              		.loc 1 486 0
 740 0068 4CF28C73 		movw	r3, #:lower16:1073792908
 741 006c C4F20003 		movt	r3, #:upper16:1073792908
 742 0070 4CF28C72 		movw	r2, #:lower16:1073792908
 743 0074 C4F20002 		movt	r2, #:upper16:1073792908
 744 0078 1278     		ldrb	r2, [r2, #0]
 745 007a D2B2     		uxtb	r2, r2
 746 007c 42F01002 		orr	r2, r2, #16
 747 0080 D2B2     		uxtb	r2, r2
 748 0082 1A70     		strb	r2, [r3, #0]
 487:.\Generated_Source\PSoC5/DFB_1.c ****         while (size > 0u)
 749              		.loc 1 487 0
 750 0084 13E0     		b	.L32
 751              	.L33:
 488:.\Generated_Source\PSoC5/DFB_1.c ****         {
 489:.\Generated_Source\PSoC5/DFB_1.c ****             CY_SET_REG32((reg32 *) (& addr[i]), (uint32) ptr[i]);
 752              		.loc 1 489 0
 753 0086 BA68     		ldr	r2, [r7, #8]
 754 0088 FB7D     		ldrb	r3, [r7, #23]	@ zero_extendqisi2
 755 008a 4FEA8303 		lsl	r3, r3, #2
 756 008e 1344     		add	r3, r2, r3
 757 0090 FA7D     		ldrb	r2, [r7, #23]	@ zero_extendqisi2
 758 0092 4FEA8201 		lsl	r1, r2, #2
 759 0096 FA68     		ldr	r2, [r7, #12]
 760 0098 0A44     		add	r2, r1, r2
 761 009a 1268     		ldr	r2, [r2, #0]
ARM GAS  C:\Users\hoangp\AppData\Local\Temp\ccil7xJT.s 			page 23


 762 009c 1A60     		str	r2, [r3, #0]
 490:.\Generated_Source\PSoC5/DFB_1.c ****             size--;            
 763              		.loc 1 490 0
 764 009e FB79     		ldrb	r3, [r7, #7]
 765 00a0 03F1FF33 		add	r3, r3, #-1
 766 00a4 FB71     		strb	r3, [r7, #7]
 491:.\Generated_Source\PSoC5/DFB_1.c ****             i++;
 767              		.loc 1 491 0
 768 00a6 FB7D     		ldrb	r3, [r7, #23]
 769 00a8 03F10103 		add	r3, r3, #1
 770 00ac FB75     		strb	r3, [r7, #23]
 771              	.L32:
 772              		.loc 1 487 0
 773 00ae FB79     		ldrb	r3, [r7, #7]	@ zero_extendqisi2
 774 00b0 002B     		cmp	r3, #0
 775 00b2 E8D1     		bne	.L33
 492:.\Generated_Source\PSoC5/DFB_1.c ****         }
 493:.\Generated_Source\PSoC5/DFB_1.c ****         /* Takes DFB RAM off the bus */
 494:.\Generated_Source\PSoC5/DFB_1.c ****         DFB_1_RAM_DIR_REG &= (uint8) (~DFB_1_RAM_DPA_DIR);
 776              		.loc 1 494 0
 777 00b4 4CF28C73 		movw	r3, #:lower16:1073792908
 778 00b8 C4F20003 		movt	r3, #:upper16:1073792908
 779 00bc 4CF28C72 		movw	r2, #:lower16:1073792908
 780 00c0 C4F20002 		movt	r2, #:upper16:1073792908
 781 00c4 1278     		ldrb	r2, [r2, #0]
 782 00c6 D2B2     		uxtb	r2, r2
 783 00c8 02F0EF02 		and	r2, r2, #239
 784 00cc 1A70     		strb	r2, [r3, #0]
 785              	.L29:
 495:.\Generated_Source\PSoC5/DFB_1.c ****     }
 496:.\Generated_Source\PSoC5/DFB_1.c **** 
 497:.\Generated_Source\PSoC5/DFB_1.c ****     return (result);
 786              		.loc 1 497 0
 787 00ce BB7D     		ldrb	r3, [r7, #22]	@ zero_extendqisi2
 498:.\Generated_Source\PSoC5/DFB_1.c **** }
 788              		.loc 1 498 0
 789 00d0 1846     		mov	r0, r3
 790 00d2 07F11C07 		add	r7, r7, #28
 791 00d6 BD46     		mov	sp, r7
 792 00d8 80BC     		pop	{r7}
 793 00da 7047     		bx	lr
 794              		.cfi_endproc
 795              	.LFE10:
 796              		.size	DFB_1_LoadDataRAMA, .-DFB_1_LoadDataRAMA
 797              		.section	.text.DFB_1_LoadDataRAMB,"ax",%progbits
 798              		.align	2
 799              		.global	DFB_1_LoadDataRAMB
 800              		.thumb
 801              		.thumb_func
 802              		.type	DFB_1_LoadDataRAMB, %function
 803              	DFB_1_LoadDataRAMB:
 804              	.LFB11:
 499:.\Generated_Source\PSoC5/DFB_1.c **** 
 500:.\Generated_Source\PSoC5/DFB_1.c **** 
 501:.\Generated_Source\PSoC5/DFB_1.c **** /*******************************************************************************
 502:.\Generated_Source\PSoC5/DFB_1.c **** * Function Name: DFB_1_LoadDataRAMB
 503:.\Generated_Source\PSoC5/DFB_1.c **** ********************************************************************************
ARM GAS  C:\Users\hoangp\AppData\Local\Temp\ccil7xJT.s 			page 24


 504:.\Generated_Source\PSoC5/DFB_1.c **** *
 505:.\Generated_Source\PSoC5/DFB_1.c **** * Summary:
 506:.\Generated_Source\PSoC5/DFB_1.c **** *  This function loads data to DFB RAM B memory.
 507:.\Generated_Source\PSoC5/DFB_1.c **** *
 508:.\Generated_Source\PSoC5/DFB_1.c **** * Parameters:
 509:.\Generated_Source\PSoC5/DFB_1.c **** *  const int32 ptr[]: pointer on data source for load;
 510:.\Generated_Source\PSoC5/DFB_1.c **** *  uint32     addr[]: start addres for loading the data in DFB RAM B;
 511:.\Generated_Source\PSoC5/DFB_1.c **** *  uint8        size: number of data words to load.
 512:.\Generated_Source\PSoC5/DFB_1.c **** *
 513:.\Generated_Source\PSoC5/DFB_1.c **** * Return:
 514:.\Generated_Source\PSoC5/DFB_1.c **** *  DFB_1_SUCCESS - Loading data is successful.
 515:.\Generated_Source\PSoC5/DFB_1.c **** *  DFB_1_ADDRESS_OUT_OF_RANGE - error code, indicates that the
 516:.\Generated_Source\PSoC5/DFB_1.c **** *  address is out of range.
 517:.\Generated_Source\PSoC5/DFB_1.c **** *  DFB_1_DATA_OUT_OF_RANGE - error code, indicates data overflow
 518:.\Generated_Source\PSoC5/DFB_1.c **** *  error.
 519:.\Generated_Source\PSoC5/DFB_1.c **** *
 520:.\Generated_Source\PSoC5/DFB_1.c **** * Side Effects:
 521:.\Generated_Source\PSoC5/DFB_1.c **** *  This API doesn't stop the DFB if it is already started. Hence, recommended
 522:.\Generated_Source\PSoC5/DFB_1.c **** *  method is to call Init() API, then LoadDataRAMB() API and then Enable() API.
 523:.\Generated_Source\PSoC5/DFB_1.c **** *
 524:.\Generated_Source\PSoC5/DFB_1.c **** *******************************************************************************/
 525:.\Generated_Source\PSoC5/DFB_1.c **** uint8 DFB_1_LoadDataRAMB(const int32 ptr[], uint32 addr[], uint8 size)
 526:.\Generated_Source\PSoC5/DFB_1.c ****      
 527:.\Generated_Source\PSoC5/DFB_1.c **** {
 805              		.loc 1 527 0
 806              		.cfi_startproc
 807              		@ args = 0, pretend = 0, frame = 24
 808              		@ frame_needed = 1, uses_anonymous_args = 0
 809              		@ link register save eliminated.
 810 0000 80B4     		push	{r7}
 811              	.LCFI30:
 812              		.cfi_def_cfa_offset 4
 813 0002 87B0     		sub	sp, sp, #28
 814              	.LCFI31:
 815              		.cfi_def_cfa_offset 32
 816 0004 00AF     		add	r7, sp, #0
 817              		.cfi_offset 7, -4
 818              	.LCFI32:
 819              		.cfi_def_cfa_register 7
 820 0006 F860     		str	r0, [r7, #12]
 821 0008 B960     		str	r1, [r7, #8]
 822 000a 1346     		mov	r3, r2
 823 000c FB71     		strb	r3, [r7, #7]
 528:.\Generated_Source\PSoC5/DFB_1.c ****     uint8 result = DFB_1_SUCCESS;
 824              		.loc 1 528 0
 825 000e 4FF00003 		mov	r3, #0
 826 0012 BB75     		strb	r3, [r7, #22]
 529:.\Generated_Source\PSoC5/DFB_1.c ****     uint8 i = 0u;
 827              		.loc 1 529 0
 828 0014 4FF00003 		mov	r3, #0
 829 0018 FB75     		strb	r3, [r7, #23]
 530:.\Generated_Source\PSoC5/DFB_1.c **** 
 531:.\Generated_Source\PSoC5/DFB_1.c ****     if (((& addr[0u]) < DFB_1_DB_RAM_PTR) || ((& addr[0u]) > DFB_1_DB_RAM_LAST_ELEM_PTR))
 830              		.loc 1 531 0
 831 001a BA68     		ldr	r2, [r7, #8]
 832 001c 4CF2FF13 		movw	r3, #:lower16:1073791487
 833 0020 C4F20003 		movt	r3, #:upper16:1073791487
ARM GAS  C:\Users\hoangp\AppData\Local\Temp\ccil7xJT.s 			page 25


 834 0024 9A42     		cmp	r2, r3
 835 0026 06D9     		bls	.L36
 836 0028 BA68     		ldr	r2, [r7, #8]
 837 002a 4CF2FC33 		movw	r3, #:lower16:1073791996
 838 002e C4F20003 		movt	r3, #:upper16:1073791996
 839 0032 9A42     		cmp	r2, r3
 840 0034 03D9     		bls	.L37
 841              	.L36:
 532:.\Generated_Source\PSoC5/DFB_1.c ****     {
 533:.\Generated_Source\PSoC5/DFB_1.c ****         result = DFB_1_ADDRESS_OUT_OF_RANGE;
 842              		.loc 1 533 0
 843 0036 4FF0FF33 		mov	r3, #-1
 844 003a BB75     		strb	r3, [r7, #22]
 845              		.loc 1 531 0
 846 003c 47E0     		b	.L38
 847              	.L37:
 534:.\Generated_Source\PSoC5/DFB_1.c ****     }
 535:.\Generated_Source\PSoC5/DFB_1.c ****     else if ((size == 0u) || ((& addr[size - 1u]) > DFB_1_DB_RAM_LAST_ELEM_PTR))
 848              		.loc 1 535 0
 849 003e FB79     		ldrb	r3, [r7, #7]	@ zero_extendqisi2
 850 0040 002B     		cmp	r3, #0
 851 0042 0DD0     		beq	.L39
 852 0044 FB79     		ldrb	r3, [r7, #7]	@ zero_extendqisi2
 853 0046 03F1FF33 		add	r3, r3, #-1
 854 004a 4FEA8302 		lsl	r2, r3, #2
 855 004e BB68     		ldr	r3, [r7, #8]
 856 0050 1344     		add	r3, r2, r3
 857 0052 1A46     		mov	r2, r3
 858 0054 4CF2FC33 		movw	r3, #:lower16:1073791996
 859 0058 C4F20003 		movt	r3, #:upper16:1073791996
 860 005c 9A42     		cmp	r2, r3
 861 005e 03D9     		bls	.L40
 862              	.L39:
 536:.\Generated_Source\PSoC5/DFB_1.c ****     {
 537:.\Generated_Source\PSoC5/DFB_1.c ****         result = DFB_1_DATA_OUT_OF_RANGE;
 863              		.loc 1 537 0
 864 0060 6FF00103 		mvn	r3, #1
 865 0064 BB75     		strb	r3, [r7, #22]
 866              		.loc 1 535 0
 867 0066 32E0     		b	.L38
 868              	.L40:
 538:.\Generated_Source\PSoC5/DFB_1.c ****     }
 539:.\Generated_Source\PSoC5/DFB_1.c ****     else
 540:.\Generated_Source\PSoC5/DFB_1.c ****     {
 541:.\Generated_Source\PSoC5/DFB_1.c ****         /* Puts DFB RAM on the bus */
 542:.\Generated_Source\PSoC5/DFB_1.c ****         DFB_1_RAM_DIR_REG |= DFB_1_RAM_DPB_DIR;
 869              		.loc 1 542 0
 870 0068 4CF28C73 		movw	r3, #:lower16:1073792908
 871 006c C4F20003 		movt	r3, #:upper16:1073792908
 872 0070 4CF28C72 		movw	r2, #:lower16:1073792908
 873 0074 C4F20002 		movt	r2, #:upper16:1073792908
 874 0078 1278     		ldrb	r2, [r2, #0]
 875 007a D2B2     		uxtb	r2, r2
 876 007c 42F02002 		orr	r2, r2, #32
 877 0080 D2B2     		uxtb	r2, r2
 878 0082 1A70     		strb	r2, [r3, #0]
 543:.\Generated_Source\PSoC5/DFB_1.c ****         while (size > 0u)
ARM GAS  C:\Users\hoangp\AppData\Local\Temp\ccil7xJT.s 			page 26


 879              		.loc 1 543 0
 880 0084 13E0     		b	.L41
 881              	.L42:
 544:.\Generated_Source\PSoC5/DFB_1.c ****         {
 545:.\Generated_Source\PSoC5/DFB_1.c ****             CY_SET_REG32((reg32 *) (& addr[i]), (uint32) ptr[i]);
 882              		.loc 1 545 0
 883 0086 BA68     		ldr	r2, [r7, #8]
 884 0088 FB7D     		ldrb	r3, [r7, #23]	@ zero_extendqisi2
 885 008a 4FEA8303 		lsl	r3, r3, #2
 886 008e 1344     		add	r3, r2, r3
 887 0090 FA7D     		ldrb	r2, [r7, #23]	@ zero_extendqisi2
 888 0092 4FEA8201 		lsl	r1, r2, #2
 889 0096 FA68     		ldr	r2, [r7, #12]
 890 0098 0A44     		add	r2, r1, r2
 891 009a 1268     		ldr	r2, [r2, #0]
 892 009c 1A60     		str	r2, [r3, #0]
 546:.\Generated_Source\PSoC5/DFB_1.c ****             size--;
 893              		.loc 1 546 0
 894 009e FB79     		ldrb	r3, [r7, #7]
 895 00a0 03F1FF33 		add	r3, r3, #-1
 896 00a4 FB71     		strb	r3, [r7, #7]
 547:.\Generated_Source\PSoC5/DFB_1.c ****             i++;
 897              		.loc 1 547 0
 898 00a6 FB7D     		ldrb	r3, [r7, #23]
 899 00a8 03F10103 		add	r3, r3, #1
 900 00ac FB75     		strb	r3, [r7, #23]
 901              	.L41:
 902              		.loc 1 543 0
 903 00ae FB79     		ldrb	r3, [r7, #7]	@ zero_extendqisi2
 904 00b0 002B     		cmp	r3, #0
 905 00b2 E8D1     		bne	.L42
 548:.\Generated_Source\PSoC5/DFB_1.c ****         }
 549:.\Generated_Source\PSoC5/DFB_1.c ****         /* Takes DFB RAM off the bus */
 550:.\Generated_Source\PSoC5/DFB_1.c ****         DFB_1_RAM_DIR_REG &= (uint8) (~DFB_1_RAM_DPB_DIR);
 906              		.loc 1 550 0
 907 00b4 4CF28C73 		movw	r3, #:lower16:1073792908
 908 00b8 C4F20003 		movt	r3, #:upper16:1073792908
 909 00bc 4CF28C72 		movw	r2, #:lower16:1073792908
 910 00c0 C4F20002 		movt	r2, #:upper16:1073792908
 911 00c4 1278     		ldrb	r2, [r2, #0]
 912 00c6 D2B2     		uxtb	r2, r2
 913 00c8 02F0DF02 		and	r2, r2, #223
 914 00cc 1A70     		strb	r2, [r3, #0]
 915              	.L38:
 551:.\Generated_Source\PSoC5/DFB_1.c ****     }
 552:.\Generated_Source\PSoC5/DFB_1.c **** 
 553:.\Generated_Source\PSoC5/DFB_1.c ****     return (result);
 916              		.loc 1 553 0
 917 00ce BB7D     		ldrb	r3, [r7, #22]	@ zero_extendqisi2
 554:.\Generated_Source\PSoC5/DFB_1.c **** }
 918              		.loc 1 554 0
 919 00d0 1846     		mov	r0, r3
 920 00d2 07F11C07 		add	r7, r7, #28
 921 00d6 BD46     		mov	sp, r7
 922 00d8 80BC     		pop	{r7}
 923 00da 7047     		bx	lr
 924              		.cfi_endproc
ARM GAS  C:\Users\hoangp\AppData\Local\Temp\ccil7xJT.s 			page 27


 925              	.LFE11:
 926              		.size	DFB_1_LoadDataRAMB, .-DFB_1_LoadDataRAMB
 927              		.section	.text.DFB_1_LoadInputValue,"ax",%progbits
 928              		.align	2
 929              		.global	DFB_1_LoadInputValue
 930              		.thumb
 931              		.thumb_func
 932              		.type	DFB_1_LoadInputValue, %function
 933              	DFB_1_LoadInputValue:
 934              	.LFB12:
 555:.\Generated_Source\PSoC5/DFB_1.c **** 
 556:.\Generated_Source\PSoC5/DFB_1.c **** 
 557:.\Generated_Source\PSoC5/DFB_1.c **** /*******************************************************************************
 558:.\Generated_Source\PSoC5/DFB_1.c **** * Function Name: DFB_1_LoadInputValue
 559:.\Generated_Source\PSoC5/DFB_1.c **** ********************************************************************************
 560:.\Generated_Source\PSoC5/DFB_1.c **** *
 561:.\Generated_Source\PSoC5/DFB_1.c **** * Summary:
 562:.\Generated_Source\PSoC5/DFB_1.c **** *  This function loads input value in selected channel.
 563:.\Generated_Source\PSoC5/DFB_1.c **** *
 564:.\Generated_Source\PSoC5/DFB_1.c **** * Parameters:
 565:.\Generated_Source\PSoC5/DFB_1.c **** *  channel: Use either DFB_1_CHANNEL_A (1) or
 566:.\Generated_Source\PSoC5/DFB_1.c **** *           DFB_1_CHANNEL_B (0) asarguments to the function;
 567:.\Generated_Source\PSoC5/DFB_1.c **** *  sample: The 24-bit, right justified input sample.
 568:.\Generated_Source\PSoC5/DFB_1.c **** *
 569:.\Generated_Source\PSoC5/DFB_1.c **** * Return:
 570:.\Generated_Source\PSoC5/DFB_1.c **** *  None.
 571:.\Generated_Source\PSoC5/DFB_1.c **** *
 572:.\Generated_Source\PSoC5/DFB_1.c **** * Note:
 573:.\Generated_Source\PSoC5/DFB_1.c **** *  The write order is important. When the high byte is loaded, the DFB sets
 574:.\Generated_Source\PSoC5/DFB_1.c **** *  the input ready bit. Pay attention to byte order if coherency or data
 575:.\Generated_Source\PSoC5/DFB_1.c **** *  alignment is changed.
 576:.\Generated_Source\PSoC5/DFB_1.c **** *
 577:.\Generated_Source\PSoC5/DFB_1.c **** *******************************************************************************/
 578:.\Generated_Source\PSoC5/DFB_1.c **** void DFB_1_LoadInputValue(uint8 channel, int32 sample) 
 579:.\Generated_Source\PSoC5/DFB_1.c **** {
 935              		.loc 1 579 0
 936              		.cfi_startproc
 937              		@ args = 0, pretend = 0, frame = 16
 938              		@ frame_needed = 1, uses_anonymous_args = 0
 939              		@ link register save eliminated.
 940 0000 80B4     		push	{r7}
 941              	.LCFI33:
 942              		.cfi_def_cfa_offset 4
 943 0002 85B0     		sub	sp, sp, #20
 944              	.LCFI34:
 945              		.cfi_def_cfa_offset 24
 946 0004 00AF     		add	r7, sp, #0
 947              		.cfi_offset 7, -4
 948              	.LCFI35:
 949              		.cfi_def_cfa_register 7
 950 0006 0346     		mov	r3, r0
 951 0008 3960     		str	r1, [r7, #0]
 952 000a FB71     		strb	r3, [r7, #7]
 580:.\Generated_Source\PSoC5/DFB_1.c ****     uint32 value;
 581:.\Generated_Source\PSoC5/DFB_1.c **** 
 582:.\Generated_Source\PSoC5/DFB_1.c ****     value = (uint32) sample;
 953              		.loc 1 582 0
ARM GAS  C:\Users\hoangp\AppData\Local\Temp\ccil7xJT.s 			page 28


 954 000c 3B68     		ldr	r3, [r7, #0]
 955 000e FB60     		str	r3, [r7, #12]
 583:.\Generated_Source\PSoC5/DFB_1.c **** 
 584:.\Generated_Source\PSoC5/DFB_1.c ****     /* Writes the STAGE-"H" reg last as it signals a complete wrote to the DFB.*/
 585:.\Generated_Source\PSoC5/DFB_1.c ****     if (channel == DFB_1_CHANNEL_A)
 956              		.loc 1 585 0
 957 0010 FB79     		ldrb	r3, [r7, #7]	@ zero_extendqisi2
 958 0012 012B     		cmp	r3, #1
 959 0014 19D1     		bne	.L45
 586:.\Generated_Source\PSoC5/DFB_1.c ****     {
 587:.\Generated_Source\PSoC5/DFB_1.c ****         DFB_1_STAGEA_REG  = (uint8) value;
 960              		.loc 1 587 0
 961 0016 4CF2A073 		movw	r3, #:lower16:1073792928
 962 001a C4F20003 		movt	r3, #:upper16:1073792928
 963 001e FA68     		ldr	r2, [r7, #12]
 964 0020 D2B2     		uxtb	r2, r2
 965 0022 1A70     		strb	r2, [r3, #0]
 588:.\Generated_Source\PSoC5/DFB_1.c ****         DFB_1_STAGEAM_REG = (uint8) (value >> 8u);
 966              		.loc 1 588 0
 967 0024 4CF2A173 		movw	r3, #:lower16:1073792929
 968 0028 C4F20003 		movt	r3, #:upper16:1073792929
 969 002c FA68     		ldr	r2, [r7, #12]
 970 002e 4FEA1222 		lsr	r2, r2, #8
 971 0032 D2B2     		uxtb	r2, r2
 972 0034 1A70     		strb	r2, [r3, #0]
 589:.\Generated_Source\PSoC5/DFB_1.c ****         DFB_1_STAGEAH_REG = (uint8) (value >> 16u);
 973              		.loc 1 589 0
 974 0036 4CF2A273 		movw	r3, #:lower16:1073792930
 975 003a C4F20003 		movt	r3, #:upper16:1073792930
 976 003e FA68     		ldr	r2, [r7, #12]
 977 0040 4FEA1242 		lsr	r2, r2, #16
 978 0044 D2B2     		uxtb	r2, r2
 979 0046 1A70     		strb	r2, [r3, #0]
 980 0048 1BE0     		b	.L47
 981              	.L45:
 590:.\Generated_Source\PSoC5/DFB_1.c ****     }
 591:.\Generated_Source\PSoC5/DFB_1.c ****     else if (channel == DFB_1_CHANNEL_B)
 982              		.loc 1 591 0
 983 004a FB79     		ldrb	r3, [r7, #7]	@ zero_extendqisi2
 984 004c 002B     		cmp	r3, #0
 985 004e 18D1     		bne	.L47
 592:.\Generated_Source\PSoC5/DFB_1.c ****     {
 593:.\Generated_Source\PSoC5/DFB_1.c ****         DFB_1_STAGEB_REG  = (uint8) value;
 986              		.loc 1 593 0
 987 0050 4CF2A473 		movw	r3, #:lower16:1073792932
 988 0054 C4F20003 		movt	r3, #:upper16:1073792932
 989 0058 FA68     		ldr	r2, [r7, #12]
 990 005a D2B2     		uxtb	r2, r2
 991 005c 1A70     		strb	r2, [r3, #0]
 594:.\Generated_Source\PSoC5/DFB_1.c ****         DFB_1_STAGEBM_REG = (uint8) (value >> 8u);
 992              		.loc 1 594 0
 993 005e 4CF2A573 		movw	r3, #:lower16:1073792933
 994 0062 C4F20003 		movt	r3, #:upper16:1073792933
 995 0066 FA68     		ldr	r2, [r7, #12]
 996 0068 4FEA1222 		lsr	r2, r2, #8
 997 006c D2B2     		uxtb	r2, r2
 998 006e 1A70     		strb	r2, [r3, #0]
ARM GAS  C:\Users\hoangp\AppData\Local\Temp\ccil7xJT.s 			page 29


 595:.\Generated_Source\PSoC5/DFB_1.c ****         DFB_1_STAGEBH_REG = (uint8) (value >> 16u);
 999              		.loc 1 595 0
 1000 0070 4CF2A673 		movw	r3, #:lower16:1073792934
 1001 0074 C4F20003 		movt	r3, #:upper16:1073792934
 1002 0078 FA68     		ldr	r2, [r7, #12]
 1003 007a 4FEA1242 		lsr	r2, r2, #16
 1004 007e D2B2     		uxtb	r2, r2
 1005 0080 1A70     		strb	r2, [r3, #0]
 1006              	.L47:
 596:.\Generated_Source\PSoC5/DFB_1.c ****     }
 597:.\Generated_Source\PSoC5/DFB_1.c ****     else
 598:.\Generated_Source\PSoC5/DFB_1.c ****     {
 599:.\Generated_Source\PSoC5/DFB_1.c ****         /* No value is loaded on bad channel input */
 600:.\Generated_Source\PSoC5/DFB_1.c ****     }
 601:.\Generated_Source\PSoC5/DFB_1.c **** }
 1007              		.loc 1 601 0
 1008 0082 07F11407 		add	r7, r7, #20
 1009 0086 BD46     		mov	sp, r7
 1010 0088 80BC     		pop	{r7}
 1011 008a 7047     		bx	lr
 1012              		.cfi_endproc
 1013              	.LFE12:
 1014              		.size	DFB_1_LoadInputValue, .-DFB_1_LoadInputValue
 1015              		.section	.text.DFB_1_GetOutputValue,"ax",%progbits
 1016              		.align	2
 1017              		.global	DFB_1_GetOutputValue
 1018              		.thumb
 1019              		.thumb_func
 1020              		.type	DFB_1_GetOutputValue, %function
 1021              	DFB_1_GetOutputValue:
 1022              	.LFB13:
 602:.\Generated_Source\PSoC5/DFB_1.c **** 
 603:.\Generated_Source\PSoC5/DFB_1.c **** 
 604:.\Generated_Source\PSoC5/DFB_1.c **** /*******************************************************************************
 605:.\Generated_Source\PSoC5/DFB_1.c **** * Function Name: DFB_1_GetOutputValue
 606:.\Generated_Source\PSoC5/DFB_1.c **** ********************************************************************************
 607:.\Generated_Source\PSoC5/DFB_1.c **** *
 608:.\Generated_Source\PSoC5/DFB_1.c **** * Summary:
 609:.\Generated_Source\PSoC5/DFB_1.c **** *  This function gets the value from one of the DFB Output Holding Registers.
 610:.\Generated_Source\PSoC5/DFB_1.c **** *
 611:.\Generated_Source\PSoC5/DFB_1.c **** * Parameters:
 612:.\Generated_Source\PSoC5/DFB_1.c **** *  channel: Use either DFB_1_CHANNEL_A (1) or
 613:.\Generated_Source\PSoC5/DFB_1.c **** *           DFB_1_CHANNEL_B (0) as arguments to the function.
 614:.\Generated_Source\PSoC5/DFB_1.c **** *
 615:.\Generated_Source\PSoC5/DFB_1.c **** * Return:
 616:.\Generated_Source\PSoC5/DFB_1.c **** *  The current output value in the chosen channel's holding register. This is
 617:.\Generated_Source\PSoC5/DFB_1.c **** *  a 24-bit number packed into the least-significant 3 bytes of the output word
 618:.\Generated_Source\PSoC5/DFB_1.c **** *  or 0xFF000000 for invalid channel numbers
 619:.\Generated_Source\PSoC5/DFB_1.c **** *
 620:.\Generated_Source\PSoC5/DFB_1.c **** * Note:
 621:.\Generated_Source\PSoC5/DFB_1.c **** *  Because of the architecture of the DFB, any value read from the Holding A or
 622:.\Generated_Source\PSoC5/DFB_1.c **** *  B registers will be MSB aligned unless shifted otherwise by the Datapath
 623:.\Generated_Source\PSoC5/DFB_1.c **** *  shifter. Pay attention to byte order if coherency or data alignment is
 624:.\Generated_Source\PSoC5/DFB_1.c **** *  changed.
 625:.\Generated_Source\PSoC5/DFB_1.c **** *
 626:.\Generated_Source\PSoC5/DFB_1.c **** *******************************************************************************/
 627:.\Generated_Source\PSoC5/DFB_1.c **** int32 DFB_1_GetOutputValue(uint8 channel) 
ARM GAS  C:\Users\hoangp\AppData\Local\Temp\ccil7xJT.s 			page 30


 628:.\Generated_Source\PSoC5/DFB_1.c **** {
 1023              		.loc 1 628 0
 1024              		.cfi_startproc
 1025              		@ args = 0, pretend = 0, frame = 16
 1026              		@ frame_needed = 1, uses_anonymous_args = 0
 1027              		@ link register save eliminated.
 1028 0000 80B4     		push	{r7}
 1029              	.LCFI36:
 1030              		.cfi_def_cfa_offset 4
 1031 0002 85B0     		sub	sp, sp, #20
 1032              	.LCFI37:
 1033              		.cfi_def_cfa_offset 24
 1034 0004 00AF     		add	r7, sp, #0
 1035              		.cfi_offset 7, -4
 1036              	.LCFI38:
 1037              		.cfi_def_cfa_register 7
 1038 0006 0346     		mov	r3, r0
 1039 0008 FB71     		strb	r3, [r7, #7]
 629:.\Generated_Source\PSoC5/DFB_1.c ****     uint8 data0;
 630:.\Generated_Source\PSoC5/DFB_1.c ****     uint8 data1;
 631:.\Generated_Source\PSoC5/DFB_1.c ****     uint8 data2;
 632:.\Generated_Source\PSoC5/DFB_1.c ****     uint8 data3;
 633:.\Generated_Source\PSoC5/DFB_1.c ****     uint32 output;
 634:.\Generated_Source\PSoC5/DFB_1.c **** 
 635:.\Generated_Source\PSoC5/DFB_1.c ****     /* Reads the HOLD-"H" reg last as it signals a complete read to the DFB.*/
 636:.\Generated_Source\PSoC5/DFB_1.c ****     if (channel == DFB_1_CHANNEL_A)
 1040              		.loc 1 636 0
 1041 000a FB79     		ldrb	r3, [r7, #7]	@ zero_extendqisi2
 1042 000c 012B     		cmp	r3, #1
 1043 000e 1CD1     		bne	.L49
 637:.\Generated_Source\PSoC5/DFB_1.c ****     {
 638:.\Generated_Source\PSoC5/DFB_1.c ****         data0 = DFB_1_HOLDA_REG;
 1044              		.loc 1 638 0
 1045 0010 4CF2A873 		movw	r3, #:lower16:1073792936
 1046 0014 C4F20003 		movt	r3, #:upper16:1073792936
 1047 0018 1B78     		ldrb	r3, [r3, #0]
 1048 001a 3B72     		strb	r3, [r7, #8]
 639:.\Generated_Source\PSoC5/DFB_1.c ****         data1 = DFB_1_HOLDAM_REG;
 1049              		.loc 1 639 0
 1050 001c 4CF2A973 		movw	r3, #:lower16:1073792937
 1051 0020 C4F20003 		movt	r3, #:upper16:1073792937
 1052 0024 1B78     		ldrb	r3, [r3, #0]
 1053 0026 7B72     		strb	r3, [r7, #9]
 640:.\Generated_Source\PSoC5/DFB_1.c ****         data2 = DFB_1_HOLDAH_REG;
 1054              		.loc 1 640 0
 1055 0028 4CF2AA73 		movw	r3, #:lower16:1073792938
 1056 002c C4F20003 		movt	r3, #:upper16:1073792938
 1057 0030 1B78     		ldrb	r3, [r3, #0]
 1058 0032 BB72     		strb	r3, [r7, #10]
 641:.\Generated_Source\PSoC5/DFB_1.c ****         data3 = ((data2 & 0x80u) == 0x80u) ? 0xFFu : 0x00u;
 1059              		.loc 1 641 0
 1060 0034 BB7A     		ldrb	r3, [r7, #10]	@ zero_extendqisi2
 1061 0036 5BB2     		sxtb	r3, r3
 1062 0038 002B     		cmp	r3, #0
 1063 003a 02DA     		bge	.L50
 1064 003c 4FF0FF03 		mov	r3, #255
 1065 0040 01E0     		b	.L51
ARM GAS  C:\Users\hoangp\AppData\Local\Temp\ccil7xJT.s 			page 31


 1066              	.L50:
 1067 0042 4FF00003 		mov	r3, #0
 1068              	.L51:
 1069 0046 FB72     		strb	r3, [r7, #11]
 1070 0048 2BE0     		b	.L52
 1071              	.L49:
 642:.\Generated_Source\PSoC5/DFB_1.c ****     }
 643:.\Generated_Source\PSoC5/DFB_1.c ****     else if (channel == DFB_1_CHANNEL_B)
 1072              		.loc 1 643 0
 1073 004a FB79     		ldrb	r3, [r7, #7]	@ zero_extendqisi2
 1074 004c 002B     		cmp	r3, #0
 1075 004e 1CD1     		bne	.L53
 644:.\Generated_Source\PSoC5/DFB_1.c ****     {
 645:.\Generated_Source\PSoC5/DFB_1.c ****         data0 = DFB_1_HOLDB_REG;
 1076              		.loc 1 645 0
 1077 0050 4CF2AC73 		movw	r3, #:lower16:1073792940
 1078 0054 C4F20003 		movt	r3, #:upper16:1073792940
 1079 0058 1B78     		ldrb	r3, [r3, #0]
 1080 005a 3B72     		strb	r3, [r7, #8]
 646:.\Generated_Source\PSoC5/DFB_1.c ****         data1 = DFB_1_HOLDBM_REG;
 1081              		.loc 1 646 0
 1082 005c 4CF2AD73 		movw	r3, #:lower16:1073792941
 1083 0060 C4F20003 		movt	r3, #:upper16:1073792941
 1084 0064 1B78     		ldrb	r3, [r3, #0]
 1085 0066 7B72     		strb	r3, [r7, #9]
 647:.\Generated_Source\PSoC5/DFB_1.c ****         data2 = DFB_1_HOLDBH_REG;
 1086              		.loc 1 647 0
 1087 0068 4CF2AE73 		movw	r3, #:lower16:1073792942
 1088 006c C4F20003 		movt	r3, #:upper16:1073792942
 1089 0070 1B78     		ldrb	r3, [r3, #0]
 1090 0072 BB72     		strb	r3, [r7, #10]
 648:.\Generated_Source\PSoC5/DFB_1.c ****         data3 = ((data2 & 0x80u) == 0x80u) ? 0xFFu : 0x00u;
 1091              		.loc 1 648 0
 1092 0074 BB7A     		ldrb	r3, [r7, #10]	@ zero_extendqisi2
 1093 0076 5BB2     		sxtb	r3, r3
 1094 0078 002B     		cmp	r3, #0
 1095 007a 02DA     		bge	.L54
 1096 007c 4FF0FF03 		mov	r3, #255
 1097 0080 01E0     		b	.L55
 1098              	.L54:
 1099 0082 4FF00003 		mov	r3, #0
 1100              	.L55:
 1101 0086 FB72     		strb	r3, [r7, #11]
 1102 0088 0BE0     		b	.L52
 1103              	.L53:
 649:.\Generated_Source\PSoC5/DFB_1.c ****     }
 650:.\Generated_Source\PSoC5/DFB_1.c ****     else
 651:.\Generated_Source\PSoC5/DFB_1.c ****     {
 652:.\Generated_Source\PSoC5/DFB_1.c ****         data0 = 0x00u;
 1104              		.loc 1 652 0
 1105 008a 4FF00003 		mov	r3, #0
 1106 008e 3B72     		strb	r3, [r7, #8]
 653:.\Generated_Source\PSoC5/DFB_1.c ****         data1 = 0x00u;
 1107              		.loc 1 653 0
 1108 0090 4FF00003 		mov	r3, #0
 1109 0094 7B72     		strb	r3, [r7, #9]
 654:.\Generated_Source\PSoC5/DFB_1.c ****         data2 = 0x00u;
ARM GAS  C:\Users\hoangp\AppData\Local\Temp\ccil7xJT.s 			page 32


 1110              		.loc 1 654 0
 1111 0096 4FF00003 		mov	r3, #0
 1112 009a BB72     		strb	r3, [r7, #10]
 655:.\Generated_Source\PSoC5/DFB_1.c ****         data3 = 0xFFu;
 1113              		.loc 1 655 0
 1114 009c 4FF0FF33 		mov	r3, #-1
 1115 00a0 FB72     		strb	r3, [r7, #11]
 1116              	.L52:
 656:.\Generated_Source\PSoC5/DFB_1.c ****     }
 657:.\Generated_Source\PSoC5/DFB_1.c **** 
 658:.\Generated_Source\PSoC5/DFB_1.c ****     output = ((((((uint32) data3 << 8u) | data2) << 8u) | data1) << 8u) | data0;
 1117              		.loc 1 658 0
 1118 00a2 FB7A     		ldrb	r3, [r7, #11]	@ zero_extendqisi2
 1119 00a4 4FEA0322 		lsl	r2, r3, #8
 1120 00a8 BB7A     		ldrb	r3, [r7, #10]	@ zero_extendqisi2
 1121 00aa 42EA0303 		orr	r3, r2, r3
 1122 00ae 4FEA0322 		lsl	r2, r3, #8
 1123 00b2 7B7A     		ldrb	r3, [r7, #9]	@ zero_extendqisi2
 1124 00b4 42EA0303 		orr	r3, r2, r3
 1125 00b8 4FEA0322 		lsl	r2, r3, #8
 1126 00bc 3B7A     		ldrb	r3, [r7, #8]	@ zero_extendqisi2
 1127 00be 42EA0303 		orr	r3, r2, r3
 1128 00c2 FB60     		str	r3, [r7, #12]
 659:.\Generated_Source\PSoC5/DFB_1.c **** 
 660:.\Generated_Source\PSoC5/DFB_1.c ****     return ((int32) output);
 1129              		.loc 1 660 0
 1130 00c4 FB68     		ldr	r3, [r7, #12]
 661:.\Generated_Source\PSoC5/DFB_1.c **** }
 1131              		.loc 1 661 0
 1132 00c6 1846     		mov	r0, r3
 1133 00c8 07F11407 		add	r7, r7, #20
 1134 00cc BD46     		mov	sp, r7
 1135 00ce 80BC     		pop	{r7}
 1136 00d0 7047     		bx	lr
 1137              		.cfi_endproc
 1138              	.LFE13:
 1139              		.size	DFB_1_GetOutputValue, .-DFB_1_GetOutputValue
 1140 00d2 00BF     		.section	.text.DFB_1_SetInterruptMode,"ax",%progbits
 1141              		.align	2
 1142              		.global	DFB_1_SetInterruptMode
 1143              		.thumb
 1144              		.thumb_func
 1145              		.type	DFB_1_SetInterruptMode, %function
 1146              	DFB_1_SetInterruptMode:
 1147              	.LFB14:
 662:.\Generated_Source\PSoC5/DFB_1.c **** 
 663:.\Generated_Source\PSoC5/DFB_1.c **** 
 664:.\Generated_Source\PSoC5/DFB_1.c **** /*******************************************************************************
 665:.\Generated_Source\PSoC5/DFB_1.c **** * Function Name: DFB_1_SetInterruptMode
 666:.\Generated_Source\PSoC5/DFB_1.c **** ********************************************************************************
 667:.\Generated_Source\PSoC5/DFB_1.c **** *
 668:.\Generated_Source\PSoC5/DFB_1.c **** * Summary:
 669:.\Generated_Source\PSoC5/DFB_1.c **** *  This function assigns the events which will trigger a DFB interrupt to be
 670:.\Generated_Source\PSoC5/DFB_1.c **** *  triggered.
 671:.\Generated_Source\PSoC5/DFB_1.c **** *
 672:.\Generated_Source\PSoC5/DFB_1.c **** * Parameters:
 673:.\Generated_Source\PSoC5/DFB_1.c **** *  events: Bits [0:5] of events represent the events that trigger DFB
ARM GAS  C:\Users\hoangp\AppData\Local\Temp\ccil7xJT.s 			page 33


 674:.\Generated_Source\PSoC5/DFB_1.c **** *          interrupts.
 675:.\Generated_Source\PSoC5/DFB_1.c **** *    Define                    Description
 676:.\Generated_Source\PSoC5/DFB_1.c **** *     DFB_1_HOLDA    Interrupt is generated each time new valid data
 677:.\Generated_Source\PSoC5/DFB_1.c **** *                               is written into the output Holding register A;
 678:.\Generated_Source\PSoC5/DFB_1.c **** *     DFB_1_HOLDB    Interrupt is generated each time new valid data
 679:.\Generated_Source\PSoC5/DFB_1.c **** *                               is written into the output Holding register B;
 680:.\Generated_Source\PSoC5/DFB_1.c **** *     DFB_1_SEMA0    Interrupt is generated each time a '1' is
 681:.\Generated_Source\PSoC5/DFB_1.c **** *                               written into the semaphore register bit 0;
 682:.\Generated_Source\PSoC5/DFB_1.c **** *     DFB_1_SEMA1    Interrupt is generated each time a '1' is
 683:.\Generated_Source\PSoC5/DFB_1.c **** *                               written into the semaphore register bit 1;
 684:.\Generated_Source\PSoC5/DFB_1.c **** *     DFB_1_SEMA2    Interrupt is generated each time a '1' is
 685:.\Generated_Source\PSoC5/DFB_1.c **** *                               written into the semaphore register bit 2.
 686:.\Generated_Source\PSoC5/DFB_1.c **** *
 687:.\Generated_Source\PSoC5/DFB_1.c **** * Return:
 688:.\Generated_Source\PSoC5/DFB_1.c **** *  None.
 689:.\Generated_Source\PSoC5/DFB_1.c **** *
 690:.\Generated_Source\PSoC5/DFB_1.c **** * Note:
 691:.\Generated_Source\PSoC5/DFB_1.c **** *  Do not configure semaphore 0 and semaphore 1 for both a DMA request and for
 692:.\Generated_Source\PSoC5/DFB_1.c **** *  an interrupt event. This is because, after one clock cycle, the system
 693:.\Generated_Source\PSoC5/DFB_1.c **** *  automatically clears any semaphore that triggered a DMA request.
 694:.\Generated_Source\PSoC5/DFB_1.c **** *
 695:.\Generated_Source\PSoC5/DFB_1.c **** *******************************************************************************/
 696:.\Generated_Source\PSoC5/DFB_1.c **** void DFB_1_SetInterruptMode(uint8 events) 
 697:.\Generated_Source\PSoC5/DFB_1.c **** {
 1148              		.loc 1 697 0
 1149              		.cfi_startproc
 1150              		@ args = 0, pretend = 0, frame = 8
 1151              		@ frame_needed = 1, uses_anonymous_args = 0
 1152              		@ link register save eliminated.
 1153 0000 80B4     		push	{r7}
 1154              	.LCFI39:
 1155              		.cfi_def_cfa_offset 4
 1156 0002 83B0     		sub	sp, sp, #12
 1157              	.LCFI40:
 1158              		.cfi_def_cfa_offset 16
 1159 0004 00AF     		add	r7, sp, #0
 1160              		.cfi_offset 7, -4
 1161              	.LCFI41:
 1162              		.cfi_def_cfa_register 7
 1163 0006 0346     		mov	r3, r0
 1164 0008 FB71     		strb	r3, [r7, #7]
 698:.\Generated_Source\PSoC5/DFB_1.c ****     DFB_1_INT_CTRL_REG = events & DFB_1_EVENT_MASK;
 1165              		.loc 1 698 0
 1166 000a 4CF29873 		movw	r3, #:lower16:1073792920
 1167 000e C4F20003 		movt	r3, #:upper16:1073792920
 1168 0012 FA79     		ldrb	r2, [r7, #7]	@ zero_extendqisi2
 1169 0014 02F01F02 		and	r2, r2, #31
 1170 0018 1A70     		strb	r2, [r3, #0]
 699:.\Generated_Source\PSoC5/DFB_1.c **** }
 1171              		.loc 1 699 0
 1172 001a 07F10C07 		add	r7, r7, #12
 1173 001e BD46     		mov	sp, r7
 1174 0020 80BC     		pop	{r7}
 1175 0022 7047     		bx	lr
 1176              		.cfi_endproc
 1177              	.LFE14:
 1178              		.size	DFB_1_SetInterruptMode, .-DFB_1_SetInterruptMode
ARM GAS  C:\Users\hoangp\AppData\Local\Temp\ccil7xJT.s 			page 34


 1179              		.section	.text.DFB_1_GetInterruptSource,"ax",%progbits
 1180              		.align	2
 1181              		.global	DFB_1_GetInterruptSource
 1182              		.thumb
 1183              		.thumb_func
 1184              		.type	DFB_1_GetInterruptSource, %function
 1185              	DFB_1_GetInterruptSource:
 1186              	.LFB15:
 700:.\Generated_Source\PSoC5/DFB_1.c **** 
 701:.\Generated_Source\PSoC5/DFB_1.c **** 
 702:.\Generated_Source\PSoC5/DFB_1.c **** /*******************************************************************************
 703:.\Generated_Source\PSoC5/DFB_1.c **** * Function Name: DFB_1_GetInterruptSource
 704:.\Generated_Source\PSoC5/DFB_1.c **** ********************************************************************************
 705:.\Generated_Source\PSoC5/DFB_1.c **** *
 706:.\Generated_Source\PSoC5/DFB_1.c **** * Summary:
 707:.\Generated_Source\PSoC5/DFB_1.c **** *  This function looks at the DFB_1_SR register to see which
 708:.\Generated_Source\PSoC5/DFB_1.c **** *  interrupt sources have been triggered.
 709:.\Generated_Source\PSoC5/DFB_1.c **** *
 710:.\Generated_Source\PSoC5/DFB_1.c **** * Parameters:
 711:.\Generated_Source\PSoC5/DFB_1.c **** *  None.
 712:.\Generated_Source\PSoC5/DFB_1.c **** *
 713:.\Generated_Source\PSoC5/DFB_1.c **** * Return:
 714:.\Generated_Source\PSoC5/DFB_1.c **** *  uint8 value in which bits [0:5] of represent the events that triggered the
 715:.\Generated_Source\PSoC5/DFB_1.c **** *  DFB interrupt.
 716:.\Generated_Source\PSoC5/DFB_1.c **** *    Define                    Description
 717:.\Generated_Source\PSoC5/DFB_1.c **** *     DFB_1_HOLDA    Holding register A is a source of the current
 718:.\Generated_Source\PSoC5/DFB_1.c **** *                               interrupt;
 719:.\Generated_Source\PSoC5/DFB_1.c **** *     DFB_1_HOLDB    Holding register B is a source of the current
 720:.\Generated_Source\PSoC5/DFB_1.c **** *                               interrupt;
 721:.\Generated_Source\PSoC5/DFB_1.c **** *     DFB_1_SEMA0    Semaphore register bit 0 is a source of the
 722:.\Generated_Source\PSoC5/DFB_1.c **** *                               current interrupt;
 723:.\Generated_Source\PSoC5/DFB_1.c **** *     DFB_1_SEMA1    Semaphore register bit 1 is a source of the
 724:.\Generated_Source\PSoC5/DFB_1.c **** *                               current interrupt;
 725:.\Generated_Source\PSoC5/DFB_1.c **** *     DFB_1_SEMA2    Semaphore register bit 2 is a source of the
 726:.\Generated_Source\PSoC5/DFB_1.c **** *                               current interrupt.
 727:.\Generated_Source\PSoC5/DFB_1.c **** *
 728:.\Generated_Source\PSoC5/DFB_1.c **** *******************************************************************************/
 729:.\Generated_Source\PSoC5/DFB_1.c **** uint8 DFB_1_GetInterruptSource(void) 
 730:.\Generated_Source\PSoC5/DFB_1.c **** {
 1187              		.loc 1 730 0
 1188              		.cfi_startproc
 1189              		@ args = 0, pretend = 0, frame = 0
 1190              		@ frame_needed = 1, uses_anonymous_args = 0
 1191              		@ link register save eliminated.
 1192 0000 80B4     		push	{r7}
 1193              	.LCFI42:
 1194              		.cfi_def_cfa_offset 4
 1195 0002 00AF     		add	r7, sp, #0
 1196              		.cfi_offset 7, -4
 1197              	.LCFI43:
 1198              		.cfi_def_cfa_register 7
 731:.\Generated_Source\PSoC5/DFB_1.c ****     /* Shifts the event bits down to [0:5] */
 732:.\Generated_Source\PSoC5/DFB_1.c ****     return ((uint8) (DFB_1_SR_REG >> DFB_1_SR_EVENT_SHIFT));
 1199              		.loc 1 732 0
 1200 0004 4CF28473 		movw	r3, #:lower16:1073792900
 1201 0008 C4F20003 		movt	r3, #:upper16:1073792900
 1202 000c 1B78     		ldrb	r3, [r3, #0]
ARM GAS  C:\Users\hoangp\AppData\Local\Temp\ccil7xJT.s 			page 35


 1203 000e DBB2     		uxtb	r3, r3
 1204 0010 4FEAD303 		lsr	r3, r3, #3
 1205 0014 DBB2     		uxtb	r3, r3
 733:.\Generated_Source\PSoC5/DFB_1.c **** }
 1206              		.loc 1 733 0
 1207 0016 1846     		mov	r0, r3
 1208 0018 BD46     		mov	sp, r7
 1209 001a 80BC     		pop	{r7}
 1210 001c 7047     		bx	lr
 1211              		.cfi_endproc
 1212              	.LFE15:
 1213              		.size	DFB_1_GetInterruptSource, .-DFB_1_GetInterruptSource
 1214 001e 00BF     		.section	.text.DFB_1_ClearInterrupt,"ax",%progbits
 1215              		.align	2
 1216              		.global	DFB_1_ClearInterrupt
 1217              		.thumb
 1218              		.thumb_func
 1219              		.type	DFB_1_ClearInterrupt, %function
 1220              	DFB_1_ClearInterrupt:
 1221              	.LFB16:
 734:.\Generated_Source\PSoC5/DFB_1.c **** 
 735:.\Generated_Source\PSoC5/DFB_1.c **** 
 736:.\Generated_Source\PSoC5/DFB_1.c **** /*******************************************************************************
 737:.\Generated_Source\PSoC5/DFB_1.c **** * Function Name: DFB_1_ClearInterrupt
 738:.\Generated_Source\PSoC5/DFB_1.c **** ********************************************************************************
 739:.\Generated_Source\PSoC5/DFB_1.c **** *
 740:.\Generated_Source\PSoC5/DFB_1.c **** * Summary:
 741:.\Generated_Source\PSoC5/DFB_1.c **** *  This function clears the interrupt request.
 742:.\Generated_Source\PSoC5/DFB_1.c **** *
 743:.\Generated_Source\PSoC5/DFB_1.c **** * Parameters:
 744:.\Generated_Source\PSoC5/DFB_1.c **** *  interruptMask: Mask of interrupts to clear.
 745:.\Generated_Source\PSoC5/DFB_1.c **** *    Define                    Description
 746:.\Generated_Source\PSoC5/DFB_1.c **** *     DFB_1_HOLDA    Clear interrupt from Holding register A.
 747:.\Generated_Source\PSoC5/DFB_1.c **** *                               (Reading the Holding register A also clears this
 748:.\Generated_Source\PSoC5/DFB_1.c **** *                                bit);
 749:.\Generated_Source\PSoC5/DFB_1.c **** *     DFB_1_HOLDB    Clear interrupt from Holding register B.
 750:.\Generated_Source\PSoC5/DFB_1.c **** *                               (Reading the Holding register B also clears this
 751:.\Generated_Source\PSoC5/DFB_1.c **** *                                bit);
 752:.\Generated_Source\PSoC5/DFB_1.c **** *     DFB_1_SEMA0    Clear interrupt from semaphore register bit 0;
 753:.\Generated_Source\PSoC5/DFB_1.c **** *     DFB_1_SEMA1    Clear interrupt from semaphore register bit 1;
 754:.\Generated_Source\PSoC5/DFB_1.c **** *     DFB_1_SEMA2    Clear interrupt from semaphore register bit 2.
 755:.\Generated_Source\PSoC5/DFB_1.c **** *
 756:.\Generated_Source\PSoC5/DFB_1.c **** * Return:
 757:.\Generated_Source\PSoC5/DFB_1.c **** *  None.
 758:.\Generated_Source\PSoC5/DFB_1.c **** *
 759:.\Generated_Source\PSoC5/DFB_1.c **** * Note:
 760:.\Generated_Source\PSoC5/DFB_1.c **** *  Clearing semaphore interrupts also clears semaphore bits.
 761:.\Generated_Source\PSoC5/DFB_1.c **** *
 762:.\Generated_Source\PSoC5/DFB_1.c **** *******************************************************************************/
 763:.\Generated_Source\PSoC5/DFB_1.c **** void DFB_1_ClearInterrupt(uint8 interruptMask) 
 764:.\Generated_Source\PSoC5/DFB_1.c **** {
 1222              		.loc 1 764 0
 1223              		.cfi_startproc
 1224              		@ args = 0, pretend = 0, frame = 8
 1225              		@ frame_needed = 1, uses_anonymous_args = 0
 1226              		@ link register save eliminated.
 1227 0000 80B4     		push	{r7}
ARM GAS  C:\Users\hoangp\AppData\Local\Temp\ccil7xJT.s 			page 36


 1228              	.LCFI44:
 1229              		.cfi_def_cfa_offset 4
 1230 0002 83B0     		sub	sp, sp, #12
 1231              	.LCFI45:
 1232              		.cfi_def_cfa_offset 16
 1233 0004 00AF     		add	r7, sp, #0
 1234              		.cfi_offset 7, -4
 1235              	.LCFI46:
 1236              		.cfi_def_cfa_register 7
 1237 0006 0346     		mov	r3, r0
 1238 0008 FB71     		strb	r3, [r7, #7]
 765:.\Generated_Source\PSoC5/DFB_1.c ****     DFB_1_SR_REG &= (uint8) (interruptMask << DFB_1_SR_EVENT_SHIFT);
 1239              		.loc 1 765 0
 1240 000a 4CF28473 		movw	r3, #:lower16:1073792900
 1241 000e C4F20003 		movt	r3, #:upper16:1073792900
 1242 0012 4CF28472 		movw	r2, #:lower16:1073792900
 1243 0016 C4F20002 		movt	r2, #:upper16:1073792900
 1244 001a 1278     		ldrb	r2, [r2, #0]
 1245 001c D1B2     		uxtb	r1, r2
 1246 001e FA79     		ldrb	r2, [r7, #7]
 1247 0020 4FEAC202 		lsl	r2, r2, #3
 1248 0024 D2B2     		uxtb	r2, r2
 1249 0026 01EA0202 		and	r2, r1, r2
 1250 002a D2B2     		uxtb	r2, r2
 1251 002c 1A70     		strb	r2, [r3, #0]
 766:.\Generated_Source\PSoC5/DFB_1.c **** }
 1252              		.loc 1 766 0
 1253 002e 07F10C07 		add	r7, r7, #12
 1254 0032 BD46     		mov	sp, r7
 1255 0034 80BC     		pop	{r7}
 1256 0036 7047     		bx	lr
 1257              		.cfi_endproc
 1258              	.LFE16:
 1259              		.size	DFB_1_ClearInterrupt, .-DFB_1_ClearInterrupt
 1260              		.section	.text.DFB_1_SetDMAMode,"ax",%progbits
 1261              		.align	2
 1262              		.global	DFB_1_SetDMAMode
 1263              		.thumb
 1264              		.thumb_func
 1265              		.type	DFB_1_SetDMAMode, %function
 1266              	DFB_1_SetDMAMode:
 1267              	.LFB17:
 767:.\Generated_Source\PSoC5/DFB_1.c **** 
 768:.\Generated_Source\PSoC5/DFB_1.c **** 
 769:.\Generated_Source\PSoC5/DFB_1.c **** /*******************************************************************************
 770:.\Generated_Source\PSoC5/DFB_1.c **** * Function Name: DFB_1_SetDMAMode
 771:.\Generated_Source\PSoC5/DFB_1.c **** ********************************************************************************
 772:.\Generated_Source\PSoC5/DFB_1.c **** *
 773:.\Generated_Source\PSoC5/DFB_1.c **** * Summary:
 774:.\Generated_Source\PSoC5/DFB_1.c **** *  This function assigns the events that trigger a DMA request for the DFB.
 775:.\Generated_Source\PSoC5/DFB_1.c **** *  Two different DMA requests that can be triggered.
 776:.\Generated_Source\PSoC5/DFB_1.c **** *
 777:.\Generated_Source\PSoC5/DFB_1.c **** * Parameters:
 778:.\Generated_Source\PSoC5/DFB_1.c **** *  events: A set of 4 bits which configure what event, if any, triggers a DMA
 779:.\Generated_Source\PSoC5/DFB_1.c **** *          request for the DFB.
 780:.\Generated_Source\PSoC5/DFB_1.c **** *   DMA Request 1:
 781:.\Generated_Source\PSoC5/DFB_1.c **** *    Define                                 Description
ARM GAS  C:\Users\hoangp\AppData\Local\Temp\ccil7xJT.s 			page 37


 782:.\Generated_Source\PSoC5/DFB_1.c **** *    DFB_1_DMAREQ1_DISABLED       No request will be generated;
 783:.\Generated_Source\PSoC5/DFB_1.c **** *    DFB_1_DMAREQ1_HOLDA          Output value ready in the holding
 784:.\Generated_Source\PSoC5/DFB_1.c ****                                              register on channel A;
 785:.\Generated_Source\PSoC5/DFB_1.c **** *    DFB_1_DMAREQ1_SEM0           Semaphore 0;
 786:.\Generated_Source\PSoC5/DFB_1.c **** *    DFB_1_DMAREQ1_SEM1           Sempahore 1.
 787:.\Generated_Source\PSoC5/DFB_1.c **** *   DMA Request 2:
 788:.\Generated_Source\PSoC5/DFB_1.c **** *    Define                                 Description
 789:.\Generated_Source\PSoC5/DFB_1.c **** *    DFB_1_DMAREQ2_DISABLED       No request will be generated;
 790:.\Generated_Source\PSoC5/DFB_1.c **** *    DFB_1_DMAREQ2_HOLDB          Output value ready in the holding
 791:.\Generated_Source\PSoC5/DFB_1.c ****                                              register on channel B;
 792:.\Generated_Source\PSoC5/DFB_1.c **** *    DFB_1_DMAREQ2_SEM0           Semaphore 0;
 793:.\Generated_Source\PSoC5/DFB_1.c **** *    DFB_1_DMAREQ2_SEM1           Sempahore 1.
 794:.\Generated_Source\PSoC5/DFB_1.c **** *
 795:.\Generated_Source\PSoC5/DFB_1.c **** * Return:
 796:.\Generated_Source\PSoC5/DFB_1.c **** *  None.
 797:.\Generated_Source\PSoC5/DFB_1.c **** *
 798:.\Generated_Source\PSoC5/DFB_1.c **** * Note:
 799:.\Generated_Source\PSoC5/DFB_1.c **** *  Do not configure semaphore 0 and semaphore 1 for both a DMA request and for
 800:.\Generated_Source\PSoC5/DFB_1.c **** *  an interrupt event. This is because, after one clock cycle, the system
 801:.\Generated_Source\PSoC5/DFB_1.c **** *  automatically clears any semaphore that triggered a DMA request.
 802:.\Generated_Source\PSoC5/DFB_1.c **** *
 803:.\Generated_Source\PSoC5/DFB_1.c **** *******************************************************************************/
 804:.\Generated_Source\PSoC5/DFB_1.c **** void DFB_1_SetDMAMode(uint8 events) 
 805:.\Generated_Source\PSoC5/DFB_1.c **** {
 1268              		.loc 1 805 0
 1269              		.cfi_startproc
 1270              		@ args = 0, pretend = 0, frame = 8
 1271              		@ frame_needed = 1, uses_anonymous_args = 0
 1272              		@ link register save eliminated.
 1273 0000 80B4     		push	{r7}
 1274              	.LCFI47:
 1275              		.cfi_def_cfa_offset 4
 1276 0002 83B0     		sub	sp, sp, #12
 1277              	.LCFI48:
 1278              		.cfi_def_cfa_offset 16
 1279 0004 00AF     		add	r7, sp, #0
 1280              		.cfi_offset 7, -4
 1281              	.LCFI49:
 1282              		.cfi_def_cfa_register 7
 1283 0006 0346     		mov	r3, r0
 1284 0008 FB71     		strb	r3, [r7, #7]
 806:.\Generated_Source\PSoC5/DFB_1.c ****     DFB_1_DMA_CTRL_REG = events & DFB_1_DMA_CTRL_MASK;
 1285              		.loc 1 806 0
 1286 000a 4CF29C73 		movw	r3, #:lower16:1073792924
 1287 000e C4F20003 		movt	r3, #:upper16:1073792924
 1288 0012 FA79     		ldrb	r2, [r7, #7]	@ zero_extendqisi2
 1289 0014 02F00F02 		and	r2, r2, #15
 1290 0018 1A70     		strb	r2, [r3, #0]
 807:.\Generated_Source\PSoC5/DFB_1.c **** }
 1291              		.loc 1 807 0
 1292 001a 07F10C07 		add	r7, r7, #12
 1293 001e BD46     		mov	sp, r7
 1294 0020 80BC     		pop	{r7}
 1295 0022 7047     		bx	lr
 1296              		.cfi_endproc
 1297              	.LFE17:
 1298              		.size	DFB_1_SetDMAMode, .-DFB_1_SetDMAMode
ARM GAS  C:\Users\hoangp\AppData\Local\Temp\ccil7xJT.s 			page 38


 1299              		.section	.text.DFB_1_SetSemaphores,"ax",%progbits
 1300              		.align	2
 1301              		.global	DFB_1_SetSemaphores
 1302              		.thumb
 1303              		.thumb_func
 1304              		.type	DFB_1_SetSemaphores, %function
 1305              	DFB_1_SetSemaphores:
 1306              	.LFB18:
 808:.\Generated_Source\PSoC5/DFB_1.c **** 
 809:.\Generated_Source\PSoC5/DFB_1.c **** 
 810:.\Generated_Source\PSoC5/DFB_1.c **** /*******************************************************************************
 811:.\Generated_Source\PSoC5/DFB_1.c **** * Function Name: DFB_1_SetSemaphore
 812:.\Generated_Source\PSoC5/DFB_1.c **** ********************************************************************************
 813:.\Generated_Source\PSoC5/DFB_1.c **** *
 814:.\Generated_Source\PSoC5/DFB_1.c **** * Summary:
 815:.\Generated_Source\PSoC5/DFB_1.c **** *  This function sets semaphores specified with a 1.
 816:.\Generated_Source\PSoC5/DFB_1.c **** *
 817:.\Generated_Source\PSoC5/DFB_1.c **** * Parameters:
 818:.\Generated_Source\PSoC5/DFB_1.c **** *  mask: mask specifying the bits to set.
 819:.\Generated_Source\PSoC5/DFB_1.c **** *    Define                          Description
 820:.\Generated_Source\PSoC5/DFB_1.c **** *     DFB_1_SEMAPHORE0     Semaphore 0;
 821:.\Generated_Source\PSoC5/DFB_1.c **** *     DFB_1_SEMAPHORE1     Semaphore 1;
 822:.\Generated_Source\PSoC5/DFB_1.c **** *     DFB_1_SEMAPHORE2     Semaphore 2.
 823:.\Generated_Source\PSoC5/DFB_1.c **** *
 824:.\Generated_Source\PSoC5/DFB_1.c **** * Return:
 825:.\Generated_Source\PSoC5/DFB_1.c **** *  None.
 826:.\Generated_Source\PSoC5/DFB_1.c **** *
 827:.\Generated_Source\PSoC5/DFB_1.c **** *******************************************************************************/
 828:.\Generated_Source\PSoC5/DFB_1.c **** void DFB_1_SetSemaphores(uint8 mask) 
 829:.\Generated_Source\PSoC5/DFB_1.c **** {
 1307              		.loc 1 829 0
 1308              		.cfi_startproc
 1309              		@ args = 0, pretend = 0, frame = 8
 1310              		@ frame_needed = 1, uses_anonymous_args = 0
 1311              		@ link register save eliminated.
 1312 0000 80B4     		push	{r7}
 1313              	.LCFI50:
 1314              		.cfi_def_cfa_offset 4
 1315 0002 83B0     		sub	sp, sp, #12
 1316              	.LCFI51:
 1317              		.cfi_def_cfa_offset 16
 1318 0004 00AF     		add	r7, sp, #0
 1319              		.cfi_offset 7, -4
 1320              	.LCFI52:
 1321              		.cfi_def_cfa_register 7
 1322 0006 0346     		mov	r3, r0
 1323 0008 FB71     		strb	r3, [r7, #7]
 830:.\Generated_Source\PSoC5/DFB_1.c ****     DFB_1_SEM_REG = (uint8) ((mask & DFB_1_SEM_MASK) << DFB_1_SEM_ENABLE_SHIFT) |
 1324              		.loc 1 830 0
 1325 000a 4CF29073 		movw	r3, #:lower16:1073792912
 1326 000e C4F20003 		movt	r3, #:upper16:1073792912
 1327 0012 FA79     		ldrb	r2, [r7, #7]	@ zero_extendqisi2
 1328 0014 02F00702 		and	r2, r2, #7
 1329 0018 4FEA0212 		lsl	r2, r2, #4
 1330 001c D2B2     		uxtb	r2, r2
 1331 001e 42F00702 		orr	r2, r2, #7
 1332 0022 D2B2     		uxtb	r2, r2
ARM GAS  C:\Users\hoangp\AppData\Local\Temp\ccil7xJT.s 			page 39


 1333 0024 1A70     		strb	r2, [r3, #0]
 831:.\Generated_Source\PSoC5/DFB_1.c ****                                  DFB_1_SEM_MASK;
 832:.\Generated_Source\PSoC5/DFB_1.c **** }
 1334              		.loc 1 832 0
 1335 0026 07F10C07 		add	r7, r7, #12
 1336 002a BD46     		mov	sp, r7
 1337 002c 80BC     		pop	{r7}
 1338 002e 7047     		bx	lr
 1339              		.cfi_endproc
 1340              	.LFE18:
 1341              		.size	DFB_1_SetSemaphores, .-DFB_1_SetSemaphores
 1342              		.section	.text.DFB_1_GetSemaphores,"ax",%progbits
 1343              		.align	2
 1344              		.global	DFB_1_GetSemaphores
 1345              		.thumb
 1346              		.thumb_func
 1347              		.type	DFB_1_GetSemaphores, %function
 1348              	DFB_1_GetSemaphores:
 1349              	.LFB19:
 833:.\Generated_Source\PSoC5/DFB_1.c **** 
 834:.\Generated_Source\PSoC5/DFB_1.c **** 
 835:.\Generated_Source\PSoC5/DFB_1.c **** /*******************************************************************************
 836:.\Generated_Source\PSoC5/DFB_1.c **** *  Function Name: DFB_1_GetSempahores
 837:.\Generated_Source\PSoC5/DFB_1.c **** ********************************************************************************
 838:.\Generated_Source\PSoC5/DFB_1.c **** *
 839:.\Generated_Source\PSoC5/DFB_1.c **** * Summary:
 840:.\Generated_Source\PSoC5/DFB_1.c **** *  This function checks the current status of the DFB semaphores and return that
 841:.\Generated_Source\PSoC5/DFB_1.c **** *  value.
 842:.\Generated_Source\PSoC5/DFB_1.c **** *
 843:.\Generated_Source\PSoC5/DFB_1.c **** * Parameters:
 844:.\Generated_Source\PSoC5/DFB_1.c **** *  None.
 845:.\Generated_Source\PSoC5/DFB_1.c **** *
 846:.\Generated_Source\PSoC5/DFB_1.c **** * Return:
 847:.\Generated_Source\PSoC5/DFB_1.c **** *  uint8 value between 0 and 7 where bit 0 represents semaphore 0 and so on.
 848:.\Generated_Source\PSoC5/DFB_1.c **** *    Define                          Description
 849:.\Generated_Source\PSoC5/DFB_1.c **** *     DFB_1_SEMAPHORE0     Semaphore 0;
 850:.\Generated_Source\PSoC5/DFB_1.c **** *     DFB_1_SEMAPHORE1     Semaphore 1;
 851:.\Generated_Source\PSoC5/DFB_1.c **** *     DFB_1_SEMAPHORE2     Semaphore 2.
 852:.\Generated_Source\PSoC5/DFB_1.c **** *
 853:.\Generated_Source\PSoC5/DFB_1.c **** *******************************************************************************/
 854:.\Generated_Source\PSoC5/DFB_1.c **** uint8 DFB_1_GetSemaphores(void) 
 855:.\Generated_Source\PSoC5/DFB_1.c **** {
 1350              		.loc 1 855 0
 1351              		.cfi_startproc
 1352              		@ args = 0, pretend = 0, frame = 0
 1353              		@ frame_needed = 1, uses_anonymous_args = 0
 1354              		@ link register save eliminated.
 1355 0000 80B4     		push	{r7}
 1356              	.LCFI53:
 1357              		.cfi_def_cfa_offset 4
 1358 0002 00AF     		add	r7, sp, #0
 1359              		.cfi_offset 7, -4
 1360              	.LCFI54:
 1361              		.cfi_def_cfa_register 7
 856:.\Generated_Source\PSoC5/DFB_1.c ****     /* Masked the valide bits in case the reserved bits in SEM_REG [4 and 7] get used for something
 857:.\Generated_Source\PSoC5/DFB_1.c ****     return (DFB_1_SEM_REG & DFB_1_SEM_MASK);
 1362              		.loc 1 857 0
ARM GAS  C:\Users\hoangp\AppData\Local\Temp\ccil7xJT.s 			page 40


 1363 0004 4CF29073 		movw	r3, #:lower16:1073792912
 1364 0008 C4F20003 		movt	r3, #:upper16:1073792912
 1365 000c 1B78     		ldrb	r3, [r3, #0]
 1366 000e DBB2     		uxtb	r3, r3
 1367 0010 03F00703 		and	r3, r3, #7
 858:.\Generated_Source\PSoC5/DFB_1.c **** }
 1368              		.loc 1 858 0
 1369 0014 1846     		mov	r0, r3
 1370 0016 BD46     		mov	sp, r7
 1371 0018 80BC     		pop	{r7}
 1372 001a 7047     		bx	lr
 1373              		.cfi_endproc
 1374              	.LFE19:
 1375              		.size	DFB_1_GetSemaphores, .-DFB_1_GetSemaphores
 1376              		.section	.text.DFB_1_ClearSemaphores,"ax",%progbits
 1377              		.align	2
 1378              		.global	DFB_1_ClearSemaphores
 1379              		.thumb
 1380              		.thumb_func
 1381              		.type	DFB_1_ClearSemaphores, %function
 1382              	DFB_1_ClearSemaphores:
 1383              	.LFB20:
 859:.\Generated_Source\PSoC5/DFB_1.c **** 
 860:.\Generated_Source\PSoC5/DFB_1.c **** 
 861:.\Generated_Source\PSoC5/DFB_1.c **** /*******************************************************************************
 862:.\Generated_Source\PSoC5/DFB_1.c **** *  Function Name: DFB_1_ClearSemaphore
 863:.\Generated_Source\PSoC5/DFB_1.c **** ********************************************************************************
 864:.\Generated_Source\PSoC5/DFB_1.c **** *
 865:.\Generated_Source\PSoC5/DFB_1.c **** * Summary:
 866:.\Generated_Source\PSoC5/DFB_1.c **** *  This function clears semaphore bits specified with a 1.
 867:.\Generated_Source\PSoC5/DFB_1.c **** *
 868:.\Generated_Source\PSoC5/DFB_1.c **** * Parameters:
 869:.\Generated_Source\PSoC5/DFB_1.c **** *  mask: mask specifying the bits to clear.
 870:.\Generated_Source\PSoC5/DFB_1.c **** *    Define                          Description
 871:.\Generated_Source\PSoC5/DFB_1.c **** *     DFB_1_SEMAPHORE0     Semaphore 0;
 872:.\Generated_Source\PSoC5/DFB_1.c **** *     DFB_1_SEMAPHORE1     Semaphore 1;
 873:.\Generated_Source\PSoC5/DFB_1.c **** *     DFB_1_SEMAPHORE2     Semaphore 2.
 874:.\Generated_Source\PSoC5/DFB_1.c **** *
 875:.\Generated_Source\PSoC5/DFB_1.c **** * Return:
 876:.\Generated_Source\PSoC5/DFB_1.c **** *  None.
 877:.\Generated_Source\PSoC5/DFB_1.c **** *
 878:.\Generated_Source\PSoC5/DFB_1.c **** *******************************************************************************/
 879:.\Generated_Source\PSoC5/DFB_1.c **** void DFB_1_ClearSemaphores(uint8 mask) 
 880:.\Generated_Source\PSoC5/DFB_1.c **** {
 1384              		.loc 1 880 0
 1385              		.cfi_startproc
 1386              		@ args = 0, pretend = 0, frame = 8
 1387              		@ frame_needed = 1, uses_anonymous_args = 0
 1388              		@ link register save eliminated.
 1389 0000 80B4     		push	{r7}
 1390              	.LCFI55:
 1391              		.cfi_def_cfa_offset 4
 1392 0002 83B0     		sub	sp, sp, #12
 1393              	.LCFI56:
 1394              		.cfi_def_cfa_offset 16
 1395 0004 00AF     		add	r7, sp, #0
 1396              		.cfi_offset 7, -4
ARM GAS  C:\Users\hoangp\AppData\Local\Temp\ccil7xJT.s 			page 41


 1397              	.LCFI57:
 1398              		.cfi_def_cfa_register 7
 1399 0006 0346     		mov	r3, r0
 1400 0008 FB71     		strb	r3, [r7, #7]
 881:.\Generated_Source\PSoC5/DFB_1.c ****     /* Writes the semaphore register: Clears the semaphores masked */
 882:.\Generated_Source\PSoC5/DFB_1.c ****     DFB_1_SEM_REG = (uint8) ((mask & DFB_1_SEM_MASK) << DFB_1_SEM_ENABLE_SHIFT);
 1401              		.loc 1 882 0
 1402 000a 4CF29073 		movw	r3, #:lower16:1073792912
 1403 000e C4F20003 		movt	r3, #:upper16:1073792912
 1404 0012 FA79     		ldrb	r2, [r7, #7]	@ zero_extendqisi2
 1405 0014 02F00702 		and	r2, r2, #7
 1406 0018 4FEA0212 		lsl	r2, r2, #4
 1407 001c D2B2     		uxtb	r2, r2
 1408 001e 1A70     		strb	r2, [r3, #0]
 883:.\Generated_Source\PSoC5/DFB_1.c **** }
 1409              		.loc 1 883 0
 1410 0020 07F10C07 		add	r7, r7, #12
 1411 0024 BD46     		mov	sp, r7
 1412 0026 80BC     		pop	{r7}
 1413 0028 7047     		bx	lr
 1414              		.cfi_endproc
 1415              	.LFE20:
 1416              		.size	DFB_1_ClearSemaphores, .-DFB_1_ClearSemaphores
 1417 002a 00BF     		.section	.text.DFB_1_SetOutput1Source,"ax",%progbits
 1418              		.align	2
 1419              		.global	DFB_1_SetOutput1Source
 1420              		.thumb
 1421              		.thumb_func
 1422              		.type	DFB_1_SetOutput1Source, %function
 1423              	DFB_1_SetOutput1Source:
 1424              	.LFB21:
 884:.\Generated_Source\PSoC5/DFB_1.c **** 
 885:.\Generated_Source\PSoC5/DFB_1.c **** 
 886:.\Generated_Source\PSoC5/DFB_1.c **** /*******************************************************************************
 887:.\Generated_Source\PSoC5/DFB_1.c **** * Function Name: DFB_1_SetOutput1Source
 888:.\Generated_Source\PSoC5/DFB_1.c **** ********************************************************************************
 889:.\Generated_Source\PSoC5/DFB_1.c **** *
 890:.\Generated_Source\PSoC5/DFB_1.c **** * Summary:
 891:.\Generated_Source\PSoC5/DFB_1.c **** *  This function allows you to choose which internal signal will be mapped to
 892:.\Generated_Source\PSoC5/DFB_1.c **** *  the DSI output 1.
 893:.\Generated_Source\PSoC5/DFB_1.c **** *
 894:.\Generated_Source\PSoC5/DFB_1.c **** * Parameters:
 895:.\Generated_Source\PSoC5/DFB_1.c **** *  source: internal signal which is mapped to the output global signal 1.
 896:.\Generated_Source\PSoC5/DFB_1.c **** *   Signal                      Description
 897:.\Generated_Source\PSoC5/DFB_1.c **** *    DFB_1_DFB_RUN    DFB RUN Bit. This is the same bit as the RUN
 898:.\Generated_Source\PSoC5/DFB_1.c **** *                                bit in the DFB_CR register.
 899:.\Generated_Source\PSoC5/DFB_1.c **** *    DFB_1_SEM0       Semaphore Bit 0.
 900:.\Generated_Source\PSoC5/DFB_1.c **** *    DFB_1_SEM1       Semaphore Bit 1.
 901:.\Generated_Source\PSoC5/DFB_1.c **** *    DFB_1_DFB_INTR   DFB Interrupt. This is the same signal as the
 902:.\Generated_Source\PSoC5/DFB_1.c **** *                                primary DFB Interrupt output signal.
 903:.\Generated_Source\PSoC5/DFB_1.c **** *
 904:.\Generated_Source\PSoC5/DFB_1.c **** * Return:
 905:.\Generated_Source\PSoC5/DFB_1.c **** *  None.
 906:.\Generated_Source\PSoC5/DFB_1.c **** *
 907:.\Generated_Source\PSoC5/DFB_1.c **** *******************************************************************************/
 908:.\Generated_Source\PSoC5/DFB_1.c **** void DFB_1_SetOutput1Source(uint8 source) 
 909:.\Generated_Source\PSoC5/DFB_1.c **** {
ARM GAS  C:\Users\hoangp\AppData\Local\Temp\ccil7xJT.s 			page 42


 1425              		.loc 1 909 0
 1426              		.cfi_startproc
 1427              		@ args = 0, pretend = 0, frame = 8
 1428              		@ frame_needed = 1, uses_anonymous_args = 0
 1429              		@ link register save eliminated.
 1430 0000 80B4     		push	{r7}
 1431              	.LCFI58:
 1432              		.cfi_def_cfa_offset 4
 1433 0002 83B0     		sub	sp, sp, #12
 1434              	.LCFI59:
 1435              		.cfi_def_cfa_offset 16
 1436 0004 00AF     		add	r7, sp, #0
 1437              		.cfi_offset 7, -4
 1438              	.LCFI60:
 1439              		.cfi_def_cfa_register 7
 1440 0006 0346     		mov	r3, r0
 1441 0008 FB71     		strb	r3, [r7, #7]
 910:.\Generated_Source\PSoC5/DFB_1.c ****     DFB_1_DSI_CTRL_REG = (DFB_1_DSI_CTRL_REG & DFB_1_DFB_GBL1_OUT_MASK) | source;
 1442              		.loc 1 910 0
 1443 000a 4CF29473 		movw	r3, #:lower16:1073792916
 1444 000e C4F20003 		movt	r3, #:upper16:1073792916
 1445 0012 4CF29472 		movw	r2, #:lower16:1073792916
 1446 0016 C4F20002 		movt	r2, #:upper16:1073792916
 1447 001a 1278     		ldrb	r2, [r2, #0]
 1448 001c D2B2     		uxtb	r2, r2
 1449 001e 02F0FC02 		and	r2, r2, #252
 1450 0022 F979     		ldrb	r1, [r7, #7]
 1451 0024 42EA0102 		orr	r2, r2, r1
 1452 0028 D2B2     		uxtb	r2, r2
 1453 002a 1A70     		strb	r2, [r3, #0]
 911:.\Generated_Source\PSoC5/DFB_1.c **** }
 1454              		.loc 1 911 0
 1455 002c 07F10C07 		add	r7, r7, #12
 1456 0030 BD46     		mov	sp, r7
 1457 0032 80BC     		pop	{r7}
 1458 0034 7047     		bx	lr
 1459              		.cfi_endproc
 1460              	.LFE21:
 1461              		.size	DFB_1_SetOutput1Source, .-DFB_1_SetOutput1Source
 1462 0036 00BF     		.section	.text.DFB_1_SetOutput2Source,"ax",%progbits
 1463              		.align	2
 1464              		.global	DFB_1_SetOutput2Source
 1465              		.thumb
 1466              		.thumb_func
 1467              		.type	DFB_1_SetOutput2Source, %function
 1468              	DFB_1_SetOutput2Source:
 1469              	.LFB22:
 912:.\Generated_Source\PSoC5/DFB_1.c **** 
 913:.\Generated_Source\PSoC5/DFB_1.c **** 
 914:.\Generated_Source\PSoC5/DFB_1.c **** /*******************************************************************************
 915:.\Generated_Source\PSoC5/DFB_1.c **** * Function Name: DFB_1_SetOutput2Source
 916:.\Generated_Source\PSoC5/DFB_1.c **** ********************************************************************************
 917:.\Generated_Source\PSoC5/DFB_1.c **** *
 918:.\Generated_Source\PSoC5/DFB_1.c **** * Summary:
 919:.\Generated_Source\PSoC5/DFB_1.c **** *  This function allows you to choose which internal signal will be mapped to
 920:.\Generated_Source\PSoC5/DFB_1.c **** *  the DSI output 2.
 921:.\Generated_Source\PSoC5/DFB_1.c **** *
ARM GAS  C:\Users\hoangp\AppData\Local\Temp\ccil7xJT.s 			page 43


 922:.\Generated_Source\PSoC5/DFB_1.c **** * Parameters:
 923:.\Generated_Source\PSoC5/DFB_1.c **** *  source: internal signal which is mapped to the output global signal 2.
 924:.\Generated_Source\PSoC5/DFB_1.c **** *   Signal                      Description
 925:.\Generated_Source\PSoC5/DFB_1.c **** *    DFB_1_SEM2       Semaphore Bit 2.
 926:.\Generated_Source\PSoC5/DFB_1.c **** *    DFB_1_DPSIGN     Datapath Sign. This signal asserts anytime the
 927:.\Generated_Source\PSoC5/DFB_1.c **** *                                 output of the ALU in the Datapath unit is
 928:.\Generated_Source\PSoC5/DFB_1.c **** *                                 negative. It will remain high for each cycle
 929:.\Generated_Source\PSoC5/DFB_1.c **** *                                 this condition is true.
 930:.\Generated_Source\PSoC5/DFB_1.c **** *    DFB_1_DPTHRESH   Datapath Threshold Crossed. This signal
 931:.\Generated_Source\PSoC5/DFB_1.c **** *                                 asserts anytime the threshold of 0 is crossed
 932:.\Generated_Source\PSoC5/DFB_1.c **** *                                 in the ALU when one of the following
 933:.\Generated_Source\PSoC5/DFB_1.c **** *                                 instructions is executing: TDECA, TSUBA,
 934:.\Generated_Source\PSoC5/DFB_1.c **** *                                 TSUBB, TADDABSA, TADDABSB. It will remain high
 935:.\Generated_Source\PSoC5/DFB_1.c **** *                                 for each cycle this condition is true.
 936:.\Generated_Source\PSoC5/DFB_1.c **** *    DFB_1_DPEQ       Datapath ALU=0. This signal asserts high when
 937:.\Generated_Source\PSoC5/DFB_1.c **** *                                 the output of the ALU in the Datapath unit
 938:.\Generated_Source\PSoC5/DFB_1.c **** *                                 equals 0 and one of the following ALU commands
 939:.\Generated_Source\PSoC5/DFB_1.c **** *                                 is executing: TDECA, TSUBA, TSUBB, TADDABSA,
 940:.\Generated_Source\PSoC5/DFB_1.c **** *                                 TADDABSB. It will remain high for each cycle
 941:.\Generated_Source\PSoC5/DFB_1.c **** *                                 this condition is true.
 942:.\Generated_Source\PSoC5/DFB_1.c **** *
 943:.\Generated_Source\PSoC5/DFB_1.c **** * Return:
 944:.\Generated_Source\PSoC5/DFB_1.c **** *  None.
 945:.\Generated_Source\PSoC5/DFB_1.c **** *
 946:.\Generated_Source\PSoC5/DFB_1.c **** *******************************************************************************/
 947:.\Generated_Source\PSoC5/DFB_1.c **** void DFB_1_SetOutput2Source(uint8 source) 
 948:.\Generated_Source\PSoC5/DFB_1.c **** {
 1470              		.loc 1 948 0
 1471              		.cfi_startproc
 1472              		@ args = 0, pretend = 0, frame = 8
 1473              		@ frame_needed = 1, uses_anonymous_args = 0
 1474              		@ link register save eliminated.
 1475 0000 80B4     		push	{r7}
 1476              	.LCFI61:
 1477              		.cfi_def_cfa_offset 4
 1478 0002 83B0     		sub	sp, sp, #12
 1479              	.LCFI62:
 1480              		.cfi_def_cfa_offset 16
 1481 0004 00AF     		add	r7, sp, #0
 1482              		.cfi_offset 7, -4
 1483              	.LCFI63:
 1484              		.cfi_def_cfa_register 7
 1485 0006 0346     		mov	r3, r0
 1486 0008 FB71     		strb	r3, [r7, #7]
 949:.\Generated_Source\PSoC5/DFB_1.c ****     DFB_1_DSI_CTRL_REG = (DFB_1_DSI_CTRL_REG & DFB_1_DFB_GBL2_OUT_MASK) | source;
 1487              		.loc 1 949 0
 1488 000a 4CF29473 		movw	r3, #:lower16:1073792916
 1489 000e C4F20003 		movt	r3, #:upper16:1073792916
 1490 0012 4CF29472 		movw	r2, #:lower16:1073792916
 1491 0016 C4F20002 		movt	r2, #:upper16:1073792916
 1492 001a 1278     		ldrb	r2, [r2, #0]
 1493 001c D2B2     		uxtb	r2, r2
 1494 001e 02F0F302 		and	r2, r2, #243
 1495 0022 F979     		ldrb	r1, [r7, #7]
 1496 0024 42EA0102 		orr	r2, r2, r1
 1497 0028 D2B2     		uxtb	r2, r2
 1498 002a 1A70     		strb	r2, [r3, #0]
ARM GAS  C:\Users\hoangp\AppData\Local\Temp\ccil7xJT.s 			page 44


 950:.\Generated_Source\PSoC5/DFB_1.c **** }
 1499              		.loc 1 950 0
 1500 002c 07F10C07 		add	r7, r7, #12
 1501 0030 BD46     		mov	sp, r7
 1502 0032 80BC     		pop	{r7}
 1503 0034 7047     		bx	lr
 1504              		.cfi_endproc
 1505              	.LFE22:
 1506              		.size	DFB_1_SetOutput2Source, .-DFB_1_SetOutput2Source
 1507 0036 00BF     		.text
 1508              	.Letext0: