ARM GAS  C:\Users\hoangp\AppData\Local\Temp\ccil7xJT.s 			page 1


   1              		.syntax unified
   2              		.cpu cortex-m3
   3              		.fpu softvfp
   4              		.eabi_attribute 20, 1
   5              		.eabi_attribute 21, 1
   6              		.eabi_attribute 23, 3
   7              		.eabi_attribute 24, 1
   8              		.eabi_attribute 25, 1
   9              		.eabi_attribute 26, 1
  10              		.eabi_attribute 30, 6
  11              		.eabi_attribute 18, 4
  12              		.thumb
  13              		.file	"DFB_1.c"
  14              		.section	.debug_abbrev,"",%progbits
  15              	.Ldebug_abbrev0:
  16              		.section	.debug_info,"",%progbits
  17              	.Ldebug_info0:
  18              		.section	.debug_line,"",%progbits
  19              	.Ldebug_line0:
  20 0000 7A020000 		.text
  20      02006900 
  20      00000201 
  20      FB0E0D00 
  20      01010101 
  21              	.Ltext0:
  22              		.cfi_sections	.debug_frame
  23              		.global	DFB_1_initVar
  24              		.bss
  25              		.type	DFB_1_initVar, %object
  26              		.size	DFB_1_initVar, 1
  27              	DFB_1_initVar:
  28 0000 00       		.space	1
  29              		.section	.text.DFB_1_LoadReg32,"ax",%progbits
  30              		.align	2
  31              		.thumb
  32              		.thumb_func
  33              		.type	DFB_1_LoadReg32, %function
  34              	DFB_1_LoadReg32:
  35              	.LFB0:
  36              		.file 1 ".\\Generated_Source\\PSoC5\\DFB_1.c"
   1:.\Generated_Source\PSoC5/DFB_1.c **** /*******************************************************************************
   2:.\Generated_Source\PSoC5/DFB_1.c **** * File Name: DFB_1.c
   3:.\Generated_Source\PSoC5/DFB_1.c **** * Version 1.20
   4:.\Generated_Source\PSoC5/DFB_1.c **** *
   5:.\Generated_Source\PSoC5/DFB_1.c **** * Description:
   6:.\Generated_Source\PSoC5/DFB_1.c **** *  This file provides the API source code for the DFB component.
   7:.\Generated_Source\PSoC5/DFB_1.c **** *
   8:.\Generated_Source\PSoC5/DFB_1.c **** * Note:
   9:.\Generated_Source\PSoC5/DFB_1.c **** *  None
  10:.\Generated_Source\PSoC5/DFB_1.c **** *
  11:.\Generated_Source\PSoC5/DFB_1.c **** ********************************************************************************
  12:.\Generated_Source\PSoC5/DFB_1.c **** * Copyright 2011-2012, Cypress Semiconductor Corporation.  All rights reserved.
  13:.\Generated_Source\PSoC5/DFB_1.c **** * You may use this file only in accordance with the license, terms, conditions,
  14:.\Generated_Source\PSoC5/DFB_1.c **** * disclaimers, and limitations in the end user license agreement accompanying
  15:.\Generated_Source\PSoC5/DFB_1.c **** * the software package with which this file was provided.
  16:.\Generated_Source\PSoC5/DFB_1.c **** *******************************************************************************/
  17:.\Generated_Source\PSoC5/DFB_1.c **** 
ARM GAS  C:\Users\hoangp\AppData\Local\Temp\ccil7xJT.s 			page 2


  18:.\Generated_Source\PSoC5/DFB_1.c **** #include "DFB_1.h"
  19:.\Generated_Source\PSoC5/DFB_1.c **** 
  20:.\Generated_Source\PSoC5/DFB_1.c **** static void DFB_1_LoadReg32(reg32 regAddress[], const uint32 source[], uint8 count);
  21:.\Generated_Source\PSoC5/DFB_1.c **** static void DFB_1_ZeroReg32(reg32 regAddress[], uint8 count);
  22:.\Generated_Source\PSoC5/DFB_1.c **** 
  23:.\Generated_Source\PSoC5/DFB_1.c **** uint8 DFB_1_initVar = 0u;
  24:.\Generated_Source\PSoC5/DFB_1.c **** 
  25:.\Generated_Source\PSoC5/DFB_1.c **** 
  26:.\Generated_Source\PSoC5/DFB_1.c **** /*******************************************************************************
  27:.\Generated_Source\PSoC5/DFB_1.c **** * Function Name: DFB_1_LoadReg32
  28:.\Generated_Source\PSoC5/DFB_1.c **** ********************************************************************************
  29:.\Generated_Source\PSoC5/DFB_1.c **** * 
  30:.\Generated_Source\PSoC5/DFB_1.c **** * Summary:
  31:.\Generated_Source\PSoC5/DFB_1.c **** *  This function loads initial values/data to appropriate registers.
  32:.\Generated_Source\PSoC5/DFB_1.c **** *
  33:.\Generated_Source\PSoC5/DFB_1.c **** * Parameters:
  34:.\Generated_Source\PSoC5/DFB_1.c **** *  reg32 regAddress[]: register address;
  35:.\Generated_Source\PSoC5/DFB_1.c **** *  const uint32 source[]: data for load;
  36:.\Generated_Source\PSoC5/DFB_1.c **** *  uint8 count: number of 32-bit registers for load.
  37:.\Generated_Source\PSoC5/DFB_1.c **** *
  38:.\Generated_Source\PSoC5/DFB_1.c **** * Return:
  39:.\Generated_Source\PSoC5/DFB_1.c **** *  None.
  40:.\Generated_Source\PSoC5/DFB_1.c **** *
  41:.\Generated_Source\PSoC5/DFB_1.c **** * Note:
  42:.\Generated_Source\PSoC5/DFB_1.c **** *  Data loads starts from "regAddress" address and affects on "count" numbers of
  43:.\Generated_Source\PSoC5/DFB_1.c **** *  successive registers.
  44:.\Generated_Source\PSoC5/DFB_1.c **** *
  45:.\Generated_Source\PSoC5/DFB_1.c **** *******************************************************************************/
  46:.\Generated_Source\PSoC5/DFB_1.c **** static void DFB_1_LoadReg32(reg32 regAddress[], const uint32 source[], uint8 count)
  47:.\Generated_Source\PSoC5/DFB_1.c **** {
  37              		.loc 1 47 0
  38              		.cfi_startproc
  39              		@ args = 0, pretend = 0, frame = 24
  40              		@ frame_needed = 1, uses_anonymous_args = 0
  41              		@ link register save eliminated.
  42 0000 80B4     		push	{r7}
  43              	.LCFI0:
  44              		.cfi_def_cfa_offset 4
  45 0002 87B0     		sub	sp, sp, #28
  46              	.LCFI1:
  47              		.cfi_def_cfa_offset 32
  48 0004 00AF     		add	r7, sp, #0
  49              		.cfi_offset 7, -4
  50              	.LCFI2:
  51              		.cfi_def_cfa_register 7
  52 0006 F860     		str	r0, [r7, #12]
  53 0008 B960     		str	r1, [r7, #8]
  54 000a 1346     		mov	r3, r2
  55 000c FB71     		strb	r3, [r7, #7]
  48:.\Generated_Source\PSoC5/DFB_1.c ****     uint8 i = 0u;
  56              		.loc 1 48 0
  57 000e 4FF00003 		mov	r3, #0
  58 0012 FB75     		strb	r3, [r7, #23]
  49:.\Generated_Source\PSoC5/DFB_1.c ****     
  50:.\Generated_Source\PSoC5/DFB_1.c ****     while (count > 0u)
  59              		.loc 1 50 0
  60 0014 13E0     		b	.L2
ARM GAS  C:\Users\hoangp\AppData\Local\Temp\ccil7xJT.s 			page 3


  61              	.L3:
  51:.\Generated_Source\PSoC5/DFB_1.c ****     {
  52:.\Generated_Source\PSoC5/DFB_1.c ****         CY_SET_REG32(& regAddress[i], source[i]);
  62              		.loc 1 52 0
  63 0016 FB7D     		ldrb	r3, [r7, #23]	@ zero_extendqisi2
  64 0018 4FEA8302 		lsl	r2, r3, #2
  65 001c FB68     		ldr	r3, [r7, #12]
  66 001e 1344     		add	r3, r2, r3
  67 0020 FA7D     		ldrb	r2, [r7, #23]	@ zero_extendqisi2
  68 0022 4FEA8201 		lsl	r1, r2, #2
  69 0026 BA68     		ldr	r2, [r7, #8]
  70 0028 0A44     		add	r2, r1, r2
  71 002a 1268     		ldr	r2, [r2, #0]
  72 002c 1A60     		str	r2, [r3, #0]
  53:.\Generated_Source\PSoC5/DFB_1.c ****         count--;
  73              		.loc 1 53 0
  74 002e FB79     		ldrb	r3, [r7, #7]
  75 0030 03F1FF33 		add	r3, r3, #-1
  76 0034 FB71     		strb	r3, [r7, #7]
  54:.\Generated_Source\PSoC5/DFB_1.c ****         i++;
  77              		.loc 1 54 0
  78 0036 FB7D     		ldrb	r3, [r7, #23]
  79 0038 03F10103 		add	r3, r3, #1
  80 003c FB75     		strb	r3, [r7, #23]
  81              	.L2:
  82              		.loc 1 50 0
  83 003e FB79     		ldrb	r3, [r7, #7]	@ zero_extendqisi2
  84 0040 002B     		cmp	r3, #0
  85 0042 E8D1     		bne	.L3
  55:.\Generated_Source\PSoC5/DFB_1.c ****     }
  56:.\Generated_Source\PSoC5/DFB_1.c **** }
  86              		.loc 1 56 0
  87 0044 07F11C07 		add	r7, r7, #28
  88 0048 BD46     		mov	sp, r7
  89 004a 80BC     		pop	{r7}
  90 004c 7047     		bx	lr
  91              		.cfi_endproc
  92              	.LFE0:
  93              		.size	DFB_1_LoadReg32, .-DFB_1_LoadReg32
  94 004e 00BF     		.section	.text.DFB_1_ZeroReg32,"ax",%progbits
  95              		.align	2
  96              		.thumb
  97              		.thumb_func
  98              		.type	DFB_1_ZeroReg32, %function
  99              	DFB_1_ZeroReg32:
 100              	.LFB1:
  57:.\Generated_Source\PSoC5/DFB_1.c **** 
  58:.\Generated_Source\PSoC5/DFB_1.c **** 
  59:.\Generated_Source\PSoC5/DFB_1.c **** /*******************************************************************************
  60:.\Generated_Source\PSoC5/DFB_1.c **** * Function Name: DFB_1_ZeroReg32
  61:.\Generated_Source\PSoC5/DFB_1.c **** ********************************************************************************
  62:.\Generated_Source\PSoC5/DFB_1.c **** * 
  63:.\Generated_Source\PSoC5/DFB_1.c **** * Summary:
  64:.\Generated_Source\PSoC5/DFB_1.c **** *  This function zeroize registers.
  65:.\Generated_Source\PSoC5/DFB_1.c **** *
  66:.\Generated_Source\PSoC5/DFB_1.c **** * Parameters:
  67:.\Generated_Source\PSoC5/DFB_1.c **** *  reg32 regAddress[]: register address;
ARM GAS  C:\Users\hoangp\AppData\Local\Temp\ccil7xJT.s 			page 4


  68:.\Generated_Source\PSoC5/DFB_1.c **** *  uint8 count: number of 32-bit registers for zeroing.
  69:.\Generated_Source\PSoC5/DFB_1.c **** *
  70:.\Generated_Source\PSoC5/DFB_1.c **** * Return:
  71:.\Generated_Source\PSoC5/DFB_1.c **** *  None.
  72:.\Generated_Source\PSoC5/DFB_1.c **** *
  73:.\Generated_Source\PSoC5/DFB_1.c **** * Note:
  74:.\Generated_Source\PSoC5/DFB_1.c **** *  Zeroing starts from "regAddress" address and affects on "count" numbers of
  75:.\Generated_Source\PSoC5/DFB_1.c **** *  successive registers.
  76:.\Generated_Source\PSoC5/DFB_1.c **** *
  77:.\Generated_Source\PSoC5/DFB_1.c **** *******************************************************************************/
  78:.\Generated_Source\PSoC5/DFB_1.c **** static void DFB_1_ZeroReg32(reg32 regAddress[], uint8 count)
  79:.\Generated_Source\PSoC5/DFB_1.c **** {
 101              		.loc 1 79 0
 102              		.cfi_startproc
 103              		@ args = 0, pretend = 0, frame = 16
 104              		@ frame_needed = 1, uses_anonymous_args = 0
 105              		@ link register save eliminated.
 106 0000 80B4     		push	{r7}
 107              	.LCFI3:
 108              		.cfi_def_cfa_offset 4
 109 0002 85B0     		sub	sp, sp, #20
 110              	.LCFI4:
 111              		.cfi_def_cfa_offset 24
 112 0004 00AF     		add	r7, sp, #0
 113              		.cfi_offset 7, -4
 114              	.LCFI5:
 115              		.cfi_def_cfa_register 7
 116 0006 7860     		str	r0, [r7, #4]
 117 0008 0B46     		mov	r3, r1
 118 000a FB70     		strb	r3, [r7, #3]
  80:.\Generated_Source\PSoC5/DFB_1.c ****     uint8 i = 0u;
 119              		.loc 1 80 0
 120 000c 4FF00003 		mov	r3, #0
 121 0010 FB73     		strb	r3, [r7, #15]
  81:.\Generated_Source\PSoC5/DFB_1.c ****     
  82:.\Generated_Source\PSoC5/DFB_1.c ****     while (count > 0u)
 122              		.loc 1 82 0
 123 0012 0FE0     		b	.L6
 124              	.L7:
  83:.\Generated_Source\PSoC5/DFB_1.c ****     {
  84:.\Generated_Source\PSoC5/DFB_1.c ****         CY_SET_REG32(& regAddress[i], 0u);
 125              		.loc 1 84 0
 126 0014 FB7B     		ldrb	r3, [r7, #15]	@ zero_extendqisi2
 127 0016 4FEA8302 		lsl	r2, r3, #2
 128 001a 7B68     		ldr	r3, [r7, #4]
 129 001c 1344     		add	r3, r2, r3
 130 001e 4FF00002 		mov	r2, #0
 131 0022 1A60     		str	r2, [r3, #0]
  85:.\Generated_Source\PSoC5/DFB_1.c ****         count--;
 132              		.loc 1 85 0
 133 0024 FB78     		ldrb	r3, [r7, #3]
 134 0026 03F1FF33 		add	r3, r3, #-1
 135 002a FB70     		strb	r3, [r7, #3]
  86:.\Generated_Source\PSoC5/DFB_1.c ****         i++;
 136              		.loc 1 86 0
 137 002c FB7B     		ldrb	r3, [r7, #15]
 138 002e 03F10103 		add	r3, r3, #1
ARM GAS  C:\Users\hoangp\AppData\Local\Temp\ccil7xJT.s 			page 5


 139 0032 FB73     		strb	r3, [r7, #15]
 140              	.L6:
 141              		.loc 1 82 0
 142 0034 FB78     		ldrb	r3, [r7, #3]	@ zero_extendqisi2
 143 0036 002B     		cmp	r3, #0
 144 0038 ECD1     		bne	.L7
  87:.\Generated_Source\PSoC5/DFB_1.c ****     }
  88:.\Generated_Source\PSoC5/DFB_1.c **** }
 145              		.loc 1 88 0
 146 003a 07F11407 		add	r7, r7, #20
 147 003e BD46     		mov	sp, r7
 148 0040 80BC     		pop	{r7}
 149 0042 7047     		bx	lr
 150              		.cfi_endproc
 151              	.LFE1:
 152              		.size	DFB_1_ZeroReg32, .-DFB_1_ZeroReg32
 153              		.section	.text.DFB_1_Init,"ax",%progbits
 154              		.align	2
 155              		.global	DFB_1_Init
 156              		.thumb
 157              		.thumb_func
 158              		.type	DFB_1_Init, %function
 159              	DFB_1_Init:
 160              	.LFB2:
  89:.\Generated_Source\PSoC5/DFB_1.c **** 
  90:.\Generated_Source\PSoC5/DFB_1.c **** 
  91:.\Generated_Source\PSoC5/DFB_1.c **** /*******************************************************************************
  92:.\Generated_Source\PSoC5/DFB_1.c **** * Function Name: DFB_1_Init
  93:.\Generated_Source\PSoC5/DFB_1.c **** ********************************************************************************
  94:.\Generated_Source\PSoC5/DFB_1.c **** * 
  95:.\Generated_Source\PSoC5/DFB_1.c **** * Summary:
  96:.\Generated_Source\PSoC5/DFB_1.c **** *  This function initializes or restores default the DFB component configuration
  97:.\Generated_Source\PSoC5/DFB_1.c **** *  provided with customizer:
  98:.\Generated_Source\PSoC5/DFB_1.c **** *   powers on DFB(PM_ACT_CFG), power on the RAM(DFB_RAM_EN),
  99:.\Generated_Source\PSoC5/DFB_1.c **** *   moves CSA/CSB/FSM/DataA/DataB/ACU data to the DFB ram using an 8051/ARM
 100:.\Generated_Source\PSoC5/DFB_1.c **** *   core,
 101:.\Generated_Source\PSoC5/DFB_1.c **** *   changes RAM DIR to DFB,
 102:.\Generated_Source\PSoC5/DFB_1.c **** *   sets interrupt mode,
 103:.\Generated_Source\PSoC5/DFB_1.c **** *   sets DMA mode,
 104:.\Generated_Source\PSoC5/DFB_1.c **** *   sets DSI outputs,
 105:.\Generated_Source\PSoC5/DFB_1.c **** *   clears all semaphore bits an pending interrupts.
 106:.\Generated_Source\PSoC5/DFB_1.c **** *
 107:.\Generated_Source\PSoC5/DFB_1.c **** * Parameters:
 108:.\Generated_Source\PSoC5/DFB_1.c **** *  None.
 109:.\Generated_Source\PSoC5/DFB_1.c **** *
 110:.\Generated_Source\PSoC5/DFB_1.c **** * Return:
 111:.\Generated_Source\PSoC5/DFB_1.c **** *  None.
 112:.\Generated_Source\PSoC5/DFB_1.c **** *
 113:.\Generated_Source\PSoC5/DFB_1.c **** * Side Effects:
 114:.\Generated_Source\PSoC5/DFB_1.c **** *  All registers will be reset to their initial values. This will reinitializes
 115:.\Generated_Source\PSoC5/DFB_1.c **** *  the component. This function turns off Run bit and enables power to the DFB
 116:.\Generated_Source\PSoC5/DFB_1.c **** *  block.
 117:.\Generated_Source\PSoC5/DFB_1.c **** *  Program loading takes ~6 ms.
 118:.\Generated_Source\PSoC5/DFB_1.c **** *
 119:.\Generated_Source\PSoC5/DFB_1.c **** *******************************************************************************/
 120:.\Generated_Source\PSoC5/DFB_1.c **** void DFB_1_Init(void) 
 121:.\Generated_Source\PSoC5/DFB_1.c **** {
ARM GAS  C:\Users\hoangp\AppData\Local\Temp\ccil7xJT.s 			page 6


 161              		.loc 1 121 0
 162              		.cfi_startproc
 163              		@ args = 0, pretend = 0, frame = 8
 164              		@ frame_needed = 1, uses_anonymous_args = 0
 165 0000 80B5     		push	{r7, lr}
 166              	.LCFI6:
 167              		.cfi_def_cfa_offset 8
 168 0002 82B0     		sub	sp, sp, #8
 169              	.LCFI7:
 170              		.cfi_def_cfa_offset 16
 171 0004 00AF     		add	r7, sp, #0
 172              		.cfi_offset 14, -4
 173              		.cfi_offset 7, -8
 174              	.LCFI8:
 175              		.cfi_def_cfa_register 7
 122:.\Generated_Source\PSoC5/DFB_1.c ****     uint8 enableInterrupts;
 123:.\Generated_Source\PSoC5/DFB_1.c **** 
 124:.\Generated_Source\PSoC5/DFB_1.c ****     enableInterrupts = CyEnterCriticalSection();
 176              		.loc 1 124 0
 177 0006 FFF7FEFF 		bl	CyEnterCriticalSection
 178 000a 0346     		mov	r3, r0
 179 000c FB71     		strb	r3, [r7, #7]
 125:.\Generated_Source\PSoC5/DFB_1.c **** 
 126:.\Generated_Source\PSoC5/DFB_1.c ****     /* Powers on DFB block */
 127:.\Generated_Source\PSoC5/DFB_1.c ****     DFB_1_PM_ACT_CFG_REG |= DFB_1_PM_ACT_MSK;
 180              		.loc 1 127 0
 181 000e 44F2A633 		movw	r3, #:lower16:1073759142
 182 0012 C4F20003 		movt	r3, #:upper16:1073759142
 183 0016 44F2A632 		movw	r2, #:lower16:1073759142
 184 001a C4F20002 		movt	r2, #:upper16:1073759142
 185 001e 1278     		ldrb	r2, [r2, #0]
 186 0020 D2B2     		uxtb	r2, r2
 187 0022 42F01002 		orr	r2, r2, #16
 188 0026 D2B2     		uxtb	r2, r2
 189 0028 1A70     		strb	r2, [r3, #0]
 128:.\Generated_Source\PSoC5/DFB_1.c ****     /* Enables DFB block in Alternate Active (Standby) mode */
 129:.\Generated_Source\PSoC5/DFB_1.c ****     DFB_1_PM_STBY_CFG_REG |= DFB_1_PM_STBY_MSK;
 190              		.loc 1 129 0
 191 002a 44F2B633 		movw	r3, #:lower16:1073759158
 192 002e C4F20003 		movt	r3, #:upper16:1073759158
 193 0032 44F2B632 		movw	r2, #:lower16:1073759158
 194 0036 C4F20002 		movt	r2, #:upper16:1073759158
 195 003a 1278     		ldrb	r2, [r2, #0]
 196 003c D2B2     		uxtb	r2, r2
 197 003e 42F01002 		orr	r2, r2, #16
 198 0042 D2B2     		uxtb	r2, r2
 199 0044 1A70     		strb	r2, [r3, #0]
 130:.\Generated_Source\PSoC5/DFB_1.c **** 
 131:.\Generated_Source\PSoC5/DFB_1.c ****     CyExitCriticalSection(enableInterrupts);
 200              		.loc 1 131 0
 201 0046 FB79     		ldrb	r3, [r7, #7]	@ zero_extendqisi2
 202 0048 1846     		mov	r0, r3
 203 004a FFF7FEFF 		bl	CyExitCriticalSection
 132:.\Generated_Source\PSoC5/DFB_1.c **** 
 133:.\Generated_Source\PSoC5/DFB_1.c ****     /* Turns off Run Bit */
 134:.\Generated_Source\PSoC5/DFB_1.c ****     DFB_1_CR_REG &= (uint8) (~DFB_1_RUN_MASK);
 204              		.loc 1 134 0
ARM GAS  C:\Users\hoangp\AppData\Local\Temp\ccil7xJT.s 			page 7


 205 004e 4CF28073 		movw	r3, #:lower16:1073792896
 206 0052 C4F20003 		movt	r3, #:upper16:1073792896
 207 0056 4CF28072 		movw	r2, #:lower16:1073792896
 208 005a C4F20002 		movt	r2, #:upper16:1073792896
 209 005e 1278     		ldrb	r2, [r2, #0]
 210 0060 D2B2     		uxtb	r2, r2
 211 0062 02F0FE02 		and	r2, r2, #254
 212 0066 1A70     		strb	r2, [r3, #0]
 135:.\Generated_Source\PSoC5/DFB_1.c ****     /* Powers up the DFB RAMS */
 136:.\Generated_Source\PSoC5/DFB_1.c ****     DFB_1_RAM_EN_REG = DFB_1_RAM_DIR_BUS;
 213              		.loc 1 136 0
 214 0068 4CF28873 		movw	r3, #:lower16:1073792904
 215 006c C4F20003 		movt	r3, #:upper16:1073792904
 216 0070 4FF03F02 		mov	r2, #63
 217 0074 1A70     		strb	r2, [r3, #0]
 137:.\Generated_Source\PSoC5/DFB_1.c ****     /* Puts DFB RAM on the bus */
 138:.\Generated_Source\PSoC5/DFB_1.c ****     DFB_1_RAM_DIR_REG = DFB_1_RAM_DIR_BUS;
 218              		.loc 1 138 0
 219 0076 4CF28C73 		movw	r3, #:lower16:1073792908
 220 007a C4F20003 		movt	r3, #:upper16:1073792908
 221 007e 4FF03F02 		mov	r2, #63
 222 0082 1A70     		strb	r2, [r3, #0]
 139:.\Generated_Source\PSoC5/DFB_1.c **** 
 140:.\Generated_Source\PSoC5/DFB_1.c ****     /* Clears all DFB RAM */
 141:.\Generated_Source\PSoC5/DFB_1.c ****     DFB_1_ZeroReg32(DFB_1_DA_RAM_PTR, DFB_1_DA_RAM_SIZE);
 223              		.loc 1 141 0
 224 0084 4CF20000 		movw	r0, #:lower16:1073790976
 225 0088 C4F20000 		movt	r0, #:upper16:1073790976
 226 008c 4FF08001 		mov	r1, #128
 227 0090 FFF7FEFF 		bl	DFB_1_ZeroReg32
 142:.\Generated_Source\PSoC5/DFB_1.c ****     DFB_1_ZeroReg32(DFB_1_DB_RAM_PTR, DFB_1_DB_RAM_SIZE);
 228              		.loc 1 142 0
 229 0094 4CF20020 		movw	r0, #:lower16:1073791488
 230 0098 C4F20000 		movt	r0, #:upper16:1073791488
 231 009c 4FF08001 		mov	r1, #128
 232 00a0 FFF7FEFF 		bl	DFB_1_ZeroReg32
 143:.\Generated_Source\PSoC5/DFB_1.c ****     DFB_1_ZeroReg32(DFB_1_CSA_RAM_PTR, DFB_1_CSA_RAM_SIZE);
 233              		.loc 1 143 0
 234 00a4 4CF20040 		movw	r0, #:lower16:1073792000
 235 00a8 C4F20000 		movt	r0, #:upper16:1073792000
 236 00ac 4FF04001 		mov	r1, #64
 237 00b0 FFF7FEFF 		bl	DFB_1_ZeroReg32
 144:.\Generated_Source\PSoC5/DFB_1.c ****     DFB_1_ZeroReg32(DFB_1_CSB_RAM_PTR, DFB_1_CSB_RAM_SIZE);
 238              		.loc 1 144 0
 239 00b4 4CF20050 		movw	r0, #:lower16:1073792256
 240 00b8 C4F20000 		movt	r0, #:upper16:1073792256
 241 00bc 4FF04001 		mov	r1, #64
 242 00c0 FFF7FEFF 		bl	DFB_1_ZeroReg32
 145:.\Generated_Source\PSoC5/DFB_1.c ****     DFB_1_ZeroReg32(DFB_1_ACU_RAM_PTR, DFB_1_ACU_RAM_SIZE);
 243              		.loc 1 145 0
 244 00c4 4CF20070 		movw	r0, #:lower16:1073792768
 245 00c8 C4F20000 		movt	r0, #:upper16:1073792768
 246 00cc 4FF01001 		mov	r1, #16
 247 00d0 FFF7FEFF 		bl	DFB_1_ZeroReg32
 146:.\Generated_Source\PSoC5/DFB_1.c ****     DFB_1_ZeroReg32(DFB_1_CFSM_RAM_PTR, DFB_1_CFSM_RAM_SIZE);
 248              		.loc 1 146 0
 249 00d4 4CF20060 		movw	r0, #:lower16:1073792512
ARM GAS  C:\Users\hoangp\AppData\Local\Temp\ccil7xJT.s 			page 8


 250 00d8 C4F20000 		movt	r0, #:upper16:1073792512
 251 00dc 4FF04001 		mov	r1, #64
 252 00e0 FFF7FEFF 		bl	DFB_1_ZeroReg32
 147:.\Generated_Source\PSoC5/DFB_1.c **** 
 148:.\Generated_Source\PSoC5/DFB_1.c ****     /* Writes DFB RAMs */
 149:.\Generated_Source\PSoC5/DFB_1.c ****     /* Control Store RAMs */
 150:.\Generated_Source\PSoC5/DFB_1.c ****     #if (DFB_1_OPTIMIZE_ASSEMBLY)
 151:.\Generated_Source\PSoC5/DFB_1.c ****         DFB_1_LoadReg32(DFB_1_CSA_RAM_PTR, DFB_1_cstoreA,
 152:.\Generated_Source\PSoC5/DFB_1.c ****                                     DFB_1_CSA_RAM_SIZE_CUR);
 153:.\Generated_Source\PSoC5/DFB_1.c ****         DFB_1_LoadReg32(DFB_1_CSB_RAM_PTR, DFB_1_cstoreB,
 154:.\Generated_Source\PSoC5/DFB_1.c ****                                     DFB_1_CSB_RAM_SIZE_CUR);
 155:.\Generated_Source\PSoC5/DFB_1.c ****     #else
 156:.\Generated_Source\PSoC5/DFB_1.c ****         DFB_1_LoadReg32(DFB_1_CSA_RAM_PTR, DFB_1_control,
 253              		.loc 1 156 0
 254 00e4 4CF20040 		movw	r0, #:lower16:1073792000
 255 00e8 C4F20000 		movt	r0, #:upper16:1073792000
 256 00ec 40F20001 		movw	r1, #:lower16:DFB_1_control
 257 00f0 C0F20001 		movt	r1, #:upper16:DFB_1_control
 258 00f4 4FF00102 		mov	r2, #1
 259 00f8 FFF7FEFF 		bl	DFB_1_LoadReg32
 157:.\Generated_Source\PSoC5/DFB_1.c ****                                     DFB_1_CSA_RAM_SIZE_CUR);
 158:.\Generated_Source\PSoC5/DFB_1.c ****         DFB_1_LoadReg32(DFB_1_CSB_RAM_PTR, DFB_1_control,
 260              		.loc 1 158 0
 261 00fc 4CF20050 		movw	r0, #:lower16:1073792256
 262 0100 C4F20000 		movt	r0, #:upper16:1073792256
 263 0104 40F20001 		movw	r1, #:lower16:DFB_1_control
 264 0108 C0F20001 		movt	r1, #:upper16:DFB_1_control
 265 010c 4FF00102 		mov	r2, #1
 266 0110 FFF7FEFF 		bl	DFB_1_LoadReg32
 159:.\Generated_Source\PSoC5/DFB_1.c ****                                     DFB_1_CSB_RAM_SIZE_CUR);
 160:.\Generated_Source\PSoC5/DFB_1.c ****     #endif /* DFB_1_OPTIMIZE_ASSEMBLY */
 161:.\Generated_Source\PSoC5/DFB_1.c **** 
 162:.\Generated_Source\PSoC5/DFB_1.c ****     /* Loads initial data to Data RAMs */
 163:.\Generated_Source\PSoC5/DFB_1.c ****     DFB_1_LoadReg32(DFB_1_DA_RAM_PTR, DFB_1_data_a, DFB_1_DA_RAM_SIZE_CUR);
 267              		.loc 1 163 0
 268 0114 4CF20000 		movw	r0, #:lower16:1073790976
 269 0118 C4F20000 		movt	r0, #:upper16:1073790976
 270 011c 40F20001 		movw	r1, #:lower16:DFB_1_data_a
 271 0120 C0F20001 		movt	r1, #:upper16:DFB_1_data_a
 272 0124 4FF00102 		mov	r2, #1
 273 0128 FFF7FEFF 		bl	DFB_1_LoadReg32
 164:.\Generated_Source\PSoC5/DFB_1.c ****     DFB_1_LoadReg32(DFB_1_DB_RAM_PTR, DFB_1_data_b, DFB_1_DB_RAM_SIZE_CUR);
 274              		.loc 1 164 0
 275 012c 4CF20020 		movw	r0, #:lower16:1073791488
 276 0130 C4F20000 		movt	r0, #:upper16:1073791488
 277 0134 40F20001 		movw	r1, #:lower16:DFB_1_data_b
 278 0138 C0F20001 		movt	r1, #:upper16:DFB_1_data_b
 279 013c 4FF00102 		mov	r2, #1
 280 0140 FFF7FEFF 		bl	DFB_1_LoadReg32
 165:.\Generated_Source\PSoC5/DFB_1.c ****     /* Loads initial data to ACU RAM */
 166:.\Generated_Source\PSoC5/DFB_1.c ****     DFB_1_LoadReg32(DFB_1_ACU_RAM_PTR, DFB_1_acu, DFB_1_ACU_RAM_SIZE_CUR);
 281              		.loc 1 166 0
 282 0144 4CF20070 		movw	r0, #:lower16:1073792768
 283 0148 C4F20000 		movt	r0, #:upper16:1073792768
 284 014c 40F20001 		movw	r1, #:lower16:DFB_1_acu
 285 0150 C0F20001 		movt	r1, #:upper16:DFB_1_acu
 286 0154 4FF00102 		mov	r2, #1
ARM GAS  C:\Users\hoangp\AppData\Local\Temp\ccil7xJT.s 			page 9


 287 0158 FFF7FEFF 		bl	DFB_1_LoadReg32
 167:.\Generated_Source\PSoC5/DFB_1.c ****     /* Loads initial data to CFSM RAM */
 168:.\Generated_Source\PSoC5/DFB_1.c ****     DFB_1_LoadReg32(DFB_1_CFSM_RAM_PTR, DFB_1_cfsm,
 288              		.loc 1 168 0
 289 015c 4CF20060 		movw	r0, #:lower16:1073792512
 290 0160 C4F20000 		movt	r0, #:upper16:1073792512
 291 0164 40F20001 		movw	r1, #:lower16:DFB_1_cfsm
 292 0168 C0F20001 		movt	r1, #:upper16:DFB_1_cfsm
 293 016c 4FF00202 		mov	r2, #2
 294 0170 FFF7FEFF 		bl	DFB_1_LoadReg32
 169:.\Generated_Source\PSoC5/DFB_1.c ****                                 DFB_1_CFSM_RAM_SIZE_CUR);
 170:.\Generated_Source\PSoC5/DFB_1.c **** 
 171:.\Generated_Source\PSoC5/DFB_1.c ****     /* Takes DFB RAM off the bus */
 172:.\Generated_Source\PSoC5/DFB_1.c ****     DFB_1_RAM_DIR_REG = DFB_1_RAM_DIR_DFB;
 295              		.loc 1 172 0
 296 0174 4CF28C73 		movw	r3, #:lower16:1073792908
 297 0178 C4F20003 		movt	r3, #:upper16:1073792908
 298 017c 4FF00002 		mov	r2, #0
 299 0180 1A70     		strb	r2, [r3, #0]
 173:.\Generated_Source\PSoC5/DFB_1.c **** 
 174:.\Generated_Source\PSoC5/DFB_1.c ****     /* Sets up interrupt and DMA events */
 175:.\Generated_Source\PSoC5/DFB_1.c ****     DFB_1_SetInterruptMode(DFB_1_INIT_INTERRUPT_MODE);
 300              		.loc 1 175 0
 301 0182 4FF00000 		mov	r0, #0
 302 0186 FFF7FEFF 		bl	DFB_1_SetInterruptMode
 176:.\Generated_Source\PSoC5/DFB_1.c ****     DFB_1_SetDMAMode(DFB_1_INIT_DMA_MODE);
 303              		.loc 1 176 0
 304 018a 4FF00000 		mov	r0, #0
 305 018e FFF7FEFF 		bl	DFB_1_SetDMAMode
 177:.\Generated_Source\PSoC5/DFB_1.c **** 
 178:.\Generated_Source\PSoC5/DFB_1.c ****     /* Sets up internal signals, which will be mapped to the DSI outputs */
 179:.\Generated_Source\PSoC5/DFB_1.c ****     DFB_1_SetOutput1Source(DFB_1_INIT_OUT1_SOURCE);
 306              		.loc 1 179 0
 307 0192 4FF00000 		mov	r0, #0
 308 0196 FFF7FEFF 		bl	DFB_1_SetOutput1Source
 180:.\Generated_Source\PSoC5/DFB_1.c ****     DFB_1_SetOutput2Source(DFB_1_INIT_OUT2_SOURCE);
 309              		.loc 1 180 0
 310 019a 4FF00000 		mov	r0, #0
 311 019e FFF7FEFF 		bl	DFB_1_SetOutput2Source
 181:.\Generated_Source\PSoC5/DFB_1.c **** 
 182:.\Generated_Source\PSoC5/DFB_1.c ****     /* Clears any pending interrupts and semaphore bits */
 183:.\Generated_Source\PSoC5/DFB_1.c ****     DFB_1_SR_REG = 0xFFu;
 312              		.loc 1 183 0
 313 01a2 4CF28473 		movw	r3, #:lower16:1073792900
 314 01a6 C4F20003 		movt	r3, #:upper16:1073792900
 315 01aa 4FF0FF32 		mov	r2, #-1
 316 01ae 1A70     		strb	r2, [r3, #0]
 184:.\Generated_Source\PSoC5/DFB_1.c **** }
 317              		.loc 1 184 0
 318 01b0 07F10807 		add	r7, r7, #8
 319 01b4 BD46     		mov	sp, r7
 320 01b6 80BD     		pop	{r7, pc}
 321              		.cfi_endproc
 322              	.LFE2:
 323              		.size	DFB_1_Init, .-DFB_1_Init
 324              		.section	.text.DFB_1_Enable,"ax",%progbits
 325              		.align	2
ARM GAS  C:\Users\hoangp\AppData\Local\Temp\ccil7xJT.s 			page 10


 326              		.global	DFB_1_Enable
 327              		.thumb
 328              		.thumb_func
 329              		.type	DFB_1_Enable, %function
 330              	DFB_1_Enable:
 331              	.LFB3:
 185:.\Generated_Source\PSoC5/DFB_1.c **** 
 186:.\Generated_Source\PSoC5/DFB_1.c **** 
 187:.\Generated_Source\PSoC5/DFB_1.c **** /*******************************************************************************
 188:.\Generated_Source\PSoC5/DFB_1.c **** * Function Name: DFB_1_Enable
 189:.\Generated_Source\PSoC5/DFB_1.c **** ********************************************************************************
 190:.\Generated_Source\PSoC5/DFB_1.c **** *
 191:.\Generated_Source\PSoC5/DFB_1.c **** * Summary:
 192:.\Generated_Source\PSoC5/DFB_1.c **** *  This function enables the DFB hardware block, sets the DFB run bit and powers
 193:.\Generated_Source\PSoC5/DFB_1.c **** *  on the DFB block.
 194:.\Generated_Source\PSoC5/DFB_1.c **** *
 195:.\Generated_Source\PSoC5/DFB_1.c **** * Parameters:
 196:.\Generated_Source\PSoC5/DFB_1.c **** *  None.
 197:.\Generated_Source\PSoC5/DFB_1.c **** *
 198:.\Generated_Source\PSoC5/DFB_1.c **** * Return:
 199:.\Generated_Source\PSoC5/DFB_1.c **** *  None.
 200:.\Generated_Source\PSoC5/DFB_1.c **** *
 201:.\Generated_Source\PSoC5/DFB_1.c **** *******************************************************************************/
 202:.\Generated_Source\PSoC5/DFB_1.c **** void DFB_1_Enable(void) 
 203:.\Generated_Source\PSoC5/DFB_1.c **** {
 332              		.loc 1 203 0
 333              		.cfi_startproc
 334              		@ args = 0, pretend = 0, frame = 8
 335              		@ frame_needed = 1, uses_anonymous_args = 0
 336 0000 80B5     		push	{r7, lr}
 337              	.LCFI9:
 338              		.cfi_def_cfa_offset 8
 339 0002 82B0     		sub	sp, sp, #8
 340              	.LCFI10:
 341              		.cfi_def_cfa_offset 16
 342 0004 00AF     		add	r7, sp, #0
 343              		.cfi_offset 14, -4
 344              		.cfi_offset 7, -8
 345              	.LCFI11:
 346              		.cfi_def_cfa_register 7
 204:.\Generated_Source\PSoC5/DFB_1.c ****     uint8 enableInterrupts;
 205:.\Generated_Source\PSoC5/DFB_1.c **** 
 206:.\Generated_Source\PSoC5/DFB_1.c ****     enableInterrupts = CyEnterCriticalSection();
 347              		.loc 1 206 0
 348 0006 FFF7FEFF 		bl	CyEnterCriticalSection
 349 000a 0346     		mov	r3, r0
 350 000c FB71     		strb	r3, [r7, #7]
 207:.\Generated_Source\PSoC5/DFB_1.c **** 
 208:.\Generated_Source\PSoC5/DFB_1.c ****     /* Powers on DFB block */
 209:.\Generated_Source\PSoC5/DFB_1.c ****     DFB_1_PM_ACT_CFG_REG |= DFB_1_PM_ACT_MSK;
 351              		.loc 1 209 0
 352 000e 44F2A633 		movw	r3, #:lower16:1073759142
 353 0012 C4F20003 		movt	r3, #:upper16:1073759142
 354 0016 44F2A632 		movw	r2, #:lower16:1073759142
 355 001a C4F20002 		movt	r2, #:upper16:1073759142
 356 001e 1278     		ldrb	r2, [r2, #0]
 357 0020 D2B2     		uxtb	r2, r2
ARM GAS  C:\Users\hoangp\AppData\Local\Temp\ccil7xJT.s 			page 11


 358 0022 42F01002 		orr	r2, r2, #16
 359 0026 D2B2     		uxtb	r2, r2
 360 0028 1A70     		strb	r2, [r3, #0]
 210:.\Generated_Source\PSoC5/DFB_1.c ****     /* Enables DFB block in Alternate Active (Standby) mode */
 211:.\Generated_Source\PSoC5/DFB_1.c ****     DFB_1_PM_STBY_CFG_REG |= DFB_1_PM_STBY_MSK;
 361              		.loc 1 211 0
 362 002a 44F2B633 		movw	r3, #:lower16:1073759158
 363 002e C4F20003 		movt	r3, #:upper16:1073759158
 364 0032 44F2B632 		movw	r2, #:lower16:1073759158
 365 0036 C4F20002 		movt	r2, #:upper16:1073759158
 366 003a 1278     		ldrb	r2, [r2, #0]
 367 003c D2B2     		uxtb	r2, r2
 368 003e 42F01002 		orr	r2, r2, #16
 369 0042 D2B2     		uxtb	r2, r2
 370 0044 1A70     		strb	r2, [r3, #0]
 212:.\Generated_Source\PSoC5/DFB_1.c **** 
 213:.\Generated_Source\PSoC5/DFB_1.c ****     CyExitCriticalSection(enableInterrupts);
 371              		.loc 1 213 0
 372 0046 FB79     		ldrb	r3, [r7, #7]	@ zero_extendqisi2
 373 0048 1846     		mov	r0, r3
 374 004a FFF7FEFF 		bl	CyExitCriticalSection
 214:.\Generated_Source\PSoC5/DFB_1.c ****     
 215:.\Generated_Source\PSoC5/DFB_1.c ****     /* Powers up the DFB RAMS */
 216:.\Generated_Source\PSoC5/DFB_1.c ****     DFB_1_RAM_EN_REG = DFB_1_RAM_DIR_BUS;
 375              		.loc 1 216 0
 376 004e 4CF28873 		movw	r3, #:lower16:1073792904
 377 0052 C4F20003 		movt	r3, #:upper16:1073792904
 378 0056 4FF03F02 		mov	r2, #63
 379 005a 1A70     		strb	r2, [r3, #0]
 217:.\Generated_Source\PSoC5/DFB_1.c ****     /* Turns on Run Bit */
 218:.\Generated_Source\PSoC5/DFB_1.c ****     DFB_1_CR_REG |= DFB_1_RUN_MASK;
 380              		.loc 1 218 0
 381 005c 4CF28073 		movw	r3, #:lower16:1073792896
 382 0060 C4F20003 		movt	r3, #:upper16:1073792896
 383 0064 4CF28072 		movw	r2, #:lower16:1073792896
 384 0068 C4F20002 		movt	r2, #:upper16:1073792896
 385 006c 1278     		ldrb	r2, [r2, #0]
 386 006e D2B2     		uxtb	r2, r2
 387 0070 42F00102 		orr	r2, r2, #1
 388 0074 D2B2     		uxtb	r2, r2
 389 0076 1A70     		strb	r2, [r3, #0]
 219:.\Generated_Source\PSoC5/DFB_1.c **** }
 390              		.loc 1 219 0
 391 0078 07F10807 		add	r7, r7, #8
 392 007c BD46     		mov	sp, r7
 393 007e 80BD     		pop	{r7, pc}
 394              		.cfi_endproc
 395              	.LFE3:
 396              		.size	DFB_1_Enable, .-DFB_1_Enable
 397              		.section	.text.DFB_1_Start,"ax",%progbits
 398              		.align	2
 399              		.global	DFB_1_Start
 400              		.thumb
 401              		.thumb_func
 402              		.type	DFB_1_Start, %function
 403              	DFB_1_Start:
 404              	.LFB4:
ARM GAS  C:\Users\hoangp\AppData\Local\Temp\ccil7xJT.s 			page 12


 220:.\Generated_Source\PSoC5/DFB_1.c **** 
 221:.\Generated_Source\PSoC5/DFB_1.c **** 
 222:.\Generated_Source\PSoC5/DFB_1.c **** /*******************************************************************************
 223:.\Generated_Source\PSoC5/DFB_1.c **** * Function Name: DFB_1_Start
 224:.\Generated_Source\PSoC5/DFB_1.c **** ********************************************************************************
 225:.\Generated_Source\PSoC5/DFB_1.c **** *
 226:.\Generated_Source\PSoC5/DFB_1.c **** * Summary:
 227:.\Generated_Source\PSoC5/DFB_1.c **** *  This function initializes and enables the DFB component using the DFB_Init()
 228:.\Generated_Source\PSoC5/DFB_1.c **** *  and DFB_Enable() functions.
 229:.\Generated_Source\PSoC5/DFB_1.c **** *
 230:.\Generated_Source\PSoC5/DFB_1.c **** * Parameters:
 231:.\Generated_Source\PSoC5/DFB_1.c **** *  None.
 232:.\Generated_Source\PSoC5/DFB_1.c **** *
 233:.\Generated_Source\PSoC5/DFB_1.c **** * Return:
 234:.\Generated_Source\PSoC5/DFB_1.c **** *  None.
 235:.\Generated_Source\PSoC5/DFB_1.c **** *
 236:.\Generated_Source\PSoC5/DFB_1.c **** * Global variables:
 237:.\Generated_Source\PSoC5/DFB_1.c **** *  DFB_1_initVar - used to check initial configuration, modified on
 238:.\Generated_Source\PSoC5/DFB_1.c **** *  first function call.
 239:.\Generated_Source\PSoC5/DFB_1.c **** *
 240:.\Generated_Source\PSoC5/DFB_1.c **** * Reentrant:
 241:.\Generated_Source\PSoC5/DFB_1.c **** *  No.
 242:.\Generated_Source\PSoC5/DFB_1.c **** *
 243:.\Generated_Source\PSoC5/DFB_1.c **** *******************************************************************************/
 244:.\Generated_Source\PSoC5/DFB_1.c **** void DFB_1_Start(void) 
 245:.\Generated_Source\PSoC5/DFB_1.c **** {
 405              		.loc 1 245 0
 406              		.cfi_startproc
 407              		@ args = 0, pretend = 0, frame = 0
 408              		@ frame_needed = 1, uses_anonymous_args = 0
 409 0000 80B5     		push	{r7, lr}
 410              	.LCFI12:
 411              		.cfi_def_cfa_offset 8
 412 0002 00AF     		add	r7, sp, #0
 413              		.cfi_offset 14, -4
 414              		.cfi_offset 7, -8
 415              	.LCFI13:
 416              		.cfi_def_cfa_register 7
 246:.\Generated_Source\PSoC5/DFB_1.c ****     if (DFB_1_initVar == 0u)
 417              		.loc 1 246 0
 418 0004 40F20003 		movw	r3, #:lower16:DFB_1_initVar
 419 0008 C0F20003 		movt	r3, #:upper16:DFB_1_initVar
 420 000c 1B78     		ldrb	r3, [r3, #0]	@ zero_extendqisi2
 421 000e 002B     		cmp	r3, #0
 422 0010 08D1     		bne	.L14
 247:.\Generated_Source\PSoC5/DFB_1.c ****     {
 248:.\Generated_Source\PSoC5/DFB_1.c ****         DFB_1_Init();
 423              		.loc 1 248 0
 424 0012 FFF7FEFF 		bl	DFB_1_Init
 249:.\Generated_Source\PSoC5/DFB_1.c ****         DFB_1_initVar = 1u;
 425              		.loc 1 249 0
 426 0016 40F20003 		movw	r3, #:lower16:DFB_1_initVar
 427 001a C0F20003 		movt	r3, #:upper16:DFB_1_initVar
 428 001e 4FF00102 		mov	r2, #1
 429 0022 1A70     		strb	r2, [r3, #0]
 430              	.L14:
 250:.\Generated_Source\PSoC5/DFB_1.c ****     }
ARM GAS  C:\Users\hoangp\AppData\Local\Temp\ccil7xJT.s 			page 13


 251:.\Generated_Source\PSoC5/DFB_1.c **** 
 252:.\Generated_Source\PSoC5/DFB_1.c ****     DFB_1_Enable();
 431              		.loc 1 252 0
 432 0024 FFF7FEFF 		bl	DFB_1_Enable
 253:.\Generated_Source\PSoC5/DFB_1.c **** }
 433              		.loc 1 253 0
 434 0028 80BD     		pop	{r7, pc}
 435              		.cfi_endproc
 436              	.LFE4:
 437              		.size	DFB_1_Start, .-DFB_1_Start
 438 002a 00BF     		.section	.text.DFB_1_Stop,"ax",%progbits
 439              		.align	2
 440              		.global	DFB_1_Stop
 441              		.thumb
 442              		.thumb_func
 443              		.type	DFB_1_Stop, %function
 444              	DFB_1_Stop:
 445              	.LFB5:
 254:.\Generated_Source\PSoC5/DFB_1.c **** 
 255:.\Generated_Source\PSoC5/DFB_1.c **** 
 256:.\Generated_Source\PSoC5/DFB_1.c **** /*******************************************************************************
 257:.\Generated_Source\PSoC5/DFB_1.c **** * Function Name: DFB_1_Stop
 258:.\Generated_Source\PSoC5/DFB_1.c **** ********************************************************************************
 259:.\Generated_Source\PSoC5/DFB_1.c **** *
 260:.\Generated_Source\PSoC5/DFB_1.c **** * Summary:
 261:.\Generated_Source\PSoC5/DFB_1.c **** *  This function turns off the run bit. If DMA control is used to feed the
 262:.\Generated_Source\PSoC5/DFB_1.c **** *  channels, function allows arguments to turn off one of the TD channels off.
 263:.\Generated_Source\PSoC5/DFB_1.c **** *
 264:.\Generated_Source\PSoC5/DFB_1.c **** * Parameters:
 265:.\Generated_Source\PSoC5/DFB_1.c **** *  None.
 266:.\Generated_Source\PSoC5/DFB_1.c **** *
 267:.\Generated_Source\PSoC5/DFB_1.c **** * Return:
 268:.\Generated_Source\PSoC5/DFB_1.c **** *  None.
 269:.\Generated_Source\PSoC5/DFB_1.c **** *
 270:.\Generated_Source\PSoC5/DFB_1.c **** * Side Effects:
 271:.\Generated_Source\PSoC5/DFB_1.c **** *  Disables power to the DFB Core.
 272:.\Generated_Source\PSoC5/DFB_1.c **** *
 273:.\Generated_Source\PSoC5/DFB_1.c **** *******************************************************************************/
 274:.\Generated_Source\PSoC5/DFB_1.c **** void DFB_1_Stop(void) 
 275:.\Generated_Source\PSoC5/DFB_1.c **** {
 446              		.loc 1 275 0
 447              		.cfi_startproc
 448              		@ args = 0, pretend = 0, frame = 8
 449              		@ frame_needed = 1, uses_anonymous_args = 0
 450 0000 80B5     		push	{r7, lr}
 451              	.LCFI14:
 452              		.cfi_def_cfa_offset 8
 453 0002 82B0     		sub	sp, sp, #8
 454              	.LCFI15:
 455              		.cfi_def_cfa_offset 16
 456 0004 00AF     		add	r7, sp, #0
 457              		.cfi_offset 14, -4
 458              		.cfi_offset 7, -8
 459              	.LCFI16:
 460              		.cfi_def_cfa_register 7
 276:.\Generated_Source\PSoC5/DFB_1.c ****     uint8 enableInterrupts;
 277:.\Generated_Source\PSoC5/DFB_1.c **** 
ARM GAS  C:\Users\hoangp\AppData\Local\Temp\ccil7xJT.s 			page 14


 278:.\Generated_Source\PSoC5/DFB_1.c ****     enableInterrupts = CyEnterCriticalSection();
 461              		.loc 1 278 0
 462 0006 FFF7FEFF 		bl	CyEnterCriticalSection
 463 000a 0346     		mov	r3, r0
 464 000c FB71     		strb	r3, [r7, #7]
 279:.\Generated_Source\PSoC5/DFB_1.c **** 
 280:.\Generated_Source\PSoC5/DFB_1.c ****     /* Powers off DFB */
 281:.\Generated_Source\PSoC5/DFB_1.c ****     DFB_1_PM_ACT_CFG_REG &= (uint8) (~DFB_1_PM_ACT_MSK);
 465              		.loc 1 281 0
 466 000e 44F2A633 		movw	r3, #:lower16:1073759142
 467 0012 C4F20003 		movt	r3, #:upper16:1073759142
 468 0016 44F2A632 		movw	r2, #:lower16:1073759142
 469 001a C4F20002 		movt	r2, #:upper16:1073759142
 470 001e 1278     		ldrb	r2, [r2, #0]
 471 0020 D2B2     		uxtb	r2, r2
 472 0022 02F0EF02 		and	r2, r2, #239
 473 0026 1A70     		strb	r2, [r3, #0]
 282:.\Generated_Source\PSoC5/DFB_1.c ****     /* Disables DFB block in Alternate Active (Standby) mode */
 283:.\Generated_Source\PSoC5/DFB_1.c ****     DFB_1_PM_STBY_CFG_REG &= (uint8) (~DFB_1_PM_STBY_MSK);
 474              		.loc 1 283 0
 475 0028 44F2B633 		movw	r3, #:lower16:1073759158
 476 002c C4F20003 		movt	r3, #:upper16:1073759158
 477 0030 44F2B632 		movw	r2, #:lower16:1073759158
 478 0034 C4F20002 		movt	r2, #:upper16:1073759158
 479 0038 1278     		ldrb	r2, [r2, #0]
 480 003a D2B2     		uxtb	r2, r2
 481 003c 02F0EF02 		and	r2, r2, #239
 482 0040 1A70     		strb	r2, [r3, #0]
 284:.\Generated_Source\PSoC5/DFB_1.c **** 
 285:.\Generated_Source\PSoC5/DFB_1.c ****     CyExitCriticalSection(enableInterrupts);
 483              		.loc 1 285 0
 484 0042 FB79     		ldrb	r3, [r7, #7]	@ zero_extendqisi2
 485 0044 1846     		mov	r0, r3
 486 0046 FFF7FEFF 		bl	CyExitCriticalSection
 286:.\Generated_Source\PSoC5/DFB_1.c **** 
 287:.\Generated_Source\PSoC5/DFB_1.c ****     /* Turns off Run Bit */
 288:.\Generated_Source\PSoC5/DFB_1.c ****     DFB_1_CR_REG &= (uint8) (~DFB_1_RUN_MASK);
 487              		.loc 1 288 0
 488 004a 4CF28073 		movw	r3, #:lower16:1073792896
 489 004e C4F20003 		movt	r3, #:upper16:1073792896
 490 0052 4CF28072 		movw	r2, #:lower16:1073792896
 491 0056 C4F20002 		movt	r2, #:upper16:1073792896
 492 005a 1278     		ldrb	r2, [r2, #0]
 493 005c D2B2     		uxtb	r2, r2
 494 005e 02F0FE02 		and	r2, r2, #254
 495 0062 1A70     		strb	r2, [r3, #0]
 289:.\Generated_Source\PSoC5/DFB_1.c **** }
 496              		.loc 1 289 0
 497 0064 07F10807 		add	r7, r7, #8
 498 0068 BD46     		mov	sp, r7
 499 006a 80BD     		pop	{r7, pc}
 500              		.cfi_endproc
 501              	.LFE5:
 502              		.size	DFB_1_Stop, .-DFB_1_Stop
 503              		.section	.text.DFB_1_Pause,"ax",%progbits
 504              		.align	2
 505              		.global	DFB_1_Pause
ARM GAS  C:\Users\hoangp\AppData\Local\Temp\ccil7xJT.s 			page 15


 506              		.thumb
 507              		.thumb_func
 508              		.type	DFB_1_Pause, %function
 509              	DFB_1_Pause:
 510              	.LFB6:
 290:.\Generated_Source\PSoC5/DFB_1.c **** 
 291:.\Generated_Source\PSoC5/DFB_1.c **** 
 292:.\Generated_Source\PSoC5/DFB_1.c **** /*******************************************************************************
 293:.\Generated_Source\PSoC5/DFB_1.c **** * Function Name: DFB_1_Pause
 294:.\Generated_Source\PSoC5/DFB_1.c **** ********************************************************************************
 295:.\Generated_Source\PSoC5/DFB_1.c **** *
 296:.\Generated_Source\PSoC5/DFB_1.c **** * Summary:
 297:.\Generated_Source\PSoC5/DFB_1.c **** *  This function pauses DFB and enables writing to the DFB RAM:
 298:.\Generated_Source\PSoC5/DFB_1.c **** *   turns off the Run bit,
 299:.\Generated_Source\PSoC5/DFB_1.c **** *   connects the DFB RAM to the data bus,
 300:.\Generated_Source\PSoC5/DFB_1.c **** *   clears the DFB run bit and passes the control of all DFB RAMs onto bus.
 301:.\Generated_Source\PSoC5/DFB_1.c **** *
 302:.\Generated_Source\PSoC5/DFB_1.c **** * Parameters:
 303:.\Generated_Source\PSoC5/DFB_1.c **** *  None.
 304:.\Generated_Source\PSoC5/DFB_1.c **** *
 305:.\Generated_Source\PSoC5/DFB_1.c **** * Return:
 306:.\Generated_Source\PSoC5/DFB_1.c **** *  None.
 307:.\Generated_Source\PSoC5/DFB_1.c **** *
 308:.\Generated_Source\PSoC5/DFB_1.c **** *******************************************************************************/
 309:.\Generated_Source\PSoC5/DFB_1.c **** void DFB_1_Pause(void) 
 310:.\Generated_Source\PSoC5/DFB_1.c **** {
 511              		.loc 1 310 0
 512              		.cfi_startproc
 513              		@ args = 0, pretend = 0, frame = 0
 514              		@ frame_needed = 1, uses_anonymous_args = 0
 515              		@ link register save eliminated.
 516 0000 80B4     		push	{r7}
 517              	.LCFI17:
 518              		.cfi_def_cfa_offset 4
 519 0002 00AF     		add	r7, sp, #0
 520              		.cfi_offset 7, -4
 521              	.LCFI18:
 522              		.cfi_def_cfa_register 7
 311:.\Generated_Source\PSoC5/DFB_1.c ****      /* Turns off Run Bit */
 312:.\Generated_Source\PSoC5/DFB_1.c ****     DFB_1_CR_REG &= (uint8) (~DFB_1_RUN_MASK);
 523              		.loc 1 312 0
 524 0004 4CF28073 		movw	r3, #:lower16:1073792896
 525 0008 C4F20003 		movt	r3, #:upper16:1073792896
 526 000c 4CF28072 		movw	r2, #:lower16:1073792896
 527 0010 C4F20002 		movt	r2, #:upper16:1073792896
 528 0014 1278     		ldrb	r2, [r2, #0]
 529 0016 D2B2     		uxtb	r2, r2
 530 0018 02F0FE02 		and	r2, r2, #254
 531 001c 1A70     		strb	r2, [r3, #0]
 313:.\Generated_Source\PSoC5/DFB_1.c ****      /* Puts DFB RAM on the bus */
 314:.\Generated_Source\PSoC5/DFB_1.c ****     DFB_1_RAM_DIR_REG = DFB_1_RAM_DIR_BUS;
 532              		.loc 1 314 0
 533 001e 4CF28C73 		movw	r3, #:lower16:1073792908
 534 0022 C4F20003 		movt	r3, #:upper16:1073792908
 535 0026 4FF03F02 		mov	r2, #63
 536 002a 1A70     		strb	r2, [r3, #0]
 315:.\Generated_Source\PSoC5/DFB_1.c **** }
ARM GAS  C:\Users\hoangp\AppData\Local\Temp\ccil7xJT.s 			page 16


 537              		.loc 1 315 0
 538 002c BD46     		mov	sp, r7
 539 002e 80BC     		pop	{r7}
 540 0030 7047     		bx	lr
 541              		.cfi_endproc
 542              	.LFE6:
 543              		.size	DFB_1_Pause, .-DFB_1_Pause
 544 0032 00BF     		.section	.text.DFB_1_Resume,"ax",%progbits
 545              		.align	2
 546              		.global	DFB_1_Resume
 547              		.thumb
 548              		.thumb_func
 549              		.type	DFB_1_Resume, %function
 550              	DFB_1_Resume:
 551              	.LFB7:
 316:.\Generated_Source\PSoC5/DFB_1.c **** 
 317:.\Generated_Source\PSoC5/DFB_1.c **** 
 318:.\Generated_Source\PSoC5/DFB_1.c **** /*******************************************************************************
 319:.\Generated_Source\PSoC5/DFB_1.c **** * Function Name: DFB_1_Resume
 320:.\Generated_Source\PSoC5/DFB_1.c **** ********************************************************************************
 321:.\Generated_Source\PSoC5/DFB_1.c **** *
 322:.\Generated_Source\PSoC5/DFB_1.c **** * Summary:
 323:.\Generated_Source\PSoC5/DFB_1.c **** *  This function disables writing to the DFB RAM, clear any pending interrupts,
 324:.\Generated_Source\PSoC5/DFB_1.c **** *  disconnects the DFB RAM from the data bus, and runs the DFB.
 325:.\Generated_Source\PSoC5/DFB_1.c **** *  It passes the control of all DFB RAM to the DFB and then sets the run bit.
 326:.\Generated_Source\PSoC5/DFB_1.c **** *
 327:.\Generated_Source\PSoC5/DFB_1.c **** * Parameters:
 328:.\Generated_Source\PSoC5/DFB_1.c **** *  None.
 329:.\Generated_Source\PSoC5/DFB_1.c **** *
 330:.\Generated_Source\PSoC5/DFB_1.c **** * Return:
 331:.\Generated_Source\PSoC5/DFB_1.c **** *  None.
 332:.\Generated_Source\PSoC5/DFB_1.c **** *
 333:.\Generated_Source\PSoC5/DFB_1.c **** *******************************************************************************/
 334:.\Generated_Source\PSoC5/DFB_1.c **** void DFB_1_Resume(void) 
 335:.\Generated_Source\PSoC5/DFB_1.c **** {
 552              		.loc 1 335 0
 553              		.cfi_startproc
 554              		@ args = 0, pretend = 0, frame = 0
 555              		@ frame_needed = 1, uses_anonymous_args = 0
 556              		@ link register save eliminated.
 557 0000 80B4     		push	{r7}
 558              	.LCFI19:
 559              		.cfi_def_cfa_offset 4
 560 0002 00AF     		add	r7, sp, #0
 561              		.cfi_offset 7, -4
 562              	.LCFI20:
 563              		.cfi_def_cfa_register 7
 336:.\Generated_Source\PSoC5/DFB_1.c ****     /* Takes DFB RAM off the bus */
 337:.\Generated_Source\PSoC5/DFB_1.c ****     DFB_1_RAM_DIR_REG = DFB_1_RAM_DIR_DFB;
 564              		.loc 1 337 0
 565 0004 4CF28C73 		movw	r3, #:lower16:1073792908
 566 0008 C4F20003 		movt	r3, #:upper16:1073792908
 567 000c 4FF00002 		mov	r2, #0
 568 0010 1A70     		strb	r2, [r3, #0]
 338:.\Generated_Source\PSoC5/DFB_1.c ****     /* Clears any pending interrupts */
 339:.\Generated_Source\PSoC5/DFB_1.c ****     DFB_1_SR_REG = 0xFFu;
 569              		.loc 1 339 0
ARM GAS  C:\Users\hoangp\AppData\Local\Temp\ccil7xJT.s 			page 17


 570 0012 4CF28473 		movw	r3, #:lower16:1073792900
 571 0016 C4F20003 		movt	r3, #:upper16:1073792900
 572 001a 4FF0FF32 		mov	r2, #-1
 573 001e 1A70     		strb	r2, [r3, #0]
 340:.\Generated_Source\PSoC5/DFB_1.c ****     /* Turns on Run Bit */
 341:.\Generated_Source\PSoC5/DFB_1.c ****     DFB_1_CR_REG |= DFB_1_RUN_MASK;
 574              		.loc 1 341 0
 575 0020 4CF28073 		movw	r3, #:lower16:1073792896
 576 0024 C4F20003 		movt	r3, #:upper16:1073792896
 577 0028 4CF28072 		movw	r2, #:lower16:1073792896
 578 002c C4F20002 		movt	r2, #:upper16:1073792896
 579 0030 1278     		ldrb	r2, [r2, #0]
 580 0032 D2B2     		uxtb	r2, r2
 581 0034 42F00102 		orr	r2, r2, #1
 582 0038 D2B2     		uxtb	r2, r2
 583 003a 1A70     		strb	r2, [r3, #0]
 342:.\Generated_Source\PSoC5/DFB_1.c **** }
 584              		.loc 1 342 0
 585 003c BD46     		mov	sp, r7
 586 003e 80BC     		pop	{r7}
 587 0040 7047     		bx	lr
 588              		.cfi_endproc
 589              	.LFE7:
 590              		.size	DFB_1_Resume, .-DFB_1_Resume
 591 0042 00BF     		.section	.text.DFB_1_SetCoherency,"ax",%progbits
 592              		.align	2
 593              		.global	DFB_1_SetCoherency
 594              		.thumb
 595              		.thumb_func
 596              		.type	DFB_1_SetCoherency, %function
 597              	DFB_1_SetCoherency:
 598              	.LFB8:
 343:.\Generated_Source\PSoC5/DFB_1.c **** 
 344:.\Generated_Source\PSoC5/DFB_1.c **** 
 345:.\Generated_Source\PSoC5/DFB_1.c **** /*******************************************************************************
 346:.\Generated_Source\PSoC5/DFB_1.c **** * Function Name: DFB_1_SetCoherency
 347:.\Generated_Source\PSoC5/DFB_1.c **** ********************************************************************************
 348:.\Generated_Source\PSoC5/DFB_1.c **** *
 349:.\Generated_Source\PSoC5/DFB_1.c **** * Summary:
 350:.\Generated_Source\PSoC5/DFB_1.c **** *  This function sets the coherency key to low/mid/high byte based on the
 351:.\Generated_Source\PSoC5/DFB_1.c **** *  coherencyKey parameter that is passed to the DFB.
 352:.\Generated_Source\PSoC5/DFB_1.c **** *  Function allows you to select which of the 3 bytes of each of the STAGEA,
 353:.\Generated_Source\PSoC5/DFB_1.c **** *  STAGEB, HOLDA and HOLDB will be used as the Key Coherency Byte. Coherency
 354:.\Generated_Source\PSoC5/DFB_1.c **** *  refers to the HW added to this block to protect against malfunctions of the
 355:.\Generated_Source\PSoC5/DFB_1.c **** *  block in cases where register fields are wider than the bus access, leaving
 356:.\Generated_Source\PSoC5/DFB_1.c **** *  intervals in time when fields are partially written/read (incoherent). The
 357:.\Generated_Source\PSoC5/DFB_1.c **** *  Key Coherency Byte is the SW's way of telling the HW which byte of the field
 358:.\Generated_Source\PSoC5/DFB_1.c **** *  will be written/read last when an update to the field is desired. When the
 359:.\Generated_Source\PSoC5/DFB_1.c **** *  Key byte is written/read, the field is flagged coherent. If any other byte
 360:.\Generated_Source\PSoC5/DFB_1.c **** *  is written or read, the field is flagged incoherent.
 361:.\Generated_Source\PSoC5/DFB_1.c **** *
 362:.\Generated_Source\PSoC5/DFB_1.c **** * Parameters:
 363:.\Generated_Source\PSoC5/DFB_1.c **** *  uint8 coherencyKeyByte: specifies bits in the DFB Coherency Register.
 364:.\Generated_Source\PSoC5/DFB_1.c **** *   Sets the Key Coherency Byte of the Staging A register
 365:.\Generated_Source\PSoC5/DFB_1.c **** *    Define                             Description
 366:.\Generated_Source\PSoC5/DFB_1.c **** *     DFB_1_STGA_KEY_LOW      Key Byte is low byte.
 367:.\Generated_Source\PSoC5/DFB_1.c **** *     DFB_1_STGA_KEY_MID      Key Byte is med byte.
ARM GAS  C:\Users\hoangp\AppData\Local\Temp\ccil7xJT.s 			page 18


 368:.\Generated_Source\PSoC5/DFB_1.c **** *     DFB_1_STGA_KEY_HIGH     Key Byte is high byte.
 369:.\Generated_Source\PSoC5/DFB_1.c **** *   Sets the Key Coherency Byte of the Staging B register
 370:.\Generated_Source\PSoC5/DFB_1.c **** *    Define                             Description
 371:.\Generated_Source\PSoC5/DFB_1.c **** *     DFB_1_STGB_KEY_LOW      Key Byte is low byte.
 372:.\Generated_Source\PSoC5/DFB_1.c **** *     DFB_1_STGB_KEY_MID      Key Byte is med byte.
 373:.\Generated_Source\PSoC5/DFB_1.c **** *     DFB_1_STGB_KEY_HIGH     Key Byte is high byte.
 374:.\Generated_Source\PSoC5/DFB_1.c **** *   Sets the Key Coherency Byte of the Holding A register
 375:.\Generated_Source\PSoC5/DFB_1.c **** *    Define                             Description
 376:.\Generated_Source\PSoC5/DFB_1.c **** *     DFB_1_HOLDA_KEY_LOW     Key Byte is low byte.
 377:.\Generated_Source\PSoC5/DFB_1.c **** *     DFB_1_HOLDA_KEY_MID     Key Byte is med byte.
 378:.\Generated_Source\PSoC5/DFB_1.c **** *     DFB_1_HOLDA_KEY_HIGH    Key Byte is high byte.
 379:.\Generated_Source\PSoC5/DFB_1.c **** *   Sets the Key Coherency Byte of the Holding B register
 380:.\Generated_Source\PSoC5/DFB_1.c **** *    Define                             Description
 381:.\Generated_Source\PSoC5/DFB_1.c **** *     DFB_1_HOLDB_KEY_LOW     Key Byte is low byte.
 382:.\Generated_Source\PSoC5/DFB_1.c **** *     DFB_1_HOLDB_KEY_MID     Key Byte is med byte.
 383:.\Generated_Source\PSoC5/DFB_1.c **** *     DFB_1_HOLDB_KEY_HIGH    Key Byte is high byte.
 384:.\Generated_Source\PSoC5/DFB_1.c **** *
 385:.\Generated_Source\PSoC5/DFB_1.c **** * Return:
 386:.\Generated_Source\PSoC5/DFB_1.c **** *  None.
 387:.\Generated_Source\PSoC5/DFB_1.c **** *
 388:.\Generated_Source\PSoC5/DFB_1.c **** * Note:
 389:.\Generated_Source\PSoC5/DFB_1.c **** *  Default key byte configuration for Staging A and B, and Holding A and B
 390:.\Generated_Source\PSoC5/DFB_1.c **** *  registers is high byte.
 391:.\Generated_Source\PSoC5/DFB_1.c **** *
 392:.\Generated_Source\PSoC5/DFB_1.c **** * Side Effects:
 393:.\Generated_Source\PSoC5/DFB_1.c **** *  Coherency affects data loading using the LoadInputValue() function and
 394:.\Generated_Source\PSoC5/DFB_1.c **** *  data retrieval using the GetOutputValue() function.
 395:.\Generated_Source\PSoC5/DFB_1.c **** *
 396:.\Generated_Source\PSoC5/DFB_1.c **** *******************************************************************************/
 397:.\Generated_Source\PSoC5/DFB_1.c **** void DFB_1_SetCoherency(uint8 coherencyKeyByte) 
 398:.\Generated_Source\PSoC5/DFB_1.c **** {
 599              		.loc 1 398 0
 600              		.cfi_startproc
 601              		@ args = 0, pretend = 0, frame = 8
 602              		@ frame_needed = 1, uses_anonymous_args = 0
 603              		@ link register save eliminated.
 604 0000 80B4     		push	{r7}
 605              	.LCFI21:
 606              		.cfi_def_cfa_offset 4
 607 0002 83B0     		sub	sp, sp, #12
 608              	.LCFI22:
 609              		.cfi_def_cfa_offset 16
 610 0004 00AF     		add	r7, sp, #0
 611              		.cfi_offset 7, -4
 612              	.LCFI23:
 613              		.cfi_def_cfa_register 7
 614 0006 0346     		mov	r3, r0
 615 0008 FB71     		strb	r3, [r7, #7]
 399:.\Generated_Source\PSoC5/DFB_1.c ****     DFB_1_COHER_REG = coherencyKeyByte;
 616              		.loc 1 399 0
 617 000a 4CF2B073 		movw	r3, #:lower16:1073792944
 618 000e C4F20003 		movt	r3, #:upper16:1073792944
 619 0012 FA79     		ldrb	r2, [r7, #7]
 620 0014 1A70     		strb	r2, [r3, #0]
 400:.\Generated_Source\PSoC5/DFB_1.c **** }
 621              		.loc 1 400 0
 622 0016 07F10C07 		add	r7, r7, #12
ARM GAS  C:\Users\hoangp\AppData\Local\Temp\ccil7xJT.s 			page 19


 623 001a BD46     		mov	sp, r7
 624 001c 80BC     		pop	{r7}
 625 001e 7047     		bx	lr
 626              		.cfi_endproc
 627              	.LFE8:
 628              		.size	DFB_1_SetCoherency, .-DFB_1_SetCoherency
 629              		.section	.text.DFB_1_SetDalign,"ax",%progbits
 630              		.align	2
 631              		.global	DFB_1_SetDalign
 632              		.thumb
 633              		.thumb_func
 634              		.type	DFB_1_SetDalign, %function
 635              	DFB_1_SetDalign:
 636              	.LFB9:
 401:.\Generated_Source\PSoC5/DFB_1.c **** 
 402:.\Generated_Source\PSoC5/DFB_1.c **** 
 403:.\Generated_Source\PSoC5/DFB_1.c **** /*******************************************************************************
 404:.\Generated_Source\PSoC5/DFB_1.c **** * Function Name: DFB_1_SetDalign
 405:.\Generated_Source\PSoC5/DFB_1.c **** ********************************************************************************
 406:.\Generated_Source\PSoC5/DFB_1.c **** *
 407:.\Generated_Source\PSoC5/DFB_1.c **** * Summary:
 408:.\Generated_Source\PSoC5/DFB_1.c **** *  This feature allows 9- to 16-bit input and output samples to travel as 16-bit
 409:.\Generated_Source\PSoC5/DFB_1.c **** *  values on the AHB bus. These bits when set high cause an 8-bit shift in the
 410:.\Generated_Source\PSoC5/DFB_1.c **** *  data to all access of the corresponding Staging and Holding registers.
 411:.\Generated_Source\PSoC5/DFB_1.c **** *  Because the DFB datapath is inherently MSB aligned, it is convenient to the
 412:.\Generated_Source\PSoC5/DFB_1.c **** *  System SW to align values on bits 23:8 of the Staging and Holding register
 413:.\Generated_Source\PSoC5/DFB_1.c **** *  to bits 15:0 of the bus. A read of this register produces the last value
 414:.\Generated_Source\PSoC5/DFB_1.c **** *  written to this register.
 415:.\Generated_Source\PSoC5/DFB_1.c **** *
 416:.\Generated_Source\PSoC5/DFB_1.c **** * Parameters:
 417:.\Generated_Source\PSoC5/DFB_1.c **** *  uint8 dalignKeyByte: specifies bits in the DFB Data Alignment Register.
 418:.\Generated_Source\PSoC5/DFB_1.c **** *   Shifts the write left by a byte.
 419:.\Generated_Source\PSoC5/DFB_1.c **** *    Define                               Description
 420:.\Generated_Source\PSoC5/DFB_1.c **** *     DFB_1_STGA_DALIGN_LOW     Writes normally.
 421:.\Generated_Source\PSoC5/DFB_1.c **** *     DFB_1_STGA_DALIGN_HIGH    Writes shifted left by 8-bits.
 422:.\Generated_Source\PSoC5/DFB_1.c **** *   Shifts the write left by a byte.
 423:.\Generated_Source\PSoC5/DFB_1.c **** *    Define                               Description
 424:.\Generated_Source\PSoC5/DFB_1.c **** *     DFB_1_STGB_DALIGN_LOW     Writes normally.
 425:.\Generated_Source\PSoC5/DFB_1.c **** *     DFB_1_STGB_DALIGN_HIGH    Writes shifted left by 8-bits.
 426:.\Generated_Source\PSoC5/DFB_1.c **** *   Shifts the read right by a byte.
 427:.\Generated_Source\PSoC5/DFB_1.c **** *    Define                               Description
 428:.\Generated_Source\PSoC5/DFB_1.c **** *     DFB_1_HOLDA_DALIGN_LOW     Reads normally.
 429:.\Generated_Source\PSoC5/DFB_1.c **** *     DFB_1_HOLDA_DALIGN_HIGH    Reads shifted right by 8-bits.
 430:.\Generated_Source\PSoC5/DFB_1.c **** *   Shifts the read right by a byte.
 431:.\Generated_Source\PSoC5/DFB_1.c **** *    Define                               Description
 432:.\Generated_Source\PSoC5/DFB_1.c **** *     DFB_1_HOLDB_DALIGN_LOW     Reads normally.
 433:.\Generated_Source\PSoC5/DFB_1.c **** *     DFB_1_HOLDB_DALIGN_HIGH    Reads shifted right by 8-bits.
 434:.\Generated_Source\PSoC5/DFB_1.c **** *
 435:.\Generated_Source\PSoC5/DFB_1.c **** * Return:
 436:.\Generated_Source\PSoC5/DFB_1.c **** *  None.
 437:.\Generated_Source\PSoC5/DFB_1.c **** *
 438:.\Generated_Source\PSoC5/DFB_1.c **** *******************************************************************************/
 439:.\Generated_Source\PSoC5/DFB_1.c **** void DFB_1_SetDalign(uint8 dalignKeyByte) 
 440:.\Generated_Source\PSoC5/DFB_1.c **** {
 637              		.loc 1 440 0
 638              		.cfi_startproc
 639              		@ args = 0, pretend = 0, frame = 8
ARM GAS  C:\Users\hoangp\AppData\Local\Temp\ccil7xJT.s 			page 20


 640              		@ frame_needed = 1, uses_anonymous_args = 0
 641              		@ link register save eliminated.
 642 0000 80B4     		push	{r7}
 643              	.LCFI24:
 644              		.cfi_def_cfa_offset 4
 645 0002 83B0     		sub	sp, sp, #12
 646              	.LCFI25:
 647              		.cfi_def_cfa_offset 16
 648 0004 00AF     		add	r7, sp, #0
 649              		.cfi_offset 7, -4
 650              	.LCFI26:
 651              		.cfi_def_cfa_register 7
 652 0006 0346     		mov	r3, r0
 653 0008 FB71     		strb	r3, [r7, #7]
 441:.\Generated_Source\PSoC5/DFB_1.c ****     DFB_1_DALIGN_REG = dalignKeyByte;
 654              		.loc 1 441 0
 655 000a 4CF2B473 		movw	r3, #:lower16:1073792948
 656 000e C4F20003 		movt	r3, #:upper16:1073792948
 657 0012 FA79     		ldrb	r2, [r7, #7]
 658 0014 1A70     		strb	r2, [r3, #0]
 442:.\Generated_Source\PSoC5/DFB_1.c **** }
 659              		.loc 1 442 0
 660 0016 07F10C07 		add	r7, r7, #12
 661 001a BD46     		mov	sp, r7
 662 001c 80BC     		pop	{r7}
 663 001e 7047     		bx	lr
 664              		.cfi_endproc
 665              	.LFE9:
 666              		.size	DFB_1_SetDalign, .-DFB_1_SetDalign
 667              		.section	.text.DFB_1_LoadDataRAMA,"ax",%progbits
 668              		.align	2
 669              		.global	DFB_1_LoadDataRAMA
 670              		.thumb
 671              		.thumb_func
 672              		.type	DFB_1_LoadDataRAMA, %function
 673              	DFB_1_LoadDataRAMA:
 674              	.LFB10:
 443:.\Generated_Source\PSoC5/DFB_1.c **** 
 444:.\Generated_Source\PSoC5/DFB_1.c **** 
 445:.\Generated_Source\PSoC5/DFB_1.c **** /*******************************************************************************
 446:.\Generated_Source\PSoC5/DFB_1.c **** * Function Name: DFB_1_LoadDataRAMA
 447:.\Generated_Source\PSoC5/DFB_1.c **** ********************************************************************************
 448:.\Generated_Source\PSoC5/DFB_1.c **** *
 449:.\Generated_Source\PSoC5/DFB_1.c **** * Summary:
 450:.\Generated_Source\PSoC5/DFB_1.c **** *  This function loads data to DFB RAM A memory.
 451:.\Generated_Source\PSoC5/DFB_1.c **** *
 452:.\Generated_Source\PSoC5/DFB_1.c **** * Parameters:
 453:.\Generated_Source\PSoC5/DFB_1.c **** *  const int32 ptr[]: pointer on data source for load;
 454:.\Generated_Source\PSoC5/DFB_1.c **** *  uint32     addr[]: start address for loading the data in DFB RAM A;
 455:.\Generated_Source\PSoC5/DFB_1.c **** *  uint8        size: number of data words to load.
 456:.\Generated_Source\PSoC5/DFB_1.c **** *
 457:.\Generated_Source\PSoC5/DFB_1.c **** * Return:
 458:.\Generated_Source\PSoC5/DFB_1.c **** *  DFB_1_SUCCESS - Loading data is successful.
 459:.\Generated_Source\PSoC5/DFB_1.c **** *  DFB_1_ADDRESS_OUT_OF_RANGE - error code, indicates that the
 460:.\Generated_Source\PSoC5/DFB_1.c **** *  address is out of range.
 461:.\Generated_Source\PSoC5/DFB_1.c **** *  DFB_1_DATA_OUT_OF_RANGE - error code, indicates a data overflow
 462:.\Generated_Source\PSoC5/DFB_1.c **** *  error.
ARM GAS  C:\Users\hoangp\AppData\Local\Temp\ccil7xJT.s 			page 21


 463:.\Generated_Source\PSoC5/DFB_1.c **** *
 464:.\Generated_Source\PSoC5/DFB_1.c **** * Side Effects:
 465:.\Generated_Source\PSoC5/DFB_1.c **** *  This API doesn't stop the DFB if it is already started. Hence, recommended
 466:.\Generated_Source\PSoC5/DFB_1.c **** *  method is to call Init() API, then LoadDataRAMA() API and then Enable() API.
 467:.\Generated_Source\PSoC5/DFB_1.c **** *
 468:.\Generated_Source\PSoC5/DFB_1.c **** *******************************************************************************/
 469:.\Generated_Source\PSoC5/DFB_1.c **** uint8 DFB_1_LoadDataRAMA(const int32 ptr[], uint32 addr[], uint8 size)
 470:.\Generated_Source\PSoC5/DFB_1.c ****      
 471:.\Generated_Source\PSoC5/DFB_1.c **** {
 675              		.loc 1 471 0
 676              		.cfi_startproc
 677              		@ args = 0, pretend = 0, frame = 24
 678              		@ frame_needed = 1, uses_anonymous_args = 0
 679              		@ link register save eliminated.
 680 0000 80B4     		push	{r7}
 681              	.LCFI27:
 682              		.cfi_def_cfa_offset 4
 683 0002 87B0     		sub	sp, sp, #28
 684              	.LCFI28:
 685              		.cfi_def_cfa_offset 32
 686 0004 00AF     		add	r7, sp, #0
 687              		.cfi_offset 7, -4
 688              	.LCFI29:
 689              		.cfi_def_cfa_register 7
 690 0006 F860     		str	r0, [r7, #12]
 691 0008 B960     		str	r1, [r7, #8]
 692 000a 1346     		mov	r3, r2
 693 000c FB71     		strb	r3, [r7, #7]
 472:.\Generated_Source\PSoC5/DFB_1.c ****     uint8 result = DFB_1_SUCCESS;
 694              		.loc 1 472 0
 695 000e 4FF00003 		mov	r3, #0
 696 0012 BB75     		strb	r3, [r7, #22]
 473:.\Generated_Source\PSoC5/DFB_1.c ****     uint8 i = 0u;
 697              		.loc 1 473 0
 698 0014 4FF00003 		mov	r3, #0
 699 0018 FB75     		strb	r3, [r7, #23]
 474:.\Generated_Source\PSoC5/DFB_1.c **** 
 475:.\Generated_Source\PSoC5/DFB_1.c ****     if (((& addr[0u]) < DFB_1_DA_RAM_PTR) || ((& addr[0u]) > DFB_1_DA_RAM_LAST_ELEM_PTR))
 700              		.loc 1 475 0
 701 001a BA68     		ldr	r2, [r7, #8]
 702 001c 4BF6FF73 		movw	r3, #:lower16:1073790975
 703 0020 C4F20003 		movt	r3, #:upper16:1073790975
 704 0024 9A42     		cmp	r2, r3
 705 0026 06D9     		bls	.L27
 706 0028 BA68     		ldr	r2, [r7, #8]
 707 002a 4CF2FC13 		movw	r3, #:lower16:1073791484
 708 002e C4F20003 		movt	r3, #:upper16:1073791484
 709 0032 9A42     		cmp	r2, r3
 710 0034 03D9     		bls	.L28
 711              	.L27:
 476:.\Generated_Source\PSoC5/DFB_1.c ****     {
 477:.\Generated_Source\PSoC5/DFB_1.c ****         result = DFB_1_ADDRESS_OUT_OF_RANGE;
 712              		.loc 1 477 0
 713 0036 4FF0FF33 		mov	r3, #-1
 714 003a BB75     		strb	r3, [r7, #22]
 715              		.loc 1 475 0
 716 003c 47E0     		b	.L29
ARM GAS  C:\Users\hoangp\AppData\Local\Temp\ccil7xJT.s 			page 22


 717              	.L28:
 478:.\Generated_Source\PSoC5/DFB_1.c ****     }
 479:.\Generated_Source\PSoC5/DFB_1.c ****     else if ((size == 0u) || ((& addr[size - 1u]) > DFB_1_DA_RAM_LAST_ELEM_PTR))
 718              		.loc 1 479 0
 719 003e FB79     		ldrb	r3, [r7, #7]	@ zero_extendqisi2
 720 0040 002B     		cmp	r3, #0
 721 0042 0DD0     		beq	.L30
 722 0044 FB79     		ldrb	r3, [r7, #7]	@ zero_extendqisi2
 723 0046 03F1FF33 		add	r3, r3, #-1
 724 004a 4FEA8302 		lsl	r2, r3, #2
 725 004e BB68     		ldr	r3, [r7, #8]
 726 0050 1344     		add	r3, r2, r3
 727 0052 1A46     		mov	r2, r3
 728 0054 4CF2FC13 		movw	r3, #:lower16:1073791484
 729 0058 C4F20003 		movt	r3, #:upper16:1073791484
 730 005c 9A42     		cmp	r2, r3
 731 005e 03D9     		bls	.L31
 732              	.L30:
 480:.\Generated_Source\PSoC5/DFB_1.c ****     {
 481:.\Generated_Source\PSoC5/DFB_1.c ****         result = DFB_1_DATA_OUT_OF_RANGE;
 733              		.loc 1 481 0
 734 0060 6FF00103 		mvn	r3, #1
 735 0064 BB75     		strb	r3, [r7, #22]
 736              		.loc 1 479 0
 737 0066 32E0     		b	.L29
 738              	.L31:
 482:.\Generated_Source\PSoC5/DFB_1.c ****     }
 483:.\Generated_Source\PSoC5/DFB_1.c ****     else
 484:.\Generated_Source\PSoC5/DFB_1.c ****     {
 485:.\Generated_Source\PSoC5/DFB_1.c ****         /* Puts DFB RAM on the bus */
 486:.\Generated_Source\PSoC5/DFB_1.c ****         DFB_1_RAM_DIR_REG |= DFB_1_RAM_DPA_DIR;
 739              		.loc 1 486 0
 740 0068 4CF28C73 		movw	r3, #:lower16:1073792908
 741 006c C4F20003 		movt	r3, #:upper16:1073792908
 742 0070 4CF28C72 		movw	r2, #:lower16:1073792908
 743 0074 C4F20002 		movt	r2, #:upper16:1073792908
 744 0078 1278     		ldrb	r2, [r2, #0]
 745 007a D2B2     		uxtb	r2, r2
 746 007c 42F01002 		orr	r2, r2, #16
 747 0080 D2B2     		uxtb	r2, r2
 748 0082 1A70     		strb	r2, [r3, #0]
 487:.\Generated_Source\PSoC5/DFB_1.c ****         while (size > 0u)
 749              		.loc 1 487 0
 750 0084 13E0     		b	.L32
 751              	.L33:
 488:.\Generated_Source\PSoC5/DFB_1.c ****         {
 489:.\Generated_Source\PSoC5/DFB_1.c ****             CY_SET_REG32((reg32 *) (& addr[i]), (uint32) ptr[i]);
 752              		.loc 1 489 0
 753 0086 BA68     		ldr	r2, [r7, #8]
 754 0088 FB7D     		ldrb	r3, [r7, #23]	@ zero_extendqisi2
 755 008a 4FEA8303 		lsl	r3, r3, #2
 756 008e 1344     		add	r3, r2, r3
 757 0090 FA7D     		ldrb	r2, [r7, #23]	@ zero_extendqisi2
 758 0092 4FEA8201 		lsl	r1, r2, #2
 759 0096 FA68     		ldr	r2, [r7, #12]
 760 0098 0A44     		add	r2, r1, r2
 761 009a 1268     		ldr	r2, [r2, #0]
ARM GAS  C:\Users\hoangp\AppData\Local\Temp\ccil7xJT.s 			page 23


 762 009c 1A60     		str	r2, [r3, #0]
 490:.\Generated_Source\PSoC5/DFB_1.c ****             size--;            
 763              		.loc 1 490 0
 764 009e FB79     		ldrb	r3, [r7, #7]
 765 00a0 03F1FF33 		add	r3, r3, #-1
 766 00a4 FB71     		strb	r3, [r7, #7]
 491:.\Generated_Source\PSoC5/DFB_1.c ****             i++;
 767              		.loc 1 491 0
 768 00a6 FB7D     		ldrb	r3, [r7, #23]
 769 00a8 03F10103 		add	r3, r3, #1
 770 00ac FB75     		strb	r3, [r7, #23]
 771              	.L32:
 772              		.loc 1 487 0
 773 00ae FB79     		ldrb	r3, [r7, #7]	@ zero_extendqisi2
 774 00b0 002B     		cmp	r3, #0
 775 00b2 E8D1     		bne	.L33
 492:.\Generated_Source\PSoC5/DFB_1.c ****         }
 493:.\Generated_Source\PSoC5/DFB_1.c ****         /* Takes DFB RAM off the bus */
 494:.\Generated_Source\PSoC5/DFB_1.c ****         DFB_1_RAM_DIR_REG &= (uint8) (~DFB_1_RAM_DPA_DIR);
 776              		.loc 1 494 0
 777 00b4 4CF28C73 		movw	r3, #:lower16:1073792908
 778 00b8 C4F20003 		movt	r3, #:upper16:1073792908
 779 00bc 4CF28C72 		movw	r2, #:lower16:1073792908
 780 00c0 C4F20002 		movt	r2, #:upper16:1073792908
 781 00c4 1278     		ldrb	r2, [r2, #0]
 782 00c6 D2B2     		uxtb	r2, r2
 783 00c8 02F0EF02 		and	r2, r2, #239
 784 00cc 1A70     		strb	r2, [r3, #0]
 785              	.L29:
 495:.\Generated_Source\PSoC5/DFB_1.c ****     }
 496:.\Generated_Source\PSoC5/DFB_1.c **** 
 497:.\Generated_Source\PSoC5/DFB_1.c ****     return (result);
 786              		.loc 1 497 0
 787 00ce BB7D     		ldrb	r3, [r7, #22]	@ zero_extendqisi2
 498:.\Generated_Source\PSoC5/DFB_1.c **** }
 788              		.loc 1 498 0
 789 00d0 1846     		mov	r0, r3
 790 00d2 07F11C07 		add	r7, r7, #28
 791 00d6 BD46     		mov	sp, r7
 792 00d8 80BC     		pop	{r7}
 793 00da 7047     		bx	lr
 794              		.cfi_endproc
 795              	.LFE10:
 796              		.size	DFB_1_LoadDataRAMA, .-DFB_1_LoadDataRAMA
 797              		.section	.text.DFB_1_LoadDataRAMB,"ax",%progbits
 798              		.align	2
 799              		.global	DFB_1_LoadDataRAMB
 800              		.thumb
 801              		.thumb_func
 802              		.type	DFB_1_LoadDataRAMB, %function
 803              	DFB_1_LoadDataRAMB:
 804              	.LFB11:
 499:.\Generated_Source\PSoC5/DFB_1.c **** 
 500:.\Generated_Source\PSoC5/DFB_1.c **** 
 501:.\Generated_Source\PSoC5/DFB_1.c **** /*******************************************************************************
 502:.\Generated_Source\PSoC5/DFB_1.c **** * Function Name: DFB_1_LoadDataRAMB
 503:.\Generated_Source\PSoC5/DFB_1.c **** ********************************************************************************
ARM GAS  C:\Users\hoangp\AppData\Local\Temp\ccil7xJT.s 			page 24


 504:.\Generated_Source\PSoC5/DFB_1.c **** *
 505:.\Generated_Source\PSoC5/DFB_1.c **** * Summary:
 506:.\Generated_Source\PSoC5/DFB_1.c **** *  This function loads data to DFB RAM B memory.
 507:.\Generated_Source\PSoC5/DFB_1.c **** *
 508:.\Generated_Source\PSoC5/DFB_1.c **** * Parameters:
 509:.\Generated_Source\PSoC5/DFB_1.c **** *  const int32 ptr[]: pointer on data source for load;
 510:.\Generated_Source\PSoC5/DFB_1.c **** *  uint32     addr[]: start addres for loading the data in DFB RAM B;
 511:.\Generated_Source\PSoC5/DFB_1.c **** *  uint8        size: number of data words to load.
 512:.\Generated_Source\PSoC5/DFB_1.c **** *
 513:.\Generated_Source\PSoC5/DFB_1.c **** * Return:
 514:.\Generated_Source\PSoC5/DFB_1.c **** *  DFB_1_SUCCESS - Loading data is successful.
 515:.\Generated_Source\PSoC5/DFB_1.c **** *  DFB_1_ADDRESS_OUT_OF_RANGE - error code, indicates that the
 516:.\Generated_Source\PSoC5/DFB_1.c **** *  address is out of range.
 517:.\Generated_Source\PSoC5/DFB_1.c **** *  DFB_1_DATA_OUT_OF_RANGE - error code, indicates data overflow
 518:.\Generated_Source\PSoC5/DFB_1.c **** *  error.
 519:.\Generated_Source\PSoC5/DFB_1.c **** *
 520:.\Generated_Source\PSoC5/DFB_1.c **** * Side Effects:
 521:.\Generated_Source\PSoC5/DFB_1.c **** *  This API doesn't stop the DFB if it is already started. Hence, recommended
 522:.\Generated_Source\PSoC5/DFB_1.c **** *  method is to call Init() API, then LoadDataRAMB() API and then Enable() API.
 523:.\Generated_Source\PSoC5/DFB_1.c **** *
 524:.\Generated_Source\PSoC5/DFB_1.c **** *******************************************************************************/
 525:.\Generated_Source\PSoC5/DFB_1.c **** uint8 DFB_1_LoadDataRAMB(const int32 ptr[], uint32 addr[], uint8 size)
 526:.\Generated_Source\PSoC5/DFB_1.c ****      
 527:.\Generated_Source\PSoC5/DFB_1.c **** {
 805              		.loc 1 527 0
 806              		.cfi_startproc
 807              		@ args = 0, pretend = 0, frame = 24
 808              		@ frame_needed = 1, uses_anonymous_args = 0
 809              		@ link register save eliminated.
 810 0000 80B4     		push	{r7}
 811              	.LCFI30:
 812              		.cfi_def_cfa_offset 4
 813 0002 87B0     		sub	sp, sp, #28
 814              	.LCFI31:
 815              		.cfi_def_cfa_offset 32
 816 0004 00AF     		add	r7, sp, #0
 817              		.cfi_offset 7, -4
 818              	.LCFI32:
 819              		.cfi_def_cfa_register 7
 820 0006 F860     		str	r0, [r7, #12]
 821 0008 B960     		str	r1, [r7, #8]
 822 000a 1346     		mov	r3, r2
 823 000c FB71     		strb	r3, [r7, #7]
 528:.\Generated_Source\PSoC5/DFB_1.c ****     uint8 result = DFB_1_SUCCESS;
 824              		.loc 1 528 0
 825 000e 4FF00003 		mov	r3, #0
 826 0012 BB75     		strb	r3, [r7, #22]
 529:.\Generated_Source\PSoC5/DFB_1.c ****     uint8 i = 0u;
 827              		.loc 1 529 0
 828 0014 4FF00003 		mov	r3, #0
 829 0018 FB75     		strb	r3, [r7, #23]
 530:.\Generated_Source\PSoC5/DFB_1.c **** 
 531:.\Generated_Source\PSoC5/DFB_1.c ****     if (((& addr[0u]) < DFB_1_DB_RAM_PTR) || ((& addr[0u]) > DFB_1_DB_RAM_LAST_ELEM_PTR))
 830              		.loc 1 531 0
 831 001a BA68     		ldr	r2, [r7, #8]
 832 001c 4CF2FF13 		movw	r3, #:lower16:1073791487
 833 0020 C4F20003 		movt	r3, #:upper16:1073791487
ARM GAS  C:\Users\hoangp\AppData\Local\Temp\ccil7xJT.s 			page 25


 834 0024 9A42     		cmp	r2, r3
 835 0026 06D9     		bls	.L36
 836 0028 BA68     		ldr	r2, [r7, #8]
 837 002a 4CF2FC33 		movw	r3, #:lower16:1073791996
 838 002e C4F20003 		movt	r3, #:upper16:1073791996
 839 0032 9A42     		cmp	r2, r3
 840 0034 03D9     		bls	.L37
 841              	.L36:
 532:.\Generated_Source\PSoC5/DFB_1.c ****     {
 533:.\Generated_Source\PSoC5/DFB_1.c ****         result = DFB_1_ADDRESS_OUT_OF_RANGE;
 842              		.loc 1 533 0
 843 0036 4FF0FF33 		mov	r3, #-1
 844 003a BB75     		strb	r3, [r7, #22]
 845              		.loc 1 531 0
 846 003c 47E0     		b	.L38
 847              	.L37:
 534:.\Generated_Source\PSoC5/DFB_1.c ****     }
 535:.\Generated_Source\PSoC5/DFB_1.c ****     else if ((size == 0u) || ((& addr[size - 1u]) > DFB_1_DB_RAM_LAST_ELEM_PTR))
 848              		.loc 1 535 0
 849 003e FB79     		ldrb	r3, [r7, #7]	@ zero_extendqisi2
 850 0040 002B     		cmp	r3, #0
 851 0042 0DD0     		beq	.L39
 852 0044 FB79     		ldrb	r3, [r7, #7]	@ zero_extendqisi2
 853 0046 03F1FF33 		add	r3, r3, #-1
 854 004a 4FEA8302 		lsl	r2, r3, #2
 855 004e BB68     		ldr	r3, [r7, #8]
 856 0050 1344     		add	r3, r2, r3
 857 0052 1A46     		mov	r2, r3
 858 0054 4CF2FC33 		movw	r3, #:lower16:1073791996
 859 0058 C4F20003 		movt	r3, #:upper16:1073791996
 860 005c 9A42     		cmp	r2, r3
 861 005e 03D9     		bls	.L40
 862              	.L39:
 536:.\Generated_Source\PSoC5/DFB_1.c ****     {
 537:.\Generated_Source\PSoC5/DFB_1.c ****         result = DFB_1_DATA_OUT_OF_RANGE;
 863              		.loc 1 537 0
 864 0060 6FF00103 		mvn	r3, #1
 865 0064 BB75     		strb	r3, [r7, #22]
 866              		.loc 1 535 0
 867 0066 32E0     		b	.L38
 868              	.L40:
 538:.\Generated_Source\PSoC5/DFB_1.c ****     }
 539:.\Generated_Source\PSoC5/DFB_1.c ****     else
 540:.\Generated_Source\PSoC5/DFB_1.c ****     {
 541:.\Generated_Source\PSoC5/DFB_1.c ****         /* Puts DFB RAM on the bus */
 542:.\Generated_Source\PSoC5/DFB_1.c ****         DFB_1_RAM_DIR_REG |= DFB_1_RAM_DPB_DIR;
 869              		.loc 1 542 0
 870 0068 4CF28C73 		movw	r3, #:lower16:1073792908
 871 006c C4F20003 		movt	r3, #:upper16:1073792908
 872 0070 4CF28C72 		movw	r2, #:lower16:1073792908
 873 0074 C4F20002 		movt	r2, #:upper16:1073792908
 874 0078 1278     		ldrb	r2, [r2, #0]
 875 007a D2B2     		uxtb	r2, r2
 876 007c 42F02002 		orr	r2, r2, #32
 877 0080 D2B2     		uxtb	r2, r2
 878 0082 1A70     		strb	r2, [r3, #0]
 543:.\Generated_Source\PSoC5/DFB_1.c ****         while (size > 0u)
ARM GAS  C:\Users\hoangp\AppData\Local\Temp\ccil7xJT.s 			page 26


 879              		.loc 1 543 0
 880 0084 13E0     		b	.L41
 881              	.L42:
 544:.\Generated_Source\PSoC5/DFB_1.c ****         {
 545:.\Generated_Source\PSoC5/DFB_1.c ****             CY_SET_REG32((reg32 *) (& addr[i]), (uint32) ptr[i]);
 882              		.loc 1 545 0
 883 0086 BA68     		ldr	r2, [r7, #8]
 884 0088 FB7D     		ldrb	r3, [r7, #23]	@ zero_extendqisi2
 885 008a 4FEA8303 		lsl	r3, r3, #2
 886 008e 1344     		add	r3, r2, r3
 887 0090 FA7D     		ldrb	r2, [r7, #23]	@ zero_extendqisi2
 888 0092 4FEA8201 		lsl	r1, r2, #2
 889 0096 FA68     		ldr	r2, [r7, #12]
 890 0098 0A44     		add	r2, r1, r2
 891 009a 1268     		ldr	r2, [r2, #0]
 892 009c 1A60     		str	r2, [r3, #0]
 546:.\Generated_Source\PSoC5/DFB_1.c ****             size--;
 893              		.loc 1 546 0
 894 009e FB79     		ldrb	r3, [r7, #7]
 895 00a0 03F1FF33 		add	r3, r3, #-1
 896 00a4 FB71     		strb	r3, [r7, #7]
 547:.\Generated_Source\PSoC5/DFB_1.c ****             i++;
 897              		.loc 1 547 0
 898 00a6 FB7D     		ldrb	r3, [r7, #23]
 899 00a8 03F10103 		add	r3, r3, #1
 900 00ac FB75     		strb	r3, [r7, #23]
 901              	.L41:
 902              		.loc 1 543 0
 903 00ae FB79     		ldrb	r3, [r7, #7]	@ zero_extendqisi2
 904 00b0 002B     		cmp	r3, #0
 905 00b2 E8D1     		bne	.L42
 548:.\Generated_Source\PSoC5/DFB_1.c ****         }
 549:.\Generated_Source\PSoC5/DFB_1.c ****         /* Takes DFB RAM off the bus */
 550:.\Generated_Source\PSoC5/DFB_1.c ****         DFB_1_RAM_DIR_REG &= (uint8) (~DFB_1_RAM_DPB_DIR);
 906              		.loc 1 550 0
 907 00b4 4CF28C73 		movw	r3, #:lower16:1073792908
 908 00b8 C4F20003 		movt	r3, #:upper16:1073792908
 909 00bc 4CF28C72 		movw	r2, #:lower16:1073792908
 910 00c0 C4F20002 		movt	r2, #:upper16:1073792908
 911 00c4 1278     		ldrb	r2, [r2, #0]
 912 00c6 D2B2     		uxtb	r2, r2
 913 00c8 02F0DF02 		and	r2, r2, #223
 914 00cc 1A70     		strb	r2, [r3, #0]
 915              	.L38:
 551:.\Generated_Source\PSoC5/DFB_1.c ****     }
 552:.\Generated_Source\PSoC5/DFB_1.c **** 
 553:.\Generated_Source\PSoC5/DFB_1.c ****     return (result);
 916              		.loc 1 553 0
 917 00ce BB7D     		ldrb	r3, [r7, #22]	@ zero_extendqisi2
 554:.\Generated_Source\PSoC5/DFB_1.c **** }
 918              		.loc 1 554 0
 919 00d0 1846     		mov	r0, r3
 920 00d2 07F11C07 		add	r7, r7, #28
 921 00d6 BD46     		mov	sp, r7
 922 00d8 80BC     		pop	{r7}
 923 00da 7047     		bx	lr
 924              		.cfi_endproc
ARM GAS  C:\Users\hoangp\AppData\Local\Temp\ccil7xJT.s 			page 27


 925              	.LFE11:
 926              		.size	DFB_1_LoadDataRAMB, .-DFB_1_LoadDataRAMB
 927              		.section	.text.DFB_1_LoadInputValue,"ax",%progbits
 928              		.align	2
 929              		.global	DFB_1_LoadInputValue
 930              		.thumb
 931              		.thumb_func
 932              		.type	DFB_1_LoadInputValue, %function
 933              	DFB_1_LoadInputValue:
 934              	.LFB12:
 555:.\Generated_Source\PSoC5/DFB_1.c **** 
 556:.\Generated_Source\PSoC5/DFB_1.c **** 
 557:.\Generated_Source\PSoC5/DFB_1.c **** /*******************************************************************************
 558:.\Generated_Source\PSoC5/DFB_1.c **** * Function Name: DFB_1_LoadInputValue
 559:.\Generated_Source\PSoC5/DFB_1.c **** ********************************************************************************
 560:.\Generated_Source\PSoC5/DFB_1.c **** *
 561:.\Generated_Source\PSoC5/DFB_1.c **** * Summary:
 562:.\Generated_Source\PSoC5/DFB_1.c **** *  This function loads input value in selected channel.
 563:.\Generated_Source\PSoC5/DFB_1.c **** *
 564:.\Generated_Source\PSoC5/DFB_1.c **** * Parameters:
 565:.\Generated_Source\PSoC5/DFB_1.c **** *  channel: Use either DFB_1_CHANNEL_A (1) or
 566:.\Generated_Source\PSoC5/DFB_1.c **** *           DFB_1_CHANNEL_B (0) asarguments to the function;
 567:.\Generated_Source\PSoC5/DFB_1.c **** *  sample: The 24-bit, right justified input sample.
 568:.\Generated_Source\PSoC5/DFB_1.c **** *
 569:.\Generated_Source\PSoC5/DFB_1.c **** * Return:
 570:.\Generated_Source\PSoC5/DFB_1.c **** *  None.
 571:.\Generated_Source\PSoC5/DFB_1.c **** *
 572:.\Generated_Source\PSoC5/DFB_1.c **** * Note:
 573:.\Generated_Source\PSoC5/DFB_1.c **** *  The write order is important. When the high byte is loaded, the DFB sets
 574:.\Generated_Source\PSoC5/DFB_1.c **** *  the input ready bit. Pay attention to byte order if coherency or data
 575:.\Generated_Source\PSoC5/DFB_1.c **** *  alignment is changed.
 576:.\Generated_Source\PSoC5/DFB_1.c **** *
 577:.\Generated_Source\PSoC5/DFB_1.c **** *******************************************************************************/
 578:.\Generated_Source\PSoC5/DFB_1.c **** void DFB_1_LoadInputValue(uint8 channel, int32 sample) 
 579:.\Generated_Source\PSoC5/DFB_1.c **** {
 935              		.loc 1 579 0
 936              		.cfi_startproc
 937              		@ args = 0, pretend = 0, frame = 16
 938              		@ frame_needed = 1, uses_anonymous_args = 0
 939              		@ link register save eliminated.
 940 0000 80B4     		push	{r7}
 941              	.LCFI33:
 942              		.cfi_def_cfa_offset 4
 943 0002 85B0     		sub	sp, sp, #20
 944              	.LCFI34:
 945              		.cfi_def_cfa_offset 24
 946 0004 00AF     		add	r7, sp, #0
 947              		.cfi_offset 7, -4
 948              	.LCFI35:
 949              		.cfi_def_cfa_register 7
 950 0006 0346     		mov	r3, r0
 951 0008 3960     		str	r1, [r7, #0]
 952 000a FB71     		strb	r3, [r7, #7]
 580:.\Generated_Source\PSoC5/DFB_1.c ****     uint32 value;
 581:.\Generated_Source\PSoC5/DFB_1.c **** 
 582:.\Generated_Source\PSoC5/DFB_1.c ****     value = (uint32) sample;
 953              		.loc 1 582 0
ARM GAS  C:\Users\hoangp\AppData\Local\Temp\ccil7xJT.s 			page 28


 954 000c 3B68     		ldr	r3, [r7, #0]
 955 000e FB60     		str	r3, [r7, #12]
 583:.\Generated_Source\PSoC5/DFB_1.c **** 
 584:.\Generated_Source\PSoC5/DFB_1.c ****     /* Writes the STAGE-"H" reg last as it signals a complete wrote to the DFB.*/
 585:.\Generated_Source\PSoC5/DFB_1.c ****     if (channel == DFB_1_CHANNEL_A)
 956              		.loc 1 585 0
 957 0010 FB79     		ldrb	r3, [r7, #7]	@ zero_extendqisi2
 958 0012 012B     		cmp	r3, #1
 959 0014 19D1     		bne	.L45
 586:.\Generated_Source\PSoC5/DFB_1.c ****     {
 587:.\Generated_Source\PSoC5/DFB_1.c ****         DFB_1_STAGEA_REG  = (uint8) value;
 960              		.loc 1 587 0
 961 0016 4CF2A073 		movw	r3, #:lower16:1073792928
 962 001a C4F20003 		movt	r3, #:upper16:1073792928
 963 001e FA68     		ldr	r2, [r7, #12]
 964 0020 D2B2     		uxtb	r2, r2
 965 0022 1A70     		strb	r2, [r3, #0]
 588:.\Generated_Source\PSoC5/DFB_1.c ****         DFB_1_STAGEAM_REG = (uint8) (value >> 8u);
 966              		.loc 1 588 0
 967 0024 4CF2A173 		movw	r3, #:lower16:1073792929
 968 0028 C4F20003 		movt	r3, #:upper16:1073792929
 969 002c FA68     		ldr	r2, [r7, #12]
 970 002e 4FEA1222 		lsr	r2, r2, #8
 971 0032 D2B2     		uxtb	r2, r2
 972 0034 1A70     		strb	r2, [r3, #0]
 589:.\Generated_Source\PSoC5/DFB_1.c ****         DFB_1_STAGEAH_REG = (uint8) (value >> 16u);
 973              		.loc 1 589 0
 974 0036 4CF2A273 		movw	r3, #:lower16:1073792930
 975 003a C4F20003 		movt	r3, #:upper16:1073792930
 976 003e FA68     		ldr	r2, [r7, #12]
 977 0040 4FEA1242 		lsr	r2, r2, #16
 978 0044 D2B2     		uxtb	r2, r2
 979 0046 1A70     		strb	r2, [r3, #0]
 980 0048 1BE0     		b	.L47
 981              	.L45:
 590:.\Generated_Source\PSoC5/DFB_1.c ****     }
 591:.\Generated_Source\PSoC5/DFB_1.c ****     else if (channel == DFB_1_CHANNEL_B)
 982              		.loc 1 591 0
 983 004a FB79     		ldrb	r3, [r7, #7]	@ zero_extendqisi2
 984 004c 002B     		cmp	r3, #0
 985 004e 18D1     		bne	.L47
 592:.\Generated_Source\PSoC5/DFB_1.c ****     {
 593:.\Generated_Source\PSoC5/DFB_1.c ****         DFB_1_STAGEB_REG  = (uint8) value;
 986              		.loc 1 593 0
 987 0050 4CF2A473 		movw	r3, #:lower16:1073792932
 988 0054 C4F20003 		movt	r3, #:upper16:1073792932
 989 0058 FA68     		ldr	r2, [r7, #12]
 990 005a D2B2     		uxtb	r2, r2
 991 005c 1A70     		strb	r2, [r3, #0]
 594:.\Generated_Source\PSoC5/DFB_1.c ****         DFB_1_STAGEBM_REG = (uint8) (value >> 8u);
 992              		.loc 1 594 0
 993 005e 4CF2A573 		movw	r3, #:lower16:1073792933
 994 0062 C4F20003 		movt	r3, #:upper16:1073792933
 995 0066 FA68     		ldr	r2, [r7, #12]
 996 0068 4FEA1222 		lsr	r2, r2, #8
 997 006c D2B2     		uxtb	r2, r2
 998 006e 1A70     		strb	r2, [r3, #0]
ARM GAS  C:\Users\hoangp\AppData\Local\Temp\ccil7xJT.s 			page 29


 595:.\Generated_Source\PSoC5/DFB_1.c ****         DFB_1_STAGEBH_REG = (uint8) (value >> 16u);
 999              		.loc 1 595 0
 1000 0070 4CF2A673 		movw	r3, #:lower16:1073792934
 1001 0074 C4F20003 		movt	r3, #:upper16:1073792934
 1002 0078 FA68     		ldr	r2, [r7, #12]
 1003 007a 4FEA1242 		lsr	r2, r2, #16
 1004 007e D2B2     		uxtb	r2, r2
 1005 0080 1A70     		strb	r2, [r3, #0]
 1006              	.L47:
 596:.\Generated_Source\PSoC5/DFB_1.c ****     }
 597:.\Generated_Source\PSoC5/DFB_1.c ****     else
 598:.\Generated_Source\PSoC5/DFB_1.c ****     {
 599:.\Generated_Source\PSoC5/DFB_1.c ****         /* No value is loaded on bad channel input */
 600:.\Generated_Source\PSoC5/DFB_1.c ****     }
 601:.\Generated_Source\PSoC5/DFB_1.c **** }
 1007              		.loc 1 601 0
 1008 0082 07F11407 		add	r7, r7, #20
 1009 0086 BD46     		mov	sp, r7
 1010 0088 80BC     		pop	{r7}
 1011 008a 7047     		bx	lr
 1012              		.cfi_endproc
 1013              	.LFE12:
 1014              		.size	DFB_1_LoadInputValue, .-DFB_1_LoadInputValue
 1015              		.section	.text.DFB_1_GetOutputValue,"ax",%progbits
 1016              		.align	2
 1017              		.global	DFB_1_GetOutputValue
 1018              		.thumb
 1019              		.thumb_func
 1020              		.type	DFB_1_GetOutputValue, %function
 1021              	DFB_1_GetOutputValue:
 1022              	.LFB13:
 602:.\Generated_Source\PSoC5/DFB_1.c **** 
 603:.\Generated_Source\PSoC5/DFB_1.c **** 
 604:.\Generated_Source\PSoC5/DFB_1.c **** /*******************************************************************************
 605:.\Generated_Source\PSoC5/DFB_1.c **** * Function Name: DFB_1_GetOutputValue
 606:.\Generated_Source\PSoC5/DFB_1.c **** ********************************************************************************
 607:.\Generated_Source\PSoC5/DFB_1.c **** *
 608:.\Generated_Source\PSoC5/DFB_1.c **** * Summary:
 609:.\Generated_Source\PSoC5/DFB_1.c **** *  This function gets the value from one of the DFB Output Holding Registers.
 610:.\Generated_Source\PSoC5/DFB_1.c **** *
 611:.\Generated_Source\PSoC5/DFB_1.c **** * Parameters:
 612:.\Generated_Source\PSoC5/DFB_1.c **** *  channel: Use either DFB_1_CHANNEL_A (1) or
 613:.\Generated_Source\PSoC5/DFB_1.c **** *           DFB_1_CHANNEL_B (0) as arguments to the function.
 614:.\Generated_Source\PSoC5/DFB_1.c **** *
 615:.\Generated_Source\PSoC5/DFB_1.c **** * Return:
 616:.\Generated_Source\PSoC5/DFB_1.c **** *  The current output value in the chosen channel's holding register. This is
 617:.\Generated_Source\PSoC5/DFB_1.c **** *  a 24-bit number packed into the least-significant 3 bytes of the output word
 618:.\Generated_Source\PSoC5/DFB_1.c **** *  or 0xFF000000 for invalid channel numbers
 619:.\Generated_Source\PSoC5/DFB_1.c **** *
 620:.\Generated_Source\PSoC5/DFB_1.c **** * Note:
 621:.\Generated_Source\PSoC5/DFB_1.c **** *  Because of the architecture of the DFB, any value read from the Holding A or
 622:.\Generated_Source\PSoC5/DFB_1.c **** *  B registers will be MSB aligned unless shifted otherwise by the Datapath
 623:.\Generated_Source\PSoC5/DFB_1.c **** *  shifter. Pay attention to byte order if coherency or data alignment is
 624:.\Generated_Source\PSoC5/DFB_1.c **** *  changed.
 625:.\Generated_Source\PSoC5/DFB_1.c **** *
 626:.\Generated_Source\PSoC5/DFB_1.c **** *******************************************************************************/
 627:.\Generated_Source\PSoC5/DFB_1.c **** int32 DFB_1_GetOutputValue(uint8 channel) 
ARM GAS  C:\Users\hoangp\AppData\Local\Temp\ccil7xJT.s 			page 30


 628:.\Generated_Source\PSoC5/DFB_1.c **** {
 1023              		.loc 1 628 0
 1024              		.cfi_startproc
 1025              		@ args = 0, pretend = 0, frame = 16
 1026              		@ frame_needed = 1, uses_anonymous_args = 0
 1027              		@ link register save eliminated.
 1028 0000 80B4     		push	{r7}
 1029              	.LCFI36:
 1030              		.cfi_def_cfa_offset 4
 1031 0002 85B0     		sub	sp, sp, #20
 1032              	.LCFI37:
 1033              		.cfi_def_cfa_offset 24
 1034 0004 00AF     		add	r7, sp, #0
 1035              		.cfi_offset 7, -4
 1036              	.LCFI38:
 1037              		.cfi_def_cfa_register 7
 1038 0006 0346     		mov	r3, r0
 1039 0008 FB71     		strb	r3, [r7, #7]
 629:.\Generated_Source\PSoC5/DFB_1.c ****     uint8 data0;
 630:.\Generated_Source\PSoC5/DFB_1.c ****     uint8 data1;
 631:.\Generated_Source\PSoC5/DFB_1.c ****     uint8 data2;
 632:.\Generated_Source\PSoC5/DFB_1.c ****     uint8 data3;
 633:.\Generated_Source\PSoC5/DFB_1.c ****     uint32 output;
 634:.\Generated_Source\PSoC5/DFB_1.c **** 
 635:.\Generated_Source\PSoC5/DFB_1.c ****     /* Reads the HOLD-"H" reg last as it signals a complete read to the DFB.*/
 636:.\Generated_Source\PSoC5/DFB_1.c ****     if (channel == DFB_1_CHANNEL_A)
 1040              		.loc 1 636 0
 1041 000a FB79     		ldrb	r3, [r7, #7]	@ zero_extendqisi2
 1042 000c 012B     		cmp	r3, #1
 1043 000e 1CD1     		bne	.L49
 637:.\Generated_Source\PSoC5/DFB_1.c ****     {
 638:.\Generated_Source\PSoC5/DFB_1.c ****         data0 = DFB_1_HOLDA_REG;
 1044              		.loc 1 638 0
 1045 0010 4CF2A873 		movw	r3, #:lower16:1073792936
 1046 0014 C4F20003 		movt	r3, #:upper16:1073792936
 1047 0018 1B78     		ldrb	r3, [r3, #0]
 1048 001a 3B72     		strb	r3, [r7, #8]
 639:.\Generated_Source\PSoC5/DFB_1.c ****         data1 = DFB_1_HOLDAM_REG;
 1049              		.loc 1 639 0
 1050 001c 4CF2A973 		movw	r3, #:lower16:1073792937
 1051 0020 C4F20003 		movt	r3, #:upper16:1073792937
 1052 0024 1B78     		ldrb	r3, [r3, #0]
 1053 0026 7B72     		strb	r3, [r7, #9]
 640:.\Generated_Source\PSoC5/DFB_1.c ****         data2 = DFB_1_HOLDAH_REG;
 1054              		.loc 1 640 0
 1055 0028 4CF2AA73 		movw	r3, #:lower16:1073792938
 1056 002c C4F20003 		movt	r3, #:upper16:1073792938
 1057 0030 1B78     		ldrb	r3, [r3, #0]
 1058 0032 BB72     		strb	r3, [r7, #10]
 641:.\Generated_Source\PSoC5/DFB_1.c ****         data3 = ((data2 & 0x80u) == 0x80u) ? 0xFFu : 0x00u;
 1059              		.loc 1 641 0
 1060 0034 BB7A     		ldrb	r3, [r7, #10]	@ zero_extendqisi2
 1061 0036 5BB2     		sxtb	r3, r3
 1062 0038 002B     		cmp	r3, #0
 1063 003a 02DA     		bge	.L50
 1064 003c 4FF0FF03 		mov	r3, #255
 1065 0040 01E0     		b	.L51
ARM GAS  C:\Users\hoangp\AppData\Local\Temp\ccil7xJT.s 			page 31


 1066              	.L50:
 1067 0042 4FF00003 		mov	r3, #0
 1068              	.L51:
 1069 0046 FB72     		strb	r3, [r7, #11]
 1070 0048 2BE0     		b	.L52
 1071              	.L49:
 642:.\Generated_Source\PSoC5/DFB_1.c ****     }
 643:.\Generated_Source\PSoC5/DFB_1.c ****     else if (channel == DFB_1_CHANNEL_B)
 1072              		.loc 1 643 0
 1073 004a FB79     		ldrb	r3, [r7, #7]	@ zero_extendqisi2
 1074 004c 002B     		cmp	r3, #0
 1075 004e 1CD1     		bne	.L53
 644:.\Generated_Source\PSoC5/DFB_1.c ****     {
 645:.\Generated_Source\PSoC5/DFB_1.c ****         data0 = DFB_1_HOLDB_REG;
 1076              		.loc 1 645 0
 1077 0050 4CF2AC73 		movw	r3, #:lower16:1073792940
 1078 0054 C4F20003 		movt	r3, #:upper16:1073792940
 1079 0058 1B78     		ldrb	r3, [r3, #0]
 1080 005a 3B72     		strb	r3, [r7, #8]
 646:.\Generated_Source\PSoC5/DFB_1.c ****         data1 = DFB_1_HOLDBM_REG;
 1081              		.loc 1 646 0
 1082 005c 4CF2AD73 		movw	r3, #:lower16:1073792941
 1083 0060 C4F20003 		movt	r3, #:upper16:1073792941
 1084 0064 1B78     		ldrb	r3, [r3, #0]
 1085 0066 7B72     		strb	r3, [r7, #9]
 647:.\Generated_Source\PSoC5/DFB_1.c ****         data2 = DFB_1_HOLDBH_REG;
 1086              		.loc 1 647 0
 1087 0068 4CF2AE73 		movw	r3, #:lower16:1073792942
 1088 006c C4F20003 		movt	r3, #:upper16:1073792942
 1089 0070 1B78     		ldrb	r3, [r3, #0]
 1090 0072 BB72     		strb	r3, [r7, #10]
 648:.\Generated_Source\PSoC5/DFB_1.c ****         data3 = ((data2 & 0x80u) == 0x80u) ? 0xFFu : 0x00u;
 1091              		.loc 1 648 0
 1092 0074 BB7A     		ldrb	r3, [r7, #10]	@ zero_extendqisi2
 1093 0076 5BB2     		sxtb	r3, r3
 1094 0078 002B     		cmp	r3, #0
 1095 007a 02DA     		bge	.L54
 1096 007c 4FF0FF03 		mov	r3, #255
 1097 0080 01E0     		b	.L55
 1098              	.L54:
 1099 0082 4FF00003 		mov	r3, #0
 1100              	.L55:
 1101 0086 FB72     		strb	r3, [r7, #11]
 1102 0088 0BE0     		b	.L52
 1103              	.L53:
 649:.\Generated_Source\PSoC5/DFB_1.c ****     }
 650:.\Generated_Source\PSoC5/DFB_1.c ****     else
 651:.\Generated_Source\PSoC5/DFB_1.c ****     {
 652:.\Generated_Source\PSoC5/DFB_1.c ****         data0 = 0x00u;
 1104              		.loc 1 652 0
 1105 008a 4FF00003 		mov	r3, #0
 1106 008e 3B72     		strb	r3, [r7, #8]
 653:.\Generated_Source\PSoC5/DFB_1.c ****         data1 = 0x00u;
 1107              		.loc 1 653 0
 1108 0090 4FF00003 		mov	r3, #0
 1109 0094 7B72     		strb	r3, [r7, #9]
 654:.\Generated_Source\PSoC5/DFB_1.c ****         data2 = 0x00u;
ARM GAS  C:\Users\hoangp\AppData\Local\Temp\ccil7xJT.s 			page 32


 1110              		.loc 1 654 0
 1111 0096 4FF00003 		mov	r3, #0
 1112 009a BB72     		strb	r3, [r7, #10]
 655:.\Generated_Source\PSoC5/DFB_1.c ****         data3 = 0xFFu;
 1113              		.loc 1 655 0
 1114 009c 4FF0FF33 		mov	r3, #-1
 1115 00a0 FB72     		strb	r3, [r7, #11]
 1116              	.L52:
 656:.\Generated_Source\PSoC5/DFB_1.c ****     }
 657:.\Generated_Source\PSoC5/DFB_1.c **** 
 658:.\Generated_Source\PSoC5/DFB_1.c ****     output = ((((((uint32) data3 << 8u) | data2) << 8u) | data1) << 8u) | data0;
 1117              		.loc 1 658 0
 1118 00a2 FB7A     		ldrb	r3, [r7, #11]	@ zero_extendqisi2
 1119 00a4 4FEA0322 		lsl	r2, r3, #8
 1120 00a8 BB7A     		ldrb	r3, [r7, #10]	@ zero_extendqisi2
 1121 00aa 42EA0303 		orr	r3, r2, r3
 1122 00ae 4FEA0322 		lsl	r2, r3, #8
 1123 00b2 7B7A     		ldrb	r3, [r7, #9]	@ zero_extendqisi2
 1124 00b4 42EA0303 		orr	r3, r2, r3
 1125 00b8 4FEA0322 		lsl	r2, r3, #8
 1126 00bc 3B7A     		ldrb	r3, [r7, #8]	@ zero_extendqisi2
 1127 00be 42EA0303 		orr	r3, r2, r3
 1128 00c2 FB60     		str	r3, [r7, #12]
 659:.\Generated_Source\PSoC5/DFB_1.c **** 
 660:.\Generated_Source\PSoC5/DFB_1.c ****     return ((int32) output);
 1129              		.loc 1 660 0
 1130 00c4 FB68     		ldr	r3, [r7, #12]
 661:.\Generated_Source\PSoC5/DFB_1.c **** }
 1131              		.loc 1 661 0
 1132 00c6 1846     		mov	r0, r3
 1133 00c8 07F11407 		add	r7, r7, #20
 1134 00cc BD46     		mov	sp, r7
 1135 00ce 80BC     		pop	{r7}
 1136 00d0 7047     		bx	lr
 1137              		.cfi_endproc
 1138              	.LFE13:
 1139              		.size	DFB_1_GetOutputValue, .-DFB_1_GetOutputValue
 1140 00d2 00BF     		.section	.text.DFB_1_SetInterruptMode,"ax",%progbits
 1141              		.align	2
 1142              		.global	DFB_1_SetInterruptMode
 1143              		.thumb
 1144              		.thumb_func
 1145              		.type	DFB_1_SetInterruptMode, %function
 1146              	DFB_1_SetInterruptMode:
 1147              	.LFB14:
 662:.\Generated_Source\PSoC5/DFB_1.c **** 
 663:.\Generated_Source\PSoC5/DFB_1.c **** 
 664:.\Generated_Source\PSoC5/DFB_1.c **** /*******************************************************************************
 665:.\Generated_Source\PSoC5/DFB_1.c **** * Function Name: DFB_1_SetInterruptMode
 666:.\Generated_Source\PSoC5/DFB_1.c **** ********************************************************************************
 667:.\Generated_Source\PSoC5/DFB_1.c **** *
 668:.\Generated_Source\PSoC5/DFB_1.c **** * Summary:
 669:.\Generated_Source\PSoC5/DFB_1.c **** *  This function assigns the events which will trigger a DFB interrupt to be
 670:.\Generated_Source\PSoC5/DFB_1.c **** *  triggered.
 671:.\Generated_Source\PSoC5/DFB_1.c **** *
 672:.\Generated_Source\PSoC5/DFB_1.c **** * Parameters:
 673:.\Generated_Source\PSoC5/DFB_1.c **** *  events: Bits [0:5] of events represent the events that trigger DFB
ARM GAS  C:\Users\hoangp\AppData\Local\Temp\ccil7xJT.s 			page 33


 674:.\Generated_Source\PSoC5/DFB_1.c **** *          interrupts.
 675:.\Generated_Source\PSoC5/DFB_1.c **** *    Define                    Description
 676:.\Generated_Source\PSoC5/DFB_1.c **** *     DFB_1_HOLDA    Interrupt is generated each time new valid data
 677:.\Generated_Source\PSoC5/DFB_1.c **** *                               is written into the output Holding register A;
 678:.\Generated_Source\PSoC5/DFB_1.c **** *     DFB_1_HOLDB    Interrupt is generated each time new valid data
 679:.\Generated_Source\PSoC5/DFB_1.c **** *                               is written into the output Holding register B;
 680:.\Generated_Source\PSoC5/DFB_1.c **** *     DFB_1_SEMA0    Interrupt is generated each time a '1' is
 681:.\Generated_Source\PSoC5/DFB_1.c **** *                               written into the semaphore register bit 0;
 682:.\Generated_Source\PSoC5/DFB_1.c **** *     DFB_1_SEMA1    Interrupt is generated each time a '1' is
 683:.\Generated_Source\PSoC5/DFB_1.c **** *                               written into the semaphore register bit 1;
 684:.\Generated_Source\PSoC5/DFB_1.c **** *     DFB_1_SEMA2    Interrupt is generated each time a '1' is
 685:.\Generated_Source\PSoC5/DFB_1.c **** *                               written into the semaphore register bit 2.
 686:.\Generated_Source\PSoC5/DFB_1.c **** *
 687:.\Generated_Source\PSoC5/DFB_1.c **** * Return:
 688:.\Generated_Source\PSoC5/DFB_1.c **** *  None.
 689:.\Generated_Source\PSoC5/DFB_1.c **** *
 690:.\Generated_Source\PSoC5/DFB_1.c **** * Note:
 691:.\Generated_Source\PSoC5/DFB_1.c **** *  Do not configure semaphore 0 and semaphore 1 for both a DMA request and for
 692:.\Generated_Source\PSoC5/DFB_1.c **** *  an interrupt event. This is because, after one clock cycle, the system
 693:.\Generated_Source\PSoC5/DFB_1.c **** *  automatically clears any semaphore that triggered a DMA request.
 694:.\Generated_Source\PSoC5/DFB_1.c **** *
 695:.\Generated_Source\PSoC5/DFB_1.c **** *******************************************************************************/
 696:.\Generated_Source\PSoC5/DFB_1.c **** void DFB_1_SetInterruptMode(uint8 events) 
 697:.\Generated_Source\PSoC5/DFB_1.c **** {
 1148              		.loc 1 697 0
 1149              		.cfi_startproc
 1150              		@ args = 0, pretend = 0, frame = 8
 1151              		@ frame_needed = 1, uses_anonymous_args = 0
 1152              		@ link register save eliminated.
 1153 0000 80B4     		push	{r7}
 1154              	.LCFI39:
 1155              		.cfi_def_cfa_offset 4
 1156 0002 83B0     		sub	sp, sp, #12
 1157              	.LCFI40:
 1158              		.cfi_def_cfa_offset 16
 1159 0004 00AF     		add	r7, sp, #0
 1160              		.cfi_offset 7, -4
 1161              	.LCFI41:
 1162              		.cfi_def_cfa_register 7
 1163 0006 0346     		mov	r3, r0
 1164 0008 FB71     		strb	r3, [r7, #7]
 698:.\Generated_Source\PSoC5/DFB_1.c ****     DFB_1_INT_CTRL_REG = events & DFB_1_EVENT_MASK;
 1165              		.loc 1 698 0
 1166 000a 4CF29873 		movw	r3, #:lower16:1073792920
 1167 000e C4F20003 		movt	r3, #:upper16:1073792920
 1168 0012 FA79     		ldrb	r2, [r7, #7]	@ zero_extendqisi2
 1169 0014 02F01F02 		and	r2, r2, #31
 1170 0018 1A70     		strb	r2, [r3, #0]
 699:.\Generated_Source\PSoC5/DFB_1.c **** }
 1171              		.loc 1 699 0
 1172 001a 07F10C07 		add	r7, r7, #12
 1173 001e BD46     		mov	sp, r7
 1174 0020 80BC     		pop	{r7}
 1175 0022 7047     		bx	lr
 1176              		.cfi_endproc
 1177              	.LFE14:
 1178              		.size	DFB_1_SetInterruptMode, .-DFB_1_SetInterruptMode
ARM GAS  C:\Users\hoangp\AppData\Local\Temp\ccil7xJT.s 			page 34


 1179              		.section	.text.DFB_1_GetInterruptSource,"ax",%progbits
 1180              		.align	2
 1181              		.global	DFB_1_GetInterruptSource
 1182              		.thumb
 1183              		.thumb_func
 1184              		.type	DFB_1_GetInterruptSource, %function
 1185              	DFB_1_GetInterruptSource:
 1186              	.LFB15:
 700:.\Generated_Source\PSoC5/DFB_1.c **** 
 701:.\Generated_Source\PSoC5/DFB_1.c **** 
 702:.\Generated_Source\PSoC5/DFB_1.c **** /*******************************************************************************
 703:.\Generated_Source\PSoC5/DFB_1.c **** * Function Name: DFB_1_GetInterruptSource
 704:.\Generated_Source\PSoC5/DFB_1.c **** ********************************************************************************
 705:.\Generated_Source\PSoC5/DFB_1.c **** *
 706:.\Generated_Source\PSoC5/DFB_1.c **** * Summary:
 707:.\Generated_Source\PSoC5/DFB_1.c **** *  This function looks at the DFB_1_SR register to see which
 708:.\Generated_Source\PSoC5/DFB_1.c **** *  interrupt sources have been triggered.
 709:.\Generated_Source\PSoC5/DFB_1.c **** *
 710:.\Generated_Source\PSoC5/DFB_1.c **** * Parameters:
 711:.\Generated_Source\PSoC5/DFB_1.c **** *  None.
 712:.\Generated_Source\PSoC5/DFB_1.c **** *
 713:.\Generated_Source\PSoC5/DFB_1.c **** * Return:
 714:.\Generated_Source\PSoC5/DFB_1.c **** *  uint8 value in which bits [0:5] of represent the events that triggered the
 715:.\Generated_Source\PSoC5/DFB_1.c **** *  DFB interrupt.
 716:.\Generated_Source\PSoC5/DFB_1.c **** *    Define                    Description
 717:.\Generated_Source\PSoC5/DFB_1.c **** *     DFB_1_HOLDA    Holding register A is a source of the current
 718:.\Generated_Source\PSoC5/DFB_1.c **** *                               interrupt;
 719:.\Generated_Source\PSoC5/DFB_1.c **** *     DFB_1_HOLDB    Holding register B is a source of the current
 720:.\Generated_Source\PSoC5/DFB_1.c **** *                               interrupt;
 721:.\Generated_Source\PSoC5/DFB_1.c **** *     DFB_1_SEMA0    Semaphore register bit 0 is a source of the
 722:.\Generated_Source\PSoC5/DFB_1.c **** *                               current interrupt;
 723:.\Generated_Source\PSoC5/DFB_1.c **** *     DFB_1_SEMA1    Semaphore register bit 1 is a source of the
 724:.\Generated_Source\PSoC5/DFB_1.c **** *                               current interrupt;
 725:.\Generated_Source\PSoC5/DFB_1.c **** *     DFB_1_SEMA2    Semaphore register bit 2 is a source of the
 726:.\Generated_Source\PSoC5/DFB_1.c **** *                               current interrupt.
 727:.\Generated_Source\PSoC5/DFB_1.c **** *
 728:.\Generated_Source\PSoC5/DFB_1.c **** *******************************************************************************/
 729:.\Generated_Source\PSoC5/DFB_1.c **** uint8 DFB_1_GetInterruptSource(void) 
 730:.\Generated_Source\PSoC5/DFB_1.c **** {
 1187              		.loc 1 730 0
 1188              		.cfi_startproc
 1189              		@ args = 0, pretend = 0, frame = 0
 1190              		@ frame_needed = 1, uses_anonymous_args = 0
 1191              		@ link register save eliminated.
 1192 0000 80B4     		push	{r7}
 1193              	.LCFI42:
 1194              		.cfi_def_cfa_offset 4
 1195 0002 00AF     		add	r7, sp, #0
 1196              		.cfi_offset 7, -4
 1197              	.LCFI43:
 1198              		.cfi_def_cfa_register 7
 731:.\Generated_Source\PSoC5/DFB_1.c ****     /* Shifts the event bits down to [0:5] */
 732:.\Generated_Source\PSoC5/DFB_1.c ****     return ((uint8) (DFB_1_SR_REG >> DFB_1_SR_EVENT_SHIFT));
 1199              		.loc 1 732 0
 1200 0004 4CF28473 		movw	r3, #:lower16:1073792900
 1201 0008 C4F20003 		movt	r3, #:upper16:1073792900
 1202 000c 1B78     		ldrb	r3, [r3, #0]
ARM GAS  C:\Users\hoangp\AppData\Local\Temp\ccil7xJT.s 			page 35


 1203 000e DBB2     		uxtb	r3, r3
 1204 0010 4FEAD303 		lsr	r3, r3, #3
 1205 0014 DBB2     		uxtb	r3, r3
 733:.\Generated_Source\PSoC5/DFB_1.c **** }
 1206              		.loc 1 733 0
 1207 0016 1846     		mov	r0, r3
 1208 0018 BD46     		mov	sp, r7
 1209 001a 80BC     		pop	{r7}
 1210 001c 7047     		bx	lr
 1211              		.cfi_endproc
 1212              	.LFE15:
 1213              		.size	DFB_1_GetInterruptSource, .-DFB_1_GetInterruptSource
 1214 001e 00BF     		.section	.text.DFB_1_ClearInterrupt,"ax",%progbits
 1215              		.align	2
 1216              		.global	DFB_1_ClearInterrupt
 1217              		.thumb
 1218              		.thumb_func
 1219              		.type	DFB_1_ClearInterrupt, %function
 1220              	DFB_1_ClearInterrupt:
 1221              	.LFB16:
 734:.\Generated_Source\PSoC5/DFB_1.c **** 
 735:.\Generated_Source\PSoC5/DFB_1.c **** 
 736:.\Generated_Source\PSoC5/DFB_1.c **** /*******************************************************************************
 737:.\Generated_Source\PSoC5/DFB_1.c **** * Function Name: DFB_1_ClearInterrupt
 738:.\Generated_Source\PSoC5/DFB_1.c **** ********************************************************************************
 739:.\Generated_Source\PSoC5/DFB_1.c **** *
 740:.\Generated_Source\PSoC5/DFB_1.c **** * Summary:
 741:.\Generated_Source\PSoC5/DFB_1.c **** *  This function clears the interrupt request.
 742:.\Generated_Source\PSoC5/DFB_1.c **** *
 743:.\Generated_Source\PSoC5/DFB_1.c **** * Parameters:
 744:.\Generated_Source\PSoC5/DFB_1.c **** *  interruptMask: Mask of interrupts to clear.
 745:.\Generated_Source\PSoC5/DFB_1.c **** *    Define                    Description
 746:.\Generated_Source\PSoC5/DFB_1.c **** *     DFB_1_HOLDA    Clear interrupt from Holding register A.
 747:.\Generated_Source\PSoC5/DFB_1.c **** *                               (Reading the Holding register A also clears this
 748:.\Generated_Source\PSoC5/DFB_1.c **** *                                bit);
 749:.\Generated_Source\PSoC5/DFB_1.c **** *     DFB_1_HOLDB    Clear interrupt from Holding register B.
 750:.\Generated_Source\PSoC5/DFB_1.c **** *                               (Reading the Holding register B also clears this
 751:.\Generated_Source\PSoC5/DFB_1.c **** *                                bit);
 752:.\Generated_Source\PSoC5/DFB_1.c **** *     DFB_1_SEMA0    Clear interrupt from semaphore register bit 0;
 753:.\Generated_Source\PSoC5/DFB_1.c **** *     DFB_1_SEMA1    Clear interrupt from semaphore register bit 1;
 754:.\Generated_Source\PSoC5/DFB_1.c **** *     DFB_1_SEMA2    Clear interrupt from semaphore register bit 2.
 755:.\Generated_Source\PSoC5/DFB_1.c **** *
 756:.\Generated_Source\PSoC5/DFB_1.c **** * Return:
 757:.\Generated_Source\PSoC5/DFB_1.c **** *  None.
 758:.\Generated_Source\PSoC5/DFB_1.c **** *
 759:.\Generated_Source\PSoC5/DFB_1.c **** * Note:
 760:.\Generated_Source\PSoC5/DFB_1.c **** *  Clearing semaphore interrupts also clears semaphore bits.
 761:.\Generated_Source\PSoC5/DFB_1.c **** *
 762:.\Generated_Source\PSoC5/DFB_1.c **** *******************************************************************************/
 763:.\Generated_Source\PSoC5/DFB_1.c **** void DFB_1_ClearInterrupt(uint8 interruptMask) 
 764:.\Generated_Source\PSoC5/DFB_1.c **** {
 1222              		.loc 1 764 0
 1223              		.cfi_startproc
 1224              		@ args = 0, pretend = 0, frame = 8
 1225              		@ frame_needed = 1, uses_anonymous_args = 0
 1226              		@ link register save eliminated.
 1227 0000 80B4     		push	{r7}
ARM GAS  C:\Users\hoangp\AppData\Local\Temp\ccil7xJT.s 			page 36


 1228              	.LCFI44:
 1229              		.cfi_def_cfa_offset 4
 1230 0002 83B0     		sub	sp, sp, #12
 1231              	.LCFI45:
 1232              		.cfi_def_cfa_offset 16
 1233 0004 00AF     		add	r7, sp, #0
 1234              		.cfi_offset 7, -4
 1235              	.LCFI46:
 1236              		.cfi_def_cfa_register 7
 1237 0006 0346     		mov	r3, r0
 1238 0008 FB71     		strb	r3, [r7, #7]
 765:.\Generated_Source\PSoC5/DFB_1.c ****     DFB_1_SR_REG &= (uint8) (interruptMask << DFB_1_SR_EVENT_SHIFT);
 1239              		.loc 1 765 0
 1240 000a 4CF28473 		movw	r3, #:lower16:1073792900
 1241 000e C4F20003 		movt	r3, #:upper16:1073792900
 1242 0012 4CF28472 		movw	r2, #:lower16:1073792900
 1243 0016 C4F20002 		movt	r2, #:upper16:1073792900
 1244 001a 1278     		ldrb	r2, [r2, #0]
 1245 001c D1B2     		uxtb	r1, r2
 1246 001e FA79     		ldrb	r2, [r7, #7]
 1247 0020 4FEAC202 		lsl	r2, r2, #3
 1248 0024 D2B2     		uxtb	r2, r2
 1249 0026 01EA0202 		and	r2, r1, r2
 1250 002a D2B2     		uxtb	r2, r2
 1251 002c 1A70     		strb	r2, [r3, #0]
 766:.\Generated_Source\PSoC5/DFB_1.c **** }
 1252              		.loc 1 766 0
 1253 002e 07F10C07 		add	r7, r7, #12
 1254 0032 BD46     		mov	sp, r7
 1255 0034 80BC     		pop	{r7}
 1256 0036 7047     		bx	lr
 1257              		.cfi_endproc
 1258              	.LFE16:
 1259              		.size	DFB_1_ClearInterrupt, .-DFB_1_ClearInterrupt
 1260              		.section	.text.DFB_1_SetDMAMode,"ax",%progbits
 1261              		.align	2
 1262              		.global	DFB_1_SetDMAMode
 1263              		.thumb
 1264              		.thumb_func
 1265              		.type	DFB_1_SetDMAMode, %function
 1266              	DFB_1_SetDMAMode:
 1267              	.LFB17:
 767:.\Generated_Source\PSoC5/DFB_1.c **** 
 768:.\Generated_Source\PSoC5/DFB_1.c **** 
 769:.\Generated_Source\PSoC5/DFB_1.c **** /*******************************************************************************
 770:.\Generated_Source\PSoC5/DFB_1.c **** * Function Name: DFB_1_SetDMAMode
 771:.\Generated_Source\PSoC5/DFB_1.c **** ********************************************************************************
 772:.\Generated_Source\PSoC5/DFB_1.c **** *
 773:.\Generated_Source\PSoC5/DFB_1.c **** * Summary:
 774:.\Generated_Source\PSoC5/DFB_1.c **** *  This function assigns the events that trigger a DMA request for the DFB.
 775:.\Generated_Source\PSoC5/DFB_1.c **** *  Two different DMA requests that can be triggered.
 776:.\Generated_Source\PSoC5/DFB_1.c **** *
 777:.\Generated_Source\PSoC5/DFB_1.c **** * Parameters:
 778:.\Generated_Source\PSoC5/DFB_1.c **** *  events: A set of 4 bits which configure what event, if any, triggers a DMA
 779:.\Generated_Source\PSoC5/DFB_1.c **** *          request for the DFB.
 780:.\Generated_Source\PSoC5/DFB_1.c **** *   DMA Request 1:
 781:.\Generated_Source\PSoC5/DFB_1.c **** *    Define                                 Description
ARM GAS  C:\Users\hoangp\AppData\Local\Temp\ccil7xJT.s 			page 37


 782:.\Generated_Source\PSoC5/DFB_1.c **** *    DFB_1_DMAREQ1_DISABLED       No request will be generated;
 783:.\Generated_Source\PSoC5/DFB_1.c **** *    DFB_1_DMAREQ1_HOLDA          Output value ready in the holding
 784:.\Generated_Source\PSoC5/DFB_1.c ****                                              register on channel A;
 785:.\Generated_Source\PSoC5/DFB_1.c **** *    DFB_1_DMAREQ1_SEM0           Semaphore 0;
 786:.\Generated_Source\PSoC5/DFB_1.c **** *    DFB_1_DMAREQ1_SEM1           Sempahore 1.
 787:.\Generated_Source\PSoC5/DFB_1.c **** *   DMA Request 2:
 788:.\Generated_Source\PSoC5/DFB_1.c **** *    Define                                 Description
 789:.\Generated_Source\PSoC5/DFB_1.c **** *    DFB_1_DMAREQ2_DISABLED       No request will be generated;
 790:.\Generated_Source\PSoC5/DFB_1.c **** *    DFB_1_DMAREQ2_HOLDB          Output value ready in the holding
 791:.\Generated_Source\PSoC5/DFB_1.c ****                                              register on channel B;
 792:.\Generated_Source\PSoC5/DFB_1.c **** *    DFB_1_DMAREQ2_SEM0           Semaphore 0;
 793:.\Generated_Source\PSoC5/DFB_1.c **** *    DFB_1_DMAREQ2_SEM1           Sempahore 1.
 794:.\Generated_Source\PSoC5/DFB_1.c **** *
 795:.\Generated_Source\PSoC5/DFB_1.c **** * Return:
 796:.\Generated_Source\PSoC5/DFB_1.c **** *  None.
 797:.\Generated_Source\PSoC5/DFB_1.c **** *
 798:.\Generated_Source\PSoC5/DFB_1.c **** * Note:
 799:.\Generated_Source\PSoC5/DFB_1.c **** *  Do not configure semaphore 0 and semaphore 1 for both a DMA request and for
 800:.\Generated_Source\PSoC5/DFB_1.c **** *  an interrupt event. This is because, after one clock cycle, the system
 801:.\Generated_Source\PSoC5/DFB_1.c **** *  automatically clears any semaphore that triggered a DMA request.
 802:.\Generated_Source\PSoC5/DFB_1.c **** *
 803:.\Generated_Source\PSoC5/DFB_1.c **** *******************************************************************************/
 804:.\Generated_Source\PSoC5/DFB_1.c **** void DFB_1_SetDMAMode(uint8 events) 
 805:.\Generated_Source\PSoC5/DFB_1.c **** {
 1268              		.loc 1 805 0
 1269              		.cfi_startproc
 1270              		@ args = 0, pretend = 0, frame = 8
 1271              		@ frame_needed = 1, uses_anonymous_args = 0
 1272              		@ link register save eliminated.
 1273 0000 80B4     		push	{r7}
 1274              	.LCFI47:
 1275              		.cfi_def_cfa_offset 4
 1276 0002 83B0     		sub	sp, sp, #12
 1277              	.LCFI48:
 1278              		.cfi_def_cfa_offset 16
 1279 0004 00AF     		add	r7, sp, #0
 1280              		.cfi_offset 7, -4
 1281              	.LCFI49:
 1282              		.cfi_def_cfa_register 7
 1283 0006 0346     		mov	r3, r0
 1284 0008 FB71     		strb	r3, [r7, #7]
 806:.\Generated_Source\PSoC5/DFB_1.c ****     DFB_1_DMA_CTRL_REG = events & DFB_1_DMA_CTRL_MASK;
 1285              		.loc 1 806 0
 1286 000a 4CF29C73 		movw	r3, #:lower16:1073792924
 1287 000e C4F20003 		movt	r3, #:upper16:1073792924
 1288 0012 FA79     		ldrb	r2, [r7, #7]	@ zero_extendqisi2
 1289 0014 02F00F02 		and	r2, r2, #15
 1290 0018 1A70     		strb	r2, [r3, #0]
 807:.\Generated_Source\PSoC5/DFB_1.c **** }
 1291              		.loc 1 807 0
 1292 001a 07F10C07 		add	r7, r7, #12
 1293 001e BD46     		mov	sp, r7
 1294 0020 80BC     		pop	{r7}
 1295 0022 7047     		bx	lr
 1296              		.cfi_endproc
 1297              	.LFE17:
 1298              		.size	DFB_1_SetDMAMode, .-DFB_1_SetDMAMode
ARM GAS  C:\Users\hoangp\AppData\Local\Temp\ccil7xJT.s 			page 38


 1299              		.section	.text.DFB_1_SetSemaphores,"ax",%progbits
 1300              		.align	2
 1301              		.global	DFB_1_SetSemaphores
 1302              		.thumb
 1303              		.thumb_func
 1304              		.type	DFB_1_SetSemaphores, %function
 1305              	DFB_1_SetSemaphores:
 1306              	.LFB18:
 808:.\Generated_Source\PSoC5/DFB_1.c **** 
 809:.\Generated_Source\PSoC5/DFB_1.c **** 
 810:.\Generated_Source\PSoC5/DFB_1.c **** /*******************************************************************************
 811:.\Generated_Source\PSoC5/DFB_1.c **** * Function Name: DFB_1_SetSemaphore
 812:.\Generated_Source\PSoC5/DFB_1.c **** ********************************************************************************
 813:.\Generated_Source\PSoC5/DFB_1.c **** *
 814:.\Generated_Source\PSoC5/DFB_1.c **** * Summary:
 815:.\Generated_Source\PSoC5/DFB_1.c **** *  This function sets semaphores specified with a 1.
 816:.\Generated_Source\PSoC5/DFB_1.c **** *
 817:.\Generated_Source\PSoC5/DFB_1.c **** * Parameters:
 818:.\Generated_Source\PSoC5/DFB_1.c **** *  mask: mask specifying the bits to set.
 819:.\Generated_Source\PSoC5/DFB_1.c **** *    Define                          Description
 820:.\Generated_Source\PSoC5/DFB_1.c **** *     DFB_1_SEMAPHORE0     Semaphore 0;
 821:.\Generated_Source\PSoC5/DFB_1.c **** *     DFB_1_SEMAPHORE1     Semaphore 1;
 822:.\Generated_Source\PSoC5/DFB_1.c **** *     DFB_1_SEMAPHORE2     Semaphore 2.
 823:.\Generated_Source\PSoC5/DFB_1.c **** *
 824:.\Generated_Source\PSoC5/DFB_1.c **** * Return:
 825:.\Generated_Source\PSoC5/DFB_1.c **** *  None.
 826:.\Generated_Source\PSoC5/DFB_1.c **** *
 827:.\Generated_Source\PSoC5/DFB_1.c **** *******************************************************************************/
 828:.\Generated_Source\PSoC5/DFB_1.c **** void DFB_1_SetSemaphores(uint8 mask) 
 829:.\Generated_Source\PSoC5/DFB_1.c **** {
 1307              		.loc 1 829 0
 1308              		.cfi_startproc
 1309              		@ args = 0, pretend = 0, frame = 8
 1310              		@ frame_needed = 1, uses_anonymous_args = 0
 1311              		@ link register save eliminated.
 1312 0000 80B4     		push	{r7}
 1313              	.LCFI50:
 1314              		.cfi_def_cfa_offset 4
 1315 0002 83B0     		sub	sp, sp, #12
 1316              	.LCFI51:
 1317              		.cfi_def_cfa_offset 16
 1318 0004 00AF     		add	r7, sp, #0
 1319              		.cfi_offset 7, -4
 1320              	.LCFI52:
 1321              		.cfi_def_cfa_register 7
 1322 0006 0346     		mov	r3, r0
 1323 0008 FB71     		strb	r3, [r7, #7]
 830:.\Generated_Source\PSoC5/DFB_1.c ****     DFB_1_SEM_REG = (uint8) ((mask & DFB_1_SEM_MASK) << DFB_1_SEM_ENABLE_SHIFT) |
 1324              		.loc 1 830 0
 1325 000a 4CF29073 		movw	r3, #:lower16:1073792912
 1326 000e C4F20003 		movt	r3, #:upper16:1073792912
 1327 0012 FA79     		ldrb	r2, [r7, #7]	@ zero_extendqisi2
 1328 0014 02F00702 		and	r2, r2, #7
 1329 0018 4FEA0212 		lsl	r2, r2, #4
 1330 001c D2B2     		uxtb	r2, r2
 1331 001e 42F00702 		orr	r2, r2, #7
 1332 0022 D2B2     		uxtb	r2, r2
ARM GAS  C:\Users\hoangp\AppData\Local\Temp\ccil7xJT.s 			page 39


 1333 0024 1A70     		strb	r2, [r3, #0]
 831:.\Generated_Source\PSoC5/DFB_1.c ****                                  DFB_1_SEM_MASK;
 832:.\Generated_Source\PSoC5/DFB_1.c **** }
 1334              		.loc 1 832 0
 1335 0026 07F10C07 		add	r7, r7, #12
 1336 002a BD46     		mov	sp, r7
 1337 002c 80BC     		pop	{r7}
 1338 002e 7047     		bx	lr
 1339              		.cfi_endproc
 1340              	.LFE18:
 1341              		.size	DFB_1_SetSemaphores, .-DFB_1_SetSemaphores
 1342              		.section	.text.DFB_1_GetSemaphores,"ax",%progbits
 1343              		.align	2
 1344              		.global	DFB_1_GetSemaphores
 1345              		.thumb
 1346              		.thumb_func
 1347              		.type	DFB_1_GetSemaphores, %function
 1348              	DFB_1_GetSemaphores:
 1349              	.LFB19:
 833:.\Generated_Source\PSoC5/DFB_1.c **** 
 834:.\Generated_Source\PSoC5/DFB_1.c **** 
 835:.\Generated_Source\PSoC5/DFB_1.c **** /*******************************************************************************
 836:.\Generated_Source\PSoC5/DFB_1.c **** *  Function Name: DFB_1_GetSempahores
 837:.\Generated_Source\PSoC5/DFB_1.c **** ********************************************************************************
 838:.\Generated_Source\PSoC5/DFB_1.c **** *
 839:.\Generated_Source\PSoC5/DFB_1.c **** * Summary:
 840:.\Generated_Source\PSoC5/DFB_1.c **** *  This function checks the current status of the DFB semaphores and return that
 841:.\Generated_Source\PSoC5/DFB_1.c **** *  value.
 842:.\Generated_Source\PSoC5/DFB_1.c **** *
 843:.\Generated_Source\PSoC5/DFB_1.c **** * Parameters:
 844:.\Generated_Source\PSoC5/DFB_1.c **** *  None.
 845:.\Generated_Source\PSoC5/DFB_1.c **** *
 846:.\Generated_Source\PSoC5/DFB_1.c **** * Return:
 847:.\Generated_Source\PSoC5/DFB_1.c **** *  uint8 value between 0 and 7 where bit 0 represents semaphore 0 and so on.
 848:.\Generated_Source\PSoC5/DFB_1.c **** *    Define                          Description
 849:.\Generated_Source\PSoC5/DFB_1.c **** *     DFB_1_SEMAPHORE0     Semaphore 0;
 850:.\Generated_Source\PSoC5/DFB_1.c **** *     DFB_1_SEMAPHORE1     Semaphore 1;
 851:.\Generated_Source\PSoC5/DFB_1.c **** *     DFB_1_SEMAPHORE2     Semaphore 2.
 852:.\Generated_Source\PSoC5/DFB_1.c **** *
 853:.\Generated_Source\PSoC5/DFB_1.c **** *******************************************************************************/
 854:.\Generated_Source\PSoC5/DFB_1.c **** uint8 DFB_1_GetSemaphores(void) 
 855:.\Generated_Source\PSoC5/DFB_1.c **** {
 1350              		.loc 1 855 0
 1351              		.cfi_startproc
 1352              		@ args = 0, pretend = 0, frame = 0
 1353              		@ frame_needed = 1, uses_anonymous_args = 0
 1354              		@ link register save eliminated.
 1355 0000 80B4     		push	{r7}
 1356              	.LCFI53:
 1357              		.cfi_def_cfa_offset 4
 1358 0002 00AF     		add	r7, sp, #0
 1359              		.cfi_offset 7, -4
 1360              	.LCFI54:
 1361              		.cfi_def_cfa_register 7
 856:.\Generated_Source\PSoC5/DFB_1.c ****     /* Masked the valide bits in case the reserved bits in SEM_REG [4 and 7] get used for something
 857:.\Generated_Source\PSoC5/DFB_1.c ****     return (DFB_1_SEM_REG & DFB_1_SEM_MASK);
 1362              		.loc 1 857 0
ARM GAS  C:\Users\hoangp\AppData\Local\Temp\ccil7xJT.s 			page 40


 1363 0004 4CF29073 		movw	r3, #:lower16:1073792912
 1364 0008 C4F20003 		movt	r3, #:upper16:1073792912
 1365 000c 1B78     		ldrb	r3, [r3, #0]
 1366 000e DBB2     		uxtb	r3, r3
 1367 0010 03F00703 		and	r3, r3, #7
 858:.\Generated_Source\PSoC5/DFB_1.c **** }
 1368              		.loc 1 858 0
 1369 0014 1846     		mov	r0, r3
 1370 0016 BD46     		mov	sp, r7
 1371 0018 80BC     		pop	{r7}
 1372 001a 7047     		bx	lr
 1373              		.cfi_endproc
 1374              	.LFE19:
 1375              		.size	DFB_1_GetSemaphores, .-DFB_1_GetSemaphores
 1376              		.section	.text.DFB_1_ClearSemaphores,"ax",%progbits
 1377              		.align	2
 1378              		.global	DFB_1_ClearSemaphores
 1379              		.thumb
 1380              		.thumb_func
 1381              		.type	DFB_1_ClearSemaphores, %function
 1382              	DFB_1_ClearSemaphores:
 1383              	.LFB20:
 859:.\Generated_Source\PSoC5/DFB_1.c **** 
 860:.\Generated_Source\PSoC5/DFB_1.c **** 
 861:.\Generated_Source\PSoC5/DFB_1.c **** /*******************************************************************************
 862:.\Generated_Source\PSoC5/DFB_1.c **** *  Function Name: DFB_1_ClearSemaphore
 863:.\Generated_Source\PSoC5/DFB_1.c **** ********************************************************************************
 864:.\Generated_Source\PSoC5/DFB_1.c **** *
 865:.\Generated_Source\PSoC5/DFB_1.c **** * Summary:
 866:.\Generated_Source\PSoC5/DFB_1.c **** *  This function clears semaphore bits specified with a 1.
 867:.\Generated_Source\PSoC5/DFB_1.c **** *
 868:.\Generated_Source\PSoC5/DFB_1.c **** * Parameters:
 869:.\Generated_Source\PSoC5/DFB_1.c **** *  mask: mask specifying the bits to clear.
 870:.\Generated_Source\PSoC5/DFB_1.c **** *    Define                          Description
 871:.\Generated_Source\PSoC5/DFB_1.c **** *     DFB_1_SEMAPHORE0     Semaphore 0;
 872:.\Generated_Source\PSoC5/DFB_1.c **** *     DFB_1_SEMAPHORE1     Semaphore 1;
 873:.\Generated_Source\PSoC5/DFB_1.c **** *     DFB_1_SEMAPHORE2     Semaphore 2.
 874:.\Generated_Source\PSoC5/DFB_1.c **** *
 875:.\Generated_Source\PSoC5/DFB_1.c **** * Return:
 876:.\Generated_Source\PSoC5/DFB_1.c **** *  None.
 877:.\Generated_Source\PSoC5/DFB_1.c **** *
 878:.\Generated_Source\PSoC5/DFB_1.c **** *******************************************************************************/
 879:.\Generated_Source\PSoC5/DFB_1.c **** void DFB_1_ClearSemaphores(uint8 mask) 
 880:.\Generated_Source\PSoC5/DFB_1.c **** {
 1384              		.loc 1 880 0
 1385              		.cfi_startproc
 1386              		@ args = 0, pretend = 0, frame = 8
 1387              		@ frame_needed = 1, uses_anonymous_args = 0
 1388              		@ link register save eliminated.
 1389 0000 80B4     		push	{r7}
 1390              	.LCFI55:
 1391              		.cfi_def_cfa_offset 4
 1392 0002 83B0     		sub	sp, sp, #12
 1393              	.LCFI56:
 1394              		.cfi_def_cfa_offset 16
 1395 0004 00AF     		add	r7, sp, #0
 1396              		.cfi_offset 7, -4
ARM GAS  C:\Users\hoangp\AppData\Local\Temp\ccil7xJT.s 			page 41


 1397              	.LCFI57:
 1398              		.cfi_def_cfa_register 7
 1399 0006 0346     		mov	r3, r0
 1400 0008 FB71     		strb	r3, [r7, #7]
 881:.\Generated_Source\PSoC5/DFB_1.c ****     /* Writes the semaphore register: Clears the semaphores masked */
 882:.\Generated_Source\PSoC5/DFB_1.c ****     DFB_1_SEM_REG = (uint8) ((mask & DFB_1_SEM_MASK) << DFB_1_SEM_ENABLE_SHIFT);
 1401              		.loc 1 882 0
 1402 000a 4CF29073 		movw	r3, #:lower16:1073792912
 1403 000e C4F20003 		movt	r3, #:upper16:1073792912
 1404 0012 FA79     		ldrb	r2, [r7, #7]	@ zero_extendqisi2
 1405 0014 02F00702 		and	r2, r2, #7
 1406 0018 4FEA0212 		lsl	r2, r2, #4
 1407 001c D2B2     		uxtb	r2, r2
 1408 001e 1A70     		strb	r2, [r3, #0]
 883:.\Generated_Source\PSoC5/DFB_1.c **** }
 1409              		.loc 1 883 0
 1410 0020 07F10C07 		add	r7, r7, #12
 1411 0024 BD46     		mov	sp, r7
 1412 0026 80BC     		pop	{r7}
 1413 0028 7047     		bx	lr
 1414              		.cfi_endproc
 1415              	.LFE20:
 1416              		.size	DFB_1_ClearSemaphores, .-DFB_1_ClearSemaphores
 1417 002a 00BF     		.section	.text.DFB_1_SetOutput1Source,"ax",%progbits
 1418              		.align	2
 1419              		.global	DFB_1_SetOutput1Source
 1420              		.thumb
 1421              		.thumb_func
 1422              		.type	DFB_1_SetOutput1Source, %function
 1423              	DFB_1_SetOutput1Source:
 1424              	.LFB21:
 884:.\Generated_Source\PSoC5/DFB_1.c **** 
 885:.\Generated_Source\PSoC5/DFB_1.c **** 
 886:.\Generated_Source\PSoC5/DFB_1.c **** /*******************************************************************************
 887:.\Generated_Source\PSoC5/DFB_1.c **** * Function Name: DFB_1_SetOutput1Source
 888:.\Generated_Source\PSoC5/DFB_1.c **** ********************************************************************************
 889:.\Generated_Source\PSoC5/DFB_1.c **** *
 890:.\Generated_Source\PSoC5/DFB_1.c **** * Summary:
 891:.\Generated_Source\PSoC5/DFB_1.c **** *  This function allows you to choose which internal signal will be mapped to
 892:.\Generated_Source\PSoC5/DFB_1.c **** *  the DSI output 1.
 893:.\Generated_Source\PSoC5/DFB_1.c **** *
 894:.\Generated_Source\PSoC5/DFB_1.c **** * Parameters:
 895:.\Generated_Source\PSoC5/DFB_1.c **** *  source: internal signal which is mapped to the output global signal 1.
 896:.\Generated_Source\PSoC5/DFB_1.c **** *   Signal                      Description
 897:.\Generated_Source\PSoC5/DFB_1.c **** *    DFB_1_DFB_RUN    DFB RUN Bit. This is the same bit as the RUN
 898:.\Generated_Source\PSoC5/DFB_1.c **** *                                bit in the DFB_CR register.
 899:.\Generated_Source\PSoC5/DFB_1.c **** *    DFB_1_SEM0       Semaphore Bit 0.
 900:.\Generated_Source\PSoC5/DFB_1.c **** *    DFB_1_SEM1       Semaphore Bit 1.
 901:.\Generated_Source\PSoC5/DFB_1.c **** *    DFB_1_DFB_INTR   DFB Interrupt. This is the same signal as the
 902:.\Generated_Source\PSoC5/DFB_1.c **** *                                primary DFB Interrupt output signal.
 903:.\Generated_Source\PSoC5/DFB_1.c **** *
 904:.\Generated_Source\PSoC5/DFB_1.c **** * Return:
 905:.\Generated_Source\PSoC5/DFB_1.c **** *  None.
 906:.\Generated_Source\PSoC5/DFB_1.c **** *
 907:.\Generated_Source\PSoC5/DFB_1.c **** *******************************************************************************/
 908:.\Generated_Source\PSoC5/DFB_1.c **** void DFB_1_SetOutput1Source(uint8 source) 
 909:.\Generated_Source\PSoC5/DFB_1.c **** {
ARM GAS  C:\Users\hoangp\AppData\Local\Temp\ccil7xJT.s 			page 42


 1425              		.loc 1 909 0
 1426              		.cfi_startproc
 1427              		@ args = 0, pretend = 0, frame = 8
 1428              		@ frame_needed = 1, uses_anonymous_args = 0
 1429              		@ link register save eliminated.
 1430 0000 80B4     		push	{r7}
 1431              	.LCFI58:
 1432              		.cfi_def_cfa_offset 4
 1433 0002 83B0     		sub	sp, sp, #12
 1434              	.LCFI59:
 1435              		.cfi_def_cfa_offset 16
 1436 0004 00AF     		add	r7, sp, #0
 1437              		.cfi_offset 7, -4
 1438              	.LCFI60:
 1439              		.cfi_def_cfa_register 7
 1440 0006 0346     		mov	r3, r0
 1441 0008 FB71     		strb	r3, [r7, #7]
 910:.\Generated_Source\PSoC5/DFB_1.c ****     DFB_1_DSI_CTRL_REG = (DFB_1_DSI_CTRL_REG & DFB_1_DFB_GBL1_OUT_MASK) | source;
 1442              		.loc 1 910 0
 1443 000a 4CF29473 		movw	r3, #:lower16:1073792916
 1444 000e C4F20003 		movt	r3, #:upper16:1073792916
 1445 0012 4CF29472 		movw	r2, #:lower16:1073792916
 1446 0016 C4F20002 		movt	r2, #:upper16:1073792916
 1447 001a 1278     		ldrb	r2, [r2, #0]
 1448 001c D2B2     		uxtb	r2, r2
 1449 001e 02F0FC02 		and	r2, r2, #252
 1450 0022 F979     		ldrb	r1, [r7, #7]
 1451 0024 42EA0102 		orr	r2, r2, r1
 1452 0028 D2B2     		uxtb	r2, r2
 1453 002a 1A70     		strb	r2, [r3, #0]
 911:.\Generated_Source\PSoC5/DFB_1.c **** }
 1454              		.loc 1 911 0
 1455 002c 07F10C07 		add	r7, r7, #12
 1456 0030 BD46     		mov	sp, r7
 1457 0032 80BC     		pop	{r7}
 1458 0034 7047     		bx	lr
 1459              		.cfi_endproc
 1460              	.LFE21:
 1461              		.size	DFB_1_SetOutput1Source, .-DFB_1_SetOutput1Source
 1462 0036 00BF     		.section	.text.DFB_1_SetOutput2Source,"ax",%progbits
 1463              		.align	2
 1464              		.global	DFB_1_SetOutput2Source
 1465              		.thumb
 1466              		.thumb_func
 1467              		.type	DFB_1_SetOutput2Source, %function
 1468              	DFB_1_SetOutput2Source:
 1469              	.LFB22:
 912:.\Generated_Source\PSoC5/DFB_1.c **** 
 913:.\Generated_Source\PSoC5/DFB_1.c **** 
 914:.\Generated_Source\PSoC5/DFB_1.c **** /*******************************************************************************
 915:.\Generated_Source\PSoC5/DFB_1.c **** * Function Name: DFB_1_SetOutput2Source
 916:.\Generated_Source\PSoC5/DFB_1.c **** ********************************************************************************
 917:.\Generated_Source\PSoC5/DFB_1.c **** *
 918:.\Generated_Source\PSoC5/DFB_1.c **** * Summary:
 919:.\Generated_Source\PSoC5/DFB_1.c **** *  This function allows you to choose which internal signal will be mapped to
 920:.\Generated_Source\PSoC5/DFB_1.c **** *  the DSI output 2.
 921:.\Generated_Source\PSoC5/DFB_1.c **** *
ARM GAS  C:\Users\hoangp\AppData\Local\Temp\ccil7xJT.s 			page 43


 922:.\Generated_Source\PSoC5/DFB_1.c **** * Parameters:
 923:.\Generated_Source\PSoC5/DFB_1.c **** *  source: internal signal which is mapped to the output global signal 2.
 924:.\Generated_Source\PSoC5/DFB_1.c **** *   Signal                      Description
 925:.\Generated_Source\PSoC5/DFB_1.c **** *    DFB_1_SEM2       Semaphore Bit 2.
 926:.\Generated_Source\PSoC5/DFB_1.c **** *    DFB_1_DPSIGN     Datapath Sign. This signal asserts anytime the
 927:.\Generated_Source\PSoC5/DFB_1.c **** *                                 output of the ALU in the Datapath unit is
 928:.\Generated_Source\PSoC5/DFB_1.c **** *                                 negative. It will remain high for each cycle
 929:.\Generated_Source\PSoC5/DFB_1.c **** *                                 this condition is true.
 930:.\Generated_Source\PSoC5/DFB_1.c **** *    DFB_1_DPTHRESH   Datapath Threshold Crossed. This signal
 931:.\Generated_Source\PSoC5/DFB_1.c **** *                                 asserts anytime the threshold of 0 is crossed
 932:.\Generated_Source\PSoC5/DFB_1.c **** *                                 in the ALU when one of the following
 933:.\Generated_Source\PSoC5/DFB_1.c **** *                                 instructions is executing: TDECA, TSUBA,
 934:.\Generated_Source\PSoC5/DFB_1.c **** *                                 TSUBB, TADDABSA, TADDABSB. It will remain high
 935:.\Generated_Source\PSoC5/DFB_1.c **** *                                 for each cycle this condition is true.
 936:.\Generated_Source\PSoC5/DFB_1.c **** *    DFB_1_DPEQ       Datapath ALU=0. This signal asserts high when
 937:.\Generated_Source\PSoC5/DFB_1.c **** *                                 the output of the ALU in the Datapath unit
 938:.\Generated_Source\PSoC5/DFB_1.c **** *                                 equals 0 and one of the following ALU commands
 939:.\Generated_Source\PSoC5/DFB_1.c **** *                                 is executing: TDECA, TSUBA, TSUBB, TADDABSA,
 940:.\Generated_Source\PSoC5/DFB_1.c **** *                                 TADDABSB. It will remain high for each cycle
 941:.\Generated_Source\PSoC5/DFB_1.c **** *                                 this condition is true.
 942:.\Generated_Source\PSoC5/DFB_1.c **** *
 943:.\Generated_Source\PSoC5/DFB_1.c **** * Return:
 944:.\Generated_Source\PSoC5/DFB_1.c **** *  None.
 945:.\Generated_Source\PSoC5/DFB_1.c **** *
 946:.\Generated_Source\PSoC5/DFB_1.c **** *******************************************************************************/
 947:.\Generated_Source\PSoC5/DFB_1.c **** void DFB_1_SetOutput2Source(uint8 source) 
 948:.\Generated_Source\PSoC5/DFB_1.c **** {
 1470              		.loc 1 948 0
 1471              		.cfi_startproc
 1472              		@ args = 0, pretend = 0, frame = 8
 1473              		@ frame_needed = 1, uses_anonymous_args = 0
 1474              		@ link register save eliminated.
 1475 0000 80B4     		push	{r7}
 1476              	.LCFI61:
 1477              		.cfi_def_cfa_offset 4
 1478 0002 83B0     		sub	sp, sp, #12
 1479              	.LCFI62:
 1480              		.cfi_def_cfa_offset 16
 1481 0004 00AF     		add	r7, sp, #0
 1482              		.cfi_offset 7, -4
 1483              	.LCFI63:
 1484              		.cfi_def_cfa_register 7
 1485 0006 0346     		mov	r3, r0
 1486 0008 FB71     		strb	r3, [r7, #7]
 949:.\Generated_Source\PSoC5/DFB_1.c ****     DFB_1_DSI_CTRL_REG = (DFB_1_DSI_CTRL_REG & DFB_1_DFB_GBL2_OUT_MASK) | source;
 1487              		.loc 1 949 0
 1488 000a 4CF29473 		movw	r3, #:lower16:1073792916
 1489 000e C4F20003 		movt	r3, #:upper16:1073792916
 1490 0012 4CF29472 		movw	r2, #:lower16:1073792916
 1491 0016 C4F20002 		movt	r2, #:upper16:1073792916
 1492 001a 1278     		ldrb	r2, [r2, #0]
 1493 001c D2B2     		uxtb	r2, r2
 1494 001e 02F0F302 		and	r2, r2, #243
 1495 0022 F979     		ldrb	r1, [r7, #7]
 1496 0024 42EA0102 		orr	r2, r2, r1
 1497 0028 D2B2     		uxtb	r2, r2
 1498 002a 1A70     		strb	r2, [r3, #0]
ARM GAS  C:\Users\hoangp\AppData\Local\Temp\ccil7xJT.s 			page 44


 950:.\Generated_Source\PSoC5/DFB_1.c **** }
 1499              		.loc 1 950 0
 1500 002c 07F10C07 		add	r7, r7, #12
 1501 0030 BD46     		mov	sp, r7
 1502 0032 80BC     		pop	{r7}
 1503 0034 7047     		bx	lr
 1504              		.cfi_endproc
 1505              	.LFE22:
 1506              		.size	DFB_1_SetOutput2Source, .-DFB_1_SetOutput2Source
 1507 0036 00BF     		.text
 1508              	.Letext0:
 1509              		.section	.debug_loc,"",%progbits
 1510              	.Ldebug_loc0:
 1511              	.LLST0:
 1512 0000 00000000 		.4byte	.LFB0
 1513 0004 02000000 		.4byte	.LCFI0
 1514 0008 0100     		.2byte	0x1
 1515 000a 5D       		.byte	0x5d
 1516 000b 02000000 		.4byte	.LCFI0
 1517 000f 04000000 		.4byte	.LCFI1
 1518 0013 0200     		.2byte	0x2
 1519 0015 7D       		.byte	0x7d
 1520 0016 04       		.sleb128 4
 1521 0017 04000000 		.4byte	.LCFI1
 1522 001b 06000000 		.4byte	.LCFI2
 1523 001f 0200     		.2byte	0x2
 1524 0021 7D       		.byte	0x7d
 1525 0022 20       		.sleb128 32
 1526 0023 06000000 		.4byte	.LCFI2
 1527 0027 4E000000 		.4byte	.LFE0
 1528 002b 0200     		.2byte	0x2
 1529 002d 77       		.byte	0x77
 1530 002e 20       		.sleb128 32
 1531 002f 00000000 		.4byte	0x0
 1532 0033 00000000 		.4byte	0x0
 1533              	.LLST1:
 1534 0037 00000000 		.4byte	.LFB1
 1535 003b 02000000 		.4byte	.LCFI3
 1536 003f 0100     		.2byte	0x1
 1537 0041 5D       		.byte	0x5d
 1538 0042 02000000 		.4byte	.LCFI3
 1539 0046 04000000 		.4byte	.LCFI4
 1540 004a 0200     		.2byte	0x2
 1541 004c 7D       		.byte	0x7d
 1542 004d 04       		.sleb128 4
 1543 004e 04000000 		.4byte	.LCFI4
 1544 0052 06000000 		.4byte	.LCFI5
 1545 0056 0200     		.2byte	0x2
 1546 0058 7D       		.byte	0x7d
 1547 0059 18       		.sleb128 24
 1548 005a 06000000 		.4byte	.LCFI5
 1549 005e 44000000 		.4byte	.LFE1
 1550 0062 0200     		.2byte	0x2
 1551 0064 77       		.byte	0x77
 1552 0065 18       		.sleb128 24
 1553 0066 00000000 		.4byte	0x0
 1554 006a 00000000 		.4byte	0x0
ARM GAS  C:\Users\hoangp\AppData\Local\Temp\ccil7xJT.s 			page 45


 1555              	.LLST2:
 1556 006e 00000000 		.4byte	.LFB2
 1557 0072 02000000 		.4byte	.LCFI6
 1558 0076 0100     		.2byte	0x1
 1559 0078 5D       		.byte	0x5d
 1560 0079 02000000 		.4byte	.LCFI6
 1561 007d 04000000 		.4byte	.LCFI7
 1562 0081 0200     		.2byte	0x2
 1563 0083 7D       		.byte	0x7d
 1564 0084 08       		.sleb128 8
 1565 0085 04000000 		.4byte	.LCFI7
 1566 0089 06000000 		.4byte	.LCFI8
 1567 008d 0200     		.2byte	0x2
 1568 008f 7D       		.byte	0x7d
 1569 0090 10       		.sleb128 16
 1570 0091 06000000 		.4byte	.LCFI8
 1571 0095 B8010000 		.4byte	.LFE2
 1572 0099 0200     		.2byte	0x2
 1573 009b 77       		.byte	0x77
 1574 009c 10       		.sleb128 16
 1575 009d 00000000 		.4byte	0x0
 1576 00a1 00000000 		.4byte	0x0
 1577              	.LLST3:
 1578 00a5 00000000 		.4byte	.LFB3
 1579 00a9 02000000 		.4byte	.LCFI9
 1580 00ad 0100     		.2byte	0x1
 1581 00af 5D       		.byte	0x5d
 1582 00b0 02000000 		.4byte	.LCFI9
 1583 00b4 04000000 		.4byte	.LCFI10
 1584 00b8 0200     		.2byte	0x2
 1585 00ba 7D       		.byte	0x7d
 1586 00bb 08       		.sleb128 8
 1587 00bc 04000000 		.4byte	.LCFI10
 1588 00c0 06000000 		.4byte	.LCFI11
 1589 00c4 0200     		.2byte	0x2
 1590 00c6 7D       		.byte	0x7d
 1591 00c7 10       		.sleb128 16
 1592 00c8 06000000 		.4byte	.LCFI11
 1593 00cc 80000000 		.4byte	.LFE3
 1594 00d0 0200     		.2byte	0x2
 1595 00d2 77       		.byte	0x77
 1596 00d3 10       		.sleb128 16
 1597 00d4 00000000 		.4byte	0x0
 1598 00d8 00000000 		.4byte	0x0
 1599              	.LLST4:
 1600 00dc 00000000 		.4byte	.LFB4
 1601 00e0 02000000 		.4byte	.LCFI12
 1602 00e4 0100     		.2byte	0x1
 1603 00e6 5D       		.byte	0x5d
 1604 00e7 02000000 		.4byte	.LCFI12
 1605 00eb 04000000 		.4byte	.LCFI13
 1606 00ef 0200     		.2byte	0x2
 1607 00f1 7D       		.byte	0x7d
 1608 00f2 08       		.sleb128 8
 1609 00f3 04000000 		.4byte	.LCFI13
 1610 00f7 2A000000 		.4byte	.LFE4
 1611 00fb 0200     		.2byte	0x2
ARM GAS  C:\Users\hoangp\AppData\Local\Temp\ccil7xJT.s 			page 46


 1612 00fd 77       		.byte	0x77
 1613 00fe 08       		.sleb128 8
 1614 00ff 00000000 		.4byte	0x0
 1615 0103 00000000 		.4byte	0x0
 1616              	.LLST5:
 1617 0107 00000000 		.4byte	.LFB5
 1618 010b 02000000 		.4byte	.LCFI14
 1619 010f 0100     		.2byte	0x1
 1620 0111 5D       		.byte	0x5d
 1621 0112 02000000 		.4byte	.LCFI14
 1622 0116 04000000 		.4byte	.LCFI15
 1623 011a 0200     		.2byte	0x2
 1624 011c 7D       		.byte	0x7d
 1625 011d 08       		.sleb128 8
 1626 011e 04000000 		.4byte	.LCFI15
 1627 0122 06000000 		.4byte	.LCFI16
 1628 0126 0200     		.2byte	0x2
 1629 0128 7D       		.byte	0x7d
 1630 0129 10       		.sleb128 16
 1631 012a 06000000 		.4byte	.LCFI16
 1632 012e 6C000000 		.4byte	.LFE5
 1633 0132 0200     		.2byte	0x2
 1634 0134 77       		.byte	0x77
 1635 0135 10       		.sleb128 16
 1636 0136 00000000 		.4byte	0x0
 1637 013a 00000000 		.4byte	0x0
 1638              	.LLST6:
 1639 013e 00000000 		.4byte	.LFB6
 1640 0142 02000000 		.4byte	.LCFI17
 1641 0146 0100     		.2byte	0x1
 1642 0148 5D       		.byte	0x5d
 1643 0149 02000000 		.4byte	.LCFI17
 1644 014d 04000000 		.4byte	.LCFI18
 1645 0151 0200     		.2byte	0x2
 1646 0153 7D       		.byte	0x7d
 1647 0154 04       		.sleb128 4
 1648 0155 04000000 		.4byte	.LCFI18
 1649 0159 32000000 		.4byte	.LFE6
 1650 015d 0200     		.2byte	0x2
 1651 015f 77       		.byte	0x77
 1652 0160 04       		.sleb128 4
 1653 0161 00000000 		.4byte	0x0
 1654 0165 00000000 		.4byte	0x0
 1655              	.LLST7:
 1656 0169 00000000 		.4byte	.LFB7
 1657 016d 02000000 		.4byte	.LCFI19
 1658 0171 0100     		.2byte	0x1
 1659 0173 5D       		.byte	0x5d
 1660 0174 02000000 		.4byte	.LCFI19
 1661 0178 04000000 		.4byte	.LCFI20
 1662 017c 0200     		.2byte	0x2
 1663 017e 7D       		.byte	0x7d
 1664 017f 04       		.sleb128 4
 1665 0180 04000000 		.4byte	.LCFI20
 1666 0184 42000000 		.4byte	.LFE7
 1667 0188 0200     		.2byte	0x2
 1668 018a 77       		.byte	0x77
ARM GAS  C:\Users\hoangp\AppData\Local\Temp\ccil7xJT.s 			page 47


 1669 018b 04       		.sleb128 4
 1670 018c 00000000 		.4byte	0x0
 1671 0190 00000000 		.4byte	0x0
 1672              	.LLST8:
 1673 0194 00000000 		.4byte	.LFB8
 1674 0198 02000000 		.4byte	.LCFI21
 1675 019c 0100     		.2byte	0x1
 1676 019e 5D       		.byte	0x5d
 1677 019f 02000000 		.4byte	.LCFI21
 1678 01a3 04000000 		.4byte	.LCFI22
 1679 01a7 0200     		.2byte	0x2
 1680 01a9 7D       		.byte	0x7d
 1681 01aa 04       		.sleb128 4
 1682 01ab 04000000 		.4byte	.LCFI22
 1683 01af 06000000 		.4byte	.LCFI23
 1684 01b3 0200     		.2byte	0x2
 1685 01b5 7D       		.byte	0x7d
 1686 01b6 10       		.sleb128 16
 1687 01b7 06000000 		.4byte	.LCFI23
 1688 01bb 20000000 		.4byte	.LFE8
 1689 01bf 0200     		.2byte	0x2
 1690 01c1 77       		.byte	0x77
 1691 01c2 10       		.sleb128 16
 1692 01c3 00000000 		.4byte	0x0
 1693 01c7 00000000 		.4byte	0x0
 1694              	.LLST9:
 1695 01cb 00000000 		.4byte	.LFB9
 1696 01cf 02000000 		.4byte	.LCFI24
 1697 01d3 0100     		.2byte	0x1
 1698 01d5 5D       		.byte	0x5d
 1699 01d6 02000000 		.4byte	.LCFI24
 1700 01da 04000000 		.4byte	.LCFI25
 1701 01de 0200     		.2byte	0x2
 1702 01e0 7D       		.byte	0x7d
 1703 01e1 04       		.sleb128 4
 1704 01e2 04000000 		.4byte	.LCFI25
 1705 01e6 06000000 		.4byte	.LCFI26
 1706 01ea 0200     		.2byte	0x2
 1707 01ec 7D       		.byte	0x7d
 1708 01ed 10       		.sleb128 16
 1709 01ee 06000000 		.4byte	.LCFI26
 1710 01f2 20000000 		.4byte	.LFE9
 1711 01f6 0200     		.2byte	0x2
 1712 01f8 77       		.byte	0x77
 1713 01f9 10       		.sleb128 16
 1714 01fa 00000000 		.4byte	0x0
 1715 01fe 00000000 		.4byte	0x0
 1716              	.LLST10:
 1717 0202 00000000 		.4byte	.LFB10
 1718 0206 02000000 		.4byte	.LCFI27
 1719 020a 0100     		.2byte	0x1
 1720 020c 5D       		.byte	0x5d
 1721 020d 02000000 		.4byte	.LCFI27
 1722 0211 04000000 		.4byte	.LCFI28
 1723 0215 0200     		.2byte	0x2
 1724 0217 7D       		.byte	0x7d
 1725 0218 04       		.sleb128 4
ARM GAS  C:\Users\hoangp\AppData\Local\Temp\ccil7xJT.s 			page 48


 1726 0219 04000000 		.4byte	.LCFI28
 1727 021d 06000000 		.4byte	.LCFI29
 1728 0221 0200     		.2byte	0x2
 1729 0223 7D       		.byte	0x7d
 1730 0224 20       		.sleb128 32
 1731 0225 06000000 		.4byte	.LCFI29
 1732 0229 DC000000 		.4byte	.LFE10
 1733 022d 0200     		.2byte	0x2
 1734 022f 77       		.byte	0x77
 1735 0230 20       		.sleb128 32
 1736 0231 00000000 		.4byte	0x0
 1737 0235 00000000 		.4byte	0x0
 1738              	.LLST11:
 1739 0239 00000000 		.4byte	.LFB11
 1740 023d 02000000 		.4byte	.LCFI30
 1741 0241 0100     		.2byte	0x1
 1742 0243 5D       		.byte	0x5d
 1743 0244 02000000 		.4byte	.LCFI30
 1744 0248 04000000 		.4byte	.LCFI31
 1745 024c 0200     		.2byte	0x2
 1746 024e 7D       		.byte	0x7d
 1747 024f 04       		.sleb128 4
 1748 0250 04000000 		.4byte	.LCFI31
 1749 0254 06000000 		.4byte	.LCFI32
 1750 0258 0200     		.2byte	0x2
 1751 025a 7D       		.byte	0x7d
 1752 025b 20       		.sleb128 32
 1753 025c 06000000 		.4byte	.LCFI32
 1754 0260 DC000000 		.4byte	.LFE11
 1755 0264 0200     		.2byte	0x2
 1756 0266 77       		.byte	0x77
 1757 0267 20       		.sleb128 32
 1758 0268 00000000 		.4byte	0x0
 1759 026c 00000000 		.4byte	0x0
 1760              	.LLST12:
 1761 0270 00000000 		.4byte	.LFB12
 1762 0274 02000000 		.4byte	.LCFI33
 1763 0278 0100     		.2byte	0x1
 1764 027a 5D       		.byte	0x5d
 1765 027b 02000000 		.4byte	.LCFI33
 1766 027f 04000000 		.4byte	.LCFI34
 1767 0283 0200     		.2byte	0x2
 1768 0285 7D       		.byte	0x7d
 1769 0286 04       		.sleb128 4
 1770 0287 04000000 		.4byte	.LCFI34
 1771 028b 06000000 		.4byte	.LCFI35
 1772 028f 0200     		.2byte	0x2
 1773 0291 7D       		.byte	0x7d
 1774 0292 18       		.sleb128 24
 1775 0293 06000000 		.4byte	.LCFI35
 1776 0297 8C000000 		.4byte	.LFE12
 1777 029b 0200     		.2byte	0x2
 1778 029d 77       		.byte	0x77
 1779 029e 18       		.sleb128 24
 1780 029f 00000000 		.4byte	0x0
 1781 02a3 00000000 		.4byte	0x0
 1782              	.LLST13:
ARM GAS  C:\Users\hoangp\AppData\Local\Temp\ccil7xJT.s 			page 49


 1783 02a7 00000000 		.4byte	.LFB13
 1784 02ab 02000000 		.4byte	.LCFI36
 1785 02af 0100     		.2byte	0x1
 1786 02b1 5D       		.byte	0x5d
 1787 02b2 02000000 		.4byte	.LCFI36
 1788 02b6 04000000 		.4byte	.LCFI37
 1789 02ba 0200     		.2byte	0x2
 1790 02bc 7D       		.byte	0x7d
 1791 02bd 04       		.sleb128 4
 1792 02be 04000000 		.4byte	.LCFI37
 1793 02c2 06000000 		.4byte	.LCFI38
 1794 02c6 0200     		.2byte	0x2
 1795 02c8 7D       		.byte	0x7d
 1796 02c9 18       		.sleb128 24
 1797 02ca 06000000 		.4byte	.LCFI38
 1798 02ce D2000000 		.4byte	.LFE13
 1799 02d2 0200     		.2byte	0x2
 1800 02d4 77       		.byte	0x77
 1801 02d5 18       		.sleb128 24
 1802 02d6 00000000 		.4byte	0x0
 1803 02da 00000000 		.4byte	0x0
 1804              	.LLST14:
 1805 02de 00000000 		.4byte	.LFB14
 1806 02e2 02000000 		.4byte	.LCFI39
 1807 02e6 0100     		.2byte	0x1
 1808 02e8 5D       		.byte	0x5d
 1809 02e9 02000000 		.4byte	.LCFI39
 1810 02ed 04000000 		.4byte	.LCFI40
 1811 02f1 0200     		.2byte	0x2
 1812 02f3 7D       		.byte	0x7d
 1813 02f4 04       		.sleb128 4
 1814 02f5 04000000 		.4byte	.LCFI40
 1815 02f9 06000000 		.4byte	.LCFI41
 1816 02fd 0200     		.2byte	0x2
 1817 02ff 7D       		.byte	0x7d
 1818 0300 10       		.sleb128 16
 1819 0301 06000000 		.4byte	.LCFI41
 1820 0305 24000000 		.4byte	.LFE14
 1821 0309 0200     		.2byte	0x2
 1822 030b 77       		.byte	0x77
 1823 030c 10       		.sleb128 16
 1824 030d 00000000 		.4byte	0x0
 1825 0311 00000000 		.4byte	0x0
 1826              	.LLST15:
 1827 0315 00000000 		.4byte	.LFB15
 1828 0319 02000000 		.4byte	.LCFI42
 1829 031d 0100     		.2byte	0x1
 1830 031f 5D       		.byte	0x5d
 1831 0320 02000000 		.4byte	.LCFI42
 1832 0324 04000000 		.4byte	.LCFI43
 1833 0328 0200     		.2byte	0x2
 1834 032a 7D       		.byte	0x7d
 1835 032b 04       		.sleb128 4
 1836 032c 04000000 		.4byte	.LCFI43
 1837 0330 1E000000 		.4byte	.LFE15
 1838 0334 0200     		.2byte	0x2
 1839 0336 77       		.byte	0x77
ARM GAS  C:\Users\hoangp\AppData\Local\Temp\ccil7xJT.s 			page 50


 1840 0337 04       		.sleb128 4
 1841 0338 00000000 		.4byte	0x0
 1842 033c 00000000 		.4byte	0x0
 1843              	.LLST16:
 1844 0340 00000000 		.4byte	.LFB16
 1845 0344 02000000 		.4byte	.LCFI44
 1846 0348 0100     		.2byte	0x1
 1847 034a 5D       		.byte	0x5d
 1848 034b 02000000 		.4byte	.LCFI44
 1849 034f 04000000 		.4byte	.LCFI45
 1850 0353 0200     		.2byte	0x2
 1851 0355 7D       		.byte	0x7d
 1852 0356 04       		.sleb128 4
 1853 0357 04000000 		.4byte	.LCFI45
 1854 035b 06000000 		.4byte	.LCFI46
 1855 035f 0200     		.2byte	0x2
 1856 0361 7D       		.byte	0x7d
 1857 0362 10       		.sleb128 16
 1858 0363 06000000 		.4byte	.LCFI46
 1859 0367 38000000 		.4byte	.LFE16
 1860 036b 0200     		.2byte	0x2
 1861 036d 77       		.byte	0x77
 1862 036e 10       		.sleb128 16
 1863 036f 00000000 		.4byte	0x0
 1864 0373 00000000 		.4byte	0x0
 1865              	.LLST17:
 1866 0377 00000000 		.4byte	.LFB17
 1867 037b 02000000 		.4byte	.LCFI47
 1868 037f 0100     		.2byte	0x1
 1869 0381 5D       		.byte	0x5d
 1870 0382 02000000 		.4byte	.LCFI47
 1871 0386 04000000 		.4byte	.LCFI48
 1872 038a 0200     		.2byte	0x2
 1873 038c 7D       		.byte	0x7d
 1874 038d 04       		.sleb128 4
 1875 038e 04000000 		.4byte	.LCFI48
 1876 0392 06000000 		.4byte	.LCFI49
 1877 0396 0200     		.2byte	0x2
 1878 0398 7D       		.byte	0x7d
 1879 0399 10       		.sleb128 16
 1880 039a 06000000 		.4byte	.LCFI49
 1881 039e 24000000 		.4byte	.LFE17
 1882 03a2 0200     		.2byte	0x2
 1883 03a4 77       		.byte	0x77
 1884 03a5 10       		.sleb128 16
 1885 03a6 00000000 		.4byte	0x0
 1886 03aa 00000000 		.4byte	0x0
 1887              	.LLST18:
 1888 03ae 00000000 		.4byte	.LFB18
 1889 03b2 02000000 		.4byte	.LCFI50
 1890 03b6 0100     		.2byte	0x1
 1891 03b8 5D       		.byte	0x5d
 1892 03b9 02000000 		.4byte	.LCFI50
 1893 03bd 04000000 		.4byte	.LCFI51
 1894 03c1 0200     		.2byte	0x2
 1895 03c3 7D       		.byte	0x7d
 1896 03c4 04       		.sleb128 4
ARM GAS  C:\Users\hoangp\AppData\Local\Temp\ccil7xJT.s 			page 51


 1897 03c5 04000000 		.4byte	.LCFI51
 1898 03c9 06000000 		.4byte	.LCFI52
 1899 03cd 0200     		.2byte	0x2
 1900 03cf 7D       		.byte	0x7d
 1901 03d0 10       		.sleb128 16
 1902 03d1 06000000 		.4byte	.LCFI52
 1903 03d5 30000000 		.4byte	.LFE18
 1904 03d9 0200     		.2byte	0x2
 1905 03db 77       		.byte	0x77
 1906 03dc 10       		.sleb128 16
 1907 03dd 00000000 		.4byte	0x0
 1908 03e1 00000000 		.4byte	0x0
 1909              	.LLST19:
 1910 03e5 00000000 		.4byte	.LFB19
 1911 03e9 02000000 		.4byte	.LCFI53
 1912 03ed 0100     		.2byte	0x1
 1913 03ef 5D       		.byte	0x5d
 1914 03f0 02000000 		.4byte	.LCFI53
 1915 03f4 04000000 		.4byte	.LCFI54
 1916 03f8 0200     		.2byte	0x2
 1917 03fa 7D       		.byte	0x7d
 1918 03fb 04       		.sleb128 4
 1919 03fc 04000000 		.4byte	.LCFI54
 1920 0400 1C000000 		.4byte	.LFE19
 1921 0404 0200     		.2byte	0x2
 1922 0406 77       		.byte	0x77
 1923 0407 04       		.sleb128 4
 1924 0408 00000000 		.4byte	0x0
 1925 040c 00000000 		.4byte	0x0
 1926              	.LLST20:
 1927 0410 00000000 		.4byte	.LFB20
 1928 0414 02000000 		.4byte	.LCFI55
 1929 0418 0100     		.2byte	0x1
 1930 041a 5D       		.byte	0x5d
 1931 041b 02000000 		.4byte	.LCFI55
 1932 041f 04000000 		.4byte	.LCFI56
 1933 0423 0200     		.2byte	0x2
 1934 0425 7D       		.byte	0x7d
 1935 0426 04       		.sleb128 4
 1936 0427 04000000 		.4byte	.LCFI56
 1937 042b 06000000 		.4byte	.LCFI57
 1938 042f 0200     		.2byte	0x2
 1939 0431 7D       		.byte	0x7d
 1940 0432 10       		.sleb128 16
 1941 0433 06000000 		.4byte	.LCFI57
 1942 0437 2A000000 		.4byte	.LFE20
 1943 043b 0200     		.2byte	0x2
 1944 043d 77       		.byte	0x77
 1945 043e 10       		.sleb128 16
 1946 043f 00000000 		.4byte	0x0
 1947 0443 00000000 		.4byte	0x0
 1948              	.LLST21:
 1949 0447 00000000 		.4byte	.LFB21
 1950 044b 02000000 		.4byte	.LCFI58
 1951 044f 0100     		.2byte	0x1
 1952 0451 5D       		.byte	0x5d
 1953 0452 02000000 		.4byte	.LCFI58
ARM GAS  C:\Users\hoangp\AppData\Local\Temp\ccil7xJT.s 			page 52


 1954 0456 04000000 		.4byte	.LCFI59
 1955 045a 0200     		.2byte	0x2
 1956 045c 7D       		.byte	0x7d
 1957 045d 04       		.sleb128 4
 1958 045e 04000000 		.4byte	.LCFI59
 1959 0462 06000000 		.4byte	.LCFI60
 1960 0466 0200     		.2byte	0x2
 1961 0468 7D       		.byte	0x7d
 1962 0469 10       		.sleb128 16
 1963 046a 06000000 		.4byte	.LCFI60
 1964 046e 36000000 		.4byte	.LFE21
 1965 0472 0200     		.2byte	0x2
 1966 0474 77       		.byte	0x77
 1967 0475 10       		.sleb128 16
 1968 0476 00000000 		.4byte	0x0
 1969 047a 00000000 		.4byte	0x0
 1970              	.LLST22:
 1971 047e 00000000 		.4byte	.LFB22
 1972 0482 02000000 		.4byte	.LCFI61
 1973 0486 0100     		.2byte	0x1
 1974 0488 5D       		.byte	0x5d
 1975 0489 02000000 		.4byte	.LCFI61
 1976 048d 04000000 		.4byte	.LCFI62
 1977 0491 0200     		.2byte	0x2
 1978 0493 7D       		.byte	0x7d
 1979 0494 04       		.sleb128 4
 1980 0495 04000000 		.4byte	.LCFI62
 1981 0499 06000000 		.4byte	.LCFI63
 1982 049d 0200     		.2byte	0x2
 1983 049f 7D       		.byte	0x7d
 1984 04a0 10       		.sleb128 16
 1985 04a1 06000000 		.4byte	.LCFI63
 1986 04a5 36000000 		.4byte	.LFE22
 1987 04a9 0200     		.2byte	0x2
 1988 04ab 77       		.byte	0x77
 1989 04ac 10       		.sleb128 16
 1990 04ad 00000000 		.4byte	0x0
 1991 04b1 00000000 		.4byte	0x0
 1992              		.file 2 ".\\Generated_Source\\PSoC5\\/cytypes.h"
 1993              		.file 3 ".\\Generated_Source\\PSoC5\\/DFB_1.h"
 1994              		.section	.debug_info
 1995 0000 E2050000 		.4byte	0x5e2
 1996 0004 0200     		.2byte	0x2
 1997 0006 00000000 		.4byte	.Ldebug_abbrev0
 1998 000a 04       		.byte	0x4
 1999 000b 01       		.uleb128 0x1
 2000 000c 2F000000 		.4byte	.LASF64
 2001 0010 01       		.byte	0x1
 2002 0011 4E020000 		.4byte	.LASF65
 2003 0015 33030000 		.4byte	.LASF66
 2004 0019 00000000 		.4byte	0x0
 2005 001d 00000000 		.4byte	0x0
 2006 0021 00000000 		.4byte	.Ldebug_ranges0+0x0
 2007 0025 00000000 		.4byte	.Ldebug_line0
 2008 0029 02       		.uleb128 0x2
 2009 002a 01       		.byte	0x1
 2010 002b 06       		.byte	0x6
ARM GAS  C:\Users\hoangp\AppData\Local\Temp\ccil7xJT.s 			page 53


 2011 002c 50000000 		.4byte	.LASF0
 2012 0030 02       		.uleb128 0x2
 2013 0031 01       		.byte	0x1
 2014 0032 08       		.byte	0x8
 2015 0033 02020000 		.4byte	.LASF1
 2016 0037 02       		.uleb128 0x2
 2017 0038 02       		.byte	0x2
 2018 0039 05       		.byte	0x5
 2019 003a 23020000 		.4byte	.LASF2
 2020 003e 02       		.uleb128 0x2
 2021 003f 02       		.byte	0x2
 2022 0040 07       		.byte	0x7
 2023 0041 2F010000 		.4byte	.LASF3
 2024 0045 02       		.uleb128 0x2
 2025 0046 04       		.byte	0x4
 2026 0047 05       		.byte	0x5
 2027 0048 8F000000 		.4byte	.LASF4
 2028 004c 02       		.uleb128 0x2
 2029 004d 04       		.byte	0x4
 2030 004e 07       		.byte	0x7
 2031 004f 0D010000 		.4byte	.LASF5
 2032 0053 02       		.uleb128 0x2
 2033 0054 08       		.byte	0x8
 2034 0055 05       		.byte	0x5
 2035 0056 42000000 		.4byte	.LASF6
 2036 005a 02       		.uleb128 0x2
 2037 005b 08       		.byte	0x8
 2038 005c 07       		.byte	0x7
 2039 005d 06000000 		.4byte	.LASF7
 2040 0061 03       		.uleb128 0x3
 2041 0062 04       		.byte	0x4
 2042 0063 05       		.byte	0x5
 2043 0064 696E7400 		.ascii	"int\000"
 2044 0068 02       		.uleb128 0x2
 2045 0069 04       		.byte	0x4
 2046 006a 07       		.byte	0x7
 2047 006b 00010000 		.4byte	.LASF8
 2048 006f 04       		.uleb128 0x4
 2049 0070 E1000000 		.4byte	.LASF9
 2050 0074 02       		.byte	0x2
 2051 0075 4C       		.byte	0x4c
 2052 0076 30000000 		.4byte	0x30
 2053 007a 04       		.uleb128 0x4
 2054 007b EE000000 		.4byte	.LASF10
 2055 007f 02       		.byte	0x2
 2056 0080 4E       		.byte	0x4e
 2057 0081 4C000000 		.4byte	0x4c
 2058 0085 04       		.uleb128 0x4
 2059 0086 70000000 		.4byte	.LASF11
 2060 008a 02       		.byte	0x2
 2061 008b 51       		.byte	0x51
 2062 008c 45000000 		.4byte	0x45
 2063 0090 02       		.uleb128 0x2
 2064 0091 04       		.byte	0x4
 2065 0092 04       		.byte	0x4
 2066 0093 D5010000 		.4byte	.LASF12
 2067 0097 02       		.uleb128 0x2
ARM GAS  C:\Users\hoangp\AppData\Local\Temp\ccil7xJT.s 			page 54


 2068 0098 08       		.byte	0x8
 2069 0099 04       		.byte	0x4
 2070 009a E7000000 		.4byte	.LASF13
 2071 009e 02       		.uleb128 0x2
 2072 009f 01       		.byte	0x1
 2073 00a0 08       		.byte	0x8
 2074 00a1 95020000 		.4byte	.LASF14
 2075 00a5 05       		.uleb128 0x5
 2076 00a6 04       		.byte	0x4
 2077 00a7 07       		.byte	0x7
 2078 00a8 06       		.uleb128 0x6
 2079 00a9 D1000000 		.4byte	.LASF18
 2080 00ad 01       		.byte	0x1
 2081 00ae 2E       		.byte	0x2e
 2082 00af 01       		.byte	0x1
 2083 00b0 00000000 		.4byte	.LFB0
 2084 00b4 4E000000 		.4byte	.LFE0
 2085 00b8 00000000 		.4byte	.LLST0
 2086 00bc F7000000 		.4byte	0xf7
 2087 00c0 07       		.uleb128 0x7
 2088 00c1 1F010000 		.4byte	.LASF15
 2089 00c5 01       		.byte	0x1
 2090 00c6 2E       		.byte	0x2e
 2091 00c7 F7000000 		.4byte	0xf7
 2092 00cb 02       		.byte	0x2
 2093 00cc 91       		.byte	0x91
 2094 00cd 6C       		.sleb128 -20
 2095 00ce 07       		.uleb128 0x7
 2096 00cf 79010000 		.4byte	.LASF16
 2097 00d3 01       		.byte	0x1
 2098 00d4 2E       		.byte	0x2e
 2099 00d5 02010000 		.4byte	0x102
 2100 00d9 02       		.byte	0x2
 2101 00da 91       		.byte	0x91
 2102 00db 68       		.sleb128 -24
 2103 00dc 07       		.uleb128 0x7
 2104 00dd 00000000 		.4byte	.LASF17
 2105 00e1 01       		.byte	0x1
 2106 00e2 2E       		.byte	0x2e
 2107 00e3 6F000000 		.4byte	0x6f
 2108 00e7 02       		.byte	0x2
 2109 00e8 91       		.byte	0x91
 2110 00e9 67       		.sleb128 -25
 2111 00ea 08       		.uleb128 0x8
 2112 00eb 6900     		.ascii	"i\000"
 2113 00ed 01       		.byte	0x1
 2114 00ee 30       		.byte	0x30
 2115 00ef 6F000000 		.4byte	0x6f
 2116 00f3 02       		.byte	0x2
 2117 00f4 91       		.byte	0x91
 2118 00f5 77       		.sleb128 -9
 2119 00f6 00       		.byte	0x0
 2120 00f7 09       		.uleb128 0x9
 2121 00f8 04       		.byte	0x4
 2122 00f9 FD000000 		.4byte	0xfd
 2123 00fd 0A       		.uleb128 0xa
 2124 00fe 4C000000 		.4byte	0x4c
ARM GAS  C:\Users\hoangp\AppData\Local\Temp\ccil7xJT.s 			page 55


 2125 0102 09       		.uleb128 0x9
 2126 0103 04       		.byte	0x4
 2127 0104 08010000 		.4byte	0x108
 2128 0108 0B       		.uleb128 0xb
 2129 0109 7A000000 		.4byte	0x7a
 2130 010d 06       		.uleb128 0x6
 2131 010e AD020000 		.4byte	.LASF19
 2132 0112 01       		.byte	0x1
 2133 0113 4E       		.byte	0x4e
 2134 0114 01       		.byte	0x1
 2135 0115 00000000 		.4byte	.LFB1
 2136 0119 44000000 		.4byte	.LFE1
 2137 011d 37000000 		.4byte	.LLST1
 2138 0121 4E010000 		.4byte	0x14e
 2139 0125 07       		.uleb128 0x7
 2140 0126 1F010000 		.4byte	.LASF15
 2141 012a 01       		.byte	0x1
 2142 012b 4E       		.byte	0x4e
 2143 012c F7000000 		.4byte	0xf7
 2144 0130 02       		.byte	0x2
 2145 0131 91       		.byte	0x91
 2146 0132 6C       		.sleb128 -20
 2147 0133 07       		.uleb128 0x7
 2148 0134 00000000 		.4byte	.LASF17
 2149 0138 01       		.byte	0x1
 2150 0139 4E       		.byte	0x4e
 2151 013a 6F000000 		.4byte	0x6f
 2152 013e 02       		.byte	0x2
 2153 013f 91       		.byte	0x91
 2154 0140 6B       		.sleb128 -21
 2155 0141 08       		.uleb128 0x8
 2156 0142 6900     		.ascii	"i\000"
 2157 0144 01       		.byte	0x1
 2158 0145 50       		.byte	0x50
 2159 0146 6F000000 		.4byte	0x6f
 2160 014a 02       		.byte	0x2
 2161 014b 91       		.byte	0x91
 2162 014c 77       		.sleb128 -9
 2163 014d 00       		.byte	0x0
 2164 014e 0C       		.uleb128 0xc
 2165 014f 01       		.byte	0x1
 2166 0150 0C030000 		.4byte	.LASF21
 2167 0154 01       		.byte	0x1
 2168 0155 78       		.byte	0x78
 2169 0156 01       		.byte	0x1
 2170 0157 00000000 		.4byte	.LFB2
 2171 015b B8010000 		.4byte	.LFE2
 2172 015f 6E000000 		.4byte	.LLST2
 2173 0163 76010000 		.4byte	0x176
 2174 0167 0D       		.uleb128 0xd
 2175 0168 FB020000 		.4byte	.LASF20
 2176 016c 01       		.byte	0x1
 2177 016d 7A       		.byte	0x7a
 2178 016e 6F000000 		.4byte	0x6f
 2179 0172 02       		.byte	0x2
 2180 0173 91       		.byte	0x91
 2181 0174 77       		.sleb128 -9
ARM GAS  C:\Users\hoangp\AppData\Local\Temp\ccil7xJT.s 			page 56


 2182 0175 00       		.byte	0x0
 2183 0176 0C       		.uleb128 0xc
 2184 0177 01       		.byte	0x1
 2185 0178 22000000 		.4byte	.LASF22
 2186 017c 01       		.byte	0x1
 2187 017d CA       		.byte	0xca
 2188 017e 01       		.byte	0x1
 2189 017f 00000000 		.4byte	.LFB3
 2190 0183 80000000 		.4byte	.LFE3
 2191 0187 A5000000 		.4byte	.LLST3
 2192 018b 9E010000 		.4byte	0x19e
 2193 018f 0D       		.uleb128 0xd
 2194 0190 FB020000 		.4byte	.LASF20
 2195 0194 01       		.byte	0x1
 2196 0195 CC       		.byte	0xcc
 2197 0196 6F000000 		.4byte	0x6f
 2198 019a 02       		.byte	0x2
 2199 019b 91       		.byte	0x91
 2200 019c 77       		.sleb128 -9
 2201 019d 00       		.byte	0x0
 2202 019e 0E       		.uleb128 0xe
 2203 019f 01       		.byte	0x1
 2204 01a0 DF020000 		.4byte	.LASF24
 2205 01a4 01       		.byte	0x1
 2206 01a5 F4       		.byte	0xf4
 2207 01a6 01       		.byte	0x1
 2208 01a7 00000000 		.4byte	.LFB4
 2209 01ab 2A000000 		.4byte	.LFE4
 2210 01af DC000000 		.4byte	.LLST4
 2211 01b3 0F       		.uleb128 0xf
 2212 01b4 01       		.byte	0x1
 2213 01b5 67010000 		.4byte	.LASF23
 2214 01b9 01       		.byte	0x1
 2215 01ba 1201     		.2byte	0x112
 2216 01bc 01       		.byte	0x1
 2217 01bd 00000000 		.4byte	.LFB5
 2218 01c1 6C000000 		.4byte	.LFE5
 2219 01c5 07010000 		.4byte	.LLST5
 2220 01c9 DD010000 		.4byte	0x1dd
 2221 01cd 10       		.uleb128 0x10
 2222 01ce FB020000 		.4byte	.LASF20
 2223 01d2 01       		.byte	0x1
 2224 01d3 1401     		.2byte	0x114
 2225 01d5 6F000000 		.4byte	0x6f
 2226 01d9 02       		.byte	0x2
 2227 01da 91       		.byte	0x91
 2228 01db 77       		.sleb128 -9
 2229 01dc 00       		.byte	0x0
 2230 01dd 11       		.uleb128 0x11
 2231 01de 01       		.byte	0x1
 2232 01df A6010000 		.4byte	.LASF25
 2233 01e3 01       		.byte	0x1
 2234 01e4 3501     		.2byte	0x135
 2235 01e6 01       		.byte	0x1
 2236 01e7 00000000 		.4byte	.LFB6
 2237 01eb 32000000 		.4byte	.LFE6
 2238 01ef 3E010000 		.4byte	.LLST6
ARM GAS  C:\Users\hoangp\AppData\Local\Temp\ccil7xJT.s 			page 57


 2239 01f3 11       		.uleb128 0x11
 2240 01f4 01       		.byte	0x1
 2241 01f5 98000000 		.4byte	.LASF26
 2242 01f9 01       		.byte	0x1
 2243 01fa 4E01     		.2byte	0x14e
 2244 01fc 01       		.byte	0x1
 2245 01fd 00000000 		.4byte	.LFB7
 2246 0201 42000000 		.4byte	.LFE7
 2247 0205 69010000 		.4byte	.LLST7
 2248 0209 0F       		.uleb128 0xf
 2249 020a 01       		.byte	0x1
 2250 020b 10020000 		.4byte	.LASF27
 2251 020f 01       		.byte	0x1
 2252 0210 8D01     		.2byte	0x18d
 2253 0212 01       		.byte	0x1
 2254 0213 00000000 		.4byte	.LFB8
 2255 0217 20000000 		.4byte	.LFE8
 2256 021b 94010000 		.4byte	.LLST8
 2257 021f 33020000 		.4byte	0x233
 2258 0223 12       		.uleb128 0x12
 2259 0224 F1010000 		.4byte	.LASF28
 2260 0228 01       		.byte	0x1
 2261 0229 8D01     		.2byte	0x18d
 2262 022b 6F000000 		.4byte	0x6f
 2263 022f 02       		.byte	0x2
 2264 0230 91       		.byte	0x91
 2265 0231 77       		.sleb128 -9
 2266 0232 00       		.byte	0x0
 2267 0233 0F       		.uleb128 0xf
 2268 0234 01       		.byte	0x1
 2269 0235 EB020000 		.4byte	.LASF29
 2270 0239 01       		.byte	0x1
 2271 023a B701     		.2byte	0x1b7
 2272 023c 01       		.byte	0x1
 2273 023d 00000000 		.4byte	.LFB9
 2274 0241 20000000 		.4byte	.LFE9
 2275 0245 CB010000 		.4byte	.LLST9
 2276 0249 5D020000 		.4byte	0x25d
 2277 024d 12       		.uleb128 0x12
 2278 024e 4F010000 		.4byte	.LASF30
 2279 0252 01       		.byte	0x1
 2280 0253 B701     		.2byte	0x1b7
 2281 0255 6F000000 		.4byte	0x6f
 2282 0259 02       		.byte	0x2
 2283 025a 91       		.byte	0x91
 2284 025b 77       		.sleb128 -9
 2285 025c 00       		.byte	0x0
 2286 025d 13       		.uleb128 0x13
 2287 025e 01       		.byte	0x1
 2288 025f 3B020000 		.4byte	.LASF34
 2289 0263 01       		.byte	0x1
 2290 0264 D501     		.2byte	0x1d5
 2291 0266 01       		.byte	0x1
 2292 0267 6F000000 		.4byte	0x6f
 2293 026b 00000000 		.4byte	.LFB10
 2294 026f DC000000 		.4byte	.LFE10
 2295 0273 02020000 		.4byte	.LLST10
ARM GAS  C:\Users\hoangp\AppData\Local\Temp\ccil7xJT.s 			page 58


 2296 0277 C5020000 		.4byte	0x2c5
 2297 027b 14       		.uleb128 0x14
 2298 027c 70747200 		.ascii	"ptr\000"
 2299 0280 01       		.byte	0x1
 2300 0281 D501     		.2byte	0x1d5
 2301 0283 C5020000 		.4byte	0x2c5
 2302 0287 02       		.byte	0x2
 2303 0288 91       		.byte	0x91
 2304 0289 6C       		.sleb128 -20
 2305 028a 12       		.uleb128 0x12
 2306 028b 1D000000 		.4byte	.LASF31
 2307 028f 01       		.byte	0x1
 2308 0290 D501     		.2byte	0x1d5
 2309 0292 D0020000 		.4byte	0x2d0
 2310 0296 02       		.byte	0x2
 2311 0297 91       		.byte	0x91
 2312 0298 68       		.sleb128 -24
 2313 0299 12       		.uleb128 0x12
 2314 029a 2A010000 		.4byte	.LASF32
 2315 029e 01       		.byte	0x1
 2316 029f D501     		.2byte	0x1d5
 2317 02a1 6F000000 		.4byte	0x6f
 2318 02a5 02       		.byte	0x2
 2319 02a6 91       		.byte	0x91
 2320 02a7 67       		.sleb128 -25
 2321 02a8 10       		.uleb128 0x10
 2322 02a9 8E030000 		.4byte	.LASF33
 2323 02ad 01       		.byte	0x1
 2324 02ae D801     		.2byte	0x1d8
 2325 02b0 6F000000 		.4byte	0x6f
 2326 02b4 02       		.byte	0x2
 2327 02b5 91       		.byte	0x91
 2328 02b6 76       		.sleb128 -10
 2329 02b7 15       		.uleb128 0x15
 2330 02b8 6900     		.ascii	"i\000"
 2331 02ba 01       		.byte	0x1
 2332 02bb D901     		.2byte	0x1d9
 2333 02bd 6F000000 		.4byte	0x6f
 2334 02c1 02       		.byte	0x2
 2335 02c2 91       		.byte	0x91
 2336 02c3 77       		.sleb128 -9
 2337 02c4 00       		.byte	0x0
 2338 02c5 09       		.uleb128 0x9
 2339 02c6 04       		.byte	0x4
 2340 02c7 CB020000 		.4byte	0x2cb
 2341 02cb 0B       		.uleb128 0xb
 2342 02cc 85000000 		.4byte	0x85
 2343 02d0 09       		.uleb128 0x9
 2344 02d1 04       		.byte	0x4
 2345 02d2 7A000000 		.4byte	0x7a
 2346 02d6 13       		.uleb128 0x13
 2347 02d7 01       		.byte	0x1
 2348 02d8 9A020000 		.4byte	.LASF35
 2349 02dc 01       		.byte	0x1
 2350 02dd 0D02     		.2byte	0x20d
 2351 02df 01       		.byte	0x1
 2352 02e0 6F000000 		.4byte	0x6f
ARM GAS  C:\Users\hoangp\AppData\Local\Temp\ccil7xJT.s 			page 59


 2353 02e4 00000000 		.4byte	.LFB11
 2354 02e8 DC000000 		.4byte	.LFE11
 2355 02ec 39020000 		.4byte	.LLST11
 2356 02f0 3E030000 		.4byte	0x33e
 2357 02f4 14       		.uleb128 0x14
 2358 02f5 70747200 		.ascii	"ptr\000"
 2359 02f9 01       		.byte	0x1
 2360 02fa 0D02     		.2byte	0x20d
 2361 02fc C5020000 		.4byte	0x2c5
 2362 0300 02       		.byte	0x2
 2363 0301 91       		.byte	0x91
 2364 0302 6C       		.sleb128 -20
 2365 0303 12       		.uleb128 0x12
 2366 0304 1D000000 		.4byte	.LASF31
 2367 0308 01       		.byte	0x1
 2368 0309 0D02     		.2byte	0x20d
 2369 030b D0020000 		.4byte	0x2d0
 2370 030f 02       		.byte	0x2
 2371 0310 91       		.byte	0x91
 2372 0311 68       		.sleb128 -24
 2373 0312 12       		.uleb128 0x12
 2374 0313 2A010000 		.4byte	.LASF32
 2375 0317 01       		.byte	0x1
 2376 0318 0D02     		.2byte	0x20d
 2377 031a 6F000000 		.4byte	0x6f
 2378 031e 02       		.byte	0x2
 2379 031f 91       		.byte	0x91
 2380 0320 67       		.sleb128 -25
 2381 0321 10       		.uleb128 0x10
 2382 0322 8E030000 		.4byte	.LASF33
 2383 0326 01       		.byte	0x1
 2384 0327 1002     		.2byte	0x210
 2385 0329 6F000000 		.4byte	0x6f
 2386 032d 02       		.byte	0x2
 2387 032e 91       		.byte	0x91
 2388 032f 76       		.sleb128 -10
 2389 0330 15       		.uleb128 0x15
 2390 0331 6900     		.ascii	"i\000"
 2391 0333 01       		.byte	0x1
 2392 0334 1102     		.2byte	0x211
 2393 0336 6F000000 		.4byte	0x6f
 2394 033a 02       		.byte	0x2
 2395 033b 91       		.byte	0x91
 2396 033c 77       		.sleb128 -9
 2397 033d 00       		.byte	0x0
 2398 033e 0F       		.uleb128 0xf
 2399 033f 01       		.byte	0x1
 2400 0340 CA020000 		.4byte	.LASF36
 2401 0344 01       		.byte	0x1
 2402 0345 4202     		.2byte	0x242
 2403 0347 01       		.byte	0x1
 2404 0348 00000000 		.4byte	.LFB12
 2405 034c 8C000000 		.4byte	.LFE12
 2406 0350 70020000 		.4byte	.LLST12
 2407 0354 86030000 		.4byte	0x386
 2408 0358 12       		.uleb128 0x12
 2409 0359 6F020000 		.4byte	.LASF37
ARM GAS  C:\Users\hoangp\AppData\Local\Temp\ccil7xJT.s 			page 60


 2410 035d 01       		.byte	0x1
 2411 035e 4202     		.2byte	0x242
 2412 0360 6F000000 		.4byte	0x6f
 2413 0364 02       		.byte	0x2
 2414 0365 91       		.byte	0x91
 2415 0366 6F       		.sleb128 -17
 2416 0367 12       		.uleb128 0x12
 2417 0368 3B000000 		.4byte	.LASF38
 2418 036c 01       		.byte	0x1
 2419 036d 4202     		.2byte	0x242
 2420 036f 85000000 		.4byte	0x85
 2421 0373 02       		.byte	0x2
 2422 0374 91       		.byte	0x91
 2423 0375 68       		.sleb128 -24
 2424 0376 10       		.uleb128 0x10
 2425 0377 FA000000 		.4byte	.LASF39
 2426 037b 01       		.byte	0x1
 2427 037c 4402     		.2byte	0x244
 2428 037e 7A000000 		.4byte	0x7a
 2429 0382 02       		.byte	0x2
 2430 0383 91       		.byte	0x91
 2431 0384 74       		.sleb128 -12
 2432 0385 00       		.byte	0x0
 2433 0386 13       		.uleb128 0x13
 2434 0387 01       		.byte	0x1
 2435 0388 B2010000 		.4byte	.LASF40
 2436 038c 01       		.byte	0x1
 2437 038d 7302     		.2byte	0x273
 2438 038f 01       		.byte	0x1
 2439 0390 85000000 		.4byte	0x85
 2440 0394 00000000 		.4byte	.LFB13
 2441 0398 D2000000 		.4byte	.LFE13
 2442 039c A7020000 		.4byte	.LLST13
 2443 03a0 FF030000 		.4byte	0x3ff
 2444 03a4 12       		.uleb128 0x12
 2445 03a5 6F020000 		.4byte	.LASF37
 2446 03a9 01       		.byte	0x1
 2447 03aa 7302     		.2byte	0x273
 2448 03ac 6F000000 		.4byte	0x6f
 2449 03b0 02       		.byte	0x2
 2450 03b1 91       		.byte	0x91
 2451 03b2 6F       		.sleb128 -17
 2452 03b3 10       		.uleb128 0x10
 2453 03b4 80010000 		.4byte	.LASF41
 2454 03b8 01       		.byte	0x1
 2455 03b9 7502     		.2byte	0x275
 2456 03bb 6F000000 		.4byte	0x6f
 2457 03bf 02       		.byte	0x2
 2458 03c0 91       		.byte	0x91
 2459 03c1 70       		.sleb128 -16
 2460 03c2 10       		.uleb128 0x10
 2461 03c3 86010000 		.4byte	.LASF42
 2462 03c7 01       		.byte	0x1
 2463 03c8 7602     		.2byte	0x276
 2464 03ca 6F000000 		.4byte	0x6f
 2465 03ce 02       		.byte	0x2
 2466 03cf 91       		.byte	0x91
ARM GAS  C:\Users\hoangp\AppData\Local\Temp\ccil7xJT.s 			page 61


 2467 03d0 71       		.sleb128 -15
 2468 03d1 10       		.uleb128 0x10
 2469 03d2 8C010000 		.4byte	.LASF43
 2470 03d6 01       		.byte	0x1
 2471 03d7 7702     		.2byte	0x277
 2472 03d9 6F000000 		.4byte	0x6f
 2473 03dd 02       		.byte	0x2
 2474 03de 91       		.byte	0x91
 2475 03df 72       		.sleb128 -14
 2476 03e0 10       		.uleb128 0x10
 2477 03e1 92010000 		.4byte	.LASF44
 2478 03e5 01       		.byte	0x1
 2479 03e6 7802     		.2byte	0x278
 2480 03e8 6F000000 		.4byte	0x6f
 2481 03ec 02       		.byte	0x2
 2482 03ed 91       		.byte	0x91
 2483 03ee 73       		.sleb128 -13
 2484 03ef 10       		.uleb128 0x10
 2485 03f0 72010000 		.4byte	.LASF45
 2486 03f4 01       		.byte	0x1
 2487 03f5 7902     		.2byte	0x279
 2488 03f7 7A000000 		.4byte	0x7a
 2489 03fb 02       		.byte	0x2
 2490 03fc 91       		.byte	0x91
 2491 03fd 74       		.sleb128 -12
 2492 03fe 00       		.byte	0x0
 2493 03ff 0F       		.uleb128 0xf
 2494 0400 01       		.byte	0x1
 2495 0401 77030000 		.4byte	.LASF46
 2496 0405 01       		.byte	0x1
 2497 0406 B802     		.2byte	0x2b8
 2498 0408 01       		.byte	0x1
 2499 0409 00000000 		.4byte	.LFB14
 2500 040d 24000000 		.4byte	.LFE14
 2501 0411 DE020000 		.4byte	.LLST14
 2502 0415 29040000 		.4byte	0x429
 2503 0419 12       		.uleb128 0x12
 2504 041a 8E020000 		.4byte	.LASF47
 2505 041e 01       		.byte	0x1
 2506 041f B802     		.2byte	0x2b8
 2507 0421 6F000000 		.4byte	0x6f
 2508 0425 02       		.byte	0x2
 2509 0426 91       		.byte	0x91
 2510 0427 77       		.sleb128 -9
 2511 0428 00       		.byte	0x0
 2512 0429 16       		.uleb128 0x16
 2513 042a 01       		.byte	0x1
 2514 042b 76000000 		.4byte	.LASF53
 2515 042f 01       		.byte	0x1
 2516 0430 D902     		.2byte	0x2d9
 2517 0432 01       		.byte	0x1
 2518 0433 6F000000 		.4byte	0x6f
 2519 0437 00000000 		.4byte	.LFB15
 2520 043b 1E000000 		.4byte	.LFE15
 2521 043f 15030000 		.4byte	.LLST15
 2522 0443 0F       		.uleb128 0xf
 2523 0444 01       		.byte	0x1
ARM GAS  C:\Users\hoangp\AppData\Local\Temp\ccil7xJT.s 			page 62


 2524 0445 BC000000 		.4byte	.LASF48
 2525 0449 01       		.byte	0x1
 2526 044a FB02     		.2byte	0x2fb
 2527 044c 01       		.byte	0x1
 2528 044d 00000000 		.4byte	.LFB16
 2529 0451 38000000 		.4byte	.LFE16
 2530 0455 40030000 		.4byte	.LLST16
 2531 0459 6D040000 		.4byte	0x46d
 2532 045d 12       		.uleb128 0x12
 2533 045e 2D020000 		.4byte	.LASF49
 2534 0462 01       		.byte	0x1
 2535 0463 FB02     		.2byte	0x2fb
 2536 0465 6F000000 		.4byte	0x6f
 2537 0469 02       		.byte	0x2
 2538 046a 91       		.byte	0x91
 2539 046b 77       		.sleb128 -9
 2540 046c 00       		.byte	0x0
 2541 046d 0F       		.uleb128 0xf
 2542 046e 01       		.byte	0x1
 2543 046f 22030000 		.4byte	.LASF50
 2544 0473 01       		.byte	0x1
 2545 0474 2403     		.2byte	0x324
 2546 0476 01       		.byte	0x1
 2547 0477 00000000 		.4byte	.LFB17
 2548 047b 24000000 		.4byte	.LFE17
 2549 047f 77030000 		.4byte	.LLST17
 2550 0483 97040000 		.4byte	0x497
 2551 0487 12       		.uleb128 0x12
 2552 0488 8E020000 		.4byte	.LASF47
 2553 048c 01       		.byte	0x1
 2554 048d 2403     		.2byte	0x324
 2555 048f 6F000000 		.4byte	0x6f
 2556 0493 02       		.byte	0x2
 2557 0494 91       		.byte	0x91
 2558 0495 77       		.sleb128 -9
 2559 0496 00       		.byte	0x0
 2560 0497 0F       		.uleb128 0xf
 2561 0498 01       		.byte	0x1
 2562 0499 5C000000 		.4byte	.LASF51
 2563 049d 01       		.byte	0x1
 2564 049e 3C03     		.2byte	0x33c
 2565 04a0 01       		.byte	0x1
 2566 04a1 00000000 		.4byte	.LFB18
 2567 04a5 30000000 		.4byte	.LFE18
 2568 04a9 AE030000 		.4byte	.LLST18
 2569 04ad C1040000 		.4byte	0x4c1
 2570 04b1 12       		.uleb128 0x12
 2571 04b2 F5000000 		.4byte	.LASF52
 2572 04b6 01       		.byte	0x1
 2573 04b7 3C03     		.2byte	0x33c
 2574 04b9 6F000000 		.4byte	0x6f
 2575 04bd 02       		.byte	0x2
 2576 04be 91       		.byte	0x91
 2577 04bf 77       		.sleb128 -9
 2578 04c0 00       		.byte	0x0
 2579 04c1 16       		.uleb128 0x16
 2580 04c2 01       		.byte	0x1
ARM GAS  C:\Users\hoangp\AppData\Local\Temp\ccil7xJT.s 			page 63


 2581 04c3 95030000 		.4byte	.LASF54
 2582 04c7 01       		.byte	0x1
 2583 04c8 5603     		.2byte	0x356
 2584 04ca 01       		.byte	0x1
 2585 04cb 6F000000 		.4byte	0x6f
 2586 04cf 00000000 		.4byte	.LFB19
 2587 04d3 1C000000 		.4byte	.LFE19
 2588 04d7 E5030000 		.4byte	.LLST19
 2589 04db 0F       		.uleb128 0xf
 2590 04dc 01       		.byte	0x1
 2591 04dd DB010000 		.4byte	.LASF55
 2592 04e1 01       		.byte	0x1
 2593 04e2 6F03     		.2byte	0x36f
 2594 04e4 01       		.byte	0x1
 2595 04e5 00000000 		.4byte	.LFB20
 2596 04e9 2A000000 		.4byte	.LFE20
 2597 04ed 10040000 		.4byte	.LLST20
 2598 04f1 05050000 		.4byte	0x505
 2599 04f5 12       		.uleb128 0x12
 2600 04f6 F5000000 		.4byte	.LASF52
 2601 04fa 01       		.byte	0x1
 2602 04fb 6F03     		.2byte	0x36f
 2603 04fd 6F000000 		.4byte	0x6f
 2604 0501 02       		.byte	0x2
 2605 0502 91       		.byte	0x91
 2606 0503 77       		.sleb128 -9
 2607 0504 00       		.byte	0x0
 2608 0505 0F       		.uleb128 0xf
 2609 0506 01       		.byte	0x1
 2610 0507 A5000000 		.4byte	.LASF56
 2611 050b 01       		.byte	0x1
 2612 050c 8C03     		.2byte	0x38c
 2613 050e 01       		.byte	0x1
 2614 050f 00000000 		.4byte	.LFB21
 2615 0513 36000000 		.4byte	.LFE21
 2616 0517 47040000 		.4byte	.LLST21
 2617 051b 2F050000 		.4byte	0x52f
 2618 051f 12       		.uleb128 0x12
 2619 0520 79010000 		.4byte	.LASF16
 2620 0524 01       		.byte	0x1
 2621 0525 8C03     		.2byte	0x38c
 2622 0527 6F000000 		.4byte	0x6f
 2623 052b 02       		.byte	0x2
 2624 052c 91       		.byte	0x91
 2625 052d 77       		.sleb128 -9
 2626 052e 00       		.byte	0x0
 2627 052f 0F       		.uleb128 0xf
 2628 0530 01       		.byte	0x1
 2629 0531 77020000 		.4byte	.LASF57
 2630 0535 01       		.byte	0x1
 2631 0536 B303     		.2byte	0x3b3
 2632 0538 01       		.byte	0x1
 2633 0539 00000000 		.4byte	.LFB22
 2634 053d 36000000 		.4byte	.LFE22
 2635 0541 7E040000 		.4byte	.LLST22
 2636 0545 59050000 		.4byte	0x559
 2637 0549 12       		.uleb128 0x12
ARM GAS  C:\Users\hoangp\AppData\Local\Temp\ccil7xJT.s 			page 64


 2638 054a 79010000 		.4byte	.LASF16
 2639 054e 01       		.byte	0x1
 2640 054f B303     		.2byte	0x3b3
 2641 0551 6F000000 		.4byte	0x6f
 2642 0555 02       		.byte	0x2
 2643 0556 91       		.byte	0x91
 2644 0557 77       		.sleb128 -9
 2645 0558 00       		.byte	0x0
 2646 0559 17       		.uleb128 0x17
 2647 055a C7010000 		.4byte	.LASF58
 2648 055e 01       		.byte	0x1
 2649 055f 17       		.byte	0x17
 2650 0560 6F000000 		.4byte	0x6f
 2651 0564 01       		.byte	0x1
 2652 0565 05       		.byte	0x5
 2653 0566 03       		.byte	0x3
 2654 0567 00000000 		.4byte	DFB_1_initVar
 2655 056b 18       		.uleb128 0x18
 2656 056c 7A000000 		.4byte	0x7a
 2657 0570 7B050000 		.4byte	0x57b
 2658 0574 19       		.uleb128 0x19
 2659 0575 A5000000 		.4byte	0xa5
 2660 0579 00       		.byte	0x0
 2661 057a 00       		.byte	0x0
 2662 057b 1A       		.uleb128 0x1a
 2663 057c 98010000 		.4byte	.LASF59
 2664 0580 03       		.byte	0x3
 2665 0581 3E       		.byte	0x3e
 2666 0582 88050000 		.4byte	0x588
 2667 0586 01       		.byte	0x1
 2668 0587 01       		.byte	0x1
 2669 0588 0B       		.uleb128 0xb
 2670 0589 6B050000 		.4byte	0x56b
 2671 058d 1A       		.uleb128 0x1a
 2672 058e BD020000 		.4byte	.LASF60
 2673 0592 03       		.byte	0x3
 2674 0593 41       		.byte	0x41
 2675 0594 9A050000 		.4byte	0x59a
 2676 0598 01       		.byte	0x1
 2677 0599 01       		.byte	0x1
 2678 059a 0B       		.uleb128 0xb
 2679 059b 6B050000 		.4byte	0x56b
 2680 059f 1A       		.uleb128 0x1a
 2681 05a0 42010000 		.4byte	.LASF61
 2682 05a4 03       		.byte	0x3
 2683 05a5 42       		.byte	0x42
 2684 05a6 AC050000 		.4byte	0x5ac
 2685 05aa 01       		.byte	0x1
 2686 05ab 01       		.byte	0x1
 2687 05ac 0B       		.uleb128 0xb
 2688 05ad 6B050000 		.4byte	0x56b
 2689 05b1 18       		.uleb128 0x18
 2690 05b2 7A000000 		.4byte	0x7a
 2691 05b6 C1050000 		.4byte	0x5c1
 2692 05ba 19       		.uleb128 0x19
 2693 05bb A5000000 		.4byte	0xa5
 2694 05bf 01       		.byte	0x1
ARM GAS  C:\Users\hoangp\AppData\Local\Temp\ccil7xJT.s 			page 65


 2695 05c0 00       		.byte	0x0
 2696 05c1 1A       		.uleb128 0x1a
 2697 05c2 17030000 		.4byte	.LASF62
 2698 05c6 03       		.byte	0x3
 2699 05c7 43       		.byte	0x43
 2700 05c8 CE050000 		.4byte	0x5ce
 2701 05cc 01       		.byte	0x1
 2702 05cd 01       		.byte	0x1
 2703 05ce 0B       		.uleb128 0xb
 2704 05cf B1050000 		.4byte	0x5b1
 2705 05d3 1A       		.uleb128 0x1a
 2706 05d4 5D010000 		.4byte	.LASF63
 2707 05d8 03       		.byte	0x3
 2708 05d9 44       		.byte	0x44
 2709 05da E0050000 		.4byte	0x5e0
 2710 05de 01       		.byte	0x1
 2711 05df 01       		.byte	0x1
 2712 05e0 0B       		.uleb128 0xb
 2713 05e1 6B050000 		.4byte	0x56b
 2714 05e5 00       		.byte	0x0
 2715              		.section	.debug_abbrev
 2716 0000 01       		.uleb128 0x1
 2717 0001 11       		.uleb128 0x11
 2718 0002 01       		.byte	0x1
 2719 0003 25       		.uleb128 0x25
 2720 0004 0E       		.uleb128 0xe
 2721 0005 13       		.uleb128 0x13
 2722 0006 0B       		.uleb128 0xb
 2723 0007 03       		.uleb128 0x3
 2724 0008 0E       		.uleb128 0xe
 2725 0009 1B       		.uleb128 0x1b
 2726 000a 0E       		.uleb128 0xe
 2727 000b 11       		.uleb128 0x11
 2728 000c 01       		.uleb128 0x1
 2729 000d 52       		.uleb128 0x52
 2730 000e 01       		.uleb128 0x1
 2731 000f 55       		.uleb128 0x55
 2732 0010 06       		.uleb128 0x6
 2733 0011 10       		.uleb128 0x10
 2734 0012 06       		.uleb128 0x6
 2735 0013 00       		.byte	0x0
 2736 0014 00       		.byte	0x0
 2737 0015 02       		.uleb128 0x2
 2738 0016 24       		.uleb128 0x24
 2739 0017 00       		.byte	0x0
 2740 0018 0B       		.uleb128 0xb
 2741 0019 0B       		.uleb128 0xb
 2742 001a 3E       		.uleb128 0x3e
 2743 001b 0B       		.uleb128 0xb
 2744 001c 03       		.uleb128 0x3
 2745 001d 0E       		.uleb128 0xe
 2746 001e 00       		.byte	0x0
 2747 001f 00       		.byte	0x0
 2748 0020 03       		.uleb128 0x3
 2749 0021 24       		.uleb128 0x24
 2750 0022 00       		.byte	0x0
 2751 0023 0B       		.uleb128 0xb
ARM GAS  C:\Users\hoangp\AppData\Local\Temp\ccil7xJT.s 			page 66


 2752 0024 0B       		.uleb128 0xb
 2753 0025 3E       		.uleb128 0x3e
 2754 0026 0B       		.uleb128 0xb
 2755 0027 03       		.uleb128 0x3
 2756 0028 08       		.uleb128 0x8
 2757 0029 00       		.byte	0x0
 2758 002a 00       		.byte	0x0
 2759 002b 04       		.uleb128 0x4
 2760 002c 16       		.uleb128 0x16
 2761 002d 00       		.byte	0x0
 2762 002e 03       		.uleb128 0x3
 2763 002f 0E       		.uleb128 0xe
 2764 0030 3A       		.uleb128 0x3a
 2765 0031 0B       		.uleb128 0xb
 2766 0032 3B       		.uleb128 0x3b
 2767 0033 0B       		.uleb128 0xb
 2768 0034 49       		.uleb128 0x49
 2769 0035 13       		.uleb128 0x13
 2770 0036 00       		.byte	0x0
 2771 0037 00       		.byte	0x0
 2772 0038 05       		.uleb128 0x5
 2773 0039 24       		.uleb128 0x24
 2774 003a 00       		.byte	0x0
 2775 003b 0B       		.uleb128 0xb
 2776 003c 0B       		.uleb128 0xb
 2777 003d 3E       		.uleb128 0x3e
 2778 003e 0B       		.uleb128 0xb
 2779 003f 00       		.byte	0x0
 2780 0040 00       		.byte	0x0
 2781 0041 06       		.uleb128 0x6
 2782 0042 2E       		.uleb128 0x2e
 2783 0043 01       		.byte	0x1
 2784 0044 03       		.uleb128 0x3
 2785 0045 0E       		.uleb128 0xe
 2786 0046 3A       		.uleb128 0x3a
 2787 0047 0B       		.uleb128 0xb
 2788 0048 3B       		.uleb128 0x3b
 2789 0049 0B       		.uleb128 0xb
 2790 004a 27       		.uleb128 0x27
 2791 004b 0C       		.uleb128 0xc
 2792 004c 11       		.uleb128 0x11
 2793 004d 01       		.uleb128 0x1
 2794 004e 12       		.uleb128 0x12
 2795 004f 01       		.uleb128 0x1
 2796 0050 40       		.uleb128 0x40
 2797 0051 06       		.uleb128 0x6
 2798 0052 01       		.uleb128 0x1
 2799 0053 13       		.uleb128 0x13
 2800 0054 00       		.byte	0x0
 2801 0055 00       		.byte	0x0
 2802 0056 07       		.uleb128 0x7
 2803 0057 05       		.uleb128 0x5
 2804 0058 00       		.byte	0x0
 2805 0059 03       		.uleb128 0x3
 2806 005a 0E       		.uleb128 0xe
 2807 005b 3A       		.uleb128 0x3a
 2808 005c 0B       		.uleb128 0xb
ARM GAS  C:\Users\hoangp\AppData\Local\Temp\ccil7xJT.s 			page 67


 2809 005d 3B       		.uleb128 0x3b
 2810 005e 0B       		.uleb128 0xb
 2811 005f 49       		.uleb128 0x49
 2812 0060 13       		.uleb128 0x13
 2813 0061 02       		.uleb128 0x2
 2814 0062 0A       		.uleb128 0xa
 2815 0063 00       		.byte	0x0
 2816 0064 00       		.byte	0x0
 2817 0065 08       		.uleb128 0x8
 2818 0066 34       		.uleb128 0x34
 2819 0067 00       		.byte	0x0
 2820 0068 03       		.uleb128 0x3
 2821 0069 08       		.uleb128 0x8
 2822 006a 3A       		.uleb128 0x3a
 2823 006b 0B       		.uleb128 0xb
 2824 006c 3B       		.uleb128 0x3b
 2825 006d 0B       		.uleb128 0xb
 2826 006e 49       		.uleb128 0x49
 2827 006f 13       		.uleb128 0x13
 2828 0070 02       		.uleb128 0x2
 2829 0071 0A       		.uleb128 0xa
 2830 0072 00       		.byte	0x0
 2831 0073 00       		.byte	0x0
 2832 0074 09       		.uleb128 0x9
 2833 0075 0F       		.uleb128 0xf
 2834 0076 00       		.byte	0x0
 2835 0077 0B       		.uleb128 0xb
 2836 0078 0B       		.uleb128 0xb
 2837 0079 49       		.uleb128 0x49
 2838 007a 13       		.uleb128 0x13
 2839 007b 00       		.byte	0x0
 2840 007c 00       		.byte	0x0
 2841 007d 0A       		.uleb128 0xa
 2842 007e 35       		.uleb128 0x35
 2843 007f 00       		.byte	0x0
 2844 0080 49       		.uleb128 0x49
 2845 0081 13       		.uleb128 0x13
 2846 0082 00       		.byte	0x0
 2847 0083 00       		.byte	0x0
 2848 0084 0B       		.uleb128 0xb
 2849 0085 26       		.uleb128 0x26
 2850 0086 00       		.byte	0x0
 2851 0087 49       		.uleb128 0x49
 2852 0088 13       		.uleb128 0x13
 2853 0089 00       		.byte	0x0
 2854 008a 00       		.byte	0x0
 2855 008b 0C       		.uleb128 0xc
 2856 008c 2E       		.uleb128 0x2e
 2857 008d 01       		.byte	0x1
 2858 008e 3F       		.uleb128 0x3f
 2859 008f 0C       		.uleb128 0xc
 2860 0090 03       		.uleb128 0x3
 2861 0091 0E       		.uleb128 0xe
 2862 0092 3A       		.uleb128 0x3a
 2863 0093 0B       		.uleb128 0xb
 2864 0094 3B       		.uleb128 0x3b
 2865 0095 0B       		.uleb128 0xb
ARM GAS  C:\Users\hoangp\AppData\Local\Temp\ccil7xJT.s 			page 68


 2866 0096 27       		.uleb128 0x27
 2867 0097 0C       		.uleb128 0xc
 2868 0098 11       		.uleb128 0x11
 2869 0099 01       		.uleb128 0x1
 2870 009a 12       		.uleb128 0x12
 2871 009b 01       		.uleb128 0x1
 2872 009c 40       		.uleb128 0x40
 2873 009d 06       		.uleb128 0x6
 2874 009e 01       		.uleb128 0x1
 2875 009f 13       		.uleb128 0x13
 2876 00a0 00       		.byte	0x0
 2877 00a1 00       		.byte	0x0
 2878 00a2 0D       		.uleb128 0xd
 2879 00a3 34       		.uleb128 0x34
 2880 00a4 00       		.byte	0x0
 2881 00a5 03       		.uleb128 0x3
 2882 00a6 0E       		.uleb128 0xe
 2883 00a7 3A       		.uleb128 0x3a
 2884 00a8 0B       		.uleb128 0xb
 2885 00a9 3B       		.uleb128 0x3b
 2886 00aa 0B       		.uleb128 0xb
 2887 00ab 49       		.uleb128 0x49
 2888 00ac 13       		.uleb128 0x13
 2889 00ad 02       		.uleb128 0x2
 2890 00ae 0A       		.uleb128 0xa
 2891 00af 00       		.byte	0x0
 2892 00b0 00       		.byte	0x0
 2893 00b1 0E       		.uleb128 0xe
 2894 00b2 2E       		.uleb128 0x2e
 2895 00b3 00       		.byte	0x0
 2896 00b4 3F       		.uleb128 0x3f
 2897 00b5 0C       		.uleb128 0xc
 2898 00b6 03       		.uleb128 0x3
 2899 00b7 0E       		.uleb128 0xe
 2900 00b8 3A       		.uleb128 0x3a
 2901 00b9 0B       		.uleb128 0xb
 2902 00ba 3B       		.uleb128 0x3b
 2903 00bb 0B       		.uleb128 0xb
 2904 00bc 27       		.uleb128 0x27
 2905 00bd 0C       		.uleb128 0xc
 2906 00be 11       		.uleb128 0x11
 2907 00bf 01       		.uleb128 0x1
 2908 00c0 12       		.uleb128 0x12
 2909 00c1 01       		.uleb128 0x1
 2910 00c2 40       		.uleb128 0x40
 2911 00c3 06       		.uleb128 0x6
 2912 00c4 00       		.byte	0x0
 2913 00c5 00       		.byte	0x0
 2914 00c6 0F       		.uleb128 0xf
 2915 00c7 2E       		.uleb128 0x2e
 2916 00c8 01       		.byte	0x1
 2917 00c9 3F       		.uleb128 0x3f
 2918 00ca 0C       		.uleb128 0xc
 2919 00cb 03       		.uleb128 0x3
 2920 00cc 0E       		.uleb128 0xe
 2921 00cd 3A       		.uleb128 0x3a
 2922 00ce 0B       		.uleb128 0xb
ARM GAS  C:\Users\hoangp\AppData\Local\Temp\ccil7xJT.s 			page 69


 2923 00cf 3B       		.uleb128 0x3b
 2924 00d0 05       		.uleb128 0x5
 2925 00d1 27       		.uleb128 0x27
 2926 00d2 0C       		.uleb128 0xc
 2927 00d3 11       		.uleb128 0x11
 2928 00d4 01       		.uleb128 0x1
 2929 00d5 12       		.uleb128 0x12
 2930 00d6 01       		.uleb128 0x1
 2931 00d7 40       		.uleb128 0x40
 2932 00d8 06       		.uleb128 0x6
 2933 00d9 01       		.uleb128 0x1
 2934 00da 13       		.uleb128 0x13
 2935 00db 00       		.byte	0x0
 2936 00dc 00       		.byte	0x0
 2937 00dd 10       		.uleb128 0x10
 2938 00de 34       		.uleb128 0x34
 2939 00df 00       		.byte	0x0
 2940 00e0 03       		.uleb128 0x3
 2941 00e1 0E       		.uleb128 0xe
 2942 00e2 3A       		.uleb128 0x3a
 2943 00e3 0B       		.uleb128 0xb
 2944 00e4 3B       		.uleb128 0x3b
 2945 00e5 05       		.uleb128 0x5
 2946 00e6 49       		.uleb128 0x49
 2947 00e7 13       		.uleb128 0x13
 2948 00e8 02       		.uleb128 0x2
 2949 00e9 0A       		.uleb128 0xa
 2950 00ea 00       		.byte	0x0
 2951 00eb 00       		.byte	0x0
 2952 00ec 11       		.uleb128 0x11
 2953 00ed 2E       		.uleb128 0x2e
 2954 00ee 00       		.byte	0x0
 2955 00ef 3F       		.uleb128 0x3f
 2956 00f0 0C       		.uleb128 0xc
 2957 00f1 03       		.uleb128 0x3
 2958 00f2 0E       		.uleb128 0xe
 2959 00f3 3A       		.uleb128 0x3a
 2960 00f4 0B       		.uleb128 0xb
 2961 00f5 3B       		.uleb128 0x3b
 2962 00f6 05       		.uleb128 0x5
 2963 00f7 27       		.uleb128 0x27
 2964 00f8 0C       		.uleb128 0xc
 2965 00f9 11       		.uleb128 0x11
 2966 00fa 01       		.uleb128 0x1
 2967 00fb 12       		.uleb128 0x12
 2968 00fc 01       		.uleb128 0x1
 2969 00fd 40       		.uleb128 0x40
 2970 00fe 06       		.uleb128 0x6
 2971 00ff 00       		.byte	0x0
 2972 0100 00       		.byte	0x0
 2973 0101 12       		.uleb128 0x12
 2974 0102 05       		.uleb128 0x5
 2975 0103 00       		.byte	0x0
 2976 0104 03       		.uleb128 0x3
 2977 0105 0E       		.uleb128 0xe
 2978 0106 3A       		.uleb128 0x3a
 2979 0107 0B       		.uleb128 0xb
ARM GAS  C:\Users\hoangp\AppData\Local\Temp\ccil7xJT.s 			page 70


 2980 0108 3B       		.uleb128 0x3b
 2981 0109 05       		.uleb128 0x5
 2982 010a 49       		.uleb128 0x49
 2983 010b 13       		.uleb128 0x13
 2984 010c 02       		.uleb128 0x2
 2985 010d 0A       		.uleb128 0xa
 2986 010e 00       		.byte	0x0
 2987 010f 00       		.byte	0x0
 2988 0110 13       		.uleb128 0x13
 2989 0111 2E       		.uleb128 0x2e
 2990 0112 01       		.byte	0x1
 2991 0113 3F       		.uleb128 0x3f
 2992 0114 0C       		.uleb128 0xc
 2993 0115 03       		.uleb128 0x3
 2994 0116 0E       		.uleb128 0xe
 2995 0117 3A       		.uleb128 0x3a
 2996 0118 0B       		.uleb128 0xb
 2997 0119 3B       		.uleb128 0x3b
 2998 011a 05       		.uleb128 0x5
 2999 011b 27       		.uleb128 0x27
 3000 011c 0C       		.uleb128 0xc
 3001 011d 49       		.uleb128 0x49
 3002 011e 13       		.uleb128 0x13
 3003 011f 11       		.uleb128 0x11
 3004 0120 01       		.uleb128 0x1
 3005 0121 12       		.uleb128 0x12
 3006 0122 01       		.uleb128 0x1
 3007 0123 40       		.uleb128 0x40
 3008 0124 06       		.uleb128 0x6
 3009 0125 01       		.uleb128 0x1
 3010 0126 13       		.uleb128 0x13
 3011 0127 00       		.byte	0x0
 3012 0128 00       		.byte	0x0
 3013 0129 14       		.uleb128 0x14
 3014 012a 05       		.uleb128 0x5
 3015 012b 00       		.byte	0x0
 3016 012c 03       		.uleb128 0x3
 3017 012d 08       		.uleb128 0x8
 3018 012e 3A       		.uleb128 0x3a
 3019 012f 0B       		.uleb128 0xb
 3020 0130 3B       		.uleb128 0x3b
 3021 0131 05       		.uleb128 0x5
 3022 0132 49       		.uleb128 0x49
 3023 0133 13       		.uleb128 0x13
 3024 0134 02       		.uleb128 0x2
 3025 0135 0A       		.uleb128 0xa
 3026 0136 00       		.byte	0x0
 3027 0137 00       		.byte	0x0
 3028 0138 15       		.uleb128 0x15
 3029 0139 34       		.uleb128 0x34
 3030 013a 00       		.byte	0x0
 3031 013b 03       		.uleb128 0x3
 3032 013c 08       		.uleb128 0x8
 3033 013d 3A       		.uleb128 0x3a
 3034 013e 0B       		.uleb128 0xb
 3035 013f 3B       		.uleb128 0x3b
 3036 0140 05       		.uleb128 0x5
ARM GAS  C:\Users\hoangp\AppData\Local\Temp\ccil7xJT.s 			page 71


 3037 0141 49       		.uleb128 0x49
 3038 0142 13       		.uleb128 0x13
 3039 0143 02       		.uleb128 0x2
 3040 0144 0A       		.uleb128 0xa
 3041 0145 00       		.byte	0x0
 3042 0146 00       		.byte	0x0
 3043 0147 16       		.uleb128 0x16
 3044 0148 2E       		.uleb128 0x2e
 3045 0149 00       		.byte	0x0
 3046 014a 3F       		.uleb128 0x3f
 3047 014b 0C       		.uleb128 0xc
 3048 014c 03       		.uleb128 0x3
 3049 014d 0E       		.uleb128 0xe
 3050 014e 3A       		.uleb128 0x3a
 3051 014f 0B       		.uleb128 0xb
 3052 0150 3B       		.uleb128 0x3b
 3053 0151 05       		.uleb128 0x5
 3054 0152 27       		.uleb128 0x27
 3055 0153 0C       		.uleb128 0xc
 3056 0154 49       		.uleb128 0x49
 3057 0155 13       		.uleb128 0x13
 3058 0156 11       		.uleb128 0x11
 3059 0157 01       		.uleb128 0x1
 3060 0158 12       		.uleb128 0x12
 3061 0159 01       		.uleb128 0x1
 3062 015a 40       		.uleb128 0x40
 3063 015b 06       		.uleb128 0x6
 3064 015c 00       		.byte	0x0
 3065 015d 00       		.byte	0x0
 3066 015e 17       		.uleb128 0x17
 3067 015f 34       		.uleb128 0x34
 3068 0160 00       		.byte	0x0
 3069 0161 03       		.uleb128 0x3
 3070 0162 0E       		.uleb128 0xe
 3071 0163 3A       		.uleb128 0x3a
 3072 0164 0B       		.uleb128 0xb
 3073 0165 3B       		.uleb128 0x3b
 3074 0166 0B       		.uleb128 0xb
 3075 0167 49       		.uleb128 0x49
 3076 0168 13       		.uleb128 0x13
 3077 0169 3F       		.uleb128 0x3f
 3078 016a 0C       		.uleb128 0xc
 3079 016b 02       		.uleb128 0x2
 3080 016c 0A       		.uleb128 0xa
 3081 016d 00       		.byte	0x0
 3082 016e 00       		.byte	0x0
 3083 016f 18       		.uleb128 0x18
 3084 0170 01       		.uleb128 0x1
 3085 0171 01       		.byte	0x1
 3086 0172 49       		.uleb128 0x49
 3087 0173 13       		.uleb128 0x13
 3088 0174 01       		.uleb128 0x1
 3089 0175 13       		.uleb128 0x13
 3090 0176 00       		.byte	0x0
 3091 0177 00       		.byte	0x0
 3092 0178 19       		.uleb128 0x19
 3093 0179 21       		.uleb128 0x21
ARM GAS  C:\Users\hoangp\AppData\Local\Temp\ccil7xJT.s 			page 72


 3094 017a 00       		.byte	0x0
 3095 017b 49       		.uleb128 0x49
 3096 017c 13       		.uleb128 0x13
 3097 017d 2F       		.uleb128 0x2f
 3098 017e 0B       		.uleb128 0xb
 3099 017f 00       		.byte	0x0
 3100 0180 00       		.byte	0x0
 3101 0181 1A       		.uleb128 0x1a
 3102 0182 34       		.uleb128 0x34
 3103 0183 00       		.byte	0x0
 3104 0184 03       		.uleb128 0x3
 3105 0185 0E       		.uleb128 0xe
 3106 0186 3A       		.uleb128 0x3a
 3107 0187 0B       		.uleb128 0xb
 3108 0188 3B       		.uleb128 0x3b
 3109 0189 0B       		.uleb128 0xb
 3110 018a 49       		.uleb128 0x49
 3111 018b 13       		.uleb128 0x13
 3112 018c 3F       		.uleb128 0x3f
 3113 018d 0C       		.uleb128 0xc
 3114 018e 3C       		.uleb128 0x3c
 3115 018f 0C       		.uleb128 0xc
 3116 0190 00       		.byte	0x0
 3117 0191 00       		.byte	0x0
 3118 0192 00       		.byte	0x0
 3119              		.section	.debug_pubnames,"",%progbits
 3120 0000 F1010000 		.4byte	0x1f1
 3121 0004 0200     		.2byte	0x2
 3122 0006 00000000 		.4byte	.Ldebug_info0
 3123 000a E6050000 		.4byte	0x5e6
 3124 000e 4E010000 		.4byte	0x14e
 3125 0012 4446425F 		.ascii	"DFB_1_Init\000"
 3125      315F496E 
 3125      697400
 3126 001d 76010000 		.4byte	0x176
 3127 0021 4446425F 		.ascii	"DFB_1_Enable\000"
 3127      315F456E 
 3127      61626C65 
 3127      00
 3128 002e 9E010000 		.4byte	0x19e
 3129 0032 4446425F 		.ascii	"DFB_1_Start\000"
 3129      315F5374 
 3129      61727400 
 3130 003e B3010000 		.4byte	0x1b3
 3131 0042 4446425F 		.ascii	"DFB_1_Stop\000"
 3131      315F5374 
 3131      6F7000
 3132 004d DD010000 		.4byte	0x1dd
 3133 0051 4446425F 		.ascii	"DFB_1_Pause\000"
 3133      315F5061 
 3133      75736500 
 3134 005d F3010000 		.4byte	0x1f3
 3135 0061 4446425F 		.ascii	"DFB_1_Resume\000"
 3135      315F5265 
 3135      73756D65 
 3135      00
 3136 006e 09020000 		.4byte	0x209
ARM GAS  C:\Users\hoangp\AppData\Local\Temp\ccil7xJT.s 			page 73


 3137 0072 4446425F 		.ascii	"DFB_1_SetCoherency\000"
 3137      315F5365 
 3137      74436F68 
 3137      6572656E 
 3137      637900
 3138 0085 33020000 		.4byte	0x233
 3139 0089 4446425F 		.ascii	"DFB_1_SetDalign\000"
 3139      315F5365 
 3139      7444616C 
 3139      69676E00 
 3140 0099 5D020000 		.4byte	0x25d
 3141 009d 4446425F 		.ascii	"DFB_1_LoadDataRAMA\000"
 3141      315F4C6F 
 3141      61644461 
 3141      74615241 
 3141      4D4100
 3142 00b0 D6020000 		.4byte	0x2d6
 3143 00b4 4446425F 		.ascii	"DFB_1_LoadDataRAMB\000"
 3143      315F4C6F 
 3143      61644461 
 3143      74615241 
 3143      4D4200
 3144 00c7 3E030000 		.4byte	0x33e
 3145 00cb 4446425F 		.ascii	"DFB_1_LoadInputValue\000"
 3145      315F4C6F 
 3145      6164496E 
 3145      70757456 
 3145      616C7565 
 3146 00e0 86030000 		.4byte	0x386
 3147 00e4 4446425F 		.ascii	"DFB_1_GetOutputValue\000"
 3147      315F4765 
 3147      744F7574 
 3147      70757456 
 3147      616C7565 
 3148 00f9 FF030000 		.4byte	0x3ff
 3149 00fd 4446425F 		.ascii	"DFB_1_SetInterruptMode\000"
 3149      315F5365 
 3149      74496E74 
 3149      65727275 
 3149      70744D6F 
 3150 0114 29040000 		.4byte	0x429
 3151 0118 4446425F 		.ascii	"DFB_1_GetInterruptSource\000"
 3151      315F4765 
 3151      74496E74 
 3151      65727275 
 3151      7074536F 
 3152 0131 43040000 		.4byte	0x443
 3153 0135 4446425F 		.ascii	"DFB_1_ClearInterrupt\000"
 3153      315F436C 
 3153      65617249 
 3153      6E746572 
 3153      72757074 
 3154 014a 6D040000 		.4byte	0x46d
 3155 014e 4446425F 		.ascii	"DFB_1_SetDMAMode\000"
 3155      315F5365 
 3155      74444D41 
 3155      4D6F6465 
ARM GAS  C:\Users\hoangp\AppData\Local\Temp\ccil7xJT.s 			page 74


 3155      00
 3156 015f 97040000 		.4byte	0x497
 3157 0163 4446425F 		.ascii	"DFB_1_SetSemaphores\000"
 3157      315F5365 
 3157      7453656D 
 3157      6170686F 
 3157      72657300 
 3158 0177 C1040000 		.4byte	0x4c1
 3159 017b 4446425F 		.ascii	"DFB_1_GetSemaphores\000"
 3159      315F4765 
 3159      7453656D 
 3159      6170686F 
 3159      72657300 
 3160 018f DB040000 		.4byte	0x4db
 3161 0193 4446425F 		.ascii	"DFB_1_ClearSemaphores\000"
 3161      315F436C 
 3161      65617253 
 3161      656D6170 
 3161      686F7265 
 3162 01a9 05050000 		.4byte	0x505
 3163 01ad 4446425F 		.ascii	"DFB_1_SetOutput1Source\000"
 3163      315F5365 
 3163      744F7574 
 3163      70757431 
 3163      536F7572 
 3164 01c4 2F050000 		.4byte	0x52f
 3165 01c8 4446425F 		.ascii	"DFB_1_SetOutput2Source\000"
 3165      315F5365 
 3165      744F7574 
 3165      70757432 
 3165      536F7572 
 3166 01df 59050000 		.4byte	0x559
 3167 01e3 4446425F 		.ascii	"DFB_1_initVar\000"
 3167      315F696E 
 3167      69745661 
 3167      7200
 3168 01f1 00000000 		.4byte	0x0
 3169              		.section	.debug_aranges,"",%progbits
 3170 0000 CC000000 		.4byte	0xcc
 3171 0004 0200     		.2byte	0x2
 3172 0006 00000000 		.4byte	.Ldebug_info0
 3173 000a 04       		.byte	0x4
 3174 000b 00       		.byte	0x0
 3175 000c 0000     		.2byte	0x0
 3176 000e 0000     		.2byte	0x0
 3177 0010 00000000 		.4byte	.LFB0
 3178 0014 4E000000 		.4byte	.LFE0-.LFB0
 3179 0018 00000000 		.4byte	.LFB1
 3180 001c 44000000 		.4byte	.LFE1-.LFB1
 3181 0020 00000000 		.4byte	.LFB2
 3182 0024 B8010000 		.4byte	.LFE2-.LFB2
 3183 0028 00000000 		.4byte	.LFB3
 3184 002c 80000000 		.4byte	.LFE3-.LFB3
 3185 0030 00000000 		.4byte	.LFB4
 3186 0034 2A000000 		.4byte	.LFE4-.LFB4
 3187 0038 00000000 		.4byte	.LFB5
 3188 003c 6C000000 		.4byte	.LFE5-.LFB5
ARM GAS  C:\Users\hoangp\AppData\Local\Temp\ccil7xJT.s 			page 75


 3189 0040 00000000 		.4byte	.LFB6
 3190 0044 32000000 		.4byte	.LFE6-.LFB6
 3191 0048 00000000 		.4byte	.LFB7
 3192 004c 42000000 		.4byte	.LFE7-.LFB7
 3193 0050 00000000 		.4byte	.LFB8
 3194 0054 20000000 		.4byte	.LFE8-.LFB8
 3195 0058 00000000 		.4byte	.LFB9
 3196 005c 20000000 		.4byte	.LFE9-.LFB9
 3197 0060 00000000 		.4byte	.LFB10
 3198 0064 DC000000 		.4byte	.LFE10-.LFB10
 3199 0068 00000000 		.4byte	.LFB11
 3200 006c DC000000 		.4byte	.LFE11-.LFB11
 3201 0070 00000000 		.4byte	.LFB12
 3202 0074 8C000000 		.4byte	.LFE12-.LFB12
 3203 0078 00000000 		.4byte	.LFB13
 3204 007c D2000000 		.4byte	.LFE13-.LFB13
 3205 0080 00000000 		.4byte	.LFB14
 3206 0084 24000000 		.4byte	.LFE14-.LFB14
 3207 0088 00000000 		.4byte	.LFB15
 3208 008c 1E000000 		.4byte	.LFE15-.LFB15
 3209 0090 00000000 		.4byte	.LFB16
 3210 0094 38000000 		.4byte	.LFE16-.LFB16
 3211 0098 00000000 		.4byte	.LFB17
 3212 009c 24000000 		.4byte	.LFE17-.LFB17
 3213 00a0 00000000 		.4byte	.LFB18
 3214 00a4 30000000 		.4byte	.LFE18-.LFB18
 3215 00a8 00000000 		.4byte	.LFB19
 3216 00ac 1C000000 		.4byte	.LFE19-.LFB19
 3217 00b0 00000000 		.4byte	.LFB20
 3218 00b4 2A000000 		.4byte	.LFE20-.LFB20
 3219 00b8 00000000 		.4byte	.LFB21
 3220 00bc 36000000 		.4byte	.LFE21-.LFB21
 3221 00c0 00000000 		.4byte	.LFB22
 3222 00c4 36000000 		.4byte	.LFE22-.LFB22
 3223 00c8 00000000 		.4byte	0x0
 3224 00cc 00000000 		.4byte	0x0
 3225              		.section	.debug_ranges,"",%progbits
 3226              	.Ldebug_ranges0:
 3227 0000 00000000 		.4byte	.Ltext0
 3228 0004 00000000 		.4byte	.Letext0
 3229 0008 00000000 		.4byte	.LFB0
 3230 000c 4E000000 		.4byte	.LFE0
 3231 0010 00000000 		.4byte	.LFB1
 3232 0014 44000000 		.4byte	.LFE1
 3233 0018 00000000 		.4byte	.LFB2
 3234 001c B8010000 		.4byte	.LFE2
 3235 0020 00000000 		.4byte	.LFB3
 3236 0024 80000000 		.4byte	.LFE3
 3237 0028 00000000 		.4byte	.LFB4
 3238 002c 2A000000 		.4byte	.LFE4
 3239 0030 00000000 		.4byte	.LFB5
 3240 0034 6C000000 		.4byte	.LFE5
 3241 0038 00000000 		.4byte	.LFB6
 3242 003c 32000000 		.4byte	.LFE6
 3243 0040 00000000 		.4byte	.LFB7
 3244 0044 42000000 		.4byte	.LFE7
 3245 0048 00000000 		.4byte	.LFB8
ARM GAS  C:\Users\hoangp\AppData\Local\Temp\ccil7xJT.s 			page 76


 3246 004c 20000000 		.4byte	.LFE8
 3247 0050 00000000 		.4byte	.LFB9
 3248 0054 20000000 		.4byte	.LFE9
 3249 0058 00000000 		.4byte	.LFB10
 3250 005c DC000000 		.4byte	.LFE10
 3251 0060 00000000 		.4byte	.LFB11
 3252 0064 DC000000 		.4byte	.LFE11
 3253 0068 00000000 		.4byte	.LFB12
 3254 006c 8C000000 		.4byte	.LFE12
 3255 0070 00000000 		.4byte	.LFB13
 3256 0074 D2000000 		.4byte	.LFE13
 3257 0078 00000000 		.4byte	.LFB14
 3258 007c 24000000 		.4byte	.LFE14
 3259 0080 00000000 		.4byte	.LFB15
 3260 0084 1E000000 		.4byte	.LFE15
 3261 0088 00000000 		.4byte	.LFB16
 3262 008c 38000000 		.4byte	.LFE16
 3263 0090 00000000 		.4byte	.LFB17
 3264 0094 24000000 		.4byte	.LFE17
 3265 0098 00000000 		.4byte	.LFB18
 3266 009c 30000000 		.4byte	.LFE18
 3267 00a0 00000000 		.4byte	.LFB19
 3268 00a4 1C000000 		.4byte	.LFE19
 3269 00a8 00000000 		.4byte	.LFB20
 3270 00ac 2A000000 		.4byte	.LFE20
 3271 00b0 00000000 		.4byte	.LFB21
 3272 00b4 36000000 		.4byte	.LFE21
 3273 00b8 00000000 		.4byte	.LFB22
 3274 00bc 36000000 		.4byte	.LFE22
 3275 00c0 00000000 		.4byte	0x0
 3276 00c4 00000000 		.4byte	0x0
 3277              		.section	.debug_str,"MS",%progbits,1
 3278              	.LASF17:
 3279 0000 636F756E 		.ascii	"count\000"
 3279      7400
 3280              	.LASF7:
 3281 0006 6C6F6E67 		.ascii	"long long unsigned int\000"
 3281      206C6F6E 
 3281      6720756E 
 3281      7369676E 
 3281      65642069 
 3282              	.LASF31:
 3283 001d 61646472 		.ascii	"addr\000"
 3283      00
 3284              	.LASF22:
 3285 0022 4446425F 		.ascii	"DFB_1_Enable\000"
 3285      315F456E 
 3285      61626C65 
 3285      00
 3286              	.LASF64:
 3287 002f 474E5520 		.ascii	"GNU C 4.4.1\000"
 3287      4320342E 
 3287      342E3100 
 3288              	.LASF38:
 3289 003b 73616D70 		.ascii	"sample\000"
 3289      6C6500
 3290              	.LASF6:
ARM GAS  C:\Users\hoangp\AppData\Local\Temp\ccil7xJT.s 			page 77


 3291 0042 6C6F6E67 		.ascii	"long long int\000"
 3291      206C6F6E 
 3291      6720696E 
 3291      7400
 3292              	.LASF0:
 3293 0050 7369676E 		.ascii	"signed char\000"
 3293      65642063 
 3293      68617200 
 3294              	.LASF51:
 3295 005c 4446425F 		.ascii	"DFB_1_SetSemaphores\000"
 3295      315F5365 
 3295      7453656D 
 3295      6170686F 
 3295      72657300 
 3296              	.LASF11:
 3297 0070 696E7433 		.ascii	"int32\000"
 3297      3200
 3298              	.LASF53:
 3299 0076 4446425F 		.ascii	"DFB_1_GetInterruptSource\000"
 3299      315F4765 
 3299      74496E74 
 3299      65727275 
 3299      7074536F 
 3300              	.LASF4:
 3301 008f 6C6F6E67 		.ascii	"long int\000"
 3301      20696E74 
 3301      00
 3302              	.LASF26:
 3303 0098 4446425F 		.ascii	"DFB_1_Resume\000"
 3303      315F5265 
 3303      73756D65 
 3303      00
 3304              	.LASF56:
 3305 00a5 4446425F 		.ascii	"DFB_1_SetOutput1Source\000"
 3305      315F5365 
 3305      744F7574 
 3305      70757431 
 3305      536F7572 
 3306              	.LASF48:
 3307 00bc 4446425F 		.ascii	"DFB_1_ClearInterrupt\000"
 3307      315F436C 
 3307      65617249 
 3307      6E746572 
 3307      72757074 
 3308              	.LASF18:
 3309 00d1 4446425F 		.ascii	"DFB_1_LoadReg32\000"
 3309      315F4C6F 
 3309      61645265 
 3309      67333200 
 3310              	.LASF9:
 3311 00e1 75696E74 		.ascii	"uint8\000"
 3311      3800
 3312              	.LASF13:
 3313 00e7 646F7562 		.ascii	"double\000"
 3313      6C6500
 3314              	.LASF10:
 3315 00ee 75696E74 		.ascii	"uint32\000"
ARM GAS  C:\Users\hoangp\AppData\Local\Temp\ccil7xJT.s 			page 78


 3315      333200
 3316              	.LASF52:
 3317 00f5 6D61736B 		.ascii	"mask\000"
 3317      00
 3318              	.LASF39:
 3319 00fa 76616C75 		.ascii	"value\000"
 3319      6500
 3320              	.LASF8:
 3321 0100 756E7369 		.ascii	"unsigned int\000"
 3321      676E6564 
 3321      20696E74 
 3321      00
 3322              	.LASF5:
 3323 010d 6C6F6E67 		.ascii	"long unsigned int\000"
 3323      20756E73 
 3323      69676E65 
 3323      6420696E 
 3323      7400
 3324              	.LASF15:
 3325 011f 72656741 		.ascii	"regAddress\000"
 3325      64647265 
 3325      737300
 3326              	.LASF32:
 3327 012a 73697A65 		.ascii	"size\000"
 3327      00
 3328              	.LASF3:
 3329 012f 73686F72 		.ascii	"short unsigned int\000"
 3329      7420756E 
 3329      7369676E 
 3329      65642069 
 3329      6E7400
 3330              	.LASF61:
 3331 0142 4446425F 		.ascii	"DFB_1_data_b\000"
 3331      315F6461 
 3331      74615F62 
 3331      00
 3332              	.LASF30:
 3333 014f 64616C69 		.ascii	"dalignKeyByte\000"
 3333      676E4B65 
 3333      79427974 
 3333      6500
 3334              	.LASF63:
 3335 015d 4446425F 		.ascii	"DFB_1_acu\000"
 3335      315F6163 
 3335      7500
 3336              	.LASF23:
 3337 0167 4446425F 		.ascii	"DFB_1_Stop\000"
 3337      315F5374 
 3337      6F7000
 3338              	.LASF45:
 3339 0172 6F757470 		.ascii	"output\000"
 3339      757400
 3340              	.LASF16:
 3341 0179 736F7572 		.ascii	"source\000"
 3341      636500
 3342              	.LASF41:
 3343 0180 64617461 		.ascii	"data0\000"
ARM GAS  C:\Users\hoangp\AppData\Local\Temp\ccil7xJT.s 			page 79


 3343      3000
 3344              	.LASF42:
 3345 0186 64617461 		.ascii	"data1\000"
 3345      3100
 3346              	.LASF43:
 3347 018c 64617461 		.ascii	"data2\000"
 3347      3200
 3348              	.LASF44:
 3349 0192 64617461 		.ascii	"data3\000"
 3349      3300
 3350              	.LASF59:
 3351 0198 4446425F 		.ascii	"DFB_1_control\000"
 3351      315F636F 
 3351      6E74726F 
 3351      6C00
 3352              	.LASF25:
 3353 01a6 4446425F 		.ascii	"DFB_1_Pause\000"
 3353      315F5061 
 3353      75736500 
 3354              	.LASF40:
 3355 01b2 4446425F 		.ascii	"DFB_1_GetOutputValue\000"
 3355      315F4765 
 3355      744F7574 
 3355      70757456 
 3355      616C7565 
 3356              	.LASF58:
 3357 01c7 4446425F 		.ascii	"DFB_1_initVar\000"
 3357      315F696E 
 3357      69745661 
 3357      7200
 3358              	.LASF12:
 3359 01d5 666C6F61 		.ascii	"float\000"
 3359      7400
 3360              	.LASF55:
 3361 01db 4446425F 		.ascii	"DFB_1_ClearSemaphores\000"
 3361      315F436C 
 3361      65617253 
 3361      656D6170 
 3361      686F7265 
 3362              	.LASF28:
 3363 01f1 636F6865 		.ascii	"coherencyKeyByte\000"
 3363      72656E63 
 3363      794B6579 
 3363      42797465 
 3363      00
 3364              	.LASF1:
 3365 0202 756E7369 		.ascii	"unsigned char\000"
 3365      676E6564 
 3365      20636861 
 3365      7200
 3366              	.LASF27:
 3367 0210 4446425F 		.ascii	"DFB_1_SetCoherency\000"
 3367      315F5365 
 3367      74436F68 
 3367      6572656E 
 3367      637900
 3368              	.LASF2:
ARM GAS  C:\Users\hoangp\AppData\Local\Temp\ccil7xJT.s 			page 80


 3369 0223 73686F72 		.ascii	"short int\000"
 3369      7420696E 
 3369      7400
 3370              	.LASF49:
 3371 022d 696E7465 		.ascii	"interruptMask\000"
 3371      72727570 
 3371      744D6173 
 3371      6B00
 3372              	.LASF34:
 3373 023b 4446425F 		.ascii	"DFB_1_LoadDataRAMA\000"
 3373      315F4C6F 
 3373      61644461 
 3373      74615241 
 3373      4D4100
 3374              	.LASF65:
 3375 024e 2E5C4765 		.ascii	".\\Generated_Source\\PSoC5\\DFB_1.c\000"
 3375      6E657261 
 3375      7465645F 
 3375      536F7572 
 3375      63655C50 
 3376              	.LASF37:
 3377 026f 6368616E 		.ascii	"channel\000"
 3377      6E656C00 
 3378              	.LASF57:
 3379 0277 4446425F 		.ascii	"DFB_1_SetOutput2Source\000"
 3379      315F5365 
 3379      744F7574 
 3379      70757432 
 3379      536F7572 
 3380              	.LASF47:
 3381 028e 6576656E 		.ascii	"events\000"
 3381      747300
 3382              	.LASF14:
 3383 0295 63686172 		.ascii	"char\000"
 3383      00
 3384              	.LASF35:
 3385 029a 4446425F 		.ascii	"DFB_1_LoadDataRAMB\000"
 3385      315F4C6F 
 3385      61644461 
 3385      74615241 
 3385      4D4200
 3386              	.LASF19:
 3387 02ad 4446425F 		.ascii	"DFB_1_ZeroReg32\000"
 3387      315F5A65 
 3387      726F5265 
 3387      67333200 
 3388              	.LASF60:
 3389 02bd 4446425F 		.ascii	"DFB_1_data_a\000"
 3389      315F6461 
 3389      74615F61 
 3389      00
 3390              	.LASF36:
 3391 02ca 4446425F 		.ascii	"DFB_1_LoadInputValue\000"
 3391      315F4C6F 
 3391      6164496E 
 3391      70757456 
 3391      616C7565 
ARM GAS  C:\Users\hoangp\AppData\Local\Temp\ccil7xJT.s 			page 81


 3392              	.LASF24:
 3393 02df 4446425F 		.ascii	"DFB_1_Start\000"
 3393      315F5374 
 3393      61727400 
 3394              	.LASF29:
 3395 02eb 4446425F 		.ascii	"DFB_1_SetDalign\000"
 3395      315F5365 
 3395      7444616C 
 3395      69676E00 
 3396              	.LASF20:
 3397 02fb 656E6162 		.ascii	"enableInterrupts\000"
 3397      6C65496E 
 3397      74657272 
 3397      75707473 
 3397      00
 3398              	.LASF21:
 3399 030c 4446425F 		.ascii	"DFB_1_Init\000"
 3399      315F496E 
 3399      697400
 3400              	.LASF62:
 3401 0317 4446425F 		.ascii	"DFB_1_cfsm\000"
 3401      315F6366 
 3401      736D00
 3402              	.LASF50:
 3403 0322 4446425F 		.ascii	"DFB_1_SetDMAMode\000"
 3403      315F5365 
 3403      74444D41 
 3403      4D6F6465 
 3403      00
 3404              	.LASF66:
 3405 0333 433A5C55 		.ascii	"C:\\Users\\hoangp\\Documents\\GitHub\\EE542\\firmwa"
 3405      73657273 
 3405      5C686F61 
 3405      6E67705C 
 3405      446F6375 
 3406 0360 72655C69 		.ascii	"re\\invert\\invert.cydsn\000"
 3406      6E766572 
 3406      745C696E 
 3406      76657274 
 3406      2E637964 
 3407              	.LASF46:
 3408 0377 4446425F 		.ascii	"DFB_1_SetInterruptMode\000"
 3408      315F5365 
 3408      74496E74 
 3408      65727275 
 3408      70744D6F 
 3409              	.LASF33:
 3410 038e 72657375 		.ascii	"result\000"
 3410      6C7400
 3411              	.LASF54:
 3412 0395 4446425F 		.ascii	"DFB_1_GetSemaphores\000"
 3412      315F4765 
 3412      7453656D 
 3412      6170686F 
 3412      72657300 
 3413              		.ident	"GCC: (Sourcery G++ Lite 2010q1-188) 4.4.1"
