ARM GAS  C:\Users\hoangp\AppData\Local\Temp\ccmM5Wu0.s 			page 1


   1              		.syntax unified
   2              		.cpu cortex-m3
   3              		.fpu softvfp
   4              		.eabi_attribute 20, 1
   5              		.eabi_attribute 21, 1
   6              		.eabi_attribute 23, 3
   7              		.eabi_attribute 24, 1
   8              		.eabi_attribute 25, 1
   9              		.eabi_attribute 26, 1
  10              		.eabi_attribute 30, 6
  11              		.eabi_attribute 18, 4
  12              		.thumb
  13              		.file	"isr_LUT.c"
  20 0000 5C010000 		.text
  20      02005F00 
  20      00000201 
  20      FB0E0D00 
  20      01010101 
  21              	.Ltext0:
  22              		.cfi_sections	.debug_frame
  23              		.global	test
  24              		.bss
  25              		.align	2
  26              		.type	test, %object
  27              		.size	test, 4
  28              	test:
  29 0000 00000000 		.space	4
  30              		.section	.text.isr_LUT_Start,"ax",%progbits
  31              		.align	2
  32              		.global	isr_LUT_Start
  33              		.thumb
  34              		.thumb_func
  35              		.type	isr_LUT_Start, %function
  36              	isr_LUT_Start:
  37              	.LFB0:
  38              		.file 1 ".\\Generated_Source\\PSoC5\\isr_LUT.c"
   1:.\Generated_Source\PSoC5/isr_LUT.c **** /*******************************************************************************
   2:.\Generated_Source\PSoC5/isr_LUT.c **** * File Name: isr_LUT.c  
   3:.\Generated_Source\PSoC5/isr_LUT.c **** * Version 1.70
   4:.\Generated_Source\PSoC5/isr_LUT.c **** *
   5:.\Generated_Source\PSoC5/isr_LUT.c **** *  Description:
   6:.\Generated_Source\PSoC5/isr_LUT.c **** *   API for controlling the state of an interrupt.
   7:.\Generated_Source\PSoC5/isr_LUT.c **** *
   8:.\Generated_Source\PSoC5/isr_LUT.c **** *
   9:.\Generated_Source\PSoC5/isr_LUT.c **** *  Note:
  10:.\Generated_Source\PSoC5/isr_LUT.c **** *
  11:.\Generated_Source\PSoC5/isr_LUT.c **** ********************************************************************************
  12:.\Generated_Source\PSoC5/isr_LUT.c **** * Copyright 2008-2012, Cypress Semiconductor Corporation.  All rights reserved.
  13:.\Generated_Source\PSoC5/isr_LUT.c **** * You may use this file only in accordance with the license, terms, conditions, 
  14:.\Generated_Source\PSoC5/isr_LUT.c **** * disclaimers, and limitations in the end user license agreement accompanying 
  15:.\Generated_Source\PSoC5/isr_LUT.c **** * the software package with which this file was provided.
ARM GAS  C:\Users\hoangp\AppData\Local\Temp\ccmM5Wu0.s 			page 2


  16:.\Generated_Source\PSoC5/isr_LUT.c **** *******************************************************************************/
  17:.\Generated_Source\PSoC5/isr_LUT.c **** 
  18:.\Generated_Source\PSoC5/isr_LUT.c **** 
  19:.\Generated_Source\PSoC5/isr_LUT.c **** #include <CYDEVICE_TRM.H>
  20:.\Generated_Source\PSoC5/isr_LUT.c **** #include <CYLIB.H>
  21:.\Generated_Source\PSoC5/isr_LUT.c **** #include <isr_LUT.H>
  22:.\Generated_Source\PSoC5/isr_LUT.c **** 
  23:.\Generated_Source\PSoC5/isr_LUT.c **** #if !defined(isr_LUT__REMOVED) /* Check for removal by optimization */
  24:.\Generated_Source\PSoC5/isr_LUT.c **** 
  25:.\Generated_Source\PSoC5/isr_LUT.c **** /*******************************************************************************
  26:.\Generated_Source\PSoC5/isr_LUT.c **** *  Place your includes, defines and code here 
  27:.\Generated_Source\PSoC5/isr_LUT.c **** ********************************************************************************/
  28:.\Generated_Source\PSoC5/isr_LUT.c **** /* `#START isr_LUT_intc` */
  29:.\Generated_Source\PSoC5/isr_LUT.c **** extern int16 buffvolt;
  30:.\Generated_Source\PSoC5/isr_LUT.c **** extern int16 sineLUTindex;
  31:.\Generated_Source\PSoC5/isr_LUT.c **** extern uint32 varray[4];
  32:.\Generated_Source\PSoC5/isr_LUT.c **** int test = 0;
  33:.\Generated_Source\PSoC5/isr_LUT.c **** 
  34:.\Generated_Source\PSoC5/isr_LUT.c **** 
  35:.\Generated_Source\PSoC5/isr_LUT.c **** 
  36:.\Generated_Source\PSoC5/isr_LUT.c **** /* `#END` */
  37:.\Generated_Source\PSoC5/isr_LUT.c **** 
  38:.\Generated_Source\PSoC5/isr_LUT.c **** #ifndef CYINT_IRQ_BASE
  39:.\Generated_Source\PSoC5/isr_LUT.c **** #define CYINT_IRQ_BASE      16
  40:.\Generated_Source\PSoC5/isr_LUT.c **** #endif /* CYINT_IRQ_BASE */
  41:.\Generated_Source\PSoC5/isr_LUT.c **** #ifndef CYINT_VECT_TABLE
  42:.\Generated_Source\PSoC5/isr_LUT.c **** #define CYINT_VECT_TABLE    ((cyisraddress **) CYREG_NVIC_VECT_OFFSET)
  43:.\Generated_Source\PSoC5/isr_LUT.c **** #endif /* CYINT_VECT_TABLE */
  44:.\Generated_Source\PSoC5/isr_LUT.c **** 
  45:.\Generated_Source\PSoC5/isr_LUT.c **** /* Declared in startup, used to set unused interrupts to. */
  46:.\Generated_Source\PSoC5/isr_LUT.c **** CY_ISR_PROTO(IntDefaultHandler);
  47:.\Generated_Source\PSoC5/isr_LUT.c **** 
  48:.\Generated_Source\PSoC5/isr_LUT.c **** 
  49:.\Generated_Source\PSoC5/isr_LUT.c **** /*******************************************************************************
  50:.\Generated_Source\PSoC5/isr_LUT.c **** * Function Name: isr_LUT_Start
  51:.\Generated_Source\PSoC5/isr_LUT.c **** ********************************************************************************
  52:.\Generated_Source\PSoC5/isr_LUT.c **** *
  53:.\Generated_Source\PSoC5/isr_LUT.c **** * Summary:
  54:.\Generated_Source\PSoC5/isr_LUT.c **** *  Set up the interrupt and enable it.
  55:.\Generated_Source\PSoC5/isr_LUT.c **** *
  56:.\Generated_Source\PSoC5/isr_LUT.c **** * Parameters:  
  57:.\Generated_Source\PSoC5/isr_LUT.c **** *   None
  58:.\Generated_Source\PSoC5/isr_LUT.c **** *
  59:.\Generated_Source\PSoC5/isr_LUT.c **** * Return:
  60:.\Generated_Source\PSoC5/isr_LUT.c **** *   None
  61:.\Generated_Source\PSoC5/isr_LUT.c **** *
  62:.\Generated_Source\PSoC5/isr_LUT.c **** *******************************************************************************/
  63:.\Generated_Source\PSoC5/isr_LUT.c **** void isr_LUT_Start(void)
  64:.\Generated_Source\PSoC5/isr_LUT.c **** {
  39              		.loc 1 64 0
  40              		.cfi_startproc
  41              		@ args = 0, pretend = 0, frame = 0
  42              		@ frame_needed = 1, uses_anonymous_args = 0
  43 0000 80B5     		push	{r7, lr}
  44              	.LCFI0:
  45              		.cfi_def_cfa_offset 8
  46 0002 00AF     		add	r7, sp, #0
ARM GAS  C:\Users\hoangp\AppData\Local\Temp\ccmM5Wu0.s 			page 3


  47              		.cfi_offset 14, -4
  48              		.cfi_offset 7, -8
  49              	.LCFI1:
  50              		.cfi_def_cfa_register 7
  65:.\Generated_Source\PSoC5/isr_LUT.c ****     /* For all we know the interrupt is active. */
  66:.\Generated_Source\PSoC5/isr_LUT.c ****     isr_LUT_Disable();
  51              		.loc 1 66 0
  52 0004 FFF7FEFF 		bl	isr_LUT_Disable
  67:.\Generated_Source\PSoC5/isr_LUT.c **** 
  68:.\Generated_Source\PSoC5/isr_LUT.c ****     /* Set the ISR to point to the isr_LUT Interrupt. */
  69:.\Generated_Source\PSoC5/isr_LUT.c ****     isr_LUT_SetVector(&isr_LUT_Interrupt);
  53              		.loc 1 69 0
  54 0008 40F20000 		movw	r0, #:lower16:isr_LUT_Interrupt
  55 000c C0F20000 		movt	r0, #:upper16:isr_LUT_Interrupt
  56 0010 FFF7FEFF 		bl	isr_LUT_SetVector
  70:.\Generated_Source\PSoC5/isr_LUT.c **** 
  71:.\Generated_Source\PSoC5/isr_LUT.c ****     /* Set the priority. */
  72:.\Generated_Source\PSoC5/isr_LUT.c ****     isr_LUT_SetPriority((uint8)isr_LUT_INTC_PRIOR_NUMBER);
  57              		.loc 1 72 0
  58 0014 4FF00700 		mov	r0, #7
  59 0018 FFF7FEFF 		bl	isr_LUT_SetPriority
  73:.\Generated_Source\PSoC5/isr_LUT.c **** 
  74:.\Generated_Source\PSoC5/isr_LUT.c ****     /* Enable it. */
  75:.\Generated_Source\PSoC5/isr_LUT.c ****     isr_LUT_Enable();
  60              		.loc 1 75 0
  61 001c FFF7FEFF 		bl	isr_LUT_Enable
  76:.\Generated_Source\PSoC5/isr_LUT.c **** }
  62              		.loc 1 76 0
  63 0020 80BD     		pop	{r7, pc}
  64              		.cfi_endproc
  65              	.LFE0:
  66              		.size	isr_LUT_Start, .-isr_LUT_Start
  67 0022 00BF     		.section	.text.isr_LUT_StartEx,"ax",%progbits
  68              		.align	2
  69              		.global	isr_LUT_StartEx
  70              		.thumb
  71              		.thumb_func
  72              		.type	isr_LUT_StartEx, %function
  73              	isr_LUT_StartEx:
  74              	.LFB1:
  77:.\Generated_Source\PSoC5/isr_LUT.c **** 
  78:.\Generated_Source\PSoC5/isr_LUT.c **** 
  79:.\Generated_Source\PSoC5/isr_LUT.c **** /*******************************************************************************
  80:.\Generated_Source\PSoC5/isr_LUT.c **** * Function Name: isr_LUT_StartEx
  81:.\Generated_Source\PSoC5/isr_LUT.c **** ********************************************************************************
  82:.\Generated_Source\PSoC5/isr_LUT.c **** *
  83:.\Generated_Source\PSoC5/isr_LUT.c **** * Summary:
  84:.\Generated_Source\PSoC5/isr_LUT.c **** *  Set up the interrupt and enable it.
  85:.\Generated_Source\PSoC5/isr_LUT.c **** *
  86:.\Generated_Source\PSoC5/isr_LUT.c **** * Parameters:  
  87:.\Generated_Source\PSoC5/isr_LUT.c **** *   address: Address of the ISR to set in the interrupt vector table.
  88:.\Generated_Source\PSoC5/isr_LUT.c **** *
  89:.\Generated_Source\PSoC5/isr_LUT.c **** * Return:
  90:.\Generated_Source\PSoC5/isr_LUT.c **** *   None
  91:.\Generated_Source\PSoC5/isr_LUT.c **** *
  92:.\Generated_Source\PSoC5/isr_LUT.c **** *******************************************************************************/
  93:.\Generated_Source\PSoC5/isr_LUT.c **** void isr_LUT_StartEx(cyisraddress address)
ARM GAS  C:\Users\hoangp\AppData\Local\Temp\ccmM5Wu0.s 			page 4


  94:.\Generated_Source\PSoC5/isr_LUT.c **** {
  75              		.loc 1 94 0
  76              		.cfi_startproc
  77              		@ args = 0, pretend = 0, frame = 8
  78              		@ frame_needed = 1, uses_anonymous_args = 0
  79 0000 80B5     		push	{r7, lr}
  80              	.LCFI2:
  81              		.cfi_def_cfa_offset 8
  82 0002 82B0     		sub	sp, sp, #8
  83              	.LCFI3:
  84              		.cfi_def_cfa_offset 16
  85 0004 00AF     		add	r7, sp, #0
  86              		.cfi_offset 14, -4
  87              		.cfi_offset 7, -8
  88              	.LCFI4:
  89              		.cfi_def_cfa_register 7
  90 0006 7860     		str	r0, [r7, #4]
  95:.\Generated_Source\PSoC5/isr_LUT.c ****     /* For all we know the interrupt is active. */
  96:.\Generated_Source\PSoC5/isr_LUT.c ****     isr_LUT_Disable();
  91              		.loc 1 96 0
  92 0008 FFF7FEFF 		bl	isr_LUT_Disable
  97:.\Generated_Source\PSoC5/isr_LUT.c **** 
  98:.\Generated_Source\PSoC5/isr_LUT.c ****     /* Set the ISR to point to the isr_LUT Interrupt. */
  99:.\Generated_Source\PSoC5/isr_LUT.c ****     isr_LUT_SetVector(address);
  93              		.loc 1 99 0
  94 000c 7868     		ldr	r0, [r7, #4]
  95 000e FFF7FEFF 		bl	isr_LUT_SetVector
 100:.\Generated_Source\PSoC5/isr_LUT.c **** 
 101:.\Generated_Source\PSoC5/isr_LUT.c ****     /* Set the priority. */
 102:.\Generated_Source\PSoC5/isr_LUT.c ****     isr_LUT_SetPriority((uint8)isr_LUT_INTC_PRIOR_NUMBER);
  96              		.loc 1 102 0
  97 0012 4FF00700 		mov	r0, #7
  98 0016 FFF7FEFF 		bl	isr_LUT_SetPriority
 103:.\Generated_Source\PSoC5/isr_LUT.c **** 
 104:.\Generated_Source\PSoC5/isr_LUT.c ****     /* Enable it. */
 105:.\Generated_Source\PSoC5/isr_LUT.c ****     isr_LUT_Enable();
  99              		.loc 1 105 0
 100 001a FFF7FEFF 		bl	isr_LUT_Enable
 106:.\Generated_Source\PSoC5/isr_LUT.c **** }
 101              		.loc 1 106 0
 102 001e 07F10807 		add	r7, r7, #8
 103 0022 BD46     		mov	sp, r7
 104 0024 80BD     		pop	{r7, pc}
 105              		.cfi_endproc
 106              	.LFE1:
 107              		.size	isr_LUT_StartEx, .-isr_LUT_StartEx
 108 0026 00BF     		.section	.text.isr_LUT_Stop,"ax",%progbits
 109              		.align	2
 110              		.global	isr_LUT_Stop
 111              		.thumb
 112              		.thumb_func
 113              		.type	isr_LUT_Stop, %function
 114              	isr_LUT_Stop:
 115              	.LFB2:
 107:.\Generated_Source\PSoC5/isr_LUT.c **** 
 108:.\Generated_Source\PSoC5/isr_LUT.c **** 
 109:.\Generated_Source\PSoC5/isr_LUT.c **** /*******************************************************************************
ARM GAS  C:\Users\hoangp\AppData\Local\Temp\ccmM5Wu0.s 			page 5


 110:.\Generated_Source\PSoC5/isr_LUT.c **** * Function Name: isr_LUT_Stop
 111:.\Generated_Source\PSoC5/isr_LUT.c **** ********************************************************************************
 112:.\Generated_Source\PSoC5/isr_LUT.c **** *
 113:.\Generated_Source\PSoC5/isr_LUT.c **** * Summary:
 114:.\Generated_Source\PSoC5/isr_LUT.c **** *   Disables and removes the interrupt.
 115:.\Generated_Source\PSoC5/isr_LUT.c **** *
 116:.\Generated_Source\PSoC5/isr_LUT.c **** * Parameters:  
 117:.\Generated_Source\PSoC5/isr_LUT.c **** *
 118:.\Generated_Source\PSoC5/isr_LUT.c **** * Return:
 119:.\Generated_Source\PSoC5/isr_LUT.c **** *   None
 120:.\Generated_Source\PSoC5/isr_LUT.c **** *
 121:.\Generated_Source\PSoC5/isr_LUT.c **** *******************************************************************************/
 122:.\Generated_Source\PSoC5/isr_LUT.c **** void isr_LUT_Stop(void)
 123:.\Generated_Source\PSoC5/isr_LUT.c **** {
 116              		.loc 1 123 0
 117              		.cfi_startproc
 118              		@ args = 0, pretend = 0, frame = 0
 119              		@ frame_needed = 1, uses_anonymous_args = 0
 120 0000 80B5     		push	{r7, lr}
 121              	.LCFI5:
 122              		.cfi_def_cfa_offset 8
 123 0002 00AF     		add	r7, sp, #0
 124              		.cfi_offset 14, -4
 125              		.cfi_offset 7, -8
 126              	.LCFI6:
 127              		.cfi_def_cfa_register 7
 124:.\Generated_Source\PSoC5/isr_LUT.c ****     /* Disable this interrupt. */
 125:.\Generated_Source\PSoC5/isr_LUT.c ****     isr_LUT_Disable();
 128              		.loc 1 125 0
 129 0004 FFF7FEFF 		bl	isr_LUT_Disable
 126:.\Generated_Source\PSoC5/isr_LUT.c **** 
 127:.\Generated_Source\PSoC5/isr_LUT.c ****     /* Set the ISR to point to the passive one. */
 128:.\Generated_Source\PSoC5/isr_LUT.c ****     isr_LUT_SetVector(&IntDefaultHandler);
 130              		.loc 1 128 0
 131 0008 40F20000 		movw	r0, #:lower16:IntDefaultHandler
 132 000c C0F20000 		movt	r0, #:upper16:IntDefaultHandler
 133 0010 FFF7FEFF 		bl	isr_LUT_SetVector
 129:.\Generated_Source\PSoC5/isr_LUT.c **** }
 134              		.loc 1 129 0
 135 0014 80BD     		pop	{r7, pc}
 136              		.cfi_endproc
 137              	.LFE2:
 138              		.size	isr_LUT_Stop, .-isr_LUT_Stop
 139 0016 00BF     		.section	.text.isr_LUT_Interrupt,"ax",%progbits
 140              		.align	2
 141              		.global	isr_LUT_Interrupt
 142              		.thumb
 143              		.thumb_func
 144              		.type	isr_LUT_Interrupt, %function
 145              	isr_LUT_Interrupt:
 146              	.LFB3:
 130:.\Generated_Source\PSoC5/isr_LUT.c **** 
 131:.\Generated_Source\PSoC5/isr_LUT.c **** 
 132:.\Generated_Source\PSoC5/isr_LUT.c **** /*******************************************************************************
 133:.\Generated_Source\PSoC5/isr_LUT.c **** * Function Name: isr_LUT_Interrupt
 134:.\Generated_Source\PSoC5/isr_LUT.c **** ********************************************************************************
 135:.\Generated_Source\PSoC5/isr_LUT.c **** *
ARM GAS  C:\Users\hoangp\AppData\Local\Temp\ccmM5Wu0.s 			page 6


 136:.\Generated_Source\PSoC5/isr_LUT.c **** * Summary:
 137:.\Generated_Source\PSoC5/isr_LUT.c **** *   The default Interrupt Service Routine for isr_LUT.
 138:.\Generated_Source\PSoC5/isr_LUT.c **** *
 139:.\Generated_Source\PSoC5/isr_LUT.c **** *   Add custom code between the coments to keep the next version of this file
 140:.\Generated_Source\PSoC5/isr_LUT.c **** *   from over writting your code.
 141:.\Generated_Source\PSoC5/isr_LUT.c **** *
 142:.\Generated_Source\PSoC5/isr_LUT.c **** * Parameters:  
 143:.\Generated_Source\PSoC5/isr_LUT.c **** *
 144:.\Generated_Source\PSoC5/isr_LUT.c **** * Return:
 145:.\Generated_Source\PSoC5/isr_LUT.c **** *   None
 146:.\Generated_Source\PSoC5/isr_LUT.c **** *
 147:.\Generated_Source\PSoC5/isr_LUT.c **** *******************************************************************************/
 148:.\Generated_Source\PSoC5/isr_LUT.c **** CY_ISR(isr_LUT_Interrupt)
 149:.\Generated_Source\PSoC5/isr_LUT.c **** {
 147              		.loc 1 149 0
 148              		.cfi_startproc
 149              		@ args = 0, pretend = 0, frame = 0
 150              		@ frame_needed = 1, uses_anonymous_args = 0
 151              		@ link register save eliminated.
 152 0000 80B4     		push	{r7}
 153              	.LCFI7:
 154              		.cfi_def_cfa_offset 4
 155 0002 00AF     		add	r7, sp, #0
 156              		.cfi_offset 7, -4
 157              	.LCFI8:
 158              		.cfi_def_cfa_register 7
 150:.\Generated_Source\PSoC5/isr_LUT.c ****     /*  Place your Interrupt code here. */
 151:.\Generated_Source\PSoC5/isr_LUT.c ****     /* `#START isr_LUT_Interrupt` */
 152:.\Generated_Source\PSoC5/isr_LUT.c ****     
 153:.\Generated_Source\PSoC5/isr_LUT.c ****    
 154:.\Generated_Source\PSoC5/isr_LUT.c ****     varray[sineLUTindex/64]=(uint32)buffvolt<<12;
 159              		.loc 1 154 0
 160 0004 40F20003 		movw	r3, #:lower16:sineLUTindex
 161 0008 C0F20003 		movt	r3, #:upper16:sineLUTindex
 162 000c 1B88     		ldrh	r3, [r3, #0]
 163 000e 1BB2     		sxth	r3, r3
 164 0010 03F13F02 		add	r2, r3, #63
 165 0014 002B     		cmp	r3, #0
 166 0016 B8BF     		it	lt
 167 0018 1346     		movlt	r3, r2
 168 001a 4FEAA313 		asr	r3, r3, #6
 169 001e 9BB2     		uxth	r3, r3
 170 0020 1AB2     		sxth	r2, r3
 171 0022 40F20003 		movw	r3, #:lower16:buffvolt
 172 0026 C0F20003 		movt	r3, #:upper16:buffvolt
 173 002a 1B88     		ldrh	r3, [r3, #0]
 174 002c 1BB2     		sxth	r3, r3
 175 002e 4FEA0331 		lsl	r1, r3, #12
 176 0032 40F20003 		movw	r3, #:lower16:varray
 177 0036 C0F20003 		movt	r3, #:upper16:varray
 178 003a 43F82210 		str	r1, [r3, r2, lsl #2]
 155:.\Generated_Source\PSoC5/isr_LUT.c ****     
 156:.\Generated_Source\PSoC5/isr_LUT.c ****     sineLUTindex++;  
 179              		.loc 1 156 0
 180 003e 40F20003 		movw	r3, #:lower16:sineLUTindex
 181 0042 C0F20003 		movt	r3, #:upper16:sineLUTindex
 182 0046 1B88     		ldrh	r3, [r3, #0]
ARM GAS  C:\Users\hoangp\AppData\Local\Temp\ccmM5Wu0.s 			page 7


 183 0048 03F10103 		add	r3, r3, #1
 184 004c 9AB2     		uxth	r2, r3
 185 004e 40F20003 		movw	r3, #:lower16:sineLUTindex
 186 0052 C0F20003 		movt	r3, #:upper16:sineLUTindex
 187 0056 1A80     		strh	r2, [r3, #0]	@ movhi
 157:.\Generated_Source\PSoC5/isr_LUT.c ****     if(sineLUTindex>=256){
 188              		.loc 1 157 0
 189 0058 40F20003 		movw	r3, #:lower16:sineLUTindex
 190 005c C0F20003 		movt	r3, #:upper16:sineLUTindex
 191 0060 1B88     		ldrh	r3, [r3, #0]
 192 0062 1BB2     		sxth	r3, r3
 193 0064 FF2B     		cmp	r3, #255
 194 0066 06DD     		ble	.L9
 158:.\Generated_Source\PSoC5/isr_LUT.c ****         sineLUTindex=0;
 195              		.loc 1 158 0
 196 0068 40F20003 		movw	r3, #:lower16:sineLUTindex
 197 006c C0F20003 		movt	r3, #:upper16:sineLUTindex
 198 0070 4FF00002 		mov	r2, #0
 199 0074 1A80     		strh	r2, [r3, #0]	@ movhi
 200              	.L9:
 159:.\Generated_Source\PSoC5/isr_LUT.c ****        //varray[0]=(uint32)buffvolt<<12;
 160:.\Generated_Source\PSoC5/isr_LUT.c **** 
 161:.\Generated_Source\PSoC5/isr_LUT.c ****     }
 162:.\Generated_Source\PSoC5/isr_LUT.c ****     
 163:.\Generated_Source\PSoC5/isr_LUT.c ****     /* `#END` */
 164:.\Generated_Source\PSoC5/isr_LUT.c **** }
 201              		.loc 1 164 0
 202 0076 BD46     		mov	sp, r7
 203 0078 80BC     		pop	{r7}
 204 007a 7047     		bx	lr
 205              		.cfi_endproc
 206              	.LFE3:
 207              		.size	isr_LUT_Interrupt, .-isr_LUT_Interrupt
 208              		.section	.text.isr_LUT_SetVector,"ax",%progbits
 209              		.align	2
 210              		.global	isr_LUT_SetVector
 211              		.thumb
 212              		.thumb_func
 213              		.type	isr_LUT_SetVector, %function
 214              	isr_LUT_SetVector:
 215              	.LFB4:
 165:.\Generated_Source\PSoC5/isr_LUT.c **** 
 166:.\Generated_Source\PSoC5/isr_LUT.c **** 
 167:.\Generated_Source\PSoC5/isr_LUT.c **** /*******************************************************************************
 168:.\Generated_Source\PSoC5/isr_LUT.c **** * Function Name: isr_LUT_SetVector
 169:.\Generated_Source\PSoC5/isr_LUT.c **** ********************************************************************************
 170:.\Generated_Source\PSoC5/isr_LUT.c **** *
 171:.\Generated_Source\PSoC5/isr_LUT.c **** * Summary:
 172:.\Generated_Source\PSoC5/isr_LUT.c **** *   Change the ISR vector for the Interrupt. Note calling isr_LUT_Start
 173:.\Generated_Source\PSoC5/isr_LUT.c **** *   will override any effect this method would have had. To set the vector 
 174:.\Generated_Source\PSoC5/isr_LUT.c **** *   before the component has been started use isr_LUT_StartEx instead.
 175:.\Generated_Source\PSoC5/isr_LUT.c **** *
 176:.\Generated_Source\PSoC5/isr_LUT.c **** * Parameters:
 177:.\Generated_Source\PSoC5/isr_LUT.c **** *   address: Address of the ISR to set in the interrupt vector table.
 178:.\Generated_Source\PSoC5/isr_LUT.c **** *
 179:.\Generated_Source\PSoC5/isr_LUT.c **** * Return:
 180:.\Generated_Source\PSoC5/isr_LUT.c **** *   None
ARM GAS  C:\Users\hoangp\AppData\Local\Temp\ccmM5Wu0.s 			page 8


 181:.\Generated_Source\PSoC5/isr_LUT.c **** *
 182:.\Generated_Source\PSoC5/isr_LUT.c **** *******************************************************************************/
 183:.\Generated_Source\PSoC5/isr_LUT.c **** void isr_LUT_SetVector(cyisraddress address)
 184:.\Generated_Source\PSoC5/isr_LUT.c **** {
 216              		.loc 1 184 0
 217              		.cfi_startproc
 218              		@ args = 0, pretend = 0, frame = 16
 219              		@ frame_needed = 1, uses_anonymous_args = 0
 220              		@ link register save eliminated.
 221 0000 80B4     		push	{r7}
 222              	.LCFI9:
 223              		.cfi_def_cfa_offset 4
 224 0002 85B0     		sub	sp, sp, #20
 225              	.LCFI10:
 226              		.cfi_def_cfa_offset 24
 227 0004 00AF     		add	r7, sp, #0
 228              		.cfi_offset 7, -4
 229              	.LCFI11:
 230              		.cfi_def_cfa_register 7
 231 0006 7860     		str	r0, [r7, #4]
 185:.\Generated_Source\PSoC5/isr_LUT.c ****     cyisraddress * ramVectorTable;
 186:.\Generated_Source\PSoC5/isr_LUT.c **** 
 187:.\Generated_Source\PSoC5/isr_LUT.c ****     ramVectorTable = (cyisraddress *) *CYINT_VECT_TABLE;
 232              		.loc 1 187 0
 233 0008 4EF60853 		movw	r3, #:lower16:-536810232
 234 000c CEF20003 		movt	r3, #:upper16:-536810232
 235 0010 1B68     		ldr	r3, [r3, #0]
 236 0012 FB60     		str	r3, [r7, #12]
 188:.\Generated_Source\PSoC5/isr_LUT.c **** 
 189:.\Generated_Source\PSoC5/isr_LUT.c ****     ramVectorTable[CYINT_IRQ_BASE + (uint32)isr_LUT__INTC_NUMBER] = address;
 237              		.loc 1 189 0
 238 0014 FB68     		ldr	r3, [r7, #12]
 239 0016 03F14003 		add	r3, r3, #64
 240 001a 7A68     		ldr	r2, [r7, #4]
 241 001c 1A60     		str	r2, [r3, #0]
 190:.\Generated_Source\PSoC5/isr_LUT.c **** }
 242              		.loc 1 190 0
 243 001e 07F11407 		add	r7, r7, #20
 244 0022 BD46     		mov	sp, r7
 245 0024 80BC     		pop	{r7}
 246 0026 7047     		bx	lr
 247              		.cfi_endproc
 248              	.LFE4:
 249              		.size	isr_LUT_SetVector, .-isr_LUT_SetVector
 250              		.section	.text.isr_LUT_GetVector,"ax",%progbits
 251              		.align	2
 252              		.global	isr_LUT_GetVector
 253              		.thumb
 254              		.thumb_func
 255              		.type	isr_LUT_GetVector, %function
 256              	isr_LUT_GetVector:
 257              	.LFB5:
 191:.\Generated_Source\PSoC5/isr_LUT.c **** 
 192:.\Generated_Source\PSoC5/isr_LUT.c **** 
 193:.\Generated_Source\PSoC5/isr_LUT.c **** /*******************************************************************************
 194:.\Generated_Source\PSoC5/isr_LUT.c **** * Function Name: isr_LUT_GetVector
 195:.\Generated_Source\PSoC5/isr_LUT.c **** ********************************************************************************
ARM GAS  C:\Users\hoangp\AppData\Local\Temp\ccmM5Wu0.s 			page 9


 196:.\Generated_Source\PSoC5/isr_LUT.c **** *
 197:.\Generated_Source\PSoC5/isr_LUT.c **** * Summary:
 198:.\Generated_Source\PSoC5/isr_LUT.c **** *   Gets the "address" of the current ISR vector for the Interrupt.
 199:.\Generated_Source\PSoC5/isr_LUT.c **** *
 200:.\Generated_Source\PSoC5/isr_LUT.c **** * Parameters:
 201:.\Generated_Source\PSoC5/isr_LUT.c **** *   None
 202:.\Generated_Source\PSoC5/isr_LUT.c **** *
 203:.\Generated_Source\PSoC5/isr_LUT.c **** * Return:
 204:.\Generated_Source\PSoC5/isr_LUT.c **** *   Address of the ISR in the interrupt vector table.
 205:.\Generated_Source\PSoC5/isr_LUT.c **** *
 206:.\Generated_Source\PSoC5/isr_LUT.c **** *******************************************************************************/
 207:.\Generated_Source\PSoC5/isr_LUT.c **** cyisraddress isr_LUT_GetVector(void)
 208:.\Generated_Source\PSoC5/isr_LUT.c **** {
 258              		.loc 1 208 0
 259              		.cfi_startproc
 260              		@ args = 0, pretend = 0, frame = 8
 261              		@ frame_needed = 1, uses_anonymous_args = 0
 262              		@ link register save eliminated.
 263 0000 80B4     		push	{r7}
 264              	.LCFI12:
 265              		.cfi_def_cfa_offset 4
 266 0002 83B0     		sub	sp, sp, #12
 267              	.LCFI13:
 268              		.cfi_def_cfa_offset 16
 269 0004 00AF     		add	r7, sp, #0
 270              		.cfi_offset 7, -4
 271              	.LCFI14:
 272              		.cfi_def_cfa_register 7
 209:.\Generated_Source\PSoC5/isr_LUT.c ****     cyisraddress * ramVectorTable;
 210:.\Generated_Source\PSoC5/isr_LUT.c **** 
 211:.\Generated_Source\PSoC5/isr_LUT.c ****     ramVectorTable = (cyisraddress *) *CYINT_VECT_TABLE;
 273              		.loc 1 211 0
 274 0006 4EF60853 		movw	r3, #:lower16:-536810232
 275 000a CEF20003 		movt	r3, #:upper16:-536810232
 276 000e 1B68     		ldr	r3, [r3, #0]
 277 0010 7B60     		str	r3, [r7, #4]
 212:.\Generated_Source\PSoC5/isr_LUT.c **** 
 213:.\Generated_Source\PSoC5/isr_LUT.c ****     return ramVectorTable[CYINT_IRQ_BASE + (uint32)isr_LUT__INTC_NUMBER];
 278              		.loc 1 213 0
 279 0012 7B68     		ldr	r3, [r7, #4]
 280 0014 03F14003 		add	r3, r3, #64
 281 0018 1B68     		ldr	r3, [r3, #0]
 214:.\Generated_Source\PSoC5/isr_LUT.c **** }
 282              		.loc 1 214 0
 283 001a 1846     		mov	r0, r3
 284 001c 07F10C07 		add	r7, r7, #12
 285 0020 BD46     		mov	sp, r7
 286 0022 80BC     		pop	{r7}
 287 0024 7047     		bx	lr
 288              		.cfi_endproc
 289              	.LFE5:
 290              		.size	isr_LUT_GetVector, .-isr_LUT_GetVector
 291 0026 00BF     		.section	.text.isr_LUT_SetPriority,"ax",%progbits
 292              		.align	2
 293              		.global	isr_LUT_SetPriority
 294              		.thumb
 295              		.thumb_func
ARM GAS  C:\Users\hoangp\AppData\Local\Temp\ccmM5Wu0.s 			page 10


 296              		.type	isr_LUT_SetPriority, %function
 297              	isr_LUT_SetPriority:
 298              	.LFB6:
 215:.\Generated_Source\PSoC5/isr_LUT.c **** 
 216:.\Generated_Source\PSoC5/isr_LUT.c **** 
 217:.\Generated_Source\PSoC5/isr_LUT.c **** /*******************************************************************************
 218:.\Generated_Source\PSoC5/isr_LUT.c **** * Function Name: isr_LUT_SetPriority
 219:.\Generated_Source\PSoC5/isr_LUT.c **** ********************************************************************************
 220:.\Generated_Source\PSoC5/isr_LUT.c **** *
 221:.\Generated_Source\PSoC5/isr_LUT.c **** * Summary:
 222:.\Generated_Source\PSoC5/isr_LUT.c **** *   Sets the Priority of the Interrupt. Note calling isr_LUT_Start
 223:.\Generated_Source\PSoC5/isr_LUT.c **** *   or isr_LUT_StartEx will override any effect this method 
 224:.\Generated_Source\PSoC5/isr_LUT.c **** *   would have had. This method should only be called after 
 225:.\Generated_Source\PSoC5/isr_LUT.c **** *   isr_LUT_Start or isr_LUT_StartEx has been called. To set 
 226:.\Generated_Source\PSoC5/isr_LUT.c **** *   the initial priority for the component use the cydwr file in the tool.
 227:.\Generated_Source\PSoC5/isr_LUT.c **** *
 228:.\Generated_Source\PSoC5/isr_LUT.c **** * Parameters:
 229:.\Generated_Source\PSoC5/isr_LUT.c **** *   priority: Priority of the interrupt. 0 - 7, 0 being the highest.
 230:.\Generated_Source\PSoC5/isr_LUT.c **** *
 231:.\Generated_Source\PSoC5/isr_LUT.c **** * Return:
 232:.\Generated_Source\PSoC5/isr_LUT.c **** *   None
 233:.\Generated_Source\PSoC5/isr_LUT.c **** *
 234:.\Generated_Source\PSoC5/isr_LUT.c **** *******************************************************************************/
 235:.\Generated_Source\PSoC5/isr_LUT.c **** void isr_LUT_SetPriority(uint8 priority)
 236:.\Generated_Source\PSoC5/isr_LUT.c **** {
 299              		.loc 1 236 0
 300              		.cfi_startproc
 301              		@ args = 0, pretend = 0, frame = 8
 302              		@ frame_needed = 1, uses_anonymous_args = 0
 303              		@ link register save eliminated.
 304 0000 80B4     		push	{r7}
 305              	.LCFI15:
 306              		.cfi_def_cfa_offset 4
 307 0002 83B0     		sub	sp, sp, #12
 308              	.LCFI16:
 309              		.cfi_def_cfa_offset 16
 310 0004 00AF     		add	r7, sp, #0
 311              		.cfi_offset 7, -4
 312              	.LCFI17:
 313              		.cfi_def_cfa_register 7
 314 0006 0346     		mov	r3, r0
 315 0008 FB71     		strb	r3, [r7, #7]
 237:.\Generated_Source\PSoC5/isr_LUT.c ****     *isr_LUT_INTC_PRIOR = priority << 5;
 316              		.loc 1 237 0
 317 000a 4EF20043 		movw	r3, #:lower16:-536812544
 318 000e CEF20003 		movt	r3, #:upper16:-536812544
 319 0012 FA79     		ldrb	r2, [r7, #7]
 320 0014 4FEA4212 		lsl	r2, r2, #5
 321 0018 D2B2     		uxtb	r2, r2
 322 001a 1A70     		strb	r2, [r3, #0]
 238:.\Generated_Source\PSoC5/isr_LUT.c **** }
 323              		.loc 1 238 0
 324 001c 07F10C07 		add	r7, r7, #12
 325 0020 BD46     		mov	sp, r7
 326 0022 80BC     		pop	{r7}
 327 0024 7047     		bx	lr
 328              		.cfi_endproc
ARM GAS  C:\Users\hoangp\AppData\Local\Temp\ccmM5Wu0.s 			page 11


 329              	.LFE6:
 330              		.size	isr_LUT_SetPriority, .-isr_LUT_SetPriority
 331 0026 00BF     		.section	.text.isr_LUT_GetPriority,"ax",%progbits
 332              		.align	2
 333              		.global	isr_LUT_GetPriority
 334              		.thumb
 335              		.thumb_func
 336              		.type	isr_LUT_GetPriority, %function
 337              	isr_LUT_GetPriority:
 338              	.LFB7:
 239:.\Generated_Source\PSoC5/isr_LUT.c **** 
 240:.\Generated_Source\PSoC5/isr_LUT.c **** 
 241:.\Generated_Source\PSoC5/isr_LUT.c **** /*******************************************************************************
 242:.\Generated_Source\PSoC5/isr_LUT.c **** * Function Name: isr_LUT_GetPriority
 243:.\Generated_Source\PSoC5/isr_LUT.c **** ********************************************************************************
 244:.\Generated_Source\PSoC5/isr_LUT.c **** *
 245:.\Generated_Source\PSoC5/isr_LUT.c **** * Summary:
 246:.\Generated_Source\PSoC5/isr_LUT.c **** *   Gets the Priority of the Interrupt.
 247:.\Generated_Source\PSoC5/isr_LUT.c **** *
 248:.\Generated_Source\PSoC5/isr_LUT.c **** * Parameters:
 249:.\Generated_Source\PSoC5/isr_LUT.c **** *   None
 250:.\Generated_Source\PSoC5/isr_LUT.c **** *
 251:.\Generated_Source\PSoC5/isr_LUT.c **** * Return:
 252:.\Generated_Source\PSoC5/isr_LUT.c **** *   Priority of the interrupt. 0 - 7, 0 being the highest.
 253:.\Generated_Source\PSoC5/isr_LUT.c **** *
 254:.\Generated_Source\PSoC5/isr_LUT.c **** *******************************************************************************/
 255:.\Generated_Source\PSoC5/isr_LUT.c **** uint8 isr_LUT_GetPriority(void)
 256:.\Generated_Source\PSoC5/isr_LUT.c **** {
 339              		.loc 1 256 0
 340              		.cfi_startproc
 341              		@ args = 0, pretend = 0, frame = 8
 342              		@ frame_needed = 1, uses_anonymous_args = 0
 343              		@ link register save eliminated.
 344 0000 80B4     		push	{r7}
 345              	.LCFI18:
 346              		.cfi_def_cfa_offset 4
 347 0002 83B0     		sub	sp, sp, #12
 348              	.LCFI19:
 349              		.cfi_def_cfa_offset 16
 350 0004 00AF     		add	r7, sp, #0
 351              		.cfi_offset 7, -4
 352              	.LCFI20:
 353              		.cfi_def_cfa_register 7
 257:.\Generated_Source\PSoC5/isr_LUT.c ****     uint8 priority;
 258:.\Generated_Source\PSoC5/isr_LUT.c **** 
 259:.\Generated_Source\PSoC5/isr_LUT.c **** 
 260:.\Generated_Source\PSoC5/isr_LUT.c ****     priority = *isr_LUT_INTC_PRIOR >> 5;
 354              		.loc 1 260 0
 355 0006 4EF20043 		movw	r3, #:lower16:-536812544
 356 000a CEF20003 		movt	r3, #:upper16:-536812544
 357 000e 1B78     		ldrb	r3, [r3, #0]
 358 0010 DBB2     		uxtb	r3, r3
 359 0012 4FEA5313 		lsr	r3, r3, #5
 360 0016 FB71     		strb	r3, [r7, #7]
 261:.\Generated_Source\PSoC5/isr_LUT.c **** 
 262:.\Generated_Source\PSoC5/isr_LUT.c ****     return priority;
 361              		.loc 1 262 0
ARM GAS  C:\Users\hoangp\AppData\Local\Temp\ccmM5Wu0.s 			page 12


 362 0018 FB79     		ldrb	r3, [r7, #7]	@ zero_extendqisi2
 263:.\Generated_Source\PSoC5/isr_LUT.c **** }
 363              		.loc 1 263 0
 364 001a 1846     		mov	r0, r3
 365 001c 07F10C07 		add	r7, r7, #12
 366 0020 BD46     		mov	sp, r7
 367 0022 80BC     		pop	{r7}
 368 0024 7047     		bx	lr
 369              		.cfi_endproc
 370              	.LFE7:
 371              		.size	isr_LUT_GetPriority, .-isr_LUT_GetPriority
 372 0026 00BF     		.section	.text.isr_LUT_Enable,"ax",%progbits
 373              		.align	2
 374              		.global	isr_LUT_Enable
 375              		.thumb
 376              		.thumb_func
 377              		.type	isr_LUT_Enable, %function
 378              	isr_LUT_Enable:
 379              	.LFB8:
 264:.\Generated_Source\PSoC5/isr_LUT.c **** 
 265:.\Generated_Source\PSoC5/isr_LUT.c **** 
 266:.\Generated_Source\PSoC5/isr_LUT.c **** /*******************************************************************************
 267:.\Generated_Source\PSoC5/isr_LUT.c **** * Function Name: isr_LUT_Enable
 268:.\Generated_Source\PSoC5/isr_LUT.c **** ********************************************************************************
 269:.\Generated_Source\PSoC5/isr_LUT.c **** *
 270:.\Generated_Source\PSoC5/isr_LUT.c **** * Summary:
 271:.\Generated_Source\PSoC5/isr_LUT.c **** *   Enables the interrupt.
 272:.\Generated_Source\PSoC5/isr_LUT.c **** *
 273:.\Generated_Source\PSoC5/isr_LUT.c **** * Parameters:
 274:.\Generated_Source\PSoC5/isr_LUT.c **** *   None
 275:.\Generated_Source\PSoC5/isr_LUT.c **** *
 276:.\Generated_Source\PSoC5/isr_LUT.c **** * Return:
 277:.\Generated_Source\PSoC5/isr_LUT.c **** *   None
 278:.\Generated_Source\PSoC5/isr_LUT.c **** *
 279:.\Generated_Source\PSoC5/isr_LUT.c **** *******************************************************************************/
 280:.\Generated_Source\PSoC5/isr_LUT.c **** void isr_LUT_Enable(void)
 281:.\Generated_Source\PSoC5/isr_LUT.c **** {
 380              		.loc 1 281 0
 381              		.cfi_startproc
 382              		@ args = 0, pretend = 0, frame = 0
 383              		@ frame_needed = 1, uses_anonymous_args = 0
 384              		@ link register save eliminated.
 385 0000 80B4     		push	{r7}
 386              	.LCFI21:
 387              		.cfi_def_cfa_offset 4
 388 0002 00AF     		add	r7, sp, #0
 389              		.cfi_offset 7, -4
 390              	.LCFI22:
 391              		.cfi_def_cfa_register 7
 282:.\Generated_Source\PSoC5/isr_LUT.c ****     /* Enable the general interrupt. */
 283:.\Generated_Source\PSoC5/isr_LUT.c ****     *isr_LUT_INTC_SET_EN = isr_LUT__INTC_MASK;
 392              		.loc 1 283 0
 393 0004 4EF20013 		movw	r3, #:lower16:-536813312
 394 0008 CEF20003 		movt	r3, #:upper16:-536813312
 395 000c 4FF00102 		mov	r2, #1
 396 0010 1A60     		str	r2, [r3, #0]
 284:.\Generated_Source\PSoC5/isr_LUT.c **** }
ARM GAS  C:\Users\hoangp\AppData\Local\Temp\ccmM5Wu0.s 			page 13


 397              		.loc 1 284 0
 398 0012 BD46     		mov	sp, r7
 399 0014 80BC     		pop	{r7}
 400 0016 7047     		bx	lr
 401              		.cfi_endproc
 402              	.LFE8:
 403              		.size	isr_LUT_Enable, .-isr_LUT_Enable
 404              		.section	.text.isr_LUT_GetState,"ax",%progbits
 405              		.align	2
 406              		.global	isr_LUT_GetState
 407              		.thumb
 408              		.thumb_func
 409              		.type	isr_LUT_GetState, %function
 410              	isr_LUT_GetState:
 411              	.LFB9:
 285:.\Generated_Source\PSoC5/isr_LUT.c **** 
 286:.\Generated_Source\PSoC5/isr_LUT.c **** 
 287:.\Generated_Source\PSoC5/isr_LUT.c **** /*******************************************************************************
 288:.\Generated_Source\PSoC5/isr_LUT.c **** * Function Name: isr_LUT_GetState
 289:.\Generated_Source\PSoC5/isr_LUT.c **** ********************************************************************************
 290:.\Generated_Source\PSoC5/isr_LUT.c **** *
 291:.\Generated_Source\PSoC5/isr_LUT.c **** * Summary:
 292:.\Generated_Source\PSoC5/isr_LUT.c **** *   Gets the state (enabled, disabled) of the Interrupt.
 293:.\Generated_Source\PSoC5/isr_LUT.c **** *
 294:.\Generated_Source\PSoC5/isr_LUT.c **** * Parameters:
 295:.\Generated_Source\PSoC5/isr_LUT.c **** *   None
 296:.\Generated_Source\PSoC5/isr_LUT.c **** *
 297:.\Generated_Source\PSoC5/isr_LUT.c **** * Return:
 298:.\Generated_Source\PSoC5/isr_LUT.c **** *   1 if enabled, 0 if disabled.
 299:.\Generated_Source\PSoC5/isr_LUT.c **** *
 300:.\Generated_Source\PSoC5/isr_LUT.c **** *******************************************************************************/
 301:.\Generated_Source\PSoC5/isr_LUT.c **** uint8 isr_LUT_GetState(void)
 302:.\Generated_Source\PSoC5/isr_LUT.c **** {
 412              		.loc 1 302 0
 413              		.cfi_startproc
 414              		@ args = 0, pretend = 0, frame = 0
 415              		@ frame_needed = 1, uses_anonymous_args = 0
 416              		@ link register save eliminated.
 417 0000 80B4     		push	{r7}
 418              	.LCFI23:
 419              		.cfi_def_cfa_offset 4
 420 0002 00AF     		add	r7, sp, #0
 421              		.cfi_offset 7, -4
 422              	.LCFI24:
 423              		.cfi_def_cfa_register 7
 303:.\Generated_Source\PSoC5/isr_LUT.c ****     /* Get the state of the general interrupt. */
 304:.\Generated_Source\PSoC5/isr_LUT.c ****     return ((*isr_LUT_INTC_SET_EN & (uint32)isr_LUT__INTC_MASK) != 0u) ? 1u:0u;
 424              		.loc 1 304 0
 425 0004 4EF20013 		movw	r3, #:lower16:-536813312
 426 0008 CEF20003 		movt	r3, #:upper16:-536813312
 427 000c 1B68     		ldr	r3, [r3, #0]
 428 000e 03F00103 		and	r3, r3, #1
 429 0012 DBB2     		uxtb	r3, r3
 430 0014 002B     		cmp	r3, #0
 431 0016 02D0     		beq	.L21
 432 0018 4FF00103 		mov	r3, #1
 433 001c 01E0     		b	.L22
ARM GAS  C:\Users\hoangp\AppData\Local\Temp\ccmM5Wu0.s 			page 14


 434              	.L21:
 435 001e 4FF00003 		mov	r3, #0
 436              	.L22:
 305:.\Generated_Source\PSoC5/isr_LUT.c **** }
 437              		.loc 1 305 0
 438 0022 1846     		mov	r0, r3
 439 0024 BD46     		mov	sp, r7
 440 0026 80BC     		pop	{r7}
 441 0028 7047     		bx	lr
 442              		.cfi_endproc
 443              	.LFE9:
 444              		.size	isr_LUT_GetState, .-isr_LUT_GetState
 445 002a 00BF     		.section	.text.isr_LUT_Disable,"ax",%progbits
 446              		.align	2
 447              		.global	isr_LUT_Disable
 448              		.thumb
 449              		.thumb_func
 450              		.type	isr_LUT_Disable, %function
 451              	isr_LUT_Disable:
 452              	.LFB10:
 306:.\Generated_Source\PSoC5/isr_LUT.c **** 
 307:.\Generated_Source\PSoC5/isr_LUT.c **** 
 308:.\Generated_Source\PSoC5/isr_LUT.c **** /*******************************************************************************
 309:.\Generated_Source\PSoC5/isr_LUT.c **** * Function Name: isr_LUT_Disable
 310:.\Generated_Source\PSoC5/isr_LUT.c **** ********************************************************************************
 311:.\Generated_Source\PSoC5/isr_LUT.c **** *
 312:.\Generated_Source\PSoC5/isr_LUT.c **** * Summary:
 313:.\Generated_Source\PSoC5/isr_LUT.c **** *   Disables the Interrupt.
 314:.\Generated_Source\PSoC5/isr_LUT.c **** *
 315:.\Generated_Source\PSoC5/isr_LUT.c **** * Parameters:
 316:.\Generated_Source\PSoC5/isr_LUT.c **** *   None
 317:.\Generated_Source\PSoC5/isr_LUT.c **** *
 318:.\Generated_Source\PSoC5/isr_LUT.c **** * Return:
 319:.\Generated_Source\PSoC5/isr_LUT.c **** *   None
 320:.\Generated_Source\PSoC5/isr_LUT.c **** *
 321:.\Generated_Source\PSoC5/isr_LUT.c **** *******************************************************************************/
 322:.\Generated_Source\PSoC5/isr_LUT.c **** void isr_LUT_Disable(void)
 323:.\Generated_Source\PSoC5/isr_LUT.c **** {
 453              		.loc 1 323 0
 454              		.cfi_startproc
 455              		@ args = 0, pretend = 0, frame = 0
 456              		@ frame_needed = 1, uses_anonymous_args = 0
 457              		@ link register save eliminated.
 458 0000 80B4     		push	{r7}
 459              	.LCFI25:
 460              		.cfi_def_cfa_offset 4
 461 0002 00AF     		add	r7, sp, #0
 462              		.cfi_offset 7, -4
 463              	.LCFI26:
 464              		.cfi_def_cfa_register 7
 324:.\Generated_Source\PSoC5/isr_LUT.c ****     /* Disable the general interrupt. */
 325:.\Generated_Source\PSoC5/isr_LUT.c ****     *isr_LUT_INTC_CLR_EN = isr_LUT__INTC_MASK;
 465              		.loc 1 325 0
 466 0004 4EF28013 		movw	r3, #:lower16:-536813184
 467 0008 CEF20003 		movt	r3, #:upper16:-536813184
 468 000c 4FF00102 		mov	r2, #1
 469 0010 1A60     		str	r2, [r3, #0]
ARM GAS  C:\Users\hoangp\AppData\Local\Temp\ccmM5Wu0.s 			page 15


 326:.\Generated_Source\PSoC5/isr_LUT.c **** }
 470              		.loc 1 326 0
 471 0012 BD46     		mov	sp, r7
 472 0014 80BC     		pop	{r7}
 473 0016 7047     		bx	lr
 474              		.cfi_endproc
 475              	.LFE10:
 476              		.size	isr_LUT_Disable, .-isr_LUT_Disable
 477              		.section	.text.isr_LUT_SetPending,"ax",%progbits
 478              		.align	2
 479              		.global	isr_LUT_SetPending
 480              		.thumb
 481              		.thumb_func
 482              		.type	isr_LUT_SetPending, %function
 483              	isr_LUT_SetPending:
 484              	.LFB11:
 327:.\Generated_Source\PSoC5/isr_LUT.c **** 
 328:.\Generated_Source\PSoC5/isr_LUT.c **** 
 329:.\Generated_Source\PSoC5/isr_LUT.c **** /*******************************************************************************
 330:.\Generated_Source\PSoC5/isr_LUT.c **** * Function Name: isr_LUT_SetPending
 331:.\Generated_Source\PSoC5/isr_LUT.c **** ********************************************************************************
 332:.\Generated_Source\PSoC5/isr_LUT.c **** *
 333:.\Generated_Source\PSoC5/isr_LUT.c **** * Summary:
 334:.\Generated_Source\PSoC5/isr_LUT.c **** *   Causes the Interrupt to enter the pending state, a software method of
 335:.\Generated_Source\PSoC5/isr_LUT.c **** *   generating the interrupt.
 336:.\Generated_Source\PSoC5/isr_LUT.c **** *
 337:.\Generated_Source\PSoC5/isr_LUT.c **** * Parameters:
 338:.\Generated_Source\PSoC5/isr_LUT.c **** *   None
 339:.\Generated_Source\PSoC5/isr_LUT.c **** *
 340:.\Generated_Source\PSoC5/isr_LUT.c **** * Return:
 341:.\Generated_Source\PSoC5/isr_LUT.c **** *   None
 342:.\Generated_Source\PSoC5/isr_LUT.c **** *
 343:.\Generated_Source\PSoC5/isr_LUT.c **** *******************************************************************************/
 344:.\Generated_Source\PSoC5/isr_LUT.c **** void isr_LUT_SetPending(void)
 345:.\Generated_Source\PSoC5/isr_LUT.c **** {
 485              		.loc 1 345 0
 486              		.cfi_startproc
 487              		@ args = 0, pretend = 0, frame = 0
 488              		@ frame_needed = 1, uses_anonymous_args = 0
 489              		@ link register save eliminated.
 490 0000 80B4     		push	{r7}
 491              	.LCFI27:
 492              		.cfi_def_cfa_offset 4
 493 0002 00AF     		add	r7, sp, #0
 494              		.cfi_offset 7, -4
 495              	.LCFI28:
 496              		.cfi_def_cfa_register 7
 346:.\Generated_Source\PSoC5/isr_LUT.c ****     *isr_LUT_INTC_SET_PD = isr_LUT__INTC_MASK;
 497              		.loc 1 346 0
 498 0004 4EF20023 		movw	r3, #:lower16:-536813056
 499 0008 CEF20003 		movt	r3, #:upper16:-536813056
 500 000c 4FF00102 		mov	r2, #1
 501 0010 1A60     		str	r2, [r3, #0]
 347:.\Generated_Source\PSoC5/isr_LUT.c **** }
 502              		.loc 1 347 0
 503 0012 BD46     		mov	sp, r7
 504 0014 80BC     		pop	{r7}
ARM GAS  C:\Users\hoangp\AppData\Local\Temp\ccmM5Wu0.s 			page 16


 505 0016 7047     		bx	lr
 506              		.cfi_endproc
 507              	.LFE11:
 508              		.size	isr_LUT_SetPending, .-isr_LUT_SetPending
 509              		.section	.text.isr_LUT_ClearPending,"ax",%progbits
 510              		.align	2
 511              		.global	isr_LUT_ClearPending
 512              		.thumb
 513              		.thumb_func
 514              		.type	isr_LUT_ClearPending, %function
 515              	isr_LUT_ClearPending:
 516              	.LFB12:
 348:.\Generated_Source\PSoC5/isr_LUT.c **** 
 349:.\Generated_Source\PSoC5/isr_LUT.c **** 
 350:.\Generated_Source\PSoC5/isr_LUT.c **** /*******************************************************************************
 351:.\Generated_Source\PSoC5/isr_LUT.c **** * Function Name: isr_LUT_ClearPending
 352:.\Generated_Source\PSoC5/isr_LUT.c **** ********************************************************************************
 353:.\Generated_Source\PSoC5/isr_LUT.c **** *
 354:.\Generated_Source\PSoC5/isr_LUT.c **** * Summary:
 355:.\Generated_Source\PSoC5/isr_LUT.c **** *   Clears a pending interrupt.
 356:.\Generated_Source\PSoC5/isr_LUT.c **** *
 357:.\Generated_Source\PSoC5/isr_LUT.c **** * Parameters:
 358:.\Generated_Source\PSoC5/isr_LUT.c **** *   None
 359:.\Generated_Source\PSoC5/isr_LUT.c **** *
 360:.\Generated_Source\PSoC5/isr_LUT.c **** * Return:
 361:.\Generated_Source\PSoC5/isr_LUT.c **** *   None
 362:.\Generated_Source\PSoC5/isr_LUT.c **** *
 363:.\Generated_Source\PSoC5/isr_LUT.c **** *******************************************************************************/
 364:.\Generated_Source\PSoC5/isr_LUT.c **** void isr_LUT_ClearPending(void)
 365:.\Generated_Source\PSoC5/isr_LUT.c **** {
 517              		.loc 1 365 0
 518              		.cfi_startproc
 519              		@ args = 0, pretend = 0, frame = 0
 520              		@ frame_needed = 1, uses_anonymous_args = 0
 521              		@ link register save eliminated.
 522 0000 80B4     		push	{r7}
 523              	.LCFI29:
 524              		.cfi_def_cfa_offset 4
 525 0002 00AF     		add	r7, sp, #0
 526              		.cfi_offset 7, -4
 527              	.LCFI30:
 528              		.cfi_def_cfa_register 7
 366:.\Generated_Source\PSoC5/isr_LUT.c ****     *isr_LUT_INTC_CLR_PD = isr_LUT__INTC_MASK;
 529              		.loc 1 366 0
 530 0004 4EF28023 		movw	r3, #:lower16:-536812928
 531 0008 CEF20003 		movt	r3, #:upper16:-536812928
 532 000c 4FF00102 		mov	r2, #1
 533 0010 1A60     		str	r2, [r3, #0]
 367:.\Generated_Source\PSoC5/isr_LUT.c **** }
 534              		.loc 1 367 0
 535 0012 BD46     		mov	sp, r7
 536 0014 80BC     		pop	{r7}
 537 0016 7047     		bx	lr
 538              		.cfi_endproc
 539              	.LFE12:
 540              		.size	isr_LUT_ClearPending, .-isr_LUT_ClearPending
 541              		.text
ARM GAS  C:\Users\hoangp\AppData\Local\Temp\ccmM5Wu0.s 			page 17


 542              	.Letext0: