ARM GAS  C:\Users\hoangp\AppData\Local\Temp\ccrUBbEh.s 			page 1


   1              		.syntax unified
   2              		.cpu cortex-m3
   3              		.fpu softvfp
   4              		.eabi_attribute 20, 1
   5              		.eabi_attribute 21, 1
   6              		.eabi_attribute 23, 3
   7              		.eabi_attribute 24, 1
   8              		.eabi_attribute 25, 1
   9              		.eabi_attribute 26, 1
  10              		.eabi_attribute 30, 6
  11              		.eabi_attribute 18, 4
  12              		.thumb
  13              		.file	"isr_DFB.c"
  20 0000 46010000 		.text
  20      02005F00 
  20      00000201 
  20      FB0E0D00 
  20      01010101 
  21              	.Ltext0:
  22              		.cfi_sections	.debug_frame
  23              		.section	.text.isr_DFB_Start,"ax",%progbits
  24              		.align	2
  25              		.global	isr_DFB_Start
  26              		.thumb
  27              		.thumb_func
  28              		.type	isr_DFB_Start, %function
  29              	isr_DFB_Start:
  30              	.LFB0:
  31              		.file 1 ".\\Generated_Source\\PSoC5\\isr_DFB.c"
   1:.\Generated_Source\PSoC5/isr_DFB.c **** /*******************************************************************************
   2:.\Generated_Source\PSoC5/isr_DFB.c **** * File Name: isr_DFB.c  
   3:.\Generated_Source\PSoC5/isr_DFB.c **** * Version 1.70
   4:.\Generated_Source\PSoC5/isr_DFB.c **** *
   5:.\Generated_Source\PSoC5/isr_DFB.c **** *  Description:
   6:.\Generated_Source\PSoC5/isr_DFB.c **** *   API for controlling the state of an interrupt.
   7:.\Generated_Source\PSoC5/isr_DFB.c **** *
   8:.\Generated_Source\PSoC5/isr_DFB.c **** *
   9:.\Generated_Source\PSoC5/isr_DFB.c **** *  Note:
  10:.\Generated_Source\PSoC5/isr_DFB.c **** *
  11:.\Generated_Source\PSoC5/isr_DFB.c **** ********************************************************************************
  12:.\Generated_Source\PSoC5/isr_DFB.c **** * Copyright 2008-2012, Cypress Semiconductor Corporation.  All rights reserved.
  13:.\Generated_Source\PSoC5/isr_DFB.c **** * You may use this file only in accordance with the license, terms, conditions, 
  14:.\Generated_Source\PSoC5/isr_DFB.c **** * disclaimers, and limitations in the end user license agreement accompanying 
  15:.\Generated_Source\PSoC5/isr_DFB.c **** * the software package with which this file was provided.
  16:.\Generated_Source\PSoC5/isr_DFB.c **** *******************************************************************************/
  17:.\Generated_Source\PSoC5/isr_DFB.c **** 
  18:.\Generated_Source\PSoC5/isr_DFB.c **** 
  19:.\Generated_Source\PSoC5/isr_DFB.c **** #include <CYDEVICE_TRM.H>
  20:.\Generated_Source\PSoC5/isr_DFB.c **** #include <CYLIB.H>
  21:.\Generated_Source\PSoC5/isr_DFB.c **** #include <isr_DFB.H>
  22:.\Generated_Source\PSoC5/isr_DFB.c **** 
ARM GAS  C:\Users\hoangp\AppData\Local\Temp\ccrUBbEh.s 			page 2


  23:.\Generated_Source\PSoC5/isr_DFB.c **** #if !defined(isr_DFB__REMOVED) /* Check for removal by optimization */
  24:.\Generated_Source\PSoC5/isr_DFB.c **** 
  25:.\Generated_Source\PSoC5/isr_DFB.c **** /*******************************************************************************
  26:.\Generated_Source\PSoC5/isr_DFB.c **** *  Place your includes, defines and code here 
  27:.\Generated_Source\PSoC5/isr_DFB.c **** ********************************************************************************/
  28:.\Generated_Source\PSoC5/isr_DFB.c **** /* `#START isr_DFB_intc` */
  29:.\Generated_Source\PSoC5/isr_DFB.c **** 
  30:.\Generated_Source\PSoC5/isr_DFB.c **** /* `#END` */
  31:.\Generated_Source\PSoC5/isr_DFB.c **** 
  32:.\Generated_Source\PSoC5/isr_DFB.c **** #ifndef CYINT_IRQ_BASE
  33:.\Generated_Source\PSoC5/isr_DFB.c **** #define CYINT_IRQ_BASE      16
  34:.\Generated_Source\PSoC5/isr_DFB.c **** #endif /* CYINT_IRQ_BASE */
  35:.\Generated_Source\PSoC5/isr_DFB.c **** #ifndef CYINT_VECT_TABLE
  36:.\Generated_Source\PSoC5/isr_DFB.c **** #define CYINT_VECT_TABLE    ((cyisraddress **) CYREG_NVIC_VECT_OFFSET)
  37:.\Generated_Source\PSoC5/isr_DFB.c **** #endif /* CYINT_VECT_TABLE */
  38:.\Generated_Source\PSoC5/isr_DFB.c **** 
  39:.\Generated_Source\PSoC5/isr_DFB.c **** /* Declared in startup, used to set unused interrupts to. */
  40:.\Generated_Source\PSoC5/isr_DFB.c **** CY_ISR_PROTO(IntDefaultHandler);
  41:.\Generated_Source\PSoC5/isr_DFB.c **** 
  42:.\Generated_Source\PSoC5/isr_DFB.c **** 
  43:.\Generated_Source\PSoC5/isr_DFB.c **** /*******************************************************************************
  44:.\Generated_Source\PSoC5/isr_DFB.c **** * Function Name: isr_DFB_Start
  45:.\Generated_Source\PSoC5/isr_DFB.c **** ********************************************************************************
  46:.\Generated_Source\PSoC5/isr_DFB.c **** *
  47:.\Generated_Source\PSoC5/isr_DFB.c **** * Summary:
  48:.\Generated_Source\PSoC5/isr_DFB.c **** *  Set up the interrupt and enable it.
  49:.\Generated_Source\PSoC5/isr_DFB.c **** *
  50:.\Generated_Source\PSoC5/isr_DFB.c **** * Parameters:  
  51:.\Generated_Source\PSoC5/isr_DFB.c **** *   None
  52:.\Generated_Source\PSoC5/isr_DFB.c **** *
  53:.\Generated_Source\PSoC5/isr_DFB.c **** * Return:
  54:.\Generated_Source\PSoC5/isr_DFB.c **** *   None
  55:.\Generated_Source\PSoC5/isr_DFB.c **** *
  56:.\Generated_Source\PSoC5/isr_DFB.c **** *******************************************************************************/
  57:.\Generated_Source\PSoC5/isr_DFB.c **** void isr_DFB_Start(void)
  58:.\Generated_Source\PSoC5/isr_DFB.c **** {
  32              		.loc 1 58 0
  33              		.cfi_startproc
  34              		@ args = 0, pretend = 0, frame = 0
  35              		@ frame_needed = 1, uses_anonymous_args = 0
  36 0000 80B5     		push	{r7, lr}
  37              	.LCFI0:
  38              		.cfi_def_cfa_offset 8
  39 0002 00AF     		add	r7, sp, #0
  40              		.cfi_offset 14, -4
  41              		.cfi_offset 7, -8
  42              	.LCFI1:
  43              		.cfi_def_cfa_register 7
  59:.\Generated_Source\PSoC5/isr_DFB.c ****     /* For all we know the interrupt is active. */
  60:.\Generated_Source\PSoC5/isr_DFB.c ****     isr_DFB_Disable();
  44              		.loc 1 60 0
  45 0004 FFF7FEFF 		bl	isr_DFB_Disable
  61:.\Generated_Source\PSoC5/isr_DFB.c **** 
  62:.\Generated_Source\PSoC5/isr_DFB.c ****     /* Set the ISR to point to the isr_DFB Interrupt. */
  63:.\Generated_Source\PSoC5/isr_DFB.c ****     isr_DFB_SetVector(&isr_DFB_Interrupt);
  46              		.loc 1 63 0
  47 0008 40F20000 		movw	r0, #:lower16:isr_DFB_Interrupt
ARM GAS  C:\Users\hoangp\AppData\Local\Temp\ccrUBbEh.s 			page 3


  48 000c C0F20000 		movt	r0, #:upper16:isr_DFB_Interrupt
  49 0010 FFF7FEFF 		bl	isr_DFB_SetVector
  64:.\Generated_Source\PSoC5/isr_DFB.c **** 
  65:.\Generated_Source\PSoC5/isr_DFB.c ****     /* Set the priority. */
  66:.\Generated_Source\PSoC5/isr_DFB.c ****     isr_DFB_SetPriority((uint8)isr_DFB_INTC_PRIOR_NUMBER);
  50              		.loc 1 66 0
  51 0014 4FF00200 		mov	r0, #2
  52 0018 FFF7FEFF 		bl	isr_DFB_SetPriority
  67:.\Generated_Source\PSoC5/isr_DFB.c **** 
  68:.\Generated_Source\PSoC5/isr_DFB.c ****     /* Enable it. */
  69:.\Generated_Source\PSoC5/isr_DFB.c ****     isr_DFB_Enable();
  53              		.loc 1 69 0
  54 001c FFF7FEFF 		bl	isr_DFB_Enable
  70:.\Generated_Source\PSoC5/isr_DFB.c **** }
  55              		.loc 1 70 0
  56 0020 80BD     		pop	{r7, pc}
  57              		.cfi_endproc
  58              	.LFE0:
  59              		.size	isr_DFB_Start, .-isr_DFB_Start
  60 0022 00BF     		.section	.text.isr_DFB_StartEx,"ax",%progbits
  61              		.align	2
  62              		.global	isr_DFB_StartEx
  63              		.thumb
  64              		.thumb_func
  65              		.type	isr_DFB_StartEx, %function
  66              	isr_DFB_StartEx:
  67              	.LFB1:
  71:.\Generated_Source\PSoC5/isr_DFB.c **** 
  72:.\Generated_Source\PSoC5/isr_DFB.c **** 
  73:.\Generated_Source\PSoC5/isr_DFB.c **** /*******************************************************************************
  74:.\Generated_Source\PSoC5/isr_DFB.c **** * Function Name: isr_DFB_StartEx
  75:.\Generated_Source\PSoC5/isr_DFB.c **** ********************************************************************************
  76:.\Generated_Source\PSoC5/isr_DFB.c **** *
  77:.\Generated_Source\PSoC5/isr_DFB.c **** * Summary:
  78:.\Generated_Source\PSoC5/isr_DFB.c **** *  Set up the interrupt and enable it.
  79:.\Generated_Source\PSoC5/isr_DFB.c **** *
  80:.\Generated_Source\PSoC5/isr_DFB.c **** * Parameters:  
  81:.\Generated_Source\PSoC5/isr_DFB.c **** *   address: Address of the ISR to set in the interrupt vector table.
  82:.\Generated_Source\PSoC5/isr_DFB.c **** *
  83:.\Generated_Source\PSoC5/isr_DFB.c **** * Return:
  84:.\Generated_Source\PSoC5/isr_DFB.c **** *   None
  85:.\Generated_Source\PSoC5/isr_DFB.c **** *
  86:.\Generated_Source\PSoC5/isr_DFB.c **** *******************************************************************************/
  87:.\Generated_Source\PSoC5/isr_DFB.c **** void isr_DFB_StartEx(cyisraddress address)
  88:.\Generated_Source\PSoC5/isr_DFB.c **** {
  68              		.loc 1 88 0
  69              		.cfi_startproc
  70              		@ args = 0, pretend = 0, frame = 8
  71              		@ frame_needed = 1, uses_anonymous_args = 0
  72 0000 80B5     		push	{r7, lr}
  73              	.LCFI2:
  74              		.cfi_def_cfa_offset 8
  75 0002 82B0     		sub	sp, sp, #8
  76              	.LCFI3:
  77              		.cfi_def_cfa_offset 16
  78 0004 00AF     		add	r7, sp, #0
  79              		.cfi_offset 14, -4
ARM GAS  C:\Users\hoangp\AppData\Local\Temp\ccrUBbEh.s 			page 4


  80              		.cfi_offset 7, -8
  81              	.LCFI4:
  82              		.cfi_def_cfa_register 7
  83 0006 7860     		str	r0, [r7, #4]
  89:.\Generated_Source\PSoC5/isr_DFB.c ****     /* For all we know the interrupt is active. */
  90:.\Generated_Source\PSoC5/isr_DFB.c ****     isr_DFB_Disable();
  84              		.loc 1 90 0
  85 0008 FFF7FEFF 		bl	isr_DFB_Disable
  91:.\Generated_Source\PSoC5/isr_DFB.c **** 
  92:.\Generated_Source\PSoC5/isr_DFB.c ****     /* Set the ISR to point to the isr_DFB Interrupt. */
  93:.\Generated_Source\PSoC5/isr_DFB.c ****     isr_DFB_SetVector(address);
  86              		.loc 1 93 0
  87 000c 7868     		ldr	r0, [r7, #4]
  88 000e FFF7FEFF 		bl	isr_DFB_SetVector
  94:.\Generated_Source\PSoC5/isr_DFB.c **** 
  95:.\Generated_Source\PSoC5/isr_DFB.c ****     /* Set the priority. */
  96:.\Generated_Source\PSoC5/isr_DFB.c ****     isr_DFB_SetPriority((uint8)isr_DFB_INTC_PRIOR_NUMBER);
  89              		.loc 1 96 0
  90 0012 4FF00200 		mov	r0, #2
  91 0016 FFF7FEFF 		bl	isr_DFB_SetPriority
  97:.\Generated_Source\PSoC5/isr_DFB.c **** 
  98:.\Generated_Source\PSoC5/isr_DFB.c ****     /* Enable it. */
  99:.\Generated_Source\PSoC5/isr_DFB.c ****     isr_DFB_Enable();
  92              		.loc 1 99 0
  93 001a FFF7FEFF 		bl	isr_DFB_Enable
 100:.\Generated_Source\PSoC5/isr_DFB.c **** }
  94              		.loc 1 100 0
  95 001e 07F10807 		add	r7, r7, #8
  96 0022 BD46     		mov	sp, r7
  97 0024 80BD     		pop	{r7, pc}
  98              		.cfi_endproc
  99              	.LFE1:
 100              		.size	isr_DFB_StartEx, .-isr_DFB_StartEx
 101 0026 00BF     		.section	.text.isr_DFB_Stop,"ax",%progbits
 102              		.align	2
 103              		.global	isr_DFB_Stop
 104              		.thumb
 105              		.thumb_func
 106              		.type	isr_DFB_Stop, %function
 107              	isr_DFB_Stop:
 108              	.LFB2:
 101:.\Generated_Source\PSoC5/isr_DFB.c **** 
 102:.\Generated_Source\PSoC5/isr_DFB.c **** 
 103:.\Generated_Source\PSoC5/isr_DFB.c **** /*******************************************************************************
 104:.\Generated_Source\PSoC5/isr_DFB.c **** * Function Name: isr_DFB_Stop
 105:.\Generated_Source\PSoC5/isr_DFB.c **** ********************************************************************************
 106:.\Generated_Source\PSoC5/isr_DFB.c **** *
 107:.\Generated_Source\PSoC5/isr_DFB.c **** * Summary:
 108:.\Generated_Source\PSoC5/isr_DFB.c **** *   Disables and removes the interrupt.
 109:.\Generated_Source\PSoC5/isr_DFB.c **** *
 110:.\Generated_Source\PSoC5/isr_DFB.c **** * Parameters:  
 111:.\Generated_Source\PSoC5/isr_DFB.c **** *
 112:.\Generated_Source\PSoC5/isr_DFB.c **** * Return:
 113:.\Generated_Source\PSoC5/isr_DFB.c **** *   None
 114:.\Generated_Source\PSoC5/isr_DFB.c **** *
 115:.\Generated_Source\PSoC5/isr_DFB.c **** *******************************************************************************/
 116:.\Generated_Source\PSoC5/isr_DFB.c **** void isr_DFB_Stop(void)
ARM GAS  C:\Users\hoangp\AppData\Local\Temp\ccrUBbEh.s 			page 5


 117:.\Generated_Source\PSoC5/isr_DFB.c **** {
 109              		.loc 1 117 0
 110              		.cfi_startproc
 111              		@ args = 0, pretend = 0, frame = 0
 112              		@ frame_needed = 1, uses_anonymous_args = 0
 113 0000 80B5     		push	{r7, lr}
 114              	.LCFI5:
 115              		.cfi_def_cfa_offset 8
 116 0002 00AF     		add	r7, sp, #0
 117              		.cfi_offset 14, -4
 118              		.cfi_offset 7, -8
 119              	.LCFI6:
 120              		.cfi_def_cfa_register 7
 118:.\Generated_Source\PSoC5/isr_DFB.c ****     /* Disable this interrupt. */
 119:.\Generated_Source\PSoC5/isr_DFB.c ****     isr_DFB_Disable();
 121              		.loc 1 119 0
 122 0004 FFF7FEFF 		bl	isr_DFB_Disable
 120:.\Generated_Source\PSoC5/isr_DFB.c **** 
 121:.\Generated_Source\PSoC5/isr_DFB.c ****     /* Set the ISR to point to the passive one. */
 122:.\Generated_Source\PSoC5/isr_DFB.c ****     isr_DFB_SetVector(&IntDefaultHandler);
 123              		.loc 1 122 0
 124 0008 40F20000 		movw	r0, #:lower16:IntDefaultHandler
 125 000c C0F20000 		movt	r0, #:upper16:IntDefaultHandler
 126 0010 FFF7FEFF 		bl	isr_DFB_SetVector
 123:.\Generated_Source\PSoC5/isr_DFB.c **** }
 127              		.loc 1 123 0
 128 0014 80BD     		pop	{r7, pc}
 129              		.cfi_endproc
 130              	.LFE2:
 131              		.size	isr_DFB_Stop, .-isr_DFB_Stop
 132 0016 00BF     		.section	.text.isr_DFB_SetVector,"ax",%progbits
 133              		.align	2
 134              		.global	isr_DFB_SetVector
 135              		.thumb
 136              		.thumb_func
 137              		.type	isr_DFB_SetVector, %function
 138              	isr_DFB_SetVector:
 139              	.LFB3:
 124:.\Generated_Source\PSoC5/isr_DFB.c **** 
 125:.\Generated_Source\PSoC5/isr_DFB.c **** 
 126:.\Generated_Source\PSoC5/isr_DFB.c **** /*******************************************************************************
 127:.\Generated_Source\PSoC5/isr_DFB.c **** * Function Name: isr_DFB_Interrupt
 128:.\Generated_Source\PSoC5/isr_DFB.c **** ********************************************************************************
 129:.\Generated_Source\PSoC5/isr_DFB.c **** *
 130:.\Generated_Source\PSoC5/isr_DFB.c **** * Summary:
 131:.\Generated_Source\PSoC5/isr_DFB.c **** *   The default Interrupt Service Routine for isr_DFB.
 132:.\Generated_Source\PSoC5/isr_DFB.c **** *
 133:.\Generated_Source\PSoC5/isr_DFB.c **** *   Add custom code between the coments to keep the next version of this file
 134:.\Generated_Source\PSoC5/isr_DFB.c **** *   from over writting your code.
 135:.\Generated_Source\PSoC5/isr_DFB.c **** *
 136:.\Generated_Source\PSoC5/isr_DFB.c **** * Parameters:  
 137:.\Generated_Source\PSoC5/isr_DFB.c **** *
 138:.\Generated_Source\PSoC5/isr_DFB.c **** * Return:
 139:.\Generated_Source\PSoC5/isr_DFB.c **** *   None
 140:.\Generated_Source\PSoC5/isr_DFB.c **** *
 141:.\Generated_Source\PSoC5/isr_DFB.c **** *******************************************************************************/
 142:.\Generated_Source\PSoC5/isr_DFB.c **** 
ARM GAS  C:\Users\hoangp\AppData\Local\Temp\ccrUBbEh.s 			page 6


 143:.\Generated_Source\PSoC5/isr_DFB.c **** /*******************************************************************************
 144:.\Generated_Source\PSoC5/isr_DFB.c **** * Function Name: isr_DFB_SetVector
 145:.\Generated_Source\PSoC5/isr_DFB.c **** ********************************************************************************
 146:.\Generated_Source\PSoC5/isr_DFB.c **** *
 147:.\Generated_Source\PSoC5/isr_DFB.c **** * Summary:
 148:.\Generated_Source\PSoC5/isr_DFB.c **** *   Change the ISR vector for the Interrupt. Note calling isr_DFB_Start
 149:.\Generated_Source\PSoC5/isr_DFB.c **** *   will override any effect this method would have had. To set the vector 
 150:.\Generated_Source\PSoC5/isr_DFB.c **** *   before the component has been started use isr_DFB_StartEx instead.
 151:.\Generated_Source\PSoC5/isr_DFB.c **** *
 152:.\Generated_Source\PSoC5/isr_DFB.c **** * Parameters:
 153:.\Generated_Source\PSoC5/isr_DFB.c **** *   address: Address of the ISR to set in the interrupt vector table.
 154:.\Generated_Source\PSoC5/isr_DFB.c **** *
 155:.\Generated_Source\PSoC5/isr_DFB.c **** * Return:
 156:.\Generated_Source\PSoC5/isr_DFB.c **** *   None
 157:.\Generated_Source\PSoC5/isr_DFB.c **** *
 158:.\Generated_Source\PSoC5/isr_DFB.c **** *******************************************************************************/
 159:.\Generated_Source\PSoC5/isr_DFB.c **** void isr_DFB_SetVector(cyisraddress address)
 160:.\Generated_Source\PSoC5/isr_DFB.c **** {
 140              		.loc 1 160 0
 141              		.cfi_startproc
 142              		@ args = 0, pretend = 0, frame = 16
 143              		@ frame_needed = 1, uses_anonymous_args = 0
 144              		@ link register save eliminated.
 145 0000 80B4     		push	{r7}
 146              	.LCFI7:
 147              		.cfi_def_cfa_offset 4
 148 0002 85B0     		sub	sp, sp, #20
 149              	.LCFI8:
 150              		.cfi_def_cfa_offset 24
 151 0004 00AF     		add	r7, sp, #0
 152              		.cfi_offset 7, -4
 153              	.LCFI9:
 154              		.cfi_def_cfa_register 7
 155 0006 7860     		str	r0, [r7, #4]
 161:.\Generated_Source\PSoC5/isr_DFB.c ****     cyisraddress * ramVectorTable;
 162:.\Generated_Source\PSoC5/isr_DFB.c **** 
 163:.\Generated_Source\PSoC5/isr_DFB.c ****     ramVectorTable = (cyisraddress *) *CYINT_VECT_TABLE;
 156              		.loc 1 163 0
 157 0008 4EF60853 		movw	r3, #:lower16:-536810232
 158 000c CEF20003 		movt	r3, #:upper16:-536810232
 159 0010 1B68     		ldr	r3, [r3, #0]
 160 0012 FB60     		str	r3, [r7, #12]
 164:.\Generated_Source\PSoC5/isr_DFB.c **** 
 165:.\Generated_Source\PSoC5/isr_DFB.c ****     ramVectorTable[CYINT_IRQ_BASE + (uint32)isr_DFB__INTC_NUMBER] = address;
 161              		.loc 1 165 0
 162 0014 FB68     		ldr	r3, [r7, #12]
 163 0016 03F1B003 		add	r3, r3, #176
 164 001a 7A68     		ldr	r2, [r7, #4]
 165 001c 1A60     		str	r2, [r3, #0]
 166:.\Generated_Source\PSoC5/isr_DFB.c **** }
 166              		.loc 1 166 0
 167 001e 07F11407 		add	r7, r7, #20
 168 0022 BD46     		mov	sp, r7
 169 0024 80BC     		pop	{r7}
 170 0026 7047     		bx	lr
 171              		.cfi_endproc
 172              	.LFE3:
ARM GAS  C:\Users\hoangp\AppData\Local\Temp\ccrUBbEh.s 			page 7


 173              		.size	isr_DFB_SetVector, .-isr_DFB_SetVector
 174              		.section	.text.isr_DFB_GetVector,"ax",%progbits
 175              		.align	2
 176              		.global	isr_DFB_GetVector
 177              		.thumb
 178              		.thumb_func
 179              		.type	isr_DFB_GetVector, %function
 180              	isr_DFB_GetVector:
 181              	.LFB4:
 167:.\Generated_Source\PSoC5/isr_DFB.c **** 
 168:.\Generated_Source\PSoC5/isr_DFB.c **** 
 169:.\Generated_Source\PSoC5/isr_DFB.c **** /*******************************************************************************
 170:.\Generated_Source\PSoC5/isr_DFB.c **** * Function Name: isr_DFB_GetVector
 171:.\Generated_Source\PSoC5/isr_DFB.c **** ********************************************************************************
 172:.\Generated_Source\PSoC5/isr_DFB.c **** *
 173:.\Generated_Source\PSoC5/isr_DFB.c **** * Summary:
 174:.\Generated_Source\PSoC5/isr_DFB.c **** *   Gets the "address" of the current ISR vector for the Interrupt.
 175:.\Generated_Source\PSoC5/isr_DFB.c **** *
 176:.\Generated_Source\PSoC5/isr_DFB.c **** * Parameters:
 177:.\Generated_Source\PSoC5/isr_DFB.c **** *   None
 178:.\Generated_Source\PSoC5/isr_DFB.c **** *
 179:.\Generated_Source\PSoC5/isr_DFB.c **** * Return:
 180:.\Generated_Source\PSoC5/isr_DFB.c **** *   Address of the ISR in the interrupt vector table.
 181:.\Generated_Source\PSoC5/isr_DFB.c **** *
 182:.\Generated_Source\PSoC5/isr_DFB.c **** *******************************************************************************/
 183:.\Generated_Source\PSoC5/isr_DFB.c **** cyisraddress isr_DFB_GetVector(void)
 184:.\Generated_Source\PSoC5/isr_DFB.c **** {
 182              		.loc 1 184 0
 183              		.cfi_startproc
 184              		@ args = 0, pretend = 0, frame = 8
 185              		@ frame_needed = 1, uses_anonymous_args = 0
 186              		@ link register save eliminated.
 187 0000 80B4     		push	{r7}
 188              	.LCFI10:
 189              		.cfi_def_cfa_offset 4
 190 0002 83B0     		sub	sp, sp, #12
 191              	.LCFI11:
 192              		.cfi_def_cfa_offset 16
 193 0004 00AF     		add	r7, sp, #0
 194              		.cfi_offset 7, -4
 195              	.LCFI12:
 196              		.cfi_def_cfa_register 7
 185:.\Generated_Source\PSoC5/isr_DFB.c ****     cyisraddress * ramVectorTable;
 186:.\Generated_Source\PSoC5/isr_DFB.c **** 
 187:.\Generated_Source\PSoC5/isr_DFB.c ****     ramVectorTable = (cyisraddress *) *CYINT_VECT_TABLE;
 197              		.loc 1 187 0
 198 0006 4EF60853 		movw	r3, #:lower16:-536810232
 199 000a CEF20003 		movt	r3, #:upper16:-536810232
 200 000e 1B68     		ldr	r3, [r3, #0]
 201 0010 7B60     		str	r3, [r7, #4]
 188:.\Generated_Source\PSoC5/isr_DFB.c **** 
 189:.\Generated_Source\PSoC5/isr_DFB.c ****     return ramVectorTable[CYINT_IRQ_BASE + (uint32)isr_DFB__INTC_NUMBER];
 202              		.loc 1 189 0
 203 0012 7B68     		ldr	r3, [r7, #4]
 204 0014 03F1B003 		add	r3, r3, #176
 205 0018 1B68     		ldr	r3, [r3, #0]
 190:.\Generated_Source\PSoC5/isr_DFB.c **** }
ARM GAS  C:\Users\hoangp\AppData\Local\Temp\ccrUBbEh.s 			page 8


 206              		.loc 1 190 0
 207 001a 1846     		mov	r0, r3
 208 001c 07F10C07 		add	r7, r7, #12
 209 0020 BD46     		mov	sp, r7
 210 0022 80BC     		pop	{r7}
 211 0024 7047     		bx	lr
 212              		.cfi_endproc
 213              	.LFE4:
 214              		.size	isr_DFB_GetVector, .-isr_DFB_GetVector
 215 0026 00BF     		.section	.text.isr_DFB_SetPriority,"ax",%progbits
 216              		.align	2
 217              		.global	isr_DFB_SetPriority
 218              		.thumb
 219              		.thumb_func
 220              		.type	isr_DFB_SetPriority, %function
 221              	isr_DFB_SetPriority:
 222              	.LFB5:
 191:.\Generated_Source\PSoC5/isr_DFB.c **** 
 192:.\Generated_Source\PSoC5/isr_DFB.c **** 
 193:.\Generated_Source\PSoC5/isr_DFB.c **** /*******************************************************************************
 194:.\Generated_Source\PSoC5/isr_DFB.c **** * Function Name: isr_DFB_SetPriority
 195:.\Generated_Source\PSoC5/isr_DFB.c **** ********************************************************************************
 196:.\Generated_Source\PSoC5/isr_DFB.c **** *
 197:.\Generated_Source\PSoC5/isr_DFB.c **** * Summary:
 198:.\Generated_Source\PSoC5/isr_DFB.c **** *   Sets the Priority of the Interrupt. Note calling isr_DFB_Start
 199:.\Generated_Source\PSoC5/isr_DFB.c **** *   or isr_DFB_StartEx will override any effect this method 
 200:.\Generated_Source\PSoC5/isr_DFB.c **** *   would have had. This method should only be called after 
 201:.\Generated_Source\PSoC5/isr_DFB.c **** *   isr_DFB_Start or isr_DFB_StartEx has been called. To set 
 202:.\Generated_Source\PSoC5/isr_DFB.c **** *   the initial priority for the component use the cydwr file in the tool.
 203:.\Generated_Source\PSoC5/isr_DFB.c **** *
 204:.\Generated_Source\PSoC5/isr_DFB.c **** * Parameters:
 205:.\Generated_Source\PSoC5/isr_DFB.c **** *   priority: Priority of the interrupt. 0 - 7, 0 being the highest.
 206:.\Generated_Source\PSoC5/isr_DFB.c **** *
 207:.\Generated_Source\PSoC5/isr_DFB.c **** * Return:
 208:.\Generated_Source\PSoC5/isr_DFB.c **** *   None
 209:.\Generated_Source\PSoC5/isr_DFB.c **** *
 210:.\Generated_Source\PSoC5/isr_DFB.c **** *******************************************************************************/
 211:.\Generated_Source\PSoC5/isr_DFB.c **** void isr_DFB_SetPriority(uint8 priority)
 212:.\Generated_Source\PSoC5/isr_DFB.c **** {
 223              		.loc 1 212 0
 224              		.cfi_startproc
 225              		@ args = 0, pretend = 0, frame = 8
 226              		@ frame_needed = 1, uses_anonymous_args = 0
 227              		@ link register save eliminated.
 228 0000 80B4     		push	{r7}
 229              	.LCFI13:
 230              		.cfi_def_cfa_offset 4
 231 0002 83B0     		sub	sp, sp, #12
 232              	.LCFI14:
 233              		.cfi_def_cfa_offset 16
 234 0004 00AF     		add	r7, sp, #0
 235              		.cfi_offset 7, -4
 236              	.LCFI15:
 237              		.cfi_def_cfa_register 7
 238 0006 0346     		mov	r3, r0
 239 0008 FB71     		strb	r3, [r7, #7]
 213:.\Generated_Source\PSoC5/isr_DFB.c ****     *isr_DFB_INTC_PRIOR = priority << 5;
ARM GAS  C:\Users\hoangp\AppData\Local\Temp\ccrUBbEh.s 			page 9


 240              		.loc 1 213 0
 241 000a 4EF21C43 		movw	r3, #:lower16:-536812516
 242 000e CEF20003 		movt	r3, #:upper16:-536812516
 243 0012 FA79     		ldrb	r2, [r7, #7]
 244 0014 4FEA4212 		lsl	r2, r2, #5
 245 0018 D2B2     		uxtb	r2, r2
 246 001a 1A70     		strb	r2, [r3, #0]
 214:.\Generated_Source\PSoC5/isr_DFB.c **** }
 247              		.loc 1 214 0
 248 001c 07F10C07 		add	r7, r7, #12
 249 0020 BD46     		mov	sp, r7
 250 0022 80BC     		pop	{r7}
 251 0024 7047     		bx	lr
 252              		.cfi_endproc
 253              	.LFE5:
 254              		.size	isr_DFB_SetPriority, .-isr_DFB_SetPriority
 255 0026 00BF     		.section	.text.isr_DFB_GetPriority,"ax",%progbits
 256              		.align	2
 257              		.global	isr_DFB_GetPriority
 258              		.thumb
 259              		.thumb_func
 260              		.type	isr_DFB_GetPriority, %function
 261              	isr_DFB_GetPriority:
 262              	.LFB6:
 215:.\Generated_Source\PSoC5/isr_DFB.c **** 
 216:.\Generated_Source\PSoC5/isr_DFB.c **** 
 217:.\Generated_Source\PSoC5/isr_DFB.c **** /*******************************************************************************
 218:.\Generated_Source\PSoC5/isr_DFB.c **** * Function Name: isr_DFB_GetPriority
 219:.\Generated_Source\PSoC5/isr_DFB.c **** ********************************************************************************
 220:.\Generated_Source\PSoC5/isr_DFB.c **** *
 221:.\Generated_Source\PSoC5/isr_DFB.c **** * Summary:
 222:.\Generated_Source\PSoC5/isr_DFB.c **** *   Gets the Priority of the Interrupt.
 223:.\Generated_Source\PSoC5/isr_DFB.c **** *
 224:.\Generated_Source\PSoC5/isr_DFB.c **** * Parameters:
 225:.\Generated_Source\PSoC5/isr_DFB.c **** *   None
 226:.\Generated_Source\PSoC5/isr_DFB.c **** *
 227:.\Generated_Source\PSoC5/isr_DFB.c **** * Return:
 228:.\Generated_Source\PSoC5/isr_DFB.c **** *   Priority of the interrupt. 0 - 7, 0 being the highest.
 229:.\Generated_Source\PSoC5/isr_DFB.c **** *
 230:.\Generated_Source\PSoC5/isr_DFB.c **** *******************************************************************************/
 231:.\Generated_Source\PSoC5/isr_DFB.c **** uint8 isr_DFB_GetPriority(void)
 232:.\Generated_Source\PSoC5/isr_DFB.c **** {
 263              		.loc 1 232 0
 264              		.cfi_startproc
 265              		@ args = 0, pretend = 0, frame = 8
 266              		@ frame_needed = 1, uses_anonymous_args = 0
 267              		@ link register save eliminated.
 268 0000 80B4     		push	{r7}
 269              	.LCFI16:
 270              		.cfi_def_cfa_offset 4
 271 0002 83B0     		sub	sp, sp, #12
 272              	.LCFI17:
 273              		.cfi_def_cfa_offset 16
 274 0004 00AF     		add	r7, sp, #0
 275              		.cfi_offset 7, -4
 276              	.LCFI18:
 277              		.cfi_def_cfa_register 7
ARM GAS  C:\Users\hoangp\AppData\Local\Temp\ccrUBbEh.s 			page 10


 233:.\Generated_Source\PSoC5/isr_DFB.c ****     uint8 priority;
 234:.\Generated_Source\PSoC5/isr_DFB.c **** 
 235:.\Generated_Source\PSoC5/isr_DFB.c **** 
 236:.\Generated_Source\PSoC5/isr_DFB.c ****     priority = *isr_DFB_INTC_PRIOR >> 5;
 278              		.loc 1 236 0
 279 0006 4EF21C43 		movw	r3, #:lower16:-536812516
 280 000a CEF20003 		movt	r3, #:upper16:-536812516
 281 000e 1B78     		ldrb	r3, [r3, #0]
 282 0010 DBB2     		uxtb	r3, r3
 283 0012 4FEA5313 		lsr	r3, r3, #5
 284 0016 FB71     		strb	r3, [r7, #7]
 237:.\Generated_Source\PSoC5/isr_DFB.c **** 
 238:.\Generated_Source\PSoC5/isr_DFB.c ****     return priority;
 285              		.loc 1 238 0
 286 0018 FB79     		ldrb	r3, [r7, #7]	@ zero_extendqisi2
 239:.\Generated_Source\PSoC5/isr_DFB.c **** }
 287              		.loc 1 239 0
 288 001a 1846     		mov	r0, r3
 289 001c 07F10C07 		add	r7, r7, #12
 290 0020 BD46     		mov	sp, r7
 291 0022 80BC     		pop	{r7}
 292 0024 7047     		bx	lr
 293              		.cfi_endproc
 294              	.LFE6:
 295              		.size	isr_DFB_GetPriority, .-isr_DFB_GetPriority
 296 0026 00BF     		.section	.text.isr_DFB_Enable,"ax",%progbits
 297              		.align	2
 298              		.global	isr_DFB_Enable
 299              		.thumb
 300              		.thumb_func
 301              		.type	isr_DFB_Enable, %function
 302              	isr_DFB_Enable:
 303              	.LFB7:
 240:.\Generated_Source\PSoC5/isr_DFB.c **** 
 241:.\Generated_Source\PSoC5/isr_DFB.c **** 
 242:.\Generated_Source\PSoC5/isr_DFB.c **** /*******************************************************************************
 243:.\Generated_Source\PSoC5/isr_DFB.c **** * Function Name: isr_DFB_Enable
 244:.\Generated_Source\PSoC5/isr_DFB.c **** ********************************************************************************
 245:.\Generated_Source\PSoC5/isr_DFB.c **** *
 246:.\Generated_Source\PSoC5/isr_DFB.c **** * Summary:
 247:.\Generated_Source\PSoC5/isr_DFB.c **** *   Enables the interrupt.
 248:.\Generated_Source\PSoC5/isr_DFB.c **** *
 249:.\Generated_Source\PSoC5/isr_DFB.c **** * Parameters:
 250:.\Generated_Source\PSoC5/isr_DFB.c **** *   None
 251:.\Generated_Source\PSoC5/isr_DFB.c **** *
 252:.\Generated_Source\PSoC5/isr_DFB.c **** * Return:
 253:.\Generated_Source\PSoC5/isr_DFB.c **** *   None
 254:.\Generated_Source\PSoC5/isr_DFB.c **** *
 255:.\Generated_Source\PSoC5/isr_DFB.c **** *******************************************************************************/
 256:.\Generated_Source\PSoC5/isr_DFB.c **** void isr_DFB_Enable(void)
 257:.\Generated_Source\PSoC5/isr_DFB.c **** {
 304              		.loc 1 257 0
 305              		.cfi_startproc
 306              		@ args = 0, pretend = 0, frame = 0
 307              		@ frame_needed = 1, uses_anonymous_args = 0
 308              		@ link register save eliminated.
 309 0000 80B4     		push	{r7}
ARM GAS  C:\Users\hoangp\AppData\Local\Temp\ccrUBbEh.s 			page 11


 310              	.LCFI19:
 311              		.cfi_def_cfa_offset 4
 312 0002 00AF     		add	r7, sp, #0
 313              		.cfi_offset 7, -4
 314              	.LCFI20:
 315              		.cfi_def_cfa_register 7
 258:.\Generated_Source\PSoC5/isr_DFB.c ****     /* Enable the general interrupt. */
 259:.\Generated_Source\PSoC5/isr_DFB.c ****     *isr_DFB_INTC_SET_EN = isr_DFB__INTC_MASK;
 316              		.loc 1 259 0
 317 0004 4EF20013 		movw	r3, #:lower16:-536813312
 318 0008 CEF20003 		movt	r3, #:upper16:-536813312
 319 000c 4FF08052 		mov	r2, #268435456
 320 0010 1A60     		str	r2, [r3, #0]
 260:.\Generated_Source\PSoC5/isr_DFB.c **** }
 321              		.loc 1 260 0
 322 0012 BD46     		mov	sp, r7
 323 0014 80BC     		pop	{r7}
 324 0016 7047     		bx	lr
 325              		.cfi_endproc
 326              	.LFE7:
 327              		.size	isr_DFB_Enable, .-isr_DFB_Enable
 328              		.section	.text.isr_DFB_GetState,"ax",%progbits
 329              		.align	2
 330              		.global	isr_DFB_GetState
 331              		.thumb
 332              		.thumb_func
 333              		.type	isr_DFB_GetState, %function
 334              	isr_DFB_GetState:
 335              	.LFB8:
 261:.\Generated_Source\PSoC5/isr_DFB.c **** 
 262:.\Generated_Source\PSoC5/isr_DFB.c **** 
 263:.\Generated_Source\PSoC5/isr_DFB.c **** /*******************************************************************************
 264:.\Generated_Source\PSoC5/isr_DFB.c **** * Function Name: isr_DFB_GetState
 265:.\Generated_Source\PSoC5/isr_DFB.c **** ********************************************************************************
 266:.\Generated_Source\PSoC5/isr_DFB.c **** *
 267:.\Generated_Source\PSoC5/isr_DFB.c **** * Summary:
 268:.\Generated_Source\PSoC5/isr_DFB.c **** *   Gets the state (enabled, disabled) of the Interrupt.
 269:.\Generated_Source\PSoC5/isr_DFB.c **** *
 270:.\Generated_Source\PSoC5/isr_DFB.c **** * Parameters:
 271:.\Generated_Source\PSoC5/isr_DFB.c **** *   None
 272:.\Generated_Source\PSoC5/isr_DFB.c **** *
 273:.\Generated_Source\PSoC5/isr_DFB.c **** * Return:
 274:.\Generated_Source\PSoC5/isr_DFB.c **** *   1 if enabled, 0 if disabled.
 275:.\Generated_Source\PSoC5/isr_DFB.c **** *
 276:.\Generated_Source\PSoC5/isr_DFB.c **** *******************************************************************************/
 277:.\Generated_Source\PSoC5/isr_DFB.c **** uint8 isr_DFB_GetState(void)
 278:.\Generated_Source\PSoC5/isr_DFB.c **** {
 336              		.loc 1 278 0
 337              		.cfi_startproc
 338              		@ args = 0, pretend = 0, frame = 0
 339              		@ frame_needed = 1, uses_anonymous_args = 0
 340              		@ link register save eliminated.
 341 0000 80B4     		push	{r7}
 342              	.LCFI21:
 343              		.cfi_def_cfa_offset 4
 344 0002 00AF     		add	r7, sp, #0
 345              		.cfi_offset 7, -4
ARM GAS  C:\Users\hoangp\AppData\Local\Temp\ccrUBbEh.s 			page 12


 346              	.LCFI22:
 347              		.cfi_def_cfa_register 7
 279:.\Generated_Source\PSoC5/isr_DFB.c ****     /* Get the state of the general interrupt. */
 280:.\Generated_Source\PSoC5/isr_DFB.c ****     return ((*isr_DFB_INTC_SET_EN & (uint32)isr_DFB__INTC_MASK) != 0u) ? 1u:0u;
 348              		.loc 1 280 0
 349 0004 4EF20013 		movw	r3, #:lower16:-536813312
 350 0008 CEF20003 		movt	r3, #:upper16:-536813312
 351 000c 1B68     		ldr	r3, [r3, #0]
 352 000e 03F08053 		and	r3, r3, #268435456
 353 0012 002B     		cmp	r3, #0
 354 0014 02D0     		beq	.L18
 355 0016 4FF00103 		mov	r3, #1
 356 001a 01E0     		b	.L19
 357              	.L18:
 358 001c 4FF00003 		mov	r3, #0
 359              	.L19:
 281:.\Generated_Source\PSoC5/isr_DFB.c **** }
 360              		.loc 1 281 0
 361 0020 1846     		mov	r0, r3
 362 0022 BD46     		mov	sp, r7
 363 0024 80BC     		pop	{r7}
 364 0026 7047     		bx	lr
 365              		.cfi_endproc
 366              	.LFE8:
 367              		.size	isr_DFB_GetState, .-isr_DFB_GetState
 368              		.section	.text.isr_DFB_Disable,"ax",%progbits
 369              		.align	2
 370              		.global	isr_DFB_Disable
 371              		.thumb
 372              		.thumb_func
 373              		.type	isr_DFB_Disable, %function
 374              	isr_DFB_Disable:
 375              	.LFB9:
 282:.\Generated_Source\PSoC5/isr_DFB.c **** 
 283:.\Generated_Source\PSoC5/isr_DFB.c **** 
 284:.\Generated_Source\PSoC5/isr_DFB.c **** /*******************************************************************************
 285:.\Generated_Source\PSoC5/isr_DFB.c **** * Function Name: isr_DFB_Disable
 286:.\Generated_Source\PSoC5/isr_DFB.c **** ********************************************************************************
 287:.\Generated_Source\PSoC5/isr_DFB.c **** *
 288:.\Generated_Source\PSoC5/isr_DFB.c **** * Summary:
 289:.\Generated_Source\PSoC5/isr_DFB.c **** *   Disables the Interrupt.
 290:.\Generated_Source\PSoC5/isr_DFB.c **** *
 291:.\Generated_Source\PSoC5/isr_DFB.c **** * Parameters:
 292:.\Generated_Source\PSoC5/isr_DFB.c **** *   None
 293:.\Generated_Source\PSoC5/isr_DFB.c **** *
 294:.\Generated_Source\PSoC5/isr_DFB.c **** * Return:
 295:.\Generated_Source\PSoC5/isr_DFB.c **** *   None
 296:.\Generated_Source\PSoC5/isr_DFB.c **** *
 297:.\Generated_Source\PSoC5/isr_DFB.c **** *******************************************************************************/
 298:.\Generated_Source\PSoC5/isr_DFB.c **** void isr_DFB_Disable(void)
 299:.\Generated_Source\PSoC5/isr_DFB.c **** {
 376              		.loc 1 299 0
 377              		.cfi_startproc
 378              		@ args = 0, pretend = 0, frame = 0
 379              		@ frame_needed = 1, uses_anonymous_args = 0
 380              		@ link register save eliminated.
 381 0000 80B4     		push	{r7}
ARM GAS  C:\Users\hoangp\AppData\Local\Temp\ccrUBbEh.s 			page 13


 382              	.LCFI23:
 383              		.cfi_def_cfa_offset 4
 384 0002 00AF     		add	r7, sp, #0
 385              		.cfi_offset 7, -4
 386              	.LCFI24:
 387              		.cfi_def_cfa_register 7
 300:.\Generated_Source\PSoC5/isr_DFB.c ****     /* Disable the general interrupt. */
 301:.\Generated_Source\PSoC5/isr_DFB.c ****     *isr_DFB_INTC_CLR_EN = isr_DFB__INTC_MASK;
 388              		.loc 1 301 0
 389 0004 4EF28013 		movw	r3, #:lower16:-536813184
 390 0008 CEF20003 		movt	r3, #:upper16:-536813184
 391 000c 4FF08052 		mov	r2, #268435456
 392 0010 1A60     		str	r2, [r3, #0]
 302:.\Generated_Source\PSoC5/isr_DFB.c **** }
 393              		.loc 1 302 0
 394 0012 BD46     		mov	sp, r7
 395 0014 80BC     		pop	{r7}
 396 0016 7047     		bx	lr
 397              		.cfi_endproc
 398              	.LFE9:
 399              		.size	isr_DFB_Disable, .-isr_DFB_Disable
 400              		.section	.text.isr_DFB_SetPending,"ax",%progbits
 401              		.align	2
 402              		.global	isr_DFB_SetPending
 403              		.thumb
 404              		.thumb_func
 405              		.type	isr_DFB_SetPending, %function
 406              	isr_DFB_SetPending:
 407              	.LFB10:
 303:.\Generated_Source\PSoC5/isr_DFB.c **** 
 304:.\Generated_Source\PSoC5/isr_DFB.c **** 
 305:.\Generated_Source\PSoC5/isr_DFB.c **** /*******************************************************************************
 306:.\Generated_Source\PSoC5/isr_DFB.c **** * Function Name: isr_DFB_SetPending
 307:.\Generated_Source\PSoC5/isr_DFB.c **** ********************************************************************************
 308:.\Generated_Source\PSoC5/isr_DFB.c **** *
 309:.\Generated_Source\PSoC5/isr_DFB.c **** * Summary:
 310:.\Generated_Source\PSoC5/isr_DFB.c **** *   Causes the Interrupt to enter the pending state, a software method of
 311:.\Generated_Source\PSoC5/isr_DFB.c **** *   generating the interrupt.
 312:.\Generated_Source\PSoC5/isr_DFB.c **** *
 313:.\Generated_Source\PSoC5/isr_DFB.c **** * Parameters:
 314:.\Generated_Source\PSoC5/isr_DFB.c **** *   None
 315:.\Generated_Source\PSoC5/isr_DFB.c **** *
 316:.\Generated_Source\PSoC5/isr_DFB.c **** * Return:
 317:.\Generated_Source\PSoC5/isr_DFB.c **** *   None
 318:.\Generated_Source\PSoC5/isr_DFB.c **** *
 319:.\Generated_Source\PSoC5/isr_DFB.c **** *******************************************************************************/
 320:.\Generated_Source\PSoC5/isr_DFB.c **** void isr_DFB_SetPending(void)
 321:.\Generated_Source\PSoC5/isr_DFB.c **** {
 408              		.loc 1 321 0
 409              		.cfi_startproc
 410              		@ args = 0, pretend = 0, frame = 0
 411              		@ frame_needed = 1, uses_anonymous_args = 0
 412              		@ link register save eliminated.
 413 0000 80B4     		push	{r7}
 414              	.LCFI25:
 415              		.cfi_def_cfa_offset 4
 416 0002 00AF     		add	r7, sp, #0
ARM GAS  C:\Users\hoangp\AppData\Local\Temp\ccrUBbEh.s 			page 14


 417              		.cfi_offset 7, -4
 418              	.LCFI26:
 419              		.cfi_def_cfa_register 7
 322:.\Generated_Source\PSoC5/isr_DFB.c ****     *isr_DFB_INTC_SET_PD = isr_DFB__INTC_MASK;
 420              		.loc 1 322 0
 421 0004 4EF20023 		movw	r3, #:lower16:-536813056
 422 0008 CEF20003 		movt	r3, #:upper16:-536813056
 423 000c 4FF08052 		mov	r2, #268435456
 424 0010 1A60     		str	r2, [r3, #0]
 323:.\Generated_Source\PSoC5/isr_DFB.c **** }
 425              		.loc 1 323 0
 426 0012 BD46     		mov	sp, r7
 427 0014 80BC     		pop	{r7}
 428 0016 7047     		bx	lr
 429              		.cfi_endproc
 430              	.LFE10:
 431              		.size	isr_DFB_SetPending, .-isr_DFB_SetPending
 432              		.section	.text.isr_DFB_ClearPending,"ax",%progbits
 433              		.align	2
 434              		.global	isr_DFB_ClearPending
 435              		.thumb
 436              		.thumb_func
 437              		.type	isr_DFB_ClearPending, %function
 438              	isr_DFB_ClearPending:
 439              	.LFB11:
 324:.\Generated_Source\PSoC5/isr_DFB.c **** 
 325:.\Generated_Source\PSoC5/isr_DFB.c **** 
 326:.\Generated_Source\PSoC5/isr_DFB.c **** /*******************************************************************************
 327:.\Generated_Source\PSoC5/isr_DFB.c **** * Function Name: isr_DFB_ClearPending
 328:.\Generated_Source\PSoC5/isr_DFB.c **** ********************************************************************************
 329:.\Generated_Source\PSoC5/isr_DFB.c **** *
 330:.\Generated_Source\PSoC5/isr_DFB.c **** * Summary:
 331:.\Generated_Source\PSoC5/isr_DFB.c **** *   Clears a pending interrupt.
 332:.\Generated_Source\PSoC5/isr_DFB.c **** *
 333:.\Generated_Source\PSoC5/isr_DFB.c **** * Parameters:
 334:.\Generated_Source\PSoC5/isr_DFB.c **** *   None
 335:.\Generated_Source\PSoC5/isr_DFB.c **** *
 336:.\Generated_Source\PSoC5/isr_DFB.c **** * Return:
 337:.\Generated_Source\PSoC5/isr_DFB.c **** *   None
 338:.\Generated_Source\PSoC5/isr_DFB.c **** *
 339:.\Generated_Source\PSoC5/isr_DFB.c **** *******************************************************************************/
 340:.\Generated_Source\PSoC5/isr_DFB.c **** void isr_DFB_ClearPending(void)
 341:.\Generated_Source\PSoC5/isr_DFB.c **** {
 440              		.loc 1 341 0
 441              		.cfi_startproc
 442              		@ args = 0, pretend = 0, frame = 0
 443              		@ frame_needed = 1, uses_anonymous_args = 0
 444              		@ link register save eliminated.
 445 0000 80B4     		push	{r7}
 446              	.LCFI27:
 447              		.cfi_def_cfa_offset 4
 448 0002 00AF     		add	r7, sp, #0
 449              		.cfi_offset 7, -4
 450              	.LCFI28:
 451              		.cfi_def_cfa_register 7
 342:.\Generated_Source\PSoC5/isr_DFB.c ****     *isr_DFB_INTC_CLR_PD = isr_DFB__INTC_MASK;
 452              		.loc 1 342 0
ARM GAS  C:\Users\hoangp\AppData\Local\Temp\ccrUBbEh.s 			page 15


 453 0004 4EF28023 		movw	r3, #:lower16:-536812928
 454 0008 CEF20003 		movt	r3, #:upper16:-536812928
 455 000c 4FF08052 		mov	r2, #268435456
 456 0010 1A60     		str	r2, [r3, #0]
 343:.\Generated_Source\PSoC5/isr_DFB.c **** }
 457              		.loc 1 343 0
 458 0012 BD46     		mov	sp, r7
 459 0014 80BC     		pop	{r7}
 460 0016 7047     		bx	lr
 461              		.cfi_endproc
 462              	.LFE11:
 463              		.size	isr_DFB_ClearPending, .-isr_DFB_ClearPending
 464              		.text
 465              	.Letext0: