ARM GAS  C:\Users\hoangp\AppData\Local\Temp\ccy8Ta6x.s 			page 1


   1              		.syntax unified
   2              		.cpu cortex-m3
   3              		.fpu softvfp
   4              		.eabi_attribute 20, 1
   5              		.eabi_attribute 21, 1
   6              		.eabi_attribute 23, 3
   7              		.eabi_attribute 24, 1
   8              		.eabi_attribute 25, 1
   9              		.eabi_attribute 26, 1
  10              		.eabi_attribute 30, 6
  11              		.eabi_attribute 18, 4
  12              		.thumb
  13              		.file	"isr_LOOP.c"
  20 0000 59010000 		.text
  20      02006000 
  20      00000201 
  20      FB0E0D00 
  20      01010101 
  21              	.Ltext0:
  22              		.cfi_sections	.debug_frame
  23              		.section	.text.isr_LOOP_Start,"ax",%progbits
  24              		.align	2
  25              		.global	isr_LOOP_Start
  26              		.thumb
  27              		.thumb_func
  28              		.type	isr_LOOP_Start, %function
  29              	isr_LOOP_Start:
  30              	.LFB0:
  31              		.file 1 ".\\Generated_Source\\PSoC5\\isr_LOOP.c"
   1:.\Generated_Source\PSoC5/isr_LOOP.c **** /*******************************************************************************
   2:.\Generated_Source\PSoC5/isr_LOOP.c **** * File Name: isr_LOOP.c  
   3:.\Generated_Source\PSoC5/isr_LOOP.c **** * Version 1.70
   4:.\Generated_Source\PSoC5/isr_LOOP.c **** *
   5:.\Generated_Source\PSoC5/isr_LOOP.c **** *  Description:
   6:.\Generated_Source\PSoC5/isr_LOOP.c **** *   API for controlling the state of an interrupt.
   7:.\Generated_Source\PSoC5/isr_LOOP.c **** *
   8:.\Generated_Source\PSoC5/isr_LOOP.c **** *
   9:.\Generated_Source\PSoC5/isr_LOOP.c **** *  Note:
  10:.\Generated_Source\PSoC5/isr_LOOP.c **** *
  11:.\Generated_Source\PSoC5/isr_LOOP.c **** ********************************************************************************
  12:.\Generated_Source\PSoC5/isr_LOOP.c **** * Copyright 2008-2012, Cypress Semiconductor Corporation.  All rights reserved.
  13:.\Generated_Source\PSoC5/isr_LOOP.c **** * You may use this file only in accordance with the license, terms, conditions, 
  14:.\Generated_Source\PSoC5/isr_LOOP.c **** * disclaimers, and limitations in the end user license agreement accompanying 
  15:.\Generated_Source\PSoC5/isr_LOOP.c **** * the software package with which this file was provided.
  16:.\Generated_Source\PSoC5/isr_LOOP.c **** *******************************************************************************/
  17:.\Generated_Source\PSoC5/isr_LOOP.c **** 
  18:.\Generated_Source\PSoC5/isr_LOOP.c **** 
  19:.\Generated_Source\PSoC5/isr_LOOP.c **** #include <CYDEVICE_TRM.H>
  20:.\Generated_Source\PSoC5/isr_LOOP.c **** #include <CYLIB.H>
  21:.\Generated_Source\PSoC5/isr_LOOP.c **** #include <isr_LOOP.H>
  22:.\Generated_Source\PSoC5/isr_LOOP.c **** 
ARM GAS  C:\Users\hoangp\AppData\Local\Temp\ccy8Ta6x.s 			page 2


  23:.\Generated_Source\PSoC5/isr_LOOP.c **** #if !defined(isr_LOOP__REMOVED) /* Check for removal by optimization */
  24:.\Generated_Source\PSoC5/isr_LOOP.c **** 
  25:.\Generated_Source\PSoC5/isr_LOOP.c **** /*******************************************************************************
  26:.\Generated_Source\PSoC5/isr_LOOP.c **** *  Place your includes, defines and code here 
  27:.\Generated_Source\PSoC5/isr_LOOP.c **** ********************************************************************************/
  28:.\Generated_Source\PSoC5/isr_LOOP.c **** /* `#START isr_LOOP_intc` */
  29:.\Generated_Source\PSoC5/isr_LOOP.c **** extern int16 sineLUT[256];
  30:.\Generated_Source\PSoC5/isr_LOOP.c **** extern int16 sineLUTindex;
  31:.\Generated_Source\PSoC5/isr_LOOP.c **** /* `#END` */
  32:.\Generated_Source\PSoC5/isr_LOOP.c **** 
  33:.\Generated_Source\PSoC5/isr_LOOP.c **** #ifndef CYINT_IRQ_BASE
  34:.\Generated_Source\PSoC5/isr_LOOP.c **** #define CYINT_IRQ_BASE      16
  35:.\Generated_Source\PSoC5/isr_LOOP.c **** #endif /* CYINT_IRQ_BASE */
  36:.\Generated_Source\PSoC5/isr_LOOP.c **** #ifndef CYINT_VECT_TABLE
  37:.\Generated_Source\PSoC5/isr_LOOP.c **** #define CYINT_VECT_TABLE    ((cyisraddress **) CYREG_NVIC_VECT_OFFSET)
  38:.\Generated_Source\PSoC5/isr_LOOP.c **** #endif /* CYINT_VECT_TABLE */
  39:.\Generated_Source\PSoC5/isr_LOOP.c **** 
  40:.\Generated_Source\PSoC5/isr_LOOP.c **** /* Declared in startup, used to set unused interrupts to. */
  41:.\Generated_Source\PSoC5/isr_LOOP.c **** CY_ISR_PROTO(IntDefaultHandler);
  42:.\Generated_Source\PSoC5/isr_LOOP.c **** 
  43:.\Generated_Source\PSoC5/isr_LOOP.c **** 
  44:.\Generated_Source\PSoC5/isr_LOOP.c **** /*******************************************************************************
  45:.\Generated_Source\PSoC5/isr_LOOP.c **** * Function Name: isr_LOOP_Start
  46:.\Generated_Source\PSoC5/isr_LOOP.c **** ********************************************************************************
  47:.\Generated_Source\PSoC5/isr_LOOP.c **** *
  48:.\Generated_Source\PSoC5/isr_LOOP.c **** * Summary:
  49:.\Generated_Source\PSoC5/isr_LOOP.c **** *  Set up the interrupt and enable it.
  50:.\Generated_Source\PSoC5/isr_LOOP.c **** *
  51:.\Generated_Source\PSoC5/isr_LOOP.c **** * Parameters:  
  52:.\Generated_Source\PSoC5/isr_LOOP.c **** *   None
  53:.\Generated_Source\PSoC5/isr_LOOP.c **** *
  54:.\Generated_Source\PSoC5/isr_LOOP.c **** * Return:
  55:.\Generated_Source\PSoC5/isr_LOOP.c **** *   None
  56:.\Generated_Source\PSoC5/isr_LOOP.c **** *
  57:.\Generated_Source\PSoC5/isr_LOOP.c **** *******************************************************************************/
  58:.\Generated_Source\PSoC5/isr_LOOP.c **** void isr_LOOP_Start(void)
  59:.\Generated_Source\PSoC5/isr_LOOP.c **** {
  32              		.loc 1 59 0
  33              		.cfi_startproc
  34              		@ args = 0, pretend = 0, frame = 0
  35              		@ frame_needed = 1, uses_anonymous_args = 0
  36 0000 80B5     		push	{r7, lr}
  37              	.LCFI0:
  38              		.cfi_def_cfa_offset 8
  39 0002 00AF     		add	r7, sp, #0
  40              		.cfi_offset 14, -4
  41              		.cfi_offset 7, -8
  42              	.LCFI1:
  43              		.cfi_def_cfa_register 7
  60:.\Generated_Source\PSoC5/isr_LOOP.c ****     /* For all we know the interrupt is active. */
  61:.\Generated_Source\PSoC5/isr_LOOP.c ****     isr_LOOP_Disable();
  44              		.loc 1 61 0
  45 0004 FFF7FEFF 		bl	isr_LOOP_Disable
  62:.\Generated_Source\PSoC5/isr_LOOP.c **** 
  63:.\Generated_Source\PSoC5/isr_LOOP.c ****     /* Set the ISR to point to the isr_LOOP Interrupt. */
  64:.\Generated_Source\PSoC5/isr_LOOP.c ****     isr_LOOP_SetVector(&isr_LOOP_Interrupt);
  46              		.loc 1 64 0
ARM GAS  C:\Users\hoangp\AppData\Local\Temp\ccy8Ta6x.s 			page 3


  47 0008 40F20000 		movw	r0, #:lower16:isr_LOOP_Interrupt
  48 000c C0F20000 		movt	r0, #:upper16:isr_LOOP_Interrupt
  49 0010 FFF7FEFF 		bl	isr_LOOP_SetVector
  65:.\Generated_Source\PSoC5/isr_LOOP.c **** 
  66:.\Generated_Source\PSoC5/isr_LOOP.c ****     /* Set the priority. */
  67:.\Generated_Source\PSoC5/isr_LOOP.c ****     isr_LOOP_SetPriority((uint8)isr_LOOP_INTC_PRIOR_NUMBER);
  50              		.loc 1 67 0
  51 0014 4FF00700 		mov	r0, #7
  52 0018 FFF7FEFF 		bl	isr_LOOP_SetPriority
  68:.\Generated_Source\PSoC5/isr_LOOP.c **** 
  69:.\Generated_Source\PSoC5/isr_LOOP.c ****     /* Enable it. */
  70:.\Generated_Source\PSoC5/isr_LOOP.c ****     isr_LOOP_Enable();
  53              		.loc 1 70 0
  54 001c FFF7FEFF 		bl	isr_LOOP_Enable
  71:.\Generated_Source\PSoC5/isr_LOOP.c **** }
  55              		.loc 1 71 0
  56 0020 80BD     		pop	{r7, pc}
  57              		.cfi_endproc
  58              	.LFE0:
  59              		.size	isr_LOOP_Start, .-isr_LOOP_Start
  60 0022 00BF     		.section	.text.isr_LOOP_StartEx,"ax",%progbits
  61              		.align	2
  62              		.global	isr_LOOP_StartEx
  63              		.thumb
  64              		.thumb_func
  65              		.type	isr_LOOP_StartEx, %function
  66              	isr_LOOP_StartEx:
  67              	.LFB1:
  72:.\Generated_Source\PSoC5/isr_LOOP.c **** 
  73:.\Generated_Source\PSoC5/isr_LOOP.c **** 
  74:.\Generated_Source\PSoC5/isr_LOOP.c **** /*******************************************************************************
  75:.\Generated_Source\PSoC5/isr_LOOP.c **** * Function Name: isr_LOOP_StartEx
  76:.\Generated_Source\PSoC5/isr_LOOP.c **** ********************************************************************************
  77:.\Generated_Source\PSoC5/isr_LOOP.c **** *
  78:.\Generated_Source\PSoC5/isr_LOOP.c **** * Summary:
  79:.\Generated_Source\PSoC5/isr_LOOP.c **** *  Set up the interrupt and enable it.
  80:.\Generated_Source\PSoC5/isr_LOOP.c **** *
  81:.\Generated_Source\PSoC5/isr_LOOP.c **** * Parameters:  
  82:.\Generated_Source\PSoC5/isr_LOOP.c **** *   address: Address of the ISR to set in the interrupt vector table.
  83:.\Generated_Source\PSoC5/isr_LOOP.c **** *
  84:.\Generated_Source\PSoC5/isr_LOOP.c **** * Return:
  85:.\Generated_Source\PSoC5/isr_LOOP.c **** *   None
  86:.\Generated_Source\PSoC5/isr_LOOP.c **** *
  87:.\Generated_Source\PSoC5/isr_LOOP.c **** *******************************************************************************/
  88:.\Generated_Source\PSoC5/isr_LOOP.c **** void isr_LOOP_StartEx(cyisraddress address)
  89:.\Generated_Source\PSoC5/isr_LOOP.c **** {
  68              		.loc 1 89 0
  69              		.cfi_startproc
  70              		@ args = 0, pretend = 0, frame = 8
  71              		@ frame_needed = 1, uses_anonymous_args = 0
  72 0000 80B5     		push	{r7, lr}
  73              	.LCFI2:
  74              		.cfi_def_cfa_offset 8
  75 0002 82B0     		sub	sp, sp, #8
  76              	.LCFI3:
  77              		.cfi_def_cfa_offset 16
  78 0004 00AF     		add	r7, sp, #0
ARM GAS  C:\Users\hoangp\AppData\Local\Temp\ccy8Ta6x.s 			page 4


  79              		.cfi_offset 14, -4
  80              		.cfi_offset 7, -8
  81              	.LCFI4:
  82              		.cfi_def_cfa_register 7
  83 0006 7860     		str	r0, [r7, #4]
  90:.\Generated_Source\PSoC5/isr_LOOP.c ****     /* For all we know the interrupt is active. */
  91:.\Generated_Source\PSoC5/isr_LOOP.c ****     isr_LOOP_Disable();
  84              		.loc 1 91 0
  85 0008 FFF7FEFF 		bl	isr_LOOP_Disable
  92:.\Generated_Source\PSoC5/isr_LOOP.c **** 
  93:.\Generated_Source\PSoC5/isr_LOOP.c ****     /* Set the ISR to point to the isr_LOOP Interrupt. */
  94:.\Generated_Source\PSoC5/isr_LOOP.c ****     isr_LOOP_SetVector(address);
  86              		.loc 1 94 0
  87 000c 7868     		ldr	r0, [r7, #4]
  88 000e FFF7FEFF 		bl	isr_LOOP_SetVector
  95:.\Generated_Source\PSoC5/isr_LOOP.c **** 
  96:.\Generated_Source\PSoC5/isr_LOOP.c ****     /* Set the priority. */
  97:.\Generated_Source\PSoC5/isr_LOOP.c ****     isr_LOOP_SetPriority((uint8)isr_LOOP_INTC_PRIOR_NUMBER);
  89              		.loc 1 97 0
  90 0012 4FF00700 		mov	r0, #7
  91 0016 FFF7FEFF 		bl	isr_LOOP_SetPriority
  98:.\Generated_Source\PSoC5/isr_LOOP.c **** 
  99:.\Generated_Source\PSoC5/isr_LOOP.c ****     /* Enable it. */
 100:.\Generated_Source\PSoC5/isr_LOOP.c ****     isr_LOOP_Enable();
  92              		.loc 1 100 0
  93 001a FFF7FEFF 		bl	isr_LOOP_Enable
 101:.\Generated_Source\PSoC5/isr_LOOP.c **** }
  94              		.loc 1 101 0
  95 001e 07F10807 		add	r7, r7, #8
  96 0022 BD46     		mov	sp, r7
  97 0024 80BD     		pop	{r7, pc}
  98              		.cfi_endproc
  99              	.LFE1:
 100              		.size	isr_LOOP_StartEx, .-isr_LOOP_StartEx
 101 0026 00BF     		.section	.text.isr_LOOP_Stop,"ax",%progbits
 102              		.align	2
 103              		.global	isr_LOOP_Stop
 104              		.thumb
 105              		.thumb_func
 106              		.type	isr_LOOP_Stop, %function
 107              	isr_LOOP_Stop:
 108              	.LFB2:
 102:.\Generated_Source\PSoC5/isr_LOOP.c **** 
 103:.\Generated_Source\PSoC5/isr_LOOP.c **** 
 104:.\Generated_Source\PSoC5/isr_LOOP.c **** /*******************************************************************************
 105:.\Generated_Source\PSoC5/isr_LOOP.c **** * Function Name: isr_LOOP_Stop
 106:.\Generated_Source\PSoC5/isr_LOOP.c **** ********************************************************************************
 107:.\Generated_Source\PSoC5/isr_LOOP.c **** *
 108:.\Generated_Source\PSoC5/isr_LOOP.c **** * Summary:
 109:.\Generated_Source\PSoC5/isr_LOOP.c **** *   Disables and removes the interrupt.
 110:.\Generated_Source\PSoC5/isr_LOOP.c **** *
 111:.\Generated_Source\PSoC5/isr_LOOP.c **** * Parameters:  
 112:.\Generated_Source\PSoC5/isr_LOOP.c **** *
 113:.\Generated_Source\PSoC5/isr_LOOP.c **** * Return:
 114:.\Generated_Source\PSoC5/isr_LOOP.c **** *   None
 115:.\Generated_Source\PSoC5/isr_LOOP.c **** *
 116:.\Generated_Source\PSoC5/isr_LOOP.c **** *******************************************************************************/
ARM GAS  C:\Users\hoangp\AppData\Local\Temp\ccy8Ta6x.s 			page 5


 117:.\Generated_Source\PSoC5/isr_LOOP.c **** void isr_LOOP_Stop(void)
 118:.\Generated_Source\PSoC5/isr_LOOP.c **** {
 109              		.loc 1 118 0
 110              		.cfi_startproc
 111              		@ args = 0, pretend = 0, frame = 0
 112              		@ frame_needed = 1, uses_anonymous_args = 0
 113 0000 80B5     		push	{r7, lr}
 114              	.LCFI5:
 115              		.cfi_def_cfa_offset 8
 116 0002 00AF     		add	r7, sp, #0
 117              		.cfi_offset 14, -4
 118              		.cfi_offset 7, -8
 119              	.LCFI6:
 120              		.cfi_def_cfa_register 7
 119:.\Generated_Source\PSoC5/isr_LOOP.c ****     /* Disable this interrupt. */
 120:.\Generated_Source\PSoC5/isr_LOOP.c ****     isr_LOOP_Disable();
 121              		.loc 1 120 0
 122 0004 FFF7FEFF 		bl	isr_LOOP_Disable
 121:.\Generated_Source\PSoC5/isr_LOOP.c **** 
 122:.\Generated_Source\PSoC5/isr_LOOP.c ****     /* Set the ISR to point to the passive one. */
 123:.\Generated_Source\PSoC5/isr_LOOP.c ****     isr_LOOP_SetVector(&IntDefaultHandler);
 123              		.loc 1 123 0
 124 0008 40F20000 		movw	r0, #:lower16:IntDefaultHandler
 125 000c C0F20000 		movt	r0, #:upper16:IntDefaultHandler
 126 0010 FFF7FEFF 		bl	isr_LOOP_SetVector
 124:.\Generated_Source\PSoC5/isr_LOOP.c **** }
 127              		.loc 1 124 0
 128 0014 80BD     		pop	{r7, pc}
 129              		.cfi_endproc
 130              	.LFE2:
 131              		.size	isr_LOOP_Stop, .-isr_LOOP_Stop
 132 0016 00BF     		.section	.text.isr_LOOP_Interrupt,"ax",%progbits
 133              		.align	2
 134              		.global	isr_LOOP_Interrupt
 135              		.thumb
 136              		.thumb_func
 137              		.type	isr_LOOP_Interrupt, %function
 138              	isr_LOOP_Interrupt:
 139              	.LFB3:
 125:.\Generated_Source\PSoC5/isr_LOOP.c **** 
 126:.\Generated_Source\PSoC5/isr_LOOP.c **** 
 127:.\Generated_Source\PSoC5/isr_LOOP.c **** /*******************************************************************************
 128:.\Generated_Source\PSoC5/isr_LOOP.c **** * Function Name: isr_LOOP_Interrupt
 129:.\Generated_Source\PSoC5/isr_LOOP.c **** ********************************************************************************
 130:.\Generated_Source\PSoC5/isr_LOOP.c **** *
 131:.\Generated_Source\PSoC5/isr_LOOP.c **** * Summary:
 132:.\Generated_Source\PSoC5/isr_LOOP.c **** *   The default Interrupt Service Routine for isr_LOOP.
 133:.\Generated_Source\PSoC5/isr_LOOP.c **** *
 134:.\Generated_Source\PSoC5/isr_LOOP.c **** *   Add custom code between the coments to keep the next version of this file
 135:.\Generated_Source\PSoC5/isr_LOOP.c **** *   from over writting your code.
 136:.\Generated_Source\PSoC5/isr_LOOP.c **** *
 137:.\Generated_Source\PSoC5/isr_LOOP.c **** * Parameters:  
 138:.\Generated_Source\PSoC5/isr_LOOP.c **** *
 139:.\Generated_Source\PSoC5/isr_LOOP.c **** * Return:
 140:.\Generated_Source\PSoC5/isr_LOOP.c **** *   None
 141:.\Generated_Source\PSoC5/isr_LOOP.c **** *
 142:.\Generated_Source\PSoC5/isr_LOOP.c **** *******************************************************************************/
ARM GAS  C:\Users\hoangp\AppData\Local\Temp\ccy8Ta6x.s 			page 6


 143:.\Generated_Source\PSoC5/isr_LOOP.c **** CY_ISR(isr_LOOP_Interrupt)
 144:.\Generated_Source\PSoC5/isr_LOOP.c **** {
 140              		.loc 1 144 0
 141              		.cfi_startproc
 142              		@ args = 0, pretend = 0, frame = 0
 143              		@ frame_needed = 1, uses_anonymous_args = 0
 144 0000 80B5     		push	{r7, lr}
 145              	.LCFI7:
 146              		.cfi_def_cfa_offset 8
 147 0002 00AF     		add	r7, sp, #0
 148              		.cfi_offset 14, -4
 149              		.cfi_offset 7, -8
 150              	.LCFI8:
 151              		.cfi_def_cfa_register 7
 145:.\Generated_Source\PSoC5/isr_LOOP.c ****     /*  Place your Interrupt code here. */
 146:.\Generated_Source\PSoC5/isr_LOOP.c ****     /* `#START isr_LOOP_Interrupt` */
 147:.\Generated_Source\PSoC5/isr_LOOP.c ****     PWM_BUCK_WriteCompare(sineLUT[sineLUTindex]);
 152              		.loc 1 147 0
 153 0004 40F20003 		movw	r3, #:lower16:sineLUTindex
 154 0008 C0F20003 		movt	r3, #:upper16:sineLUTindex
 155 000c 1B88     		ldrh	r3, [r3, #0]
 156 000e 1AB2     		sxth	r2, r3
 157 0010 40F20003 		movw	r3, #:lower16:sineLUT
 158 0014 C0F20003 		movt	r3, #:upper16:sineLUT
 159 0018 33F81230 		ldrh	r3, [r3, r2, lsl #1]
 160 001c 1BB2     		sxth	r3, r3
 161 001e 1846     		mov	r0, r3
 162 0020 FFF7FEFF 		bl	PWM_BUCK_WriteCompare
 148:.\Generated_Source\PSoC5/isr_LOOP.c ****     
 149:.\Generated_Source\PSoC5/isr_LOOP.c ****     /* `#END` */
 150:.\Generated_Source\PSoC5/isr_LOOP.c **** }
 163              		.loc 1 150 0
 164 0024 80BD     		pop	{r7, pc}
 165              		.cfi_endproc
 166              	.LFE3:
 167              		.size	isr_LOOP_Interrupt, .-isr_LOOP_Interrupt
 168 0026 00BF     		.section	.text.isr_LOOP_SetVector,"ax",%progbits
 169              		.align	2
 170              		.global	isr_LOOP_SetVector
 171              		.thumb
 172              		.thumb_func
 173              		.type	isr_LOOP_SetVector, %function
 174              	isr_LOOP_SetVector:
 175              	.LFB4:
 151:.\Generated_Source\PSoC5/isr_LOOP.c **** 
 152:.\Generated_Source\PSoC5/isr_LOOP.c **** 
 153:.\Generated_Source\PSoC5/isr_LOOP.c **** /*******************************************************************************
 154:.\Generated_Source\PSoC5/isr_LOOP.c **** * Function Name: isr_LOOP_SetVector
 155:.\Generated_Source\PSoC5/isr_LOOP.c **** ********************************************************************************
 156:.\Generated_Source\PSoC5/isr_LOOP.c **** *
 157:.\Generated_Source\PSoC5/isr_LOOP.c **** * Summary:
 158:.\Generated_Source\PSoC5/isr_LOOP.c **** *   Change the ISR vector for the Interrupt. Note calling isr_LOOP_Start
 159:.\Generated_Source\PSoC5/isr_LOOP.c **** *   will override any effect this method would have had. To set the vector 
 160:.\Generated_Source\PSoC5/isr_LOOP.c **** *   before the component has been started use isr_LOOP_StartEx instead.
 161:.\Generated_Source\PSoC5/isr_LOOP.c **** *
 162:.\Generated_Source\PSoC5/isr_LOOP.c **** * Parameters:
 163:.\Generated_Source\PSoC5/isr_LOOP.c **** *   address: Address of the ISR to set in the interrupt vector table.
ARM GAS  C:\Users\hoangp\AppData\Local\Temp\ccy8Ta6x.s 			page 7


 164:.\Generated_Source\PSoC5/isr_LOOP.c **** *
 165:.\Generated_Source\PSoC5/isr_LOOP.c **** * Return:
 166:.\Generated_Source\PSoC5/isr_LOOP.c **** *   None
 167:.\Generated_Source\PSoC5/isr_LOOP.c **** *
 168:.\Generated_Source\PSoC5/isr_LOOP.c **** *******************************************************************************/
 169:.\Generated_Source\PSoC5/isr_LOOP.c **** void isr_LOOP_SetVector(cyisraddress address)
 170:.\Generated_Source\PSoC5/isr_LOOP.c **** {
 176              		.loc 1 170 0
 177              		.cfi_startproc
 178              		@ args = 0, pretend = 0, frame = 16
 179              		@ frame_needed = 1, uses_anonymous_args = 0
 180              		@ link register save eliminated.
 181 0000 80B4     		push	{r7}
 182              	.LCFI9:
 183              		.cfi_def_cfa_offset 4
 184 0002 85B0     		sub	sp, sp, #20
 185              	.LCFI10:
 186              		.cfi_def_cfa_offset 24
 187 0004 00AF     		add	r7, sp, #0
 188              		.cfi_offset 7, -4
 189              	.LCFI11:
 190              		.cfi_def_cfa_register 7
 191 0006 7860     		str	r0, [r7, #4]
 171:.\Generated_Source\PSoC5/isr_LOOP.c ****     cyisraddress * ramVectorTable;
 172:.\Generated_Source\PSoC5/isr_LOOP.c **** 
 173:.\Generated_Source\PSoC5/isr_LOOP.c ****     ramVectorTable = (cyisraddress *) *CYINT_VECT_TABLE;
 192              		.loc 1 173 0
 193 0008 4EF60853 		movw	r3, #:lower16:-536810232
 194 000c CEF20003 		movt	r3, #:upper16:-536810232
 195 0010 1B68     		ldr	r3, [r3, #0]
 196 0012 FB60     		str	r3, [r7, #12]
 174:.\Generated_Source\PSoC5/isr_LOOP.c **** 
 175:.\Generated_Source\PSoC5/isr_LOOP.c ****     ramVectorTable[CYINT_IRQ_BASE + (uint32)isr_LOOP__INTC_NUMBER] = address;
 197              		.loc 1 175 0
 198 0014 FB68     		ldr	r3, [r7, #12]
 199 0016 03F14003 		add	r3, r3, #64
 200 001a 7A68     		ldr	r2, [r7, #4]
 201 001c 1A60     		str	r2, [r3, #0]
 176:.\Generated_Source\PSoC5/isr_LOOP.c **** }
 202              		.loc 1 176 0
 203 001e 07F11407 		add	r7, r7, #20
 204 0022 BD46     		mov	sp, r7
 205 0024 80BC     		pop	{r7}
 206 0026 7047     		bx	lr
 207              		.cfi_endproc
 208              	.LFE4:
 209              		.size	isr_LOOP_SetVector, .-isr_LOOP_SetVector
 210              		.section	.text.isr_LOOP_GetVector,"ax",%progbits
 211              		.align	2
 212              		.global	isr_LOOP_GetVector
 213              		.thumb
 214              		.thumb_func
 215              		.type	isr_LOOP_GetVector, %function
 216              	isr_LOOP_GetVector:
 217              	.LFB5:
 177:.\Generated_Source\PSoC5/isr_LOOP.c **** 
 178:.\Generated_Source\PSoC5/isr_LOOP.c **** 
ARM GAS  C:\Users\hoangp\AppData\Local\Temp\ccy8Ta6x.s 			page 8


 179:.\Generated_Source\PSoC5/isr_LOOP.c **** /*******************************************************************************
 180:.\Generated_Source\PSoC5/isr_LOOP.c **** * Function Name: isr_LOOP_GetVector
 181:.\Generated_Source\PSoC5/isr_LOOP.c **** ********************************************************************************
 182:.\Generated_Source\PSoC5/isr_LOOP.c **** *
 183:.\Generated_Source\PSoC5/isr_LOOP.c **** * Summary:
 184:.\Generated_Source\PSoC5/isr_LOOP.c **** *   Gets the "address" of the current ISR vector for the Interrupt.
 185:.\Generated_Source\PSoC5/isr_LOOP.c **** *
 186:.\Generated_Source\PSoC5/isr_LOOP.c **** * Parameters:
 187:.\Generated_Source\PSoC5/isr_LOOP.c **** *   None
 188:.\Generated_Source\PSoC5/isr_LOOP.c **** *
 189:.\Generated_Source\PSoC5/isr_LOOP.c **** * Return:
 190:.\Generated_Source\PSoC5/isr_LOOP.c **** *   Address of the ISR in the interrupt vector table.
 191:.\Generated_Source\PSoC5/isr_LOOP.c **** *
 192:.\Generated_Source\PSoC5/isr_LOOP.c **** *******************************************************************************/
 193:.\Generated_Source\PSoC5/isr_LOOP.c **** cyisraddress isr_LOOP_GetVector(void)
 194:.\Generated_Source\PSoC5/isr_LOOP.c **** {
 218              		.loc 1 194 0
 219              		.cfi_startproc
 220              		@ args = 0, pretend = 0, frame = 8
 221              		@ frame_needed = 1, uses_anonymous_args = 0
 222              		@ link register save eliminated.
 223 0000 80B4     		push	{r7}
 224              	.LCFI12:
 225              		.cfi_def_cfa_offset 4
 226 0002 83B0     		sub	sp, sp, #12
 227              	.LCFI13:
 228              		.cfi_def_cfa_offset 16
 229 0004 00AF     		add	r7, sp, #0
 230              		.cfi_offset 7, -4
 231              	.LCFI14:
 232              		.cfi_def_cfa_register 7
 195:.\Generated_Source\PSoC5/isr_LOOP.c ****     cyisraddress * ramVectorTable;
 196:.\Generated_Source\PSoC5/isr_LOOP.c **** 
 197:.\Generated_Source\PSoC5/isr_LOOP.c ****     ramVectorTable = (cyisraddress *) *CYINT_VECT_TABLE;
 233              		.loc 1 197 0
 234 0006 4EF60853 		movw	r3, #:lower16:-536810232
 235 000a CEF20003 		movt	r3, #:upper16:-536810232
 236 000e 1B68     		ldr	r3, [r3, #0]
 237 0010 7B60     		str	r3, [r7, #4]
 198:.\Generated_Source\PSoC5/isr_LOOP.c **** 
 199:.\Generated_Source\PSoC5/isr_LOOP.c ****     return ramVectorTable[CYINT_IRQ_BASE + (uint32)isr_LOOP__INTC_NUMBER];
 238              		.loc 1 199 0
 239 0012 7B68     		ldr	r3, [r7, #4]
 240 0014 03F14003 		add	r3, r3, #64
 241 0018 1B68     		ldr	r3, [r3, #0]
 200:.\Generated_Source\PSoC5/isr_LOOP.c **** }
 242              		.loc 1 200 0
 243 001a 1846     		mov	r0, r3
 244 001c 07F10C07 		add	r7, r7, #12
 245 0020 BD46     		mov	sp, r7
 246 0022 80BC     		pop	{r7}
 247 0024 7047     		bx	lr
 248              		.cfi_endproc
 249              	.LFE5:
 250              		.size	isr_LOOP_GetVector, .-isr_LOOP_GetVector
 251 0026 00BF     		.section	.text.isr_LOOP_SetPriority,"ax",%progbits
 252              		.align	2
ARM GAS  C:\Users\hoangp\AppData\Local\Temp\ccy8Ta6x.s 			page 9


 253              		.global	isr_LOOP_SetPriority
 254              		.thumb
 255              		.thumb_func
 256              		.type	isr_LOOP_SetPriority, %function
 257              	isr_LOOP_SetPriority:
 258              	.LFB6:
 201:.\Generated_Source\PSoC5/isr_LOOP.c **** 
 202:.\Generated_Source\PSoC5/isr_LOOP.c **** 
 203:.\Generated_Source\PSoC5/isr_LOOP.c **** /*******************************************************************************
 204:.\Generated_Source\PSoC5/isr_LOOP.c **** * Function Name: isr_LOOP_SetPriority
 205:.\Generated_Source\PSoC5/isr_LOOP.c **** ********************************************************************************
 206:.\Generated_Source\PSoC5/isr_LOOP.c **** *
 207:.\Generated_Source\PSoC5/isr_LOOP.c **** * Summary:
 208:.\Generated_Source\PSoC5/isr_LOOP.c **** *   Sets the Priority of the Interrupt. Note calling isr_LOOP_Start
 209:.\Generated_Source\PSoC5/isr_LOOP.c **** *   or isr_LOOP_StartEx will override any effect this method 
 210:.\Generated_Source\PSoC5/isr_LOOP.c **** *   would have had. This method should only be called after 
 211:.\Generated_Source\PSoC5/isr_LOOP.c **** *   isr_LOOP_Start or isr_LOOP_StartEx has been called. To set 
 212:.\Generated_Source\PSoC5/isr_LOOP.c **** *   the initial priority for the component use the cydwr file in the tool.
 213:.\Generated_Source\PSoC5/isr_LOOP.c **** *
 214:.\Generated_Source\PSoC5/isr_LOOP.c **** * Parameters:
 215:.\Generated_Source\PSoC5/isr_LOOP.c **** *   priority: Priority of the interrupt. 0 - 7, 0 being the highest.
 216:.\Generated_Source\PSoC5/isr_LOOP.c **** *
 217:.\Generated_Source\PSoC5/isr_LOOP.c **** * Return:
 218:.\Generated_Source\PSoC5/isr_LOOP.c **** *   None
 219:.\Generated_Source\PSoC5/isr_LOOP.c **** *
 220:.\Generated_Source\PSoC5/isr_LOOP.c **** *******************************************************************************/
 221:.\Generated_Source\PSoC5/isr_LOOP.c **** void isr_LOOP_SetPriority(uint8 priority)
 222:.\Generated_Source\PSoC5/isr_LOOP.c **** {
 259              		.loc 1 222 0
 260              		.cfi_startproc
 261              		@ args = 0, pretend = 0, frame = 8
 262              		@ frame_needed = 1, uses_anonymous_args = 0
 263              		@ link register save eliminated.
 264 0000 80B4     		push	{r7}
 265              	.LCFI15:
 266              		.cfi_def_cfa_offset 4
 267 0002 83B0     		sub	sp, sp, #12
 268              	.LCFI16:
 269              		.cfi_def_cfa_offset 16
 270 0004 00AF     		add	r7, sp, #0
 271              		.cfi_offset 7, -4
 272              	.LCFI17:
 273              		.cfi_def_cfa_register 7
 274 0006 0346     		mov	r3, r0
 275 0008 FB71     		strb	r3, [r7, #7]
 223:.\Generated_Source\PSoC5/isr_LOOP.c ****     *isr_LOOP_INTC_PRIOR = priority << 5;
 276              		.loc 1 223 0
 277 000a 4EF20043 		movw	r3, #:lower16:-536812544
 278 000e CEF20003 		movt	r3, #:upper16:-536812544
 279 0012 FA79     		ldrb	r2, [r7, #7]
 280 0014 4FEA4212 		lsl	r2, r2, #5
 281 0018 D2B2     		uxtb	r2, r2
 282 001a 1A70     		strb	r2, [r3, #0]
 224:.\Generated_Source\PSoC5/isr_LOOP.c **** }
 283              		.loc 1 224 0
 284 001c 07F10C07 		add	r7, r7, #12
 285 0020 BD46     		mov	sp, r7
ARM GAS  C:\Users\hoangp\AppData\Local\Temp\ccy8Ta6x.s 			page 10


 286 0022 80BC     		pop	{r7}
 287 0024 7047     		bx	lr
 288              		.cfi_endproc
 289              	.LFE6:
 290              		.size	isr_LOOP_SetPriority, .-isr_LOOP_SetPriority
 291 0026 00BF     		.section	.text.isr_LOOP_GetPriority,"ax",%progbits
 292              		.align	2
 293              		.global	isr_LOOP_GetPriority
 294              		.thumb
 295              		.thumb_func
 296              		.type	isr_LOOP_GetPriority, %function
 297              	isr_LOOP_GetPriority:
 298              	.LFB7:
 225:.\Generated_Source\PSoC5/isr_LOOP.c **** 
 226:.\Generated_Source\PSoC5/isr_LOOP.c **** 
 227:.\Generated_Source\PSoC5/isr_LOOP.c **** /*******************************************************************************
 228:.\Generated_Source\PSoC5/isr_LOOP.c **** * Function Name: isr_LOOP_GetPriority
 229:.\Generated_Source\PSoC5/isr_LOOP.c **** ********************************************************************************
 230:.\Generated_Source\PSoC5/isr_LOOP.c **** *
 231:.\Generated_Source\PSoC5/isr_LOOP.c **** * Summary:
 232:.\Generated_Source\PSoC5/isr_LOOP.c **** *   Gets the Priority of the Interrupt.
 233:.\Generated_Source\PSoC5/isr_LOOP.c **** *
 234:.\Generated_Source\PSoC5/isr_LOOP.c **** * Parameters:
 235:.\Generated_Source\PSoC5/isr_LOOP.c **** *   None
 236:.\Generated_Source\PSoC5/isr_LOOP.c **** *
 237:.\Generated_Source\PSoC5/isr_LOOP.c **** * Return:
 238:.\Generated_Source\PSoC5/isr_LOOP.c **** *   Priority of the interrupt. 0 - 7, 0 being the highest.
 239:.\Generated_Source\PSoC5/isr_LOOP.c **** *
 240:.\Generated_Source\PSoC5/isr_LOOP.c **** *******************************************************************************/
 241:.\Generated_Source\PSoC5/isr_LOOP.c **** uint8 isr_LOOP_GetPriority(void)
 242:.\Generated_Source\PSoC5/isr_LOOP.c **** {
 299              		.loc 1 242 0
 300              		.cfi_startproc
 301              		@ args = 0, pretend = 0, frame = 8
 302              		@ frame_needed = 1, uses_anonymous_args = 0
 303              		@ link register save eliminated.
 304 0000 80B4     		push	{r7}
 305              	.LCFI18:
 306              		.cfi_def_cfa_offset 4
 307 0002 83B0     		sub	sp, sp, #12
 308              	.LCFI19:
 309              		.cfi_def_cfa_offset 16
 310 0004 00AF     		add	r7, sp, #0
 311              		.cfi_offset 7, -4
 312              	.LCFI20:
 313              		.cfi_def_cfa_register 7
 243:.\Generated_Source\PSoC5/isr_LOOP.c ****     uint8 priority;
 244:.\Generated_Source\PSoC5/isr_LOOP.c **** 
 245:.\Generated_Source\PSoC5/isr_LOOP.c **** 
 246:.\Generated_Source\PSoC5/isr_LOOP.c ****     priority = *isr_LOOP_INTC_PRIOR >> 5;
 314              		.loc 1 246 0
 315 0006 4EF20043 		movw	r3, #:lower16:-536812544
 316 000a CEF20003 		movt	r3, #:upper16:-536812544
 317 000e 1B78     		ldrb	r3, [r3, #0]
 318 0010 DBB2     		uxtb	r3, r3
 319 0012 4FEA5313 		lsr	r3, r3, #5
 320 0016 FB71     		strb	r3, [r7, #7]
ARM GAS  C:\Users\hoangp\AppData\Local\Temp\ccy8Ta6x.s 			page 11


 247:.\Generated_Source\PSoC5/isr_LOOP.c **** 
 248:.\Generated_Source\PSoC5/isr_LOOP.c ****     return priority;
 321              		.loc 1 248 0
 322 0018 FB79     		ldrb	r3, [r7, #7]	@ zero_extendqisi2
 249:.\Generated_Source\PSoC5/isr_LOOP.c **** }
 323              		.loc 1 249 0
 324 001a 1846     		mov	r0, r3
 325 001c 07F10C07 		add	r7, r7, #12
 326 0020 BD46     		mov	sp, r7
 327 0022 80BC     		pop	{r7}
 328 0024 7047     		bx	lr
 329              		.cfi_endproc
 330              	.LFE7:
 331              		.size	isr_LOOP_GetPriority, .-isr_LOOP_GetPriority
 332 0026 00BF     		.section	.text.isr_LOOP_Enable,"ax",%progbits
 333              		.align	2
 334              		.global	isr_LOOP_Enable
 335              		.thumb
 336              		.thumb_func
 337              		.type	isr_LOOP_Enable, %function
 338              	isr_LOOP_Enable:
 339              	.LFB8:
 250:.\Generated_Source\PSoC5/isr_LOOP.c **** 
 251:.\Generated_Source\PSoC5/isr_LOOP.c **** 
 252:.\Generated_Source\PSoC5/isr_LOOP.c **** /*******************************************************************************
 253:.\Generated_Source\PSoC5/isr_LOOP.c **** * Function Name: isr_LOOP_Enable
 254:.\Generated_Source\PSoC5/isr_LOOP.c **** ********************************************************************************
 255:.\Generated_Source\PSoC5/isr_LOOP.c **** *
 256:.\Generated_Source\PSoC5/isr_LOOP.c **** * Summary:
 257:.\Generated_Source\PSoC5/isr_LOOP.c **** *   Enables the interrupt.
 258:.\Generated_Source\PSoC5/isr_LOOP.c **** *
 259:.\Generated_Source\PSoC5/isr_LOOP.c **** * Parameters:
 260:.\Generated_Source\PSoC5/isr_LOOP.c **** *   None
 261:.\Generated_Source\PSoC5/isr_LOOP.c **** *
 262:.\Generated_Source\PSoC5/isr_LOOP.c **** * Return:
 263:.\Generated_Source\PSoC5/isr_LOOP.c **** *   None
 264:.\Generated_Source\PSoC5/isr_LOOP.c **** *
 265:.\Generated_Source\PSoC5/isr_LOOP.c **** *******************************************************************************/
 266:.\Generated_Source\PSoC5/isr_LOOP.c **** void isr_LOOP_Enable(void)
 267:.\Generated_Source\PSoC5/isr_LOOP.c **** {
 340              		.loc 1 267 0
 341              		.cfi_startproc
 342              		@ args = 0, pretend = 0, frame = 0
 343              		@ frame_needed = 1, uses_anonymous_args = 0
 344              		@ link register save eliminated.
 345 0000 80B4     		push	{r7}
 346              	.LCFI21:
 347              		.cfi_def_cfa_offset 4
 348 0002 00AF     		add	r7, sp, #0
 349              		.cfi_offset 7, -4
 350              	.LCFI22:
 351              		.cfi_def_cfa_register 7
 268:.\Generated_Source\PSoC5/isr_LOOP.c ****     /* Enable the general interrupt. */
 269:.\Generated_Source\PSoC5/isr_LOOP.c ****     *isr_LOOP_INTC_SET_EN = isr_LOOP__INTC_MASK;
 352              		.loc 1 269 0
 353 0004 4EF20013 		movw	r3, #:lower16:-536813312
 354 0008 CEF20003 		movt	r3, #:upper16:-536813312
ARM GAS  C:\Users\hoangp\AppData\Local\Temp\ccy8Ta6x.s 			page 12


 355 000c 4FF00102 		mov	r2, #1
 356 0010 1A60     		str	r2, [r3, #0]
 270:.\Generated_Source\PSoC5/isr_LOOP.c **** }
 357              		.loc 1 270 0
 358 0012 BD46     		mov	sp, r7
 359 0014 80BC     		pop	{r7}
 360 0016 7047     		bx	lr
 361              		.cfi_endproc
 362              	.LFE8:
 363              		.size	isr_LOOP_Enable, .-isr_LOOP_Enable
 364              		.section	.text.isr_LOOP_GetState,"ax",%progbits
 365              		.align	2
 366              		.global	isr_LOOP_GetState
 367              		.thumb
 368              		.thumb_func
 369              		.type	isr_LOOP_GetState, %function
 370              	isr_LOOP_GetState:
 371              	.LFB9:
 271:.\Generated_Source\PSoC5/isr_LOOP.c **** 
 272:.\Generated_Source\PSoC5/isr_LOOP.c **** 
 273:.\Generated_Source\PSoC5/isr_LOOP.c **** /*******************************************************************************
 274:.\Generated_Source\PSoC5/isr_LOOP.c **** * Function Name: isr_LOOP_GetState
 275:.\Generated_Source\PSoC5/isr_LOOP.c **** ********************************************************************************
 276:.\Generated_Source\PSoC5/isr_LOOP.c **** *
 277:.\Generated_Source\PSoC5/isr_LOOP.c **** * Summary:
 278:.\Generated_Source\PSoC5/isr_LOOP.c **** *   Gets the state (enabled, disabled) of the Interrupt.
 279:.\Generated_Source\PSoC5/isr_LOOP.c **** *
 280:.\Generated_Source\PSoC5/isr_LOOP.c **** * Parameters:
 281:.\Generated_Source\PSoC5/isr_LOOP.c **** *   None
 282:.\Generated_Source\PSoC5/isr_LOOP.c **** *
 283:.\Generated_Source\PSoC5/isr_LOOP.c **** * Return:
 284:.\Generated_Source\PSoC5/isr_LOOP.c **** *   1 if enabled, 0 if disabled.
 285:.\Generated_Source\PSoC5/isr_LOOP.c **** *
 286:.\Generated_Source\PSoC5/isr_LOOP.c **** *******************************************************************************/
 287:.\Generated_Source\PSoC5/isr_LOOP.c **** uint8 isr_LOOP_GetState(void)
 288:.\Generated_Source\PSoC5/isr_LOOP.c **** {
 372              		.loc 1 288 0
 373              		.cfi_startproc
 374              		@ args = 0, pretend = 0, frame = 0
 375              		@ frame_needed = 1, uses_anonymous_args = 0
 376              		@ link register save eliminated.
 377 0000 80B4     		push	{r7}
 378              	.LCFI23:
 379              		.cfi_def_cfa_offset 4
 380 0002 00AF     		add	r7, sp, #0
 381              		.cfi_offset 7, -4
 382              	.LCFI24:
 383              		.cfi_def_cfa_register 7
 289:.\Generated_Source\PSoC5/isr_LOOP.c ****     /* Get the state of the general interrupt. */
 290:.\Generated_Source\PSoC5/isr_LOOP.c ****     return ((*isr_LOOP_INTC_SET_EN & (uint32)isr_LOOP__INTC_MASK) != 0u) ? 1u:0u;
 384              		.loc 1 290 0
 385 0004 4EF20013 		movw	r3, #:lower16:-536813312
 386 0008 CEF20003 		movt	r3, #:upper16:-536813312
 387 000c 1B68     		ldr	r3, [r3, #0]
 388 000e 03F00103 		and	r3, r3, #1
 389 0012 DBB2     		uxtb	r3, r3
 390 0014 002B     		cmp	r3, #0
ARM GAS  C:\Users\hoangp\AppData\Local\Temp\ccy8Ta6x.s 			page 13


 391 0016 02D0     		beq	.L20
 392 0018 4FF00103 		mov	r3, #1
 393 001c 01E0     		b	.L21
 394              	.L20:
 395 001e 4FF00003 		mov	r3, #0
 396              	.L21:
 291:.\Generated_Source\PSoC5/isr_LOOP.c **** }
 397              		.loc 1 291 0
 398 0022 1846     		mov	r0, r3
 399 0024 BD46     		mov	sp, r7
 400 0026 80BC     		pop	{r7}
 401 0028 7047     		bx	lr
 402              		.cfi_endproc
 403              	.LFE9:
 404              		.size	isr_LOOP_GetState, .-isr_LOOP_GetState
 405 002a 00BF     		.section	.text.isr_LOOP_Disable,"ax",%progbits
 406              		.align	2
 407              		.global	isr_LOOP_Disable
 408              		.thumb
 409              		.thumb_func
 410              		.type	isr_LOOP_Disable, %function
 411              	isr_LOOP_Disable:
 412              	.LFB10:
 292:.\Generated_Source\PSoC5/isr_LOOP.c **** 
 293:.\Generated_Source\PSoC5/isr_LOOP.c **** 
 294:.\Generated_Source\PSoC5/isr_LOOP.c **** /*******************************************************************************
 295:.\Generated_Source\PSoC5/isr_LOOP.c **** * Function Name: isr_LOOP_Disable
 296:.\Generated_Source\PSoC5/isr_LOOP.c **** ********************************************************************************
 297:.\Generated_Source\PSoC5/isr_LOOP.c **** *
 298:.\Generated_Source\PSoC5/isr_LOOP.c **** * Summary:
 299:.\Generated_Source\PSoC5/isr_LOOP.c **** *   Disables the Interrupt.
 300:.\Generated_Source\PSoC5/isr_LOOP.c **** *
 301:.\Generated_Source\PSoC5/isr_LOOP.c **** * Parameters:
 302:.\Generated_Source\PSoC5/isr_LOOP.c **** *   None
 303:.\Generated_Source\PSoC5/isr_LOOP.c **** *
 304:.\Generated_Source\PSoC5/isr_LOOP.c **** * Return:
 305:.\Generated_Source\PSoC5/isr_LOOP.c **** *   None
 306:.\Generated_Source\PSoC5/isr_LOOP.c **** *
 307:.\Generated_Source\PSoC5/isr_LOOP.c **** *******************************************************************************/
 308:.\Generated_Source\PSoC5/isr_LOOP.c **** void isr_LOOP_Disable(void)
 309:.\Generated_Source\PSoC5/isr_LOOP.c **** {
 413              		.loc 1 309 0
 414              		.cfi_startproc
 415              		@ args = 0, pretend = 0, frame = 0
 416              		@ frame_needed = 1, uses_anonymous_args = 0
 417              		@ link register save eliminated.
 418 0000 80B4     		push	{r7}
 419              	.LCFI25:
 420              		.cfi_def_cfa_offset 4
 421 0002 00AF     		add	r7, sp, #0
 422              		.cfi_offset 7, -4
 423              	.LCFI26:
 424              		.cfi_def_cfa_register 7
 310:.\Generated_Source\PSoC5/isr_LOOP.c ****     /* Disable the general interrupt. */
 311:.\Generated_Source\PSoC5/isr_LOOP.c ****     *isr_LOOP_INTC_CLR_EN = isr_LOOP__INTC_MASK;
 425              		.loc 1 311 0
 426 0004 4EF28013 		movw	r3, #:lower16:-536813184
ARM GAS  C:\Users\hoangp\AppData\Local\Temp\ccy8Ta6x.s 			page 14


 427 0008 CEF20003 		movt	r3, #:upper16:-536813184
 428 000c 4FF00102 		mov	r2, #1
 429 0010 1A60     		str	r2, [r3, #0]
 312:.\Generated_Source\PSoC5/isr_LOOP.c **** }
 430              		.loc 1 312 0
 431 0012 BD46     		mov	sp, r7
 432 0014 80BC     		pop	{r7}
 433 0016 7047     		bx	lr
 434              		.cfi_endproc
 435              	.LFE10:
 436              		.size	isr_LOOP_Disable, .-isr_LOOP_Disable
 437              		.section	.text.isr_LOOP_SetPending,"ax",%progbits
 438              		.align	2
 439              		.global	isr_LOOP_SetPending
 440              		.thumb
 441              		.thumb_func
 442              		.type	isr_LOOP_SetPending, %function
 443              	isr_LOOP_SetPending:
 444              	.LFB11:
 313:.\Generated_Source\PSoC5/isr_LOOP.c **** 
 314:.\Generated_Source\PSoC5/isr_LOOP.c **** 
 315:.\Generated_Source\PSoC5/isr_LOOP.c **** /*******************************************************************************
 316:.\Generated_Source\PSoC5/isr_LOOP.c **** * Function Name: isr_LOOP_SetPending
 317:.\Generated_Source\PSoC5/isr_LOOP.c **** ********************************************************************************
 318:.\Generated_Source\PSoC5/isr_LOOP.c **** *
 319:.\Generated_Source\PSoC5/isr_LOOP.c **** * Summary:
 320:.\Generated_Source\PSoC5/isr_LOOP.c **** *   Causes the Interrupt to enter the pending state, a software method of
 321:.\Generated_Source\PSoC5/isr_LOOP.c **** *   generating the interrupt.
 322:.\Generated_Source\PSoC5/isr_LOOP.c **** *
 323:.\Generated_Source\PSoC5/isr_LOOP.c **** * Parameters:
 324:.\Generated_Source\PSoC5/isr_LOOP.c **** *   None
 325:.\Generated_Source\PSoC5/isr_LOOP.c **** *
 326:.\Generated_Source\PSoC5/isr_LOOP.c **** * Return:
 327:.\Generated_Source\PSoC5/isr_LOOP.c **** *   None
 328:.\Generated_Source\PSoC5/isr_LOOP.c **** *
 329:.\Generated_Source\PSoC5/isr_LOOP.c **** *******************************************************************************/
 330:.\Generated_Source\PSoC5/isr_LOOP.c **** void isr_LOOP_SetPending(void)
 331:.\Generated_Source\PSoC5/isr_LOOP.c **** {
 445              		.loc 1 331 0
 446              		.cfi_startproc
 447              		@ args = 0, pretend = 0, frame = 0
 448              		@ frame_needed = 1, uses_anonymous_args = 0
 449              		@ link register save eliminated.
 450 0000 80B4     		push	{r7}
 451              	.LCFI27:
 452              		.cfi_def_cfa_offset 4
 453 0002 00AF     		add	r7, sp, #0
 454              		.cfi_offset 7, -4
 455              	.LCFI28:
 456              		.cfi_def_cfa_register 7
 332:.\Generated_Source\PSoC5/isr_LOOP.c ****     *isr_LOOP_INTC_SET_PD = isr_LOOP__INTC_MASK;
 457              		.loc 1 332 0
 458 0004 4EF20023 		movw	r3, #:lower16:-536813056
 459 0008 CEF20003 		movt	r3, #:upper16:-536813056
 460 000c 4FF00102 		mov	r2, #1
 461 0010 1A60     		str	r2, [r3, #0]
 333:.\Generated_Source\PSoC5/isr_LOOP.c **** }
ARM GAS  C:\Users\hoangp\AppData\Local\Temp\ccy8Ta6x.s 			page 15


 462              		.loc 1 333 0
 463 0012 BD46     		mov	sp, r7
 464 0014 80BC     		pop	{r7}
 465 0016 7047     		bx	lr
 466              		.cfi_endproc
 467              	.LFE11:
 468              		.size	isr_LOOP_SetPending, .-isr_LOOP_SetPending
 469              		.section	.text.isr_LOOP_ClearPending,"ax",%progbits
 470              		.align	2
 471              		.global	isr_LOOP_ClearPending
 472              		.thumb
 473              		.thumb_func
 474              		.type	isr_LOOP_ClearPending, %function
 475              	isr_LOOP_ClearPending:
 476              	.LFB12:
 334:.\Generated_Source\PSoC5/isr_LOOP.c **** 
 335:.\Generated_Source\PSoC5/isr_LOOP.c **** 
 336:.\Generated_Source\PSoC5/isr_LOOP.c **** /*******************************************************************************
 337:.\Generated_Source\PSoC5/isr_LOOP.c **** * Function Name: isr_LOOP_ClearPending
 338:.\Generated_Source\PSoC5/isr_LOOP.c **** ********************************************************************************
 339:.\Generated_Source\PSoC5/isr_LOOP.c **** *
 340:.\Generated_Source\PSoC5/isr_LOOP.c **** * Summary:
 341:.\Generated_Source\PSoC5/isr_LOOP.c **** *   Clears a pending interrupt.
 342:.\Generated_Source\PSoC5/isr_LOOP.c **** *
 343:.\Generated_Source\PSoC5/isr_LOOP.c **** * Parameters:
 344:.\Generated_Source\PSoC5/isr_LOOP.c **** *   None
 345:.\Generated_Source\PSoC5/isr_LOOP.c **** *
 346:.\Generated_Source\PSoC5/isr_LOOP.c **** * Return:
 347:.\Generated_Source\PSoC5/isr_LOOP.c **** *   None
 348:.\Generated_Source\PSoC5/isr_LOOP.c **** *
 349:.\Generated_Source\PSoC5/isr_LOOP.c **** *******************************************************************************/
 350:.\Generated_Source\PSoC5/isr_LOOP.c **** void isr_LOOP_ClearPending(void)
 351:.\Generated_Source\PSoC5/isr_LOOP.c **** {
 477              		.loc 1 351 0
 478              		.cfi_startproc
 479              		@ args = 0, pretend = 0, frame = 0
 480              		@ frame_needed = 1, uses_anonymous_args = 0
 481              		@ link register save eliminated.
 482 0000 80B4     		push	{r7}
 483              	.LCFI29:
 484              		.cfi_def_cfa_offset 4
 485 0002 00AF     		add	r7, sp, #0
 486              		.cfi_offset 7, -4
 487              	.LCFI30:
 488              		.cfi_def_cfa_register 7
 352:.\Generated_Source\PSoC5/isr_LOOP.c ****     *isr_LOOP_INTC_CLR_PD = isr_LOOP__INTC_MASK;
 489              		.loc 1 352 0
 490 0004 4EF28023 		movw	r3, #:lower16:-536812928
 491 0008 CEF20003 		movt	r3, #:upper16:-536812928
 492 000c 4FF00102 		mov	r2, #1
 493 0010 1A60     		str	r2, [r3, #0]
 353:.\Generated_Source\PSoC5/isr_LOOP.c **** }
 494              		.loc 1 353 0
 495 0012 BD46     		mov	sp, r7
 496 0014 80BC     		pop	{r7}
 497 0016 7047     		bx	lr
 498              		.cfi_endproc
ARM GAS  C:\Users\hoangp\AppData\Local\Temp\ccy8Ta6x.s 			page 16


 499              	.LFE12:
 500              		.size	isr_LOOP_ClearPending, .-isr_LOOP_ClearPending
 501              		.text
 502              	.Letext0: