ARM GAS  C:\Users\hoangp\AppData\Local\Temp\cc8KuxB9.s 			page 1


   1              		.syntax unified
   2              		.cpu cortex-m3
   3              		.fpu softvfp
   4              		.eabi_attribute 20, 1
   5              		.eabi_attribute 21, 1
   6              		.eabi_attribute 23, 3
   7              		.eabi_attribute 24, 1
   8              		.eabi_attribute 25, 1
   9              		.eabi_attribute 26, 1
  10              		.eabi_attribute 30, 6
  11              		.eabi_attribute 18, 4
  12              		.thumb
  13              		.file	"isr_spark_drq.c"
  20 0000 4C010000 		.text
  20      02006500 
  20      00000201 
  20      FB0E0D00 
  20      01010101 
  21              	.Ltext0:
  22              		.cfi_sections	.debug_frame
  23              		.section	.text.isr_spark_drq_Start,"ax",%progbits
  24              		.align	2
  25              		.global	isr_spark_drq_Start
  26              		.thumb
  27              		.thumb_func
  28              		.type	isr_spark_drq_Start, %function
  29              	isr_spark_drq_Start:
  30              	.LFB0:
  31              		.file 1 ".\\Generated_Source\\PSoC5\\isr_spark_drq.c"
   1:.\Generated_Source\PSoC5/isr_spark_drq.c **** /*******************************************************************************
   2:.\Generated_Source\PSoC5/isr_spark_drq.c **** * File Name: isr_spark_drq.c  
   3:.\Generated_Source\PSoC5/isr_spark_drq.c **** * Version 1.70
   4:.\Generated_Source\PSoC5/isr_spark_drq.c **** *
   5:.\Generated_Source\PSoC5/isr_spark_drq.c **** *  Description:
   6:.\Generated_Source\PSoC5/isr_spark_drq.c **** *   API for controlling the state of an interrupt.
   7:.\Generated_Source\PSoC5/isr_spark_drq.c **** *
   8:.\Generated_Source\PSoC5/isr_spark_drq.c **** *
   9:.\Generated_Source\PSoC5/isr_spark_drq.c **** *  Note:
  10:.\Generated_Source\PSoC5/isr_spark_drq.c **** *
  11:.\Generated_Source\PSoC5/isr_spark_drq.c **** ********************************************************************************
  12:.\Generated_Source\PSoC5/isr_spark_drq.c **** * Copyright 2008-2012, Cypress Semiconductor Corporation.  All rights reserved.
  13:.\Generated_Source\PSoC5/isr_spark_drq.c **** * You may use this file only in accordance with the license, terms, conditions, 
  14:.\Generated_Source\PSoC5/isr_spark_drq.c **** * disclaimers, and limitations in the end user license agreement accompanying 
  15:.\Generated_Source\PSoC5/isr_spark_drq.c **** * the software package with which this file was provided.
  16:.\Generated_Source\PSoC5/isr_spark_drq.c **** *******************************************************************************/
  17:.\Generated_Source\PSoC5/isr_spark_drq.c **** 
  18:.\Generated_Source\PSoC5/isr_spark_drq.c **** 
  19:.\Generated_Source\PSoC5/isr_spark_drq.c **** #include <CYDEVICE_TRM.H>
  20:.\Generated_Source\PSoC5/isr_spark_drq.c **** #include <CYLIB.H>
  21:.\Generated_Source\PSoC5/isr_spark_drq.c **** #include <isr_spark_drq.H>
  22:.\Generated_Source\PSoC5/isr_spark_drq.c **** 
ARM GAS  C:\Users\hoangp\AppData\Local\Temp\cc8KuxB9.s 			page 2


  23:.\Generated_Source\PSoC5/isr_spark_drq.c **** #if !defined(isr_spark_drq__REMOVED) /* Check for removal by optimization */
  24:.\Generated_Source\PSoC5/isr_spark_drq.c **** 
  25:.\Generated_Source\PSoC5/isr_spark_drq.c **** /*******************************************************************************
  26:.\Generated_Source\PSoC5/isr_spark_drq.c **** *  Place your includes, defines and code here 
  27:.\Generated_Source\PSoC5/isr_spark_drq.c **** ********************************************************************************/
  28:.\Generated_Source\PSoC5/isr_spark_drq.c **** /* `#START isr_spark_drq_intc` */
  29:.\Generated_Source\PSoC5/isr_spark_drq.c **** extern int16 buffvolt;
  30:.\Generated_Source\PSoC5/isr_spark_drq.c **** extern uint32 rmsvolt;
  31:.\Generated_Source\PSoC5/isr_spark_drq.c **** /* `#END` */
  32:.\Generated_Source\PSoC5/isr_spark_drq.c **** 
  33:.\Generated_Source\PSoC5/isr_spark_drq.c **** #ifndef CYINT_IRQ_BASE
  34:.\Generated_Source\PSoC5/isr_spark_drq.c **** #define CYINT_IRQ_BASE      16
  35:.\Generated_Source\PSoC5/isr_spark_drq.c **** #endif /* CYINT_IRQ_BASE */
  36:.\Generated_Source\PSoC5/isr_spark_drq.c **** #ifndef CYINT_VECT_TABLE
  37:.\Generated_Source\PSoC5/isr_spark_drq.c **** #define CYINT_VECT_TABLE    ((cyisraddress **) CYREG_NVIC_VECT_OFFSET)
  38:.\Generated_Source\PSoC5/isr_spark_drq.c **** #endif /* CYINT_VECT_TABLE */
  39:.\Generated_Source\PSoC5/isr_spark_drq.c **** 
  40:.\Generated_Source\PSoC5/isr_spark_drq.c **** /* Declared in startup, used to set unused interrupts to. */
  41:.\Generated_Source\PSoC5/isr_spark_drq.c **** CY_ISR_PROTO(IntDefaultHandler);
  42:.\Generated_Source\PSoC5/isr_spark_drq.c **** 
  43:.\Generated_Source\PSoC5/isr_spark_drq.c **** 
  44:.\Generated_Source\PSoC5/isr_spark_drq.c **** /*******************************************************************************
  45:.\Generated_Source\PSoC5/isr_spark_drq.c **** * Function Name: isr_spark_drq_Start
  46:.\Generated_Source\PSoC5/isr_spark_drq.c **** ********************************************************************************
  47:.\Generated_Source\PSoC5/isr_spark_drq.c **** *
  48:.\Generated_Source\PSoC5/isr_spark_drq.c **** * Summary:
  49:.\Generated_Source\PSoC5/isr_spark_drq.c **** *  Set up the interrupt and enable it.
  50:.\Generated_Source\PSoC5/isr_spark_drq.c **** *
  51:.\Generated_Source\PSoC5/isr_spark_drq.c **** * Parameters:  
  52:.\Generated_Source\PSoC5/isr_spark_drq.c **** *   None
  53:.\Generated_Source\PSoC5/isr_spark_drq.c **** *
  54:.\Generated_Source\PSoC5/isr_spark_drq.c **** * Return:
  55:.\Generated_Source\PSoC5/isr_spark_drq.c **** *   None
  56:.\Generated_Source\PSoC5/isr_spark_drq.c **** *
  57:.\Generated_Source\PSoC5/isr_spark_drq.c **** *******************************************************************************/
  58:.\Generated_Source\PSoC5/isr_spark_drq.c **** void isr_spark_drq_Start(void)
  59:.\Generated_Source\PSoC5/isr_spark_drq.c **** {
  32              		.loc 1 59 0
  33              		.cfi_startproc
  34              		@ args = 0, pretend = 0, frame = 0
  35              		@ frame_needed = 1, uses_anonymous_args = 0
  36 0000 80B5     		push	{r7, lr}
  37              	.LCFI0:
  38              		.cfi_def_cfa_offset 8
  39 0002 00AF     		add	r7, sp, #0
  40              		.cfi_offset 14, -4
  41              		.cfi_offset 7, -8
  42              	.LCFI1:
  43              		.cfi_def_cfa_register 7
  60:.\Generated_Source\PSoC5/isr_spark_drq.c ****     /* For all we know the interrupt is active. */
  61:.\Generated_Source\PSoC5/isr_spark_drq.c ****     isr_spark_drq_Disable();
  44              		.loc 1 61 0
  45 0004 FFF7FEFF 		bl	isr_spark_drq_Disable
  62:.\Generated_Source\PSoC5/isr_spark_drq.c **** 
  63:.\Generated_Source\PSoC5/isr_spark_drq.c ****     /* Set the ISR to point to the isr_spark_drq Interrupt. */
  64:.\Generated_Source\PSoC5/isr_spark_drq.c ****     isr_spark_drq_SetVector(&isr_spark_drq_Interrupt);
  46              		.loc 1 64 0
ARM GAS  C:\Users\hoangp\AppData\Local\Temp\cc8KuxB9.s 			page 3


  47 0008 40F20000 		movw	r0, #:lower16:isr_spark_drq_Interrupt
  48 000c C0F20000 		movt	r0, #:upper16:isr_spark_drq_Interrupt
  49 0010 FFF7FEFF 		bl	isr_spark_drq_SetVector
  65:.\Generated_Source\PSoC5/isr_spark_drq.c **** 
  66:.\Generated_Source\PSoC5/isr_spark_drq.c ****     /* Set the priority. */
  67:.\Generated_Source\PSoC5/isr_spark_drq.c ****     isr_spark_drq_SetPriority((uint8)isr_spark_drq_INTC_PRIOR_NUMBER);
  50              		.loc 1 67 0
  51 0014 4FF00100 		mov	r0, #1
  52 0018 FFF7FEFF 		bl	isr_spark_drq_SetPriority
  68:.\Generated_Source\PSoC5/isr_spark_drq.c **** 
  69:.\Generated_Source\PSoC5/isr_spark_drq.c ****     /* Enable it. */
  70:.\Generated_Source\PSoC5/isr_spark_drq.c ****     isr_spark_drq_Enable();
  53              		.loc 1 70 0
  54 001c FFF7FEFF 		bl	isr_spark_drq_Enable
  71:.\Generated_Source\PSoC5/isr_spark_drq.c **** }
  55              		.loc 1 71 0
  56 0020 80BD     		pop	{r7, pc}
  57              		.cfi_endproc
  58              	.LFE0:
  59              		.size	isr_spark_drq_Start, .-isr_spark_drq_Start
  60 0022 00BF     		.section	.text.isr_spark_drq_StartEx,"ax",%progbits
  61              		.align	2
  62              		.global	isr_spark_drq_StartEx
  63              		.thumb
  64              		.thumb_func
  65              		.type	isr_spark_drq_StartEx, %function
  66              	isr_spark_drq_StartEx:
  67              	.LFB1:
  72:.\Generated_Source\PSoC5/isr_spark_drq.c **** 
  73:.\Generated_Source\PSoC5/isr_spark_drq.c **** 
  74:.\Generated_Source\PSoC5/isr_spark_drq.c **** /*******************************************************************************
  75:.\Generated_Source\PSoC5/isr_spark_drq.c **** * Function Name: isr_spark_drq_StartEx
  76:.\Generated_Source\PSoC5/isr_spark_drq.c **** ********************************************************************************
  77:.\Generated_Source\PSoC5/isr_spark_drq.c **** *
  78:.\Generated_Source\PSoC5/isr_spark_drq.c **** * Summary:
  79:.\Generated_Source\PSoC5/isr_spark_drq.c **** *  Set up the interrupt and enable it.
  80:.\Generated_Source\PSoC5/isr_spark_drq.c **** *
  81:.\Generated_Source\PSoC5/isr_spark_drq.c **** * Parameters:  
  82:.\Generated_Source\PSoC5/isr_spark_drq.c **** *   address: Address of the ISR to set in the interrupt vector table.
  83:.\Generated_Source\PSoC5/isr_spark_drq.c **** *
  84:.\Generated_Source\PSoC5/isr_spark_drq.c **** * Return:
  85:.\Generated_Source\PSoC5/isr_spark_drq.c **** *   None
  86:.\Generated_Source\PSoC5/isr_spark_drq.c **** *
  87:.\Generated_Source\PSoC5/isr_spark_drq.c **** *******************************************************************************/
  88:.\Generated_Source\PSoC5/isr_spark_drq.c **** void isr_spark_drq_StartEx(cyisraddress address)
  89:.\Generated_Source\PSoC5/isr_spark_drq.c **** {
  68              		.loc 1 89 0
  69              		.cfi_startproc
  70              		@ args = 0, pretend = 0, frame = 8
  71              		@ frame_needed = 1, uses_anonymous_args = 0
  72 0000 80B5     		push	{r7, lr}
  73              	.LCFI2:
  74              		.cfi_def_cfa_offset 8
  75 0002 82B0     		sub	sp, sp, #8
  76              	.LCFI3:
  77              		.cfi_def_cfa_offset 16
  78 0004 00AF     		add	r7, sp, #0
ARM GAS  C:\Users\hoangp\AppData\Local\Temp\cc8KuxB9.s 			page 4


  79              		.cfi_offset 14, -4
  80              		.cfi_offset 7, -8
  81              	.LCFI4:
  82              		.cfi_def_cfa_register 7
  83 0006 7860     		str	r0, [r7, #4]
  90:.\Generated_Source\PSoC5/isr_spark_drq.c ****     /* For all we know the interrupt is active. */
  91:.\Generated_Source\PSoC5/isr_spark_drq.c ****     isr_spark_drq_Disable();
  84              		.loc 1 91 0
  85 0008 FFF7FEFF 		bl	isr_spark_drq_Disable
  92:.\Generated_Source\PSoC5/isr_spark_drq.c **** 
  93:.\Generated_Source\PSoC5/isr_spark_drq.c ****     /* Set the ISR to point to the isr_spark_drq Interrupt. */
  94:.\Generated_Source\PSoC5/isr_spark_drq.c ****     isr_spark_drq_SetVector(address);
  86              		.loc 1 94 0
  87 000c 7868     		ldr	r0, [r7, #4]
  88 000e FFF7FEFF 		bl	isr_spark_drq_SetVector
  95:.\Generated_Source\PSoC5/isr_spark_drq.c **** 
  96:.\Generated_Source\PSoC5/isr_spark_drq.c ****     /* Set the priority. */
  97:.\Generated_Source\PSoC5/isr_spark_drq.c ****     isr_spark_drq_SetPriority((uint8)isr_spark_drq_INTC_PRIOR_NUMBER);
  89              		.loc 1 97 0
  90 0012 4FF00100 		mov	r0, #1
  91 0016 FFF7FEFF 		bl	isr_spark_drq_SetPriority
  98:.\Generated_Source\PSoC5/isr_spark_drq.c **** 
  99:.\Generated_Source\PSoC5/isr_spark_drq.c ****     /* Enable it. */
 100:.\Generated_Source\PSoC5/isr_spark_drq.c ****     isr_spark_drq_Enable();
  92              		.loc 1 100 0
  93 001a FFF7FEFF 		bl	isr_spark_drq_Enable
 101:.\Generated_Source\PSoC5/isr_spark_drq.c **** }
  94              		.loc 1 101 0
  95 001e 07F10807 		add	r7, r7, #8
  96 0022 BD46     		mov	sp, r7
  97 0024 80BD     		pop	{r7, pc}
  98              		.cfi_endproc
  99              	.LFE1:
 100              		.size	isr_spark_drq_StartEx, .-isr_spark_drq_StartEx
 101 0026 00BF     		.section	.text.isr_spark_drq_Stop,"ax",%progbits
 102              		.align	2
 103              		.global	isr_spark_drq_Stop
 104              		.thumb
 105              		.thumb_func
 106              		.type	isr_spark_drq_Stop, %function
 107              	isr_spark_drq_Stop:
 108              	.LFB2:
 102:.\Generated_Source\PSoC5/isr_spark_drq.c **** 
 103:.\Generated_Source\PSoC5/isr_spark_drq.c **** 
 104:.\Generated_Source\PSoC5/isr_spark_drq.c **** /*******************************************************************************
 105:.\Generated_Source\PSoC5/isr_spark_drq.c **** * Function Name: isr_spark_drq_Stop
 106:.\Generated_Source\PSoC5/isr_spark_drq.c **** ********************************************************************************
 107:.\Generated_Source\PSoC5/isr_spark_drq.c **** *
 108:.\Generated_Source\PSoC5/isr_spark_drq.c **** * Summary:
 109:.\Generated_Source\PSoC5/isr_spark_drq.c **** *   Disables and removes the interrupt.
 110:.\Generated_Source\PSoC5/isr_spark_drq.c **** *
 111:.\Generated_Source\PSoC5/isr_spark_drq.c **** * Parameters:  
 112:.\Generated_Source\PSoC5/isr_spark_drq.c **** *
 113:.\Generated_Source\PSoC5/isr_spark_drq.c **** * Return:
 114:.\Generated_Source\PSoC5/isr_spark_drq.c **** *   None
 115:.\Generated_Source\PSoC5/isr_spark_drq.c **** *
 116:.\Generated_Source\PSoC5/isr_spark_drq.c **** *******************************************************************************/
ARM GAS  C:\Users\hoangp\AppData\Local\Temp\cc8KuxB9.s 			page 5


 117:.\Generated_Source\PSoC5/isr_spark_drq.c **** void isr_spark_drq_Stop(void)
 118:.\Generated_Source\PSoC5/isr_spark_drq.c **** {
 109              		.loc 1 118 0
 110              		.cfi_startproc
 111              		@ args = 0, pretend = 0, frame = 0
 112              		@ frame_needed = 1, uses_anonymous_args = 0
 113 0000 80B5     		push	{r7, lr}
 114              	.LCFI5:
 115              		.cfi_def_cfa_offset 8
 116 0002 00AF     		add	r7, sp, #0
 117              		.cfi_offset 14, -4
 118              		.cfi_offset 7, -8
 119              	.LCFI6:
 120              		.cfi_def_cfa_register 7
 119:.\Generated_Source\PSoC5/isr_spark_drq.c ****     /* Disable this interrupt. */
 120:.\Generated_Source\PSoC5/isr_spark_drq.c ****     isr_spark_drq_Disable();
 121              		.loc 1 120 0
 122 0004 FFF7FEFF 		bl	isr_spark_drq_Disable
 121:.\Generated_Source\PSoC5/isr_spark_drq.c **** 
 122:.\Generated_Source\PSoC5/isr_spark_drq.c ****     /* Set the ISR to point to the passive one. */
 123:.\Generated_Source\PSoC5/isr_spark_drq.c ****     isr_spark_drq_SetVector(&IntDefaultHandler);
 123              		.loc 1 123 0
 124 0008 40F20000 		movw	r0, #:lower16:IntDefaultHandler
 125 000c C0F20000 		movt	r0, #:upper16:IntDefaultHandler
 126 0010 FFF7FEFF 		bl	isr_spark_drq_SetVector
 124:.\Generated_Source\PSoC5/isr_spark_drq.c **** }
 127              		.loc 1 124 0
 128 0014 80BD     		pop	{r7, pc}
 129              		.cfi_endproc
 130              	.LFE2:
 131              		.size	isr_spark_drq_Stop, .-isr_spark_drq_Stop
 132 0016 00BF     		.section	.text.isr_spark_drq_SetVector,"ax",%progbits
 133              		.align	2
 134              		.global	isr_spark_drq_SetVector
 135              		.thumb
 136              		.thumb_func
 137              		.type	isr_spark_drq_SetVector, %function
 138              	isr_spark_drq_SetVector:
 139              	.LFB3:
 125:.\Generated_Source\PSoC5/isr_spark_drq.c **** 
 126:.\Generated_Source\PSoC5/isr_spark_drq.c **** 
 127:.\Generated_Source\PSoC5/isr_spark_drq.c **** /*******************************************************************************
 128:.\Generated_Source\PSoC5/isr_spark_drq.c **** * Function Name: isr_spark_drq_Interrupt
 129:.\Generated_Source\PSoC5/isr_spark_drq.c **** ********************************************************************************
 130:.\Generated_Source\PSoC5/isr_spark_drq.c **** *
 131:.\Generated_Source\PSoC5/isr_spark_drq.c **** * Summary:
 132:.\Generated_Source\PSoC5/isr_spark_drq.c **** *   The default Interrupt Service Routine for isr_spark_drq.
 133:.\Generated_Source\PSoC5/isr_spark_drq.c **** *
 134:.\Generated_Source\PSoC5/isr_spark_drq.c **** *   Add custom code between the coments to keep the next version of this file
 135:.\Generated_Source\PSoC5/isr_spark_drq.c **** *   from over writting your code.
 136:.\Generated_Source\PSoC5/isr_spark_drq.c **** *
 137:.\Generated_Source\PSoC5/isr_spark_drq.c **** * Parameters:  
 138:.\Generated_Source\PSoC5/isr_spark_drq.c **** *
 139:.\Generated_Source\PSoC5/isr_spark_drq.c **** * Return:
 140:.\Generated_Source\PSoC5/isr_spark_drq.c **** *   None
 141:.\Generated_Source\PSoC5/isr_spark_drq.c **** *
 142:.\Generated_Source\PSoC5/isr_spark_drq.c **** *******************************************************************************/
ARM GAS  C:\Users\hoangp\AppData\Local\Temp\cc8KuxB9.s 			page 6


 143:.\Generated_Source\PSoC5/isr_spark_drq.c **** 
 144:.\Generated_Source\PSoC5/isr_spark_drq.c **** 
 145:.\Generated_Source\PSoC5/isr_spark_drq.c **** 
 146:.\Generated_Source\PSoC5/isr_spark_drq.c **** /*******************************************************************************
 147:.\Generated_Source\PSoC5/isr_spark_drq.c **** * Function Name: isr_spark_drq_SetVector
 148:.\Generated_Source\PSoC5/isr_spark_drq.c **** ********************************************************************************
 149:.\Generated_Source\PSoC5/isr_spark_drq.c **** *
 150:.\Generated_Source\PSoC5/isr_spark_drq.c **** * Summary:
 151:.\Generated_Source\PSoC5/isr_spark_drq.c **** *   Change the ISR vector for the Interrupt. Note calling isr_spark_drq_Start
 152:.\Generated_Source\PSoC5/isr_spark_drq.c **** *   will override any effect this method would have had. To set the vector 
 153:.\Generated_Source\PSoC5/isr_spark_drq.c **** *   before the component has been started use isr_spark_drq_StartEx instead.
 154:.\Generated_Source\PSoC5/isr_spark_drq.c **** *
 155:.\Generated_Source\PSoC5/isr_spark_drq.c **** * Parameters:
 156:.\Generated_Source\PSoC5/isr_spark_drq.c **** *   address: Address of the ISR to set in the interrupt vector table.
 157:.\Generated_Source\PSoC5/isr_spark_drq.c **** *
 158:.\Generated_Source\PSoC5/isr_spark_drq.c **** * Return:
 159:.\Generated_Source\PSoC5/isr_spark_drq.c **** *   None
 160:.\Generated_Source\PSoC5/isr_spark_drq.c **** *
 161:.\Generated_Source\PSoC5/isr_spark_drq.c **** *******************************************************************************/
 162:.\Generated_Source\PSoC5/isr_spark_drq.c **** void isr_spark_drq_SetVector(cyisraddress address)
 163:.\Generated_Source\PSoC5/isr_spark_drq.c **** {
 140              		.loc 1 163 0
 141              		.cfi_startproc
 142              		@ args = 0, pretend = 0, frame = 16
 143              		@ frame_needed = 1, uses_anonymous_args = 0
 144              		@ link register save eliminated.
 145 0000 80B4     		push	{r7}
 146              	.LCFI7:
 147              		.cfi_def_cfa_offset 4
 148 0002 85B0     		sub	sp, sp, #20
 149              	.LCFI8:
 150              		.cfi_def_cfa_offset 24
 151 0004 00AF     		add	r7, sp, #0
 152              		.cfi_offset 7, -4
 153              	.LCFI9:
 154              		.cfi_def_cfa_register 7
 155 0006 7860     		str	r0, [r7, #4]
 164:.\Generated_Source\PSoC5/isr_spark_drq.c ****     cyisraddress * ramVectorTable;
 165:.\Generated_Source\PSoC5/isr_spark_drq.c **** 
 166:.\Generated_Source\PSoC5/isr_spark_drq.c ****     ramVectorTable = (cyisraddress *) *CYINT_VECT_TABLE;
 156              		.loc 1 166 0
 157 0008 4EF60853 		movw	r3, #:lower16:-536810232
 158 000c CEF20003 		movt	r3, #:upper16:-536810232
 159 0010 1B68     		ldr	r3, [r3, #0]
 160 0012 FB60     		str	r3, [r7, #12]
 167:.\Generated_Source\PSoC5/isr_spark_drq.c **** 
 168:.\Generated_Source\PSoC5/isr_spark_drq.c ****     ramVectorTable[CYINT_IRQ_BASE + (uint32)isr_spark_drq__INTC_NUMBER] = address;
 161              		.loc 1 168 0
 162 0014 FB68     		ldr	r3, [r7, #12]
 163 0016 03F14003 		add	r3, r3, #64
 164 001a 7A68     		ldr	r2, [r7, #4]
 165 001c 1A60     		str	r2, [r3, #0]
 169:.\Generated_Source\PSoC5/isr_spark_drq.c **** }
 166              		.loc 1 169 0
 167 001e 07F11407 		add	r7, r7, #20
 168 0022 BD46     		mov	sp, r7
 169 0024 80BC     		pop	{r7}
ARM GAS  C:\Users\hoangp\AppData\Local\Temp\cc8KuxB9.s 			page 7


 170 0026 7047     		bx	lr
 171              		.cfi_endproc
 172              	.LFE3:
 173              		.size	isr_spark_drq_SetVector, .-isr_spark_drq_SetVector
 174              		.section	.text.isr_spark_drq_GetVector,"ax",%progbits
 175              		.align	2
 176              		.global	isr_spark_drq_GetVector
 177              		.thumb
 178              		.thumb_func
 179              		.type	isr_spark_drq_GetVector, %function
 180              	isr_spark_drq_GetVector:
 181              	.LFB4:
 170:.\Generated_Source\PSoC5/isr_spark_drq.c **** 
 171:.\Generated_Source\PSoC5/isr_spark_drq.c **** 
 172:.\Generated_Source\PSoC5/isr_spark_drq.c **** /*******************************************************************************
 173:.\Generated_Source\PSoC5/isr_spark_drq.c **** * Function Name: isr_spark_drq_GetVector
 174:.\Generated_Source\PSoC5/isr_spark_drq.c **** ********************************************************************************
 175:.\Generated_Source\PSoC5/isr_spark_drq.c **** *
 176:.\Generated_Source\PSoC5/isr_spark_drq.c **** * Summary:
 177:.\Generated_Source\PSoC5/isr_spark_drq.c **** *   Gets the "address" of the current ISR vector for the Interrupt.
 178:.\Generated_Source\PSoC5/isr_spark_drq.c **** *
 179:.\Generated_Source\PSoC5/isr_spark_drq.c **** * Parameters:
 180:.\Generated_Source\PSoC5/isr_spark_drq.c **** *   None
 181:.\Generated_Source\PSoC5/isr_spark_drq.c **** *
 182:.\Generated_Source\PSoC5/isr_spark_drq.c **** * Return:
 183:.\Generated_Source\PSoC5/isr_spark_drq.c **** *   Address of the ISR in the interrupt vector table.
 184:.\Generated_Source\PSoC5/isr_spark_drq.c **** *
 185:.\Generated_Source\PSoC5/isr_spark_drq.c **** *******************************************************************************/
 186:.\Generated_Source\PSoC5/isr_spark_drq.c **** cyisraddress isr_spark_drq_GetVector(void)
 187:.\Generated_Source\PSoC5/isr_spark_drq.c **** {
 182              		.loc 1 187 0
 183              		.cfi_startproc
 184              		@ args = 0, pretend = 0, frame = 8
 185              		@ frame_needed = 1, uses_anonymous_args = 0
 186              		@ link register save eliminated.
 187 0000 80B4     		push	{r7}
 188              	.LCFI10:
 189              		.cfi_def_cfa_offset 4
 190 0002 83B0     		sub	sp, sp, #12
 191              	.LCFI11:
 192              		.cfi_def_cfa_offset 16
 193 0004 00AF     		add	r7, sp, #0
 194              		.cfi_offset 7, -4
 195              	.LCFI12:
 196              		.cfi_def_cfa_register 7
 188:.\Generated_Source\PSoC5/isr_spark_drq.c ****     cyisraddress * ramVectorTable;
 189:.\Generated_Source\PSoC5/isr_spark_drq.c **** 
 190:.\Generated_Source\PSoC5/isr_spark_drq.c ****     ramVectorTable = (cyisraddress *) *CYINT_VECT_TABLE;
 197              		.loc 1 190 0
 198 0006 4EF60853 		movw	r3, #:lower16:-536810232
 199 000a CEF20003 		movt	r3, #:upper16:-536810232
 200 000e 1B68     		ldr	r3, [r3, #0]
 201 0010 7B60     		str	r3, [r7, #4]
 191:.\Generated_Source\PSoC5/isr_spark_drq.c **** 
 192:.\Generated_Source\PSoC5/isr_spark_drq.c ****     return ramVectorTable[CYINT_IRQ_BASE + (uint32)isr_spark_drq__INTC_NUMBER];
 202              		.loc 1 192 0
 203 0012 7B68     		ldr	r3, [r7, #4]
ARM GAS  C:\Users\hoangp\AppData\Local\Temp\cc8KuxB9.s 			page 8


 204 0014 03F14003 		add	r3, r3, #64
 205 0018 1B68     		ldr	r3, [r3, #0]
 193:.\Generated_Source\PSoC5/isr_spark_drq.c **** }
 206              		.loc 1 193 0
 207 001a 1846     		mov	r0, r3
 208 001c 07F10C07 		add	r7, r7, #12
 209 0020 BD46     		mov	sp, r7
 210 0022 80BC     		pop	{r7}
 211 0024 7047     		bx	lr
 212              		.cfi_endproc
 213              	.LFE4:
 214              		.size	isr_spark_drq_GetVector, .-isr_spark_drq_GetVector
 215 0026 00BF     		.section	.text.isr_spark_drq_SetPriority,"ax",%progbits
 216              		.align	2
 217              		.global	isr_spark_drq_SetPriority
 218              		.thumb
 219              		.thumb_func
 220              		.type	isr_spark_drq_SetPriority, %function
 221              	isr_spark_drq_SetPriority:
 222              	.LFB5:
 194:.\Generated_Source\PSoC5/isr_spark_drq.c **** 
 195:.\Generated_Source\PSoC5/isr_spark_drq.c **** 
 196:.\Generated_Source\PSoC5/isr_spark_drq.c **** /*******************************************************************************
 197:.\Generated_Source\PSoC5/isr_spark_drq.c **** * Function Name: isr_spark_drq_SetPriority
 198:.\Generated_Source\PSoC5/isr_spark_drq.c **** ********************************************************************************
 199:.\Generated_Source\PSoC5/isr_spark_drq.c **** *
 200:.\Generated_Source\PSoC5/isr_spark_drq.c **** * Summary:
 201:.\Generated_Source\PSoC5/isr_spark_drq.c **** *   Sets the Priority of the Interrupt. Note calling isr_spark_drq_Start
 202:.\Generated_Source\PSoC5/isr_spark_drq.c **** *   or isr_spark_drq_StartEx will override any effect this method 
 203:.\Generated_Source\PSoC5/isr_spark_drq.c **** *   would have had. This method should only be called after 
 204:.\Generated_Source\PSoC5/isr_spark_drq.c **** *   isr_spark_drq_Start or isr_spark_drq_StartEx has been called. To set 
 205:.\Generated_Source\PSoC5/isr_spark_drq.c **** *   the initial priority for the component use the cydwr file in the tool.
 206:.\Generated_Source\PSoC5/isr_spark_drq.c **** *
 207:.\Generated_Source\PSoC5/isr_spark_drq.c **** * Parameters:
 208:.\Generated_Source\PSoC5/isr_spark_drq.c **** *   priority: Priority of the interrupt. 0 - 7, 0 being the highest.
 209:.\Generated_Source\PSoC5/isr_spark_drq.c **** *
 210:.\Generated_Source\PSoC5/isr_spark_drq.c **** * Return:
 211:.\Generated_Source\PSoC5/isr_spark_drq.c **** *   None
 212:.\Generated_Source\PSoC5/isr_spark_drq.c **** *
 213:.\Generated_Source\PSoC5/isr_spark_drq.c **** *******************************************************************************/
 214:.\Generated_Source\PSoC5/isr_spark_drq.c **** void isr_spark_drq_SetPriority(uint8 priority)
 215:.\Generated_Source\PSoC5/isr_spark_drq.c **** {
 223              		.loc 1 215 0
 224              		.cfi_startproc
 225              		@ args = 0, pretend = 0, frame = 8
 226              		@ frame_needed = 1, uses_anonymous_args = 0
 227              		@ link register save eliminated.
 228 0000 80B4     		push	{r7}
 229              	.LCFI13:
 230              		.cfi_def_cfa_offset 4
 231 0002 83B0     		sub	sp, sp, #12
 232              	.LCFI14:
 233              		.cfi_def_cfa_offset 16
 234 0004 00AF     		add	r7, sp, #0
 235              		.cfi_offset 7, -4
 236              	.LCFI15:
 237              		.cfi_def_cfa_register 7
ARM GAS  C:\Users\hoangp\AppData\Local\Temp\cc8KuxB9.s 			page 9


 238 0006 0346     		mov	r3, r0
 239 0008 FB71     		strb	r3, [r7, #7]
 216:.\Generated_Source\PSoC5/isr_spark_drq.c ****     *isr_spark_drq_INTC_PRIOR = priority << 5;
 240              		.loc 1 216 0
 241 000a 4EF20043 		movw	r3, #:lower16:-536812544
 242 000e CEF20003 		movt	r3, #:upper16:-536812544
 243 0012 FA79     		ldrb	r2, [r7, #7]
 244 0014 4FEA4212 		lsl	r2, r2, #5
 245 0018 D2B2     		uxtb	r2, r2
 246 001a 1A70     		strb	r2, [r3, #0]
 217:.\Generated_Source\PSoC5/isr_spark_drq.c **** }
 247              		.loc 1 217 0
 248 001c 07F10C07 		add	r7, r7, #12
 249 0020 BD46     		mov	sp, r7
 250 0022 80BC     		pop	{r7}
 251 0024 7047     		bx	lr
 252              		.cfi_endproc
 253              	.LFE5:
 254              		.size	isr_spark_drq_SetPriority, .-isr_spark_drq_SetPriority
 255 0026 00BF     		.section	.text.isr_spark_drq_GetPriority,"ax",%progbits
 256              		.align	2
 257              		.global	isr_spark_drq_GetPriority
 258              		.thumb
 259              		.thumb_func
 260              		.type	isr_spark_drq_GetPriority, %function
 261              	isr_spark_drq_GetPriority:
 262              	.LFB6:
 218:.\Generated_Source\PSoC5/isr_spark_drq.c **** 
 219:.\Generated_Source\PSoC5/isr_spark_drq.c **** 
 220:.\Generated_Source\PSoC5/isr_spark_drq.c **** /*******************************************************************************
 221:.\Generated_Source\PSoC5/isr_spark_drq.c **** * Function Name: isr_spark_drq_GetPriority
 222:.\Generated_Source\PSoC5/isr_spark_drq.c **** ********************************************************************************
 223:.\Generated_Source\PSoC5/isr_spark_drq.c **** *
 224:.\Generated_Source\PSoC5/isr_spark_drq.c **** * Summary:
 225:.\Generated_Source\PSoC5/isr_spark_drq.c **** *   Gets the Priority of the Interrupt.
 226:.\Generated_Source\PSoC5/isr_spark_drq.c **** *
 227:.\Generated_Source\PSoC5/isr_spark_drq.c **** * Parameters:
 228:.\Generated_Source\PSoC5/isr_spark_drq.c **** *   None
 229:.\Generated_Source\PSoC5/isr_spark_drq.c **** *
 230:.\Generated_Source\PSoC5/isr_spark_drq.c **** * Return:
 231:.\Generated_Source\PSoC5/isr_spark_drq.c **** *   Priority of the interrupt. 0 - 7, 0 being the highest.
 232:.\Generated_Source\PSoC5/isr_spark_drq.c **** *
 233:.\Generated_Source\PSoC5/isr_spark_drq.c **** *******************************************************************************/
 234:.\Generated_Source\PSoC5/isr_spark_drq.c **** uint8 isr_spark_drq_GetPriority(void)
 235:.\Generated_Source\PSoC5/isr_spark_drq.c **** {
 263              		.loc 1 235 0
 264              		.cfi_startproc
 265              		@ args = 0, pretend = 0, frame = 8
 266              		@ frame_needed = 1, uses_anonymous_args = 0
 267              		@ link register save eliminated.
 268 0000 80B4     		push	{r7}
 269              	.LCFI16:
 270              		.cfi_def_cfa_offset 4
 271 0002 83B0     		sub	sp, sp, #12
 272              	.LCFI17:
 273              		.cfi_def_cfa_offset 16
 274 0004 00AF     		add	r7, sp, #0
ARM GAS  C:\Users\hoangp\AppData\Local\Temp\cc8KuxB9.s 			page 10


 275              		.cfi_offset 7, -4
 276              	.LCFI18:
 277              		.cfi_def_cfa_register 7
 236:.\Generated_Source\PSoC5/isr_spark_drq.c ****     uint8 priority;
 237:.\Generated_Source\PSoC5/isr_spark_drq.c **** 
 238:.\Generated_Source\PSoC5/isr_spark_drq.c **** 
 239:.\Generated_Source\PSoC5/isr_spark_drq.c ****     priority = *isr_spark_drq_INTC_PRIOR >> 5;
 278              		.loc 1 239 0
 279 0006 4EF20043 		movw	r3, #:lower16:-536812544
 280 000a CEF20003 		movt	r3, #:upper16:-536812544
 281 000e 1B78     		ldrb	r3, [r3, #0]
 282 0010 DBB2     		uxtb	r3, r3
 283 0012 4FEA5313 		lsr	r3, r3, #5
 284 0016 FB71     		strb	r3, [r7, #7]
 240:.\Generated_Source\PSoC5/isr_spark_drq.c **** 
 241:.\Generated_Source\PSoC5/isr_spark_drq.c ****     return priority;
 285              		.loc 1 241 0
 286 0018 FB79     		ldrb	r3, [r7, #7]	@ zero_extendqisi2
 242:.\Generated_Source\PSoC5/isr_spark_drq.c **** }
 287              		.loc 1 242 0
 288 001a 1846     		mov	r0, r3
 289 001c 07F10C07 		add	r7, r7, #12
 290 0020 BD46     		mov	sp, r7
 291 0022 80BC     		pop	{r7}
 292 0024 7047     		bx	lr
 293              		.cfi_endproc
 294              	.LFE6:
 295              		.size	isr_spark_drq_GetPriority, .-isr_spark_drq_GetPriority
 296 0026 00BF     		.section	.text.isr_spark_drq_Enable,"ax",%progbits
 297              		.align	2
 298              		.global	isr_spark_drq_Enable
 299              		.thumb
 300              		.thumb_func
 301              		.type	isr_spark_drq_Enable, %function
 302              	isr_spark_drq_Enable:
 303              	.LFB7:
 243:.\Generated_Source\PSoC5/isr_spark_drq.c **** 
 244:.\Generated_Source\PSoC5/isr_spark_drq.c **** 
 245:.\Generated_Source\PSoC5/isr_spark_drq.c **** /*******************************************************************************
 246:.\Generated_Source\PSoC5/isr_spark_drq.c **** * Function Name: isr_spark_drq_Enable
 247:.\Generated_Source\PSoC5/isr_spark_drq.c **** ********************************************************************************
 248:.\Generated_Source\PSoC5/isr_spark_drq.c **** *
 249:.\Generated_Source\PSoC5/isr_spark_drq.c **** * Summary:
 250:.\Generated_Source\PSoC5/isr_spark_drq.c **** *   Enables the interrupt.
 251:.\Generated_Source\PSoC5/isr_spark_drq.c **** *
 252:.\Generated_Source\PSoC5/isr_spark_drq.c **** * Parameters:
 253:.\Generated_Source\PSoC5/isr_spark_drq.c **** *   None
 254:.\Generated_Source\PSoC5/isr_spark_drq.c **** *
 255:.\Generated_Source\PSoC5/isr_spark_drq.c **** * Return:
 256:.\Generated_Source\PSoC5/isr_spark_drq.c **** *   None
 257:.\Generated_Source\PSoC5/isr_spark_drq.c **** *
 258:.\Generated_Source\PSoC5/isr_spark_drq.c **** *******************************************************************************/
 259:.\Generated_Source\PSoC5/isr_spark_drq.c **** void isr_spark_drq_Enable(void)
 260:.\Generated_Source\PSoC5/isr_spark_drq.c **** {
 304              		.loc 1 260 0
 305              		.cfi_startproc
 306              		@ args = 0, pretend = 0, frame = 0
ARM GAS  C:\Users\hoangp\AppData\Local\Temp\cc8KuxB9.s 			page 11


 307              		@ frame_needed = 1, uses_anonymous_args = 0
 308              		@ link register save eliminated.
 309 0000 80B4     		push	{r7}
 310              	.LCFI19:
 311              		.cfi_def_cfa_offset 4
 312 0002 00AF     		add	r7, sp, #0
 313              		.cfi_offset 7, -4
 314              	.LCFI20:
 315              		.cfi_def_cfa_register 7
 261:.\Generated_Source\PSoC5/isr_spark_drq.c ****     /* Enable the general interrupt. */
 262:.\Generated_Source\PSoC5/isr_spark_drq.c ****     *isr_spark_drq_INTC_SET_EN = isr_spark_drq__INTC_MASK;
 316              		.loc 1 262 0
 317 0004 4EF20013 		movw	r3, #:lower16:-536813312
 318 0008 CEF20003 		movt	r3, #:upper16:-536813312
 319 000c 4FF00102 		mov	r2, #1
 320 0010 1A60     		str	r2, [r3, #0]
 263:.\Generated_Source\PSoC5/isr_spark_drq.c **** }
 321              		.loc 1 263 0
 322 0012 BD46     		mov	sp, r7
 323 0014 80BC     		pop	{r7}
 324 0016 7047     		bx	lr
 325              		.cfi_endproc
 326              	.LFE7:
 327              		.size	isr_spark_drq_Enable, .-isr_spark_drq_Enable
 328              		.section	.text.isr_spark_drq_GetState,"ax",%progbits
 329              		.align	2
 330              		.global	isr_spark_drq_GetState
 331              		.thumb
 332              		.thumb_func
 333              		.type	isr_spark_drq_GetState, %function
 334              	isr_spark_drq_GetState:
 335              	.LFB8:
 264:.\Generated_Source\PSoC5/isr_spark_drq.c **** 
 265:.\Generated_Source\PSoC5/isr_spark_drq.c **** 
 266:.\Generated_Source\PSoC5/isr_spark_drq.c **** /*******************************************************************************
 267:.\Generated_Source\PSoC5/isr_spark_drq.c **** * Function Name: isr_spark_drq_GetState
 268:.\Generated_Source\PSoC5/isr_spark_drq.c **** ********************************************************************************
 269:.\Generated_Source\PSoC5/isr_spark_drq.c **** *
 270:.\Generated_Source\PSoC5/isr_spark_drq.c **** * Summary:
 271:.\Generated_Source\PSoC5/isr_spark_drq.c **** *   Gets the state (enabled, disabled) of the Interrupt.
 272:.\Generated_Source\PSoC5/isr_spark_drq.c **** *
 273:.\Generated_Source\PSoC5/isr_spark_drq.c **** * Parameters:
 274:.\Generated_Source\PSoC5/isr_spark_drq.c **** *   None
 275:.\Generated_Source\PSoC5/isr_spark_drq.c **** *
 276:.\Generated_Source\PSoC5/isr_spark_drq.c **** * Return:
 277:.\Generated_Source\PSoC5/isr_spark_drq.c **** *   1 if enabled, 0 if disabled.
 278:.\Generated_Source\PSoC5/isr_spark_drq.c **** *
 279:.\Generated_Source\PSoC5/isr_spark_drq.c **** *******************************************************************************/
 280:.\Generated_Source\PSoC5/isr_spark_drq.c **** uint8 isr_spark_drq_GetState(void)
 281:.\Generated_Source\PSoC5/isr_spark_drq.c **** {
 336              		.loc 1 281 0
 337              		.cfi_startproc
 338              		@ args = 0, pretend = 0, frame = 0
 339              		@ frame_needed = 1, uses_anonymous_args = 0
 340              		@ link register save eliminated.
 341 0000 80B4     		push	{r7}
 342              	.LCFI21:
ARM GAS  C:\Users\hoangp\AppData\Local\Temp\cc8KuxB9.s 			page 12


 343              		.cfi_def_cfa_offset 4
 344 0002 00AF     		add	r7, sp, #0
 345              		.cfi_offset 7, -4
 346              	.LCFI22:
 347              		.cfi_def_cfa_register 7
 282:.\Generated_Source\PSoC5/isr_spark_drq.c ****     /* Get the state of the general interrupt. */
 283:.\Generated_Source\PSoC5/isr_spark_drq.c ****     return ((*isr_spark_drq_INTC_SET_EN & (uint32)isr_spark_drq__INTC_MASK) != 0u) ? 1u:0u;
 348              		.loc 1 283 0
 349 0004 4EF20013 		movw	r3, #:lower16:-536813312
 350 0008 CEF20003 		movt	r3, #:upper16:-536813312
 351 000c 1B68     		ldr	r3, [r3, #0]
 352 000e 03F00103 		and	r3, r3, #1
 353 0012 DBB2     		uxtb	r3, r3
 354 0014 002B     		cmp	r3, #0
 355 0016 02D0     		beq	.L18
 356 0018 4FF00103 		mov	r3, #1
 357 001c 01E0     		b	.L19
 358              	.L18:
 359 001e 4FF00003 		mov	r3, #0
 360              	.L19:
 284:.\Generated_Source\PSoC5/isr_spark_drq.c **** }
 361              		.loc 1 284 0
 362 0022 1846     		mov	r0, r3
 363 0024 BD46     		mov	sp, r7
 364 0026 80BC     		pop	{r7}
 365 0028 7047     		bx	lr
 366              		.cfi_endproc
 367              	.LFE8:
 368              		.size	isr_spark_drq_GetState, .-isr_spark_drq_GetState
 369 002a 00BF     		.section	.text.isr_spark_drq_Disable,"ax",%progbits
 370              		.align	2
 371              		.global	isr_spark_drq_Disable
 372              		.thumb
 373              		.thumb_func
 374              		.type	isr_spark_drq_Disable, %function
 375              	isr_spark_drq_Disable:
 376              	.LFB9:
 285:.\Generated_Source\PSoC5/isr_spark_drq.c **** 
 286:.\Generated_Source\PSoC5/isr_spark_drq.c **** 
 287:.\Generated_Source\PSoC5/isr_spark_drq.c **** /*******************************************************************************
 288:.\Generated_Source\PSoC5/isr_spark_drq.c **** * Function Name: isr_spark_drq_Disable
 289:.\Generated_Source\PSoC5/isr_spark_drq.c **** ********************************************************************************
 290:.\Generated_Source\PSoC5/isr_spark_drq.c **** *
 291:.\Generated_Source\PSoC5/isr_spark_drq.c **** * Summary:
 292:.\Generated_Source\PSoC5/isr_spark_drq.c **** *   Disables the Interrupt.
 293:.\Generated_Source\PSoC5/isr_spark_drq.c **** *
 294:.\Generated_Source\PSoC5/isr_spark_drq.c **** * Parameters:
 295:.\Generated_Source\PSoC5/isr_spark_drq.c **** *   None
 296:.\Generated_Source\PSoC5/isr_spark_drq.c **** *
 297:.\Generated_Source\PSoC5/isr_spark_drq.c **** * Return:
 298:.\Generated_Source\PSoC5/isr_spark_drq.c **** *   None
 299:.\Generated_Source\PSoC5/isr_spark_drq.c **** *
 300:.\Generated_Source\PSoC5/isr_spark_drq.c **** *******************************************************************************/
 301:.\Generated_Source\PSoC5/isr_spark_drq.c **** void isr_spark_drq_Disable(void)
 302:.\Generated_Source\PSoC5/isr_spark_drq.c **** {
 377              		.loc 1 302 0
 378              		.cfi_startproc
ARM GAS  C:\Users\hoangp\AppData\Local\Temp\cc8KuxB9.s 			page 13


 379              		@ args = 0, pretend = 0, frame = 0
 380              		@ frame_needed = 1, uses_anonymous_args = 0
 381              		@ link register save eliminated.
 382 0000 80B4     		push	{r7}
 383              	.LCFI23:
 384              		.cfi_def_cfa_offset 4
 385 0002 00AF     		add	r7, sp, #0
 386              		.cfi_offset 7, -4
 387              	.LCFI24:
 388              		.cfi_def_cfa_register 7
 303:.\Generated_Source\PSoC5/isr_spark_drq.c ****     /* Disable the general interrupt. */
 304:.\Generated_Source\PSoC5/isr_spark_drq.c ****     *isr_spark_drq_INTC_CLR_EN = isr_spark_drq__INTC_MASK;
 389              		.loc 1 304 0
 390 0004 4EF28013 		movw	r3, #:lower16:-536813184
 391 0008 CEF20003 		movt	r3, #:upper16:-536813184
 392 000c 4FF00102 		mov	r2, #1
 393 0010 1A60     		str	r2, [r3, #0]
 305:.\Generated_Source\PSoC5/isr_spark_drq.c **** }
 394              		.loc 1 305 0
 395 0012 BD46     		mov	sp, r7
 396 0014 80BC     		pop	{r7}
 397 0016 7047     		bx	lr
 398              		.cfi_endproc
 399              	.LFE9:
 400              		.size	isr_spark_drq_Disable, .-isr_spark_drq_Disable
 401              		.section	.text.isr_spark_drq_SetPending,"ax",%progbits
 402              		.align	2
 403              		.global	isr_spark_drq_SetPending
 404              		.thumb
 405              		.thumb_func
 406              		.type	isr_spark_drq_SetPending, %function
 407              	isr_spark_drq_SetPending:
 408              	.LFB10:
 306:.\Generated_Source\PSoC5/isr_spark_drq.c **** 
 307:.\Generated_Source\PSoC5/isr_spark_drq.c **** 
 308:.\Generated_Source\PSoC5/isr_spark_drq.c **** /*******************************************************************************
 309:.\Generated_Source\PSoC5/isr_spark_drq.c **** * Function Name: isr_spark_drq_SetPending
 310:.\Generated_Source\PSoC5/isr_spark_drq.c **** ********************************************************************************
 311:.\Generated_Source\PSoC5/isr_spark_drq.c **** *
 312:.\Generated_Source\PSoC5/isr_spark_drq.c **** * Summary:
 313:.\Generated_Source\PSoC5/isr_spark_drq.c **** *   Causes the Interrupt to enter the pending state, a software method of
 314:.\Generated_Source\PSoC5/isr_spark_drq.c **** *   generating the interrupt.
 315:.\Generated_Source\PSoC5/isr_spark_drq.c **** *
 316:.\Generated_Source\PSoC5/isr_spark_drq.c **** * Parameters:
 317:.\Generated_Source\PSoC5/isr_spark_drq.c **** *   None
 318:.\Generated_Source\PSoC5/isr_spark_drq.c **** *
 319:.\Generated_Source\PSoC5/isr_spark_drq.c **** * Return:
 320:.\Generated_Source\PSoC5/isr_spark_drq.c **** *   None
 321:.\Generated_Source\PSoC5/isr_spark_drq.c **** *
 322:.\Generated_Source\PSoC5/isr_spark_drq.c **** *******************************************************************************/
 323:.\Generated_Source\PSoC5/isr_spark_drq.c **** void isr_spark_drq_SetPending(void)
 324:.\Generated_Source\PSoC5/isr_spark_drq.c **** {
 409              		.loc 1 324 0
 410              		.cfi_startproc
 411              		@ args = 0, pretend = 0, frame = 0
 412              		@ frame_needed = 1, uses_anonymous_args = 0
 413              		@ link register save eliminated.
ARM GAS  C:\Users\hoangp\AppData\Local\Temp\cc8KuxB9.s 			page 14


 414 0000 80B4     		push	{r7}
 415              	.LCFI25:
 416              		.cfi_def_cfa_offset 4
 417 0002 00AF     		add	r7, sp, #0
 418              		.cfi_offset 7, -4
 419              	.LCFI26:
 420              		.cfi_def_cfa_register 7
 325:.\Generated_Source\PSoC5/isr_spark_drq.c ****     *isr_spark_drq_INTC_SET_PD = isr_spark_drq__INTC_MASK;
 421              		.loc 1 325 0
 422 0004 4EF20023 		movw	r3, #:lower16:-536813056
 423 0008 CEF20003 		movt	r3, #:upper16:-536813056
 424 000c 4FF00102 		mov	r2, #1
 425 0010 1A60     		str	r2, [r3, #0]
 326:.\Generated_Source\PSoC5/isr_spark_drq.c **** }
 426              		.loc 1 326 0
 427 0012 BD46     		mov	sp, r7
 428 0014 80BC     		pop	{r7}
 429 0016 7047     		bx	lr
 430              		.cfi_endproc
 431              	.LFE10:
 432              		.size	isr_spark_drq_SetPending, .-isr_spark_drq_SetPending
 433              		.section	.text.isr_spark_drq_ClearPending,"ax",%progbits
 434              		.align	2
 435              		.global	isr_spark_drq_ClearPending
 436              		.thumb
 437              		.thumb_func
 438              		.type	isr_spark_drq_ClearPending, %function
 439              	isr_spark_drq_ClearPending:
 440              	.LFB11:
 327:.\Generated_Source\PSoC5/isr_spark_drq.c **** 
 328:.\Generated_Source\PSoC5/isr_spark_drq.c **** 
 329:.\Generated_Source\PSoC5/isr_spark_drq.c **** /*******************************************************************************
 330:.\Generated_Source\PSoC5/isr_spark_drq.c **** * Function Name: isr_spark_drq_ClearPending
 331:.\Generated_Source\PSoC5/isr_spark_drq.c **** ********************************************************************************
 332:.\Generated_Source\PSoC5/isr_spark_drq.c **** *
 333:.\Generated_Source\PSoC5/isr_spark_drq.c **** * Summary:
 334:.\Generated_Source\PSoC5/isr_spark_drq.c **** *   Clears a pending interrupt.
 335:.\Generated_Source\PSoC5/isr_spark_drq.c **** *
 336:.\Generated_Source\PSoC5/isr_spark_drq.c **** * Parameters:
 337:.\Generated_Source\PSoC5/isr_spark_drq.c **** *   None
 338:.\Generated_Source\PSoC5/isr_spark_drq.c **** *
 339:.\Generated_Source\PSoC5/isr_spark_drq.c **** * Return:
 340:.\Generated_Source\PSoC5/isr_spark_drq.c **** *   None
 341:.\Generated_Source\PSoC5/isr_spark_drq.c **** *
 342:.\Generated_Source\PSoC5/isr_spark_drq.c **** *******************************************************************************/
 343:.\Generated_Source\PSoC5/isr_spark_drq.c **** void isr_spark_drq_ClearPending(void)
 344:.\Generated_Source\PSoC5/isr_spark_drq.c **** {
 441              		.loc 1 344 0
 442              		.cfi_startproc
 443              		@ args = 0, pretend = 0, frame = 0
 444              		@ frame_needed = 1, uses_anonymous_args = 0
 445              		@ link register save eliminated.
 446 0000 80B4     		push	{r7}
 447              	.LCFI27:
 448              		.cfi_def_cfa_offset 4
 449 0002 00AF     		add	r7, sp, #0
 450              		.cfi_offset 7, -4
ARM GAS  C:\Users\hoangp\AppData\Local\Temp\cc8KuxB9.s 			page 15


 451              	.LCFI28:
 452              		.cfi_def_cfa_register 7
 345:.\Generated_Source\PSoC5/isr_spark_drq.c ****     *isr_spark_drq_INTC_CLR_PD = isr_spark_drq__INTC_MASK;
 453              		.loc 1 345 0
 454 0004 4EF28023 		movw	r3, #:lower16:-536812928
 455 0008 CEF20003 		movt	r3, #:upper16:-536812928
 456 000c 4FF00102 		mov	r2, #1
 457 0010 1A60     		str	r2, [r3, #0]
 346:.\Generated_Source\PSoC5/isr_spark_drq.c **** }
 458              		.loc 1 346 0
 459 0012 BD46     		mov	sp, r7
 460 0014 80BC     		pop	{r7}
 461 0016 7047     		bx	lr
 462              		.cfi_endproc
 463              	.LFE11:
 464              		.size	isr_spark_drq_ClearPending, .-isr_spark_drq_ClearPending
 465              		.text
 466              	.Letext0: