ARM GAS  C:\Users\hoangp\AppData\Local\Temp\cc1R9pbZ.s 			page 1


   1              		.syntax unified
   2              		.cpu cortex-m3
   3              		.fpu softvfp
   4              		.eabi_attribute 20, 1
   5              		.eabi_attribute 21, 1
   6              		.eabi_attribute 23, 3
   7              		.eabi_attribute 24, 1
   8              		.eabi_attribute 25, 1
   9              		.eabi_attribute 26, 1
  10              		.eabi_attribute 30, 6
  11              		.eabi_attribute 18, 4
  12              		.thumb
  13              		.file	"PWM_UNFOLD_B_PM.c"
  20 0000 DF000000 		.text
  20      02007A00 
  20      00000201 
  20      FB0E0D00 
  20      01010101 
  21              	.Ltext0:
  22              		.cfi_sections	.debug_frame
  23              		.bss
  24              		.align	2
  25              	PWM_UNFOLD_B_backup:
  26 0000 00000000 		.space	7
  26      000000
  27 0007 00       		.section	.text.PWM_UNFOLD_B_SaveConfig,"ax",%progbits
  28              		.align	2
  29              		.global	PWM_UNFOLD_B_SaveConfig
  30              		.thumb
  31              		.thumb_func
  32              		.type	PWM_UNFOLD_B_SaveConfig, %function
  33              	PWM_UNFOLD_B_SaveConfig:
  34              	.LFB0:
  35              		.file 1 ".\\Generated_Source\\PSoC5\\PWM_UNFOLD_B_PM.c"
   1:.\Generated_Source\PSoC5/PWM_UNFOLD_B_PM.c **** /*******************************************************************************
   2:.\Generated_Source\PSoC5/PWM_UNFOLD_B_PM.c **** * File Name: PWM_UNFOLD_B_PM.c
   3:.\Generated_Source\PSoC5/PWM_UNFOLD_B_PM.c **** * Version 2.40
   4:.\Generated_Source\PSoC5/PWM_UNFOLD_B_PM.c **** *
   5:.\Generated_Source\PSoC5/PWM_UNFOLD_B_PM.c **** * Description:
   6:.\Generated_Source\PSoC5/PWM_UNFOLD_B_PM.c **** *  This file provides the power management source code to API for the
   7:.\Generated_Source\PSoC5/PWM_UNFOLD_B_PM.c **** *  PWM.
   8:.\Generated_Source\PSoC5/PWM_UNFOLD_B_PM.c **** *
   9:.\Generated_Source\PSoC5/PWM_UNFOLD_B_PM.c **** * Note:
  10:.\Generated_Source\PSoC5/PWM_UNFOLD_B_PM.c **** *
  11:.\Generated_Source\PSoC5/PWM_UNFOLD_B_PM.c **** ********************************************************************************
  12:.\Generated_Source\PSoC5/PWM_UNFOLD_B_PM.c **** * Copyright 2008-2012, Cypress Semiconductor Corporation.  All rights reserved.
  13:.\Generated_Source\PSoC5/PWM_UNFOLD_B_PM.c **** * You may use this file only in accordance with the license, terms, conditions,
  14:.\Generated_Source\PSoC5/PWM_UNFOLD_B_PM.c **** * disclaimers, and limitations in the end user license agreement accompanying
  15:.\Generated_Source\PSoC5/PWM_UNFOLD_B_PM.c **** * the software package with which this file was provided.
  16:.\Generated_Source\PSoC5/PWM_UNFOLD_B_PM.c **** *******************************************************************************/
  17:.\Generated_Source\PSoC5/PWM_UNFOLD_B_PM.c **** #include "cytypes.h"
ARM GAS  C:\Users\hoangp\AppData\Local\Temp\cc1R9pbZ.s 			page 2


  18:.\Generated_Source\PSoC5/PWM_UNFOLD_B_PM.c **** #include "PWM_UNFOLD_B.h"
  19:.\Generated_Source\PSoC5/PWM_UNFOLD_B_PM.c **** 
  20:.\Generated_Source\PSoC5/PWM_UNFOLD_B_PM.c **** static PWM_UNFOLD_B_backupStruct PWM_UNFOLD_B_backup;
  21:.\Generated_Source\PSoC5/PWM_UNFOLD_B_PM.c **** 
  22:.\Generated_Source\PSoC5/PWM_UNFOLD_B_PM.c **** 
  23:.\Generated_Source\PSoC5/PWM_UNFOLD_B_PM.c **** /*******************************************************************************
  24:.\Generated_Source\PSoC5/PWM_UNFOLD_B_PM.c **** * Function Name: PWM_UNFOLD_B_SaveConfig
  25:.\Generated_Source\PSoC5/PWM_UNFOLD_B_PM.c **** ********************************************************************************
  26:.\Generated_Source\PSoC5/PWM_UNFOLD_B_PM.c **** *
  27:.\Generated_Source\PSoC5/PWM_UNFOLD_B_PM.c **** * Summary:
  28:.\Generated_Source\PSoC5/PWM_UNFOLD_B_PM.c **** *  Saves the current user configuration of the component.
  29:.\Generated_Source\PSoC5/PWM_UNFOLD_B_PM.c **** *  
  30:.\Generated_Source\PSoC5/PWM_UNFOLD_B_PM.c **** * Parameters:  
  31:.\Generated_Source\PSoC5/PWM_UNFOLD_B_PM.c **** *  None
  32:.\Generated_Source\PSoC5/PWM_UNFOLD_B_PM.c **** *
  33:.\Generated_Source\PSoC5/PWM_UNFOLD_B_PM.c **** * Return: 
  34:.\Generated_Source\PSoC5/PWM_UNFOLD_B_PM.c **** *  None
  35:.\Generated_Source\PSoC5/PWM_UNFOLD_B_PM.c **** *
  36:.\Generated_Source\PSoC5/PWM_UNFOLD_B_PM.c **** * Global variables:
  37:.\Generated_Source\PSoC5/PWM_UNFOLD_B_PM.c **** *  PWM_UNFOLD_B_backup:  Variables of this global structure are modified to 
  38:.\Generated_Source\PSoC5/PWM_UNFOLD_B_PM.c **** *  store the values of non retention configuration registers when Sleep() API is 
  39:.\Generated_Source\PSoC5/PWM_UNFOLD_B_PM.c **** *  called.
  40:.\Generated_Source\PSoC5/PWM_UNFOLD_B_PM.c **** *
  41:.\Generated_Source\PSoC5/PWM_UNFOLD_B_PM.c **** *******************************************************************************/
  42:.\Generated_Source\PSoC5/PWM_UNFOLD_B_PM.c **** void PWM_UNFOLD_B_SaveConfig(void) 
  43:.\Generated_Source\PSoC5/PWM_UNFOLD_B_PM.c **** {
  36              		.loc 1 43 0
  37              		.cfi_startproc
  38              		@ args = 0, pretend = 0, frame = 0
  39              		@ frame_needed = 1, uses_anonymous_args = 0
  40 0000 80B5     		push	{r7, lr}
  41              	.LCFI0:
  42              		.cfi_def_cfa_offset 8
  43 0002 00AF     		add	r7, sp, #0
  44              		.cfi_offset 14, -4
  45              		.cfi_offset 7, -8
  46              	.LCFI1:
  47              		.cfi_def_cfa_register 7
  44:.\Generated_Source\PSoC5/PWM_UNFOLD_B_PM.c ****     
  45:.\Generated_Source\PSoC5/PWM_UNFOLD_B_PM.c ****     #if(!PWM_UNFOLD_B_UsingFixedFunction)
  46:.\Generated_Source\PSoC5/PWM_UNFOLD_B_PM.c ****         #if (CY_UDB_V0)
  47:.\Generated_Source\PSoC5/PWM_UNFOLD_B_PM.c ****             PWM_UNFOLD_B_backup.PWMUdb = PWM_UNFOLD_B_ReadCounter();
  48              		.loc 1 47 0
  49 0004 FFF7FEFF 		bl	PWM_UNFOLD_B_ReadCounter
  50 0008 0346     		mov	r3, r0
  51 000a 1A46     		mov	r2, r3
  52 000c 40F20003 		movw	r3, #:lower16:PWM_UNFOLD_B_backup
  53 0010 C0F20003 		movt	r3, #:upper16:PWM_UNFOLD_B_backup
  54 0014 5A70     		strb	r2, [r3, #1]
  48:.\Generated_Source\PSoC5/PWM_UNFOLD_B_PM.c ****             PWM_UNFOLD_B_backup.PWMPeriod = PWM_UNFOLD_B_ReadPeriod();
  55              		.loc 1 48 0
  56 0016 FFF7FEFF 		bl	PWM_UNFOLD_B_ReadPeriod
  57 001a 0346     		mov	r3, r0
  58 001c 1A46     		mov	r2, r3
  59 001e 40F20003 		movw	r3, #:lower16:PWM_UNFOLD_B_backup
  60 0022 C0F20003 		movt	r3, #:upper16:PWM_UNFOLD_B_backup
  61 0026 9A70     		strb	r2, [r3, #2]
ARM GAS  C:\Users\hoangp\AppData\Local\Temp\cc1R9pbZ.s 			page 3


  49:.\Generated_Source\PSoC5/PWM_UNFOLD_B_PM.c ****             #if (PWM_UNFOLD_B_UseStatus)
  50:.\Generated_Source\PSoC5/PWM_UNFOLD_B_PM.c ****                 PWM_UNFOLD_B_backup.InterruptMaskValue = PWM_UNFOLD_B_STATUS_MASK;
  62              		.loc 1 50 0
  63 0028 46F28653 		movw	r3, #:lower16:1073767814
  64 002c C4F20003 		movt	r3, #:upper16:1073767814
  65 0030 1B78     		ldrb	r3, [r3, #0]
  66 0032 DAB2     		uxtb	r2, r3
  67 0034 40F20003 		movw	r3, #:lower16:PWM_UNFOLD_B_backup
  68 0038 C0F20003 		movt	r3, #:upper16:PWM_UNFOLD_B_backup
  69 003c DA70     		strb	r2, [r3, #3]
  51:.\Generated_Source\PSoC5/PWM_UNFOLD_B_PM.c ****             #endif /* (PWM_UNFOLD_B_UseStatus) */
  52:.\Generated_Source\PSoC5/PWM_UNFOLD_B_PM.c ****             
  53:.\Generated_Source\PSoC5/PWM_UNFOLD_B_PM.c ****             #if(PWM_UNFOLD_B_UseOneCompareMode)
  54:.\Generated_Source\PSoC5/PWM_UNFOLD_B_PM.c ****                 PWM_UNFOLD_B_backup.PWMCompareValue = PWM_UNFOLD_B_ReadCompare();
  70              		.loc 1 54 0
  71 003e FFF7FEFF 		bl	PWM_UNFOLD_B_ReadCompare
  72 0042 0346     		mov	r3, r0
  73 0044 1A46     		mov	r2, r3
  74 0046 40F20003 		movw	r3, #:lower16:PWM_UNFOLD_B_backup
  75 004a C0F20003 		movt	r3, #:upper16:PWM_UNFOLD_B_backup
  76 004e 1A71     		strb	r2, [r3, #4]
  55:.\Generated_Source\PSoC5/PWM_UNFOLD_B_PM.c ****             #else
  56:.\Generated_Source\PSoC5/PWM_UNFOLD_B_PM.c ****                 PWM_UNFOLD_B_backup.PWMCompareValue1 = PWM_UNFOLD_B_ReadCompare1();
  57:.\Generated_Source\PSoC5/PWM_UNFOLD_B_PM.c ****                 PWM_UNFOLD_B_backup.PWMCompareValue2 = PWM_UNFOLD_B_ReadCompare2();
  58:.\Generated_Source\PSoC5/PWM_UNFOLD_B_PM.c ****             #endif /* (PWM_UNFOLD_B_UseOneCompareMode) */
  59:.\Generated_Source\PSoC5/PWM_UNFOLD_B_PM.c ****             
  60:.\Generated_Source\PSoC5/PWM_UNFOLD_B_PM.c ****            #if(PWM_UNFOLD_B_DeadBandUsed)
  61:.\Generated_Source\PSoC5/PWM_UNFOLD_B_PM.c ****                 PWM_UNFOLD_B_backup.PWMdeadBandValue = PWM_UNFOLD_B_ReadDeadTime();
  77              		.loc 1 61 0
  78 0050 FFF7FEFF 		bl	PWM_UNFOLD_B_ReadDeadTime
  79 0054 0346     		mov	r3, r0
  80 0056 1A46     		mov	r2, r3
  81 0058 40F20003 		movw	r3, #:lower16:PWM_UNFOLD_B_backup
  82 005c C0F20003 		movt	r3, #:upper16:PWM_UNFOLD_B_backup
  83 0060 5A71     		strb	r2, [r3, #5]
  62:.\Generated_Source\PSoC5/PWM_UNFOLD_B_PM.c ****             #endif /* (PWM_UNFOLD_B_DeadBandUsed) */
  63:.\Generated_Source\PSoC5/PWM_UNFOLD_B_PM.c ****           
  64:.\Generated_Source\PSoC5/PWM_UNFOLD_B_PM.c ****             #if ( PWM_UNFOLD_B_KillModeMinTime)
  65:.\Generated_Source\PSoC5/PWM_UNFOLD_B_PM.c ****                 PWM_UNFOLD_B_backup.PWMKillCounterPeriod = PWM_UNFOLD_B_ReadKillTime();
  66:.\Generated_Source\PSoC5/PWM_UNFOLD_B_PM.c ****             #endif /* ( PWM_UNFOLD_B_KillModeMinTime) */
  67:.\Generated_Source\PSoC5/PWM_UNFOLD_B_PM.c ****         #endif /* (CY_UDB_V0) */
  68:.\Generated_Source\PSoC5/PWM_UNFOLD_B_PM.c ****         
  69:.\Generated_Source\PSoC5/PWM_UNFOLD_B_PM.c ****         #if (CY_UDB_V1)
  70:.\Generated_Source\PSoC5/PWM_UNFOLD_B_PM.c ****             #if(!PWM_UNFOLD_B_PWMModeIsCenterAligned)
  71:.\Generated_Source\PSoC5/PWM_UNFOLD_B_PM.c ****                 PWM_UNFOLD_B_backup.PWMPeriod = PWM_UNFOLD_B_ReadPeriod();
  72:.\Generated_Source\PSoC5/PWM_UNFOLD_B_PM.c ****             #endif /* (!PWM_UNFOLD_B_PWMModeIsCenterAligned) */
  73:.\Generated_Source\PSoC5/PWM_UNFOLD_B_PM.c ****             PWM_UNFOLD_B_backup.PWMUdb = PWM_UNFOLD_B_ReadCounter();
  74:.\Generated_Source\PSoC5/PWM_UNFOLD_B_PM.c ****             #if (PWM_UNFOLD_B_UseStatus)
  75:.\Generated_Source\PSoC5/PWM_UNFOLD_B_PM.c ****                 PWM_UNFOLD_B_backup.InterruptMaskValue = PWM_UNFOLD_B_STATUS_MASK;
  76:.\Generated_Source\PSoC5/PWM_UNFOLD_B_PM.c ****             #endif /* (PWM_UNFOLD_B_UseStatus) */
  77:.\Generated_Source\PSoC5/PWM_UNFOLD_B_PM.c ****             
  78:.\Generated_Source\PSoC5/PWM_UNFOLD_B_PM.c ****             #if(PWM_UNFOLD_B_DeadBandMode == PWM_UNFOLD_B__B_PWM__DBM_256_CLOCKS || \
  79:.\Generated_Source\PSoC5/PWM_UNFOLD_B_PM.c ****                 PWM_UNFOLD_B_DeadBandMode == PWM_UNFOLD_B__B_PWM__DBM_2_4_CLOCKS)
  80:.\Generated_Source\PSoC5/PWM_UNFOLD_B_PM.c ****                 PWM_UNFOLD_B_backup.PWMdeadBandValue = PWM_UNFOLD_B_ReadDeadTime();
  81:.\Generated_Source\PSoC5/PWM_UNFOLD_B_PM.c ****             #endif /*  deadband count is either 2-4 clocks or 256 clocks */
  82:.\Generated_Source\PSoC5/PWM_UNFOLD_B_PM.c ****             
  83:.\Generated_Source\PSoC5/PWM_UNFOLD_B_PM.c ****             #if(PWM_UNFOLD_B_KillModeMinTime)
ARM GAS  C:\Users\hoangp\AppData\Local\Temp\cc1R9pbZ.s 			page 4


  84:.\Generated_Source\PSoC5/PWM_UNFOLD_B_PM.c ****                  PWM_UNFOLD_B_backup.PWMKillCounterPeriod = PWM_UNFOLD_B_ReadKillTime();
  85:.\Generated_Source\PSoC5/PWM_UNFOLD_B_PM.c ****             #endif /* (PWM_UNFOLD_B_KillModeMinTime) */
  86:.\Generated_Source\PSoC5/PWM_UNFOLD_B_PM.c ****         #endif /* (CY_UDB_V1) */
  87:.\Generated_Source\PSoC5/PWM_UNFOLD_B_PM.c ****         
  88:.\Generated_Source\PSoC5/PWM_UNFOLD_B_PM.c ****         #if(PWM_UNFOLD_B_UseControl)
  89:.\Generated_Source\PSoC5/PWM_UNFOLD_B_PM.c ****             PWM_UNFOLD_B_backup.PWMControlRegister = PWM_UNFOLD_B_ReadControlRegister();
  84              		.loc 1 89 0
  85 0062 FFF7FEFF 		bl	PWM_UNFOLD_B_ReadControlRegister
  86 0066 0346     		mov	r3, r0
  87 0068 1A46     		mov	r2, r3
  88 006a 40F20003 		movw	r3, #:lower16:PWM_UNFOLD_B_backup
  89 006e C0F20003 		movt	r3, #:upper16:PWM_UNFOLD_B_backup
  90 0072 9A71     		strb	r2, [r3, #6]
  90:.\Generated_Source\PSoC5/PWM_UNFOLD_B_PM.c ****         #endif /* (PWM_UNFOLD_B_UseControl) */
  91:.\Generated_Source\PSoC5/PWM_UNFOLD_B_PM.c ****     #endif  /* (!PWM_UNFOLD_B_UsingFixedFunction) */
  92:.\Generated_Source\PSoC5/PWM_UNFOLD_B_PM.c **** }
  91              		.loc 1 92 0
  92 0074 80BD     		pop	{r7, pc}
  93              		.cfi_endproc
  94              	.LFE0:
  95              		.size	PWM_UNFOLD_B_SaveConfig, .-PWM_UNFOLD_B_SaveConfig
  96 0076 00BF     		.section	.text.PWM_UNFOLD_B_RestoreConfig,"ax",%progbits
  97              		.align	2
  98              		.global	PWM_UNFOLD_B_RestoreConfig
  99              		.thumb
 100              		.thumb_func
 101              		.type	PWM_UNFOLD_B_RestoreConfig, %function
 102              	PWM_UNFOLD_B_RestoreConfig:
 103              	.LFB1:
  93:.\Generated_Source\PSoC5/PWM_UNFOLD_B_PM.c **** 
  94:.\Generated_Source\PSoC5/PWM_UNFOLD_B_PM.c **** 
  95:.\Generated_Source\PSoC5/PWM_UNFOLD_B_PM.c **** /*******************************************************************************
  96:.\Generated_Source\PSoC5/PWM_UNFOLD_B_PM.c **** * Function Name: PWM_UNFOLD_B_RestoreConfig
  97:.\Generated_Source\PSoC5/PWM_UNFOLD_B_PM.c **** ********************************************************************************
  98:.\Generated_Source\PSoC5/PWM_UNFOLD_B_PM.c **** * 
  99:.\Generated_Source\PSoC5/PWM_UNFOLD_B_PM.c **** * Summary:
 100:.\Generated_Source\PSoC5/PWM_UNFOLD_B_PM.c **** *  Restores the current user configuration of the component.
 101:.\Generated_Source\PSoC5/PWM_UNFOLD_B_PM.c **** *
 102:.\Generated_Source\PSoC5/PWM_UNFOLD_B_PM.c **** * Parameters:  
 103:.\Generated_Source\PSoC5/PWM_UNFOLD_B_PM.c **** *  None
 104:.\Generated_Source\PSoC5/PWM_UNFOLD_B_PM.c **** *
 105:.\Generated_Source\PSoC5/PWM_UNFOLD_B_PM.c **** * Return: 
 106:.\Generated_Source\PSoC5/PWM_UNFOLD_B_PM.c **** *  None
 107:.\Generated_Source\PSoC5/PWM_UNFOLD_B_PM.c **** *
 108:.\Generated_Source\PSoC5/PWM_UNFOLD_B_PM.c **** * Global variables:
 109:.\Generated_Source\PSoC5/PWM_UNFOLD_B_PM.c **** *  PWM_UNFOLD_B_backup:  Variables of this global structure are used to  
 110:.\Generated_Source\PSoC5/PWM_UNFOLD_B_PM.c **** *  restore the values of non retention registers on wakeup from sleep mode.
 111:.\Generated_Source\PSoC5/PWM_UNFOLD_B_PM.c **** *
 112:.\Generated_Source\PSoC5/PWM_UNFOLD_B_PM.c **** *******************************************************************************/
 113:.\Generated_Source\PSoC5/PWM_UNFOLD_B_PM.c **** void PWM_UNFOLD_B_RestoreConfig(void) 
 114:.\Generated_Source\PSoC5/PWM_UNFOLD_B_PM.c **** {
 104              		.loc 1 114 0
 105              		.cfi_startproc
 106              		@ args = 0, pretend = 0, frame = 8
 107              		@ frame_needed = 1, uses_anonymous_args = 0
 108 0000 80B5     		push	{r7, lr}
 109              	.LCFI2:
ARM GAS  C:\Users\hoangp\AppData\Local\Temp\cc1R9pbZ.s 			page 5


 110              		.cfi_def_cfa_offset 8
 111 0002 82B0     		sub	sp, sp, #8
 112              	.LCFI3:
 113              		.cfi_def_cfa_offset 16
 114 0004 00AF     		add	r7, sp, #0
 115              		.cfi_offset 14, -4
 116              		.cfi_offset 7, -8
 117              	.LCFI4:
 118              		.cfi_def_cfa_register 7
 115:.\Generated_Source\PSoC5/PWM_UNFOLD_B_PM.c ****         #if(!PWM_UNFOLD_B_UsingFixedFunction)
 116:.\Generated_Source\PSoC5/PWM_UNFOLD_B_PM.c ****             #if (CY_UDB_V0)
 117:.\Generated_Source\PSoC5/PWM_UNFOLD_B_PM.c ****                 /* Interrupt State Backup for Critical Region*/
 118:.\Generated_Source\PSoC5/PWM_UNFOLD_B_PM.c ****                 uint8 PWM_UNFOLD_B_interruptState;
 119:.\Generated_Source\PSoC5/PWM_UNFOLD_B_PM.c ****                 /* Enter Critical Region*/
 120:.\Generated_Source\PSoC5/PWM_UNFOLD_B_PM.c ****                 PWM_UNFOLD_B_interruptState = CyEnterCriticalSection();
 119              		.loc 1 120 0
 120 0006 FFF7FEFF 		bl	CyEnterCriticalSection
 121 000a 0346     		mov	r3, r0
 122 000c FB71     		strb	r3, [r7, #7]
 121:.\Generated_Source\PSoC5/PWM_UNFOLD_B_PM.c ****                 #if (PWM_UNFOLD_B_UseStatus)
 122:.\Generated_Source\PSoC5/PWM_UNFOLD_B_PM.c ****                     /* Use the interrupt output of the status register for IRQ output */
 123:.\Generated_Source\PSoC5/PWM_UNFOLD_B_PM.c ****                     PWM_UNFOLD_B_STATUS_AUX_CTRL |= PWM_UNFOLD_B_STATUS_ACTL_INT_EN_MASK;
 123              		.loc 1 123 0
 124 000e 46F29653 		movw	r3, #:lower16:1073767830
 125 0012 C4F20003 		movt	r3, #:upper16:1073767830
 126 0016 46F29652 		movw	r2, #:lower16:1073767830
 127 001a C4F20002 		movt	r2, #:upper16:1073767830
 128 001e 1278     		ldrb	r2, [r2, #0]
 129 0020 D2B2     		uxtb	r2, r2
 130 0022 42F01002 		orr	r2, r2, #16
 131 0026 D2B2     		uxtb	r2, r2
 132 0028 1A70     		strb	r2, [r3, #0]
 124:.\Generated_Source\PSoC5/PWM_UNFOLD_B_PM.c ****                     
 125:.\Generated_Source\PSoC5/PWM_UNFOLD_B_PM.c ****                     PWM_UNFOLD_B_STATUS_MASK = PWM_UNFOLD_B_backup.InterruptMaskValue;
 133              		.loc 1 125 0
 134 002a 46F28653 		movw	r3, #:lower16:1073767814
 135 002e C4F20003 		movt	r3, #:upper16:1073767814
 136 0032 40F20002 		movw	r2, #:lower16:PWM_UNFOLD_B_backup
 137 0036 C0F20002 		movt	r2, #:upper16:PWM_UNFOLD_B_backup
 138 003a D278     		ldrb	r2, [r2, #3]	@ zero_extendqisi2
 139 003c 1A70     		strb	r2, [r3, #0]
 126:.\Generated_Source\PSoC5/PWM_UNFOLD_B_PM.c ****                 #endif /* (PWM_UNFOLD_B_UseStatus) */
 127:.\Generated_Source\PSoC5/PWM_UNFOLD_B_PM.c ****                 
 128:.\Generated_Source\PSoC5/PWM_UNFOLD_B_PM.c ****                 #if (PWM_UNFOLD_B_Resolution == 8)
 129:.\Generated_Source\PSoC5/PWM_UNFOLD_B_PM.c ****                     /* Set FIFO 0 to 1 byte register for period*/
 130:.\Generated_Source\PSoC5/PWM_UNFOLD_B_PM.c ****                     PWM_UNFOLD_B_AUX_CONTROLDP0 |= (PWM_UNFOLD_B_AUX_CTRL_FIFO0_CLR);
 140              		.loc 1 130 0
 141 003e 46F29653 		movw	r3, #:lower16:1073767830
 142 0042 C4F20003 		movt	r3, #:upper16:1073767830
 143 0046 46F29652 		movw	r2, #:lower16:1073767830
 144 004a C4F20002 		movt	r2, #:upper16:1073767830
 145 004e 1278     		ldrb	r2, [r2, #0]
 146 0050 D2B2     		uxtb	r2, r2
 147 0052 42F00102 		orr	r2, r2, #1
 148 0056 D2B2     		uxtb	r2, r2
 149 0058 1A70     		strb	r2, [r3, #0]
 131:.\Generated_Source\PSoC5/PWM_UNFOLD_B_PM.c ****                 #else /* (PWM_UNFOLD_B_Resolution == 16)*/
ARM GAS  C:\Users\hoangp\AppData\Local\Temp\cc1R9pbZ.s 			page 6


 132:.\Generated_Source\PSoC5/PWM_UNFOLD_B_PM.c ****                     /* Set FIFO 0 to 1 byte register for period */
 133:.\Generated_Source\PSoC5/PWM_UNFOLD_B_PM.c ****                     PWM_UNFOLD_B_AUX_CONTROLDP0 |= (PWM_UNFOLD_B_AUX_CTRL_FIFO0_CLR);
 134:.\Generated_Source\PSoC5/PWM_UNFOLD_B_PM.c ****                     PWM_UNFOLD_B_AUX_CONTROLDP1 |= (PWM_UNFOLD_B_AUX_CTRL_FIFO0_CLR);
 135:.\Generated_Source\PSoC5/PWM_UNFOLD_B_PM.c ****                 #endif /* (PWM_UNFOLD_B_Resolution == 8) */
 136:.\Generated_Source\PSoC5/PWM_UNFOLD_B_PM.c ****                 /* Exit Critical Region*/
 137:.\Generated_Source\PSoC5/PWM_UNFOLD_B_PM.c ****                 CyExitCriticalSection(PWM_UNFOLD_B_interruptState);
 150              		.loc 1 137 0
 151 005a FB79     		ldrb	r3, [r7, #7]	@ zero_extendqisi2
 152 005c 1846     		mov	r0, r3
 153 005e FFF7FEFF 		bl	CyExitCriticalSection
 138:.\Generated_Source\PSoC5/PWM_UNFOLD_B_PM.c ****                 
 139:.\Generated_Source\PSoC5/PWM_UNFOLD_B_PM.c ****                 PWM_UNFOLD_B_WriteCounter(PWM_UNFOLD_B_backup.PWMUdb);
 154              		.loc 1 139 0
 155 0062 40F20003 		movw	r3, #:lower16:PWM_UNFOLD_B_backup
 156 0066 C0F20003 		movt	r3, #:upper16:PWM_UNFOLD_B_backup
 157 006a 5B78     		ldrb	r3, [r3, #1]	@ zero_extendqisi2
 158 006c 1846     		mov	r0, r3
 159 006e FFF7FEFF 		bl	PWM_UNFOLD_B_WriteCounter
 140:.\Generated_Source\PSoC5/PWM_UNFOLD_B_PM.c ****                 PWM_UNFOLD_B_WritePeriod(PWM_UNFOLD_B_backup.PWMPeriod);
 160              		.loc 1 140 0
 161 0072 40F20003 		movw	r3, #:lower16:PWM_UNFOLD_B_backup
 162 0076 C0F20003 		movt	r3, #:upper16:PWM_UNFOLD_B_backup
 163 007a 9B78     		ldrb	r3, [r3, #2]	@ zero_extendqisi2
 164 007c 1846     		mov	r0, r3
 165 007e FFF7FEFF 		bl	PWM_UNFOLD_B_WritePeriod
 141:.\Generated_Source\PSoC5/PWM_UNFOLD_B_PM.c ****                 
 142:.\Generated_Source\PSoC5/PWM_UNFOLD_B_PM.c ****                 #if(PWM_UNFOLD_B_UseOneCompareMode)
 143:.\Generated_Source\PSoC5/PWM_UNFOLD_B_PM.c ****                     PWM_UNFOLD_B_WriteCompare(PWM_UNFOLD_B_backup.PWMCompareValue);
 166              		.loc 1 143 0
 167 0082 40F20003 		movw	r3, #:lower16:PWM_UNFOLD_B_backup
 168 0086 C0F20003 		movt	r3, #:upper16:PWM_UNFOLD_B_backup
 169 008a 1B79     		ldrb	r3, [r3, #4]	@ zero_extendqisi2
 170 008c 1846     		mov	r0, r3
 171 008e FFF7FEFF 		bl	PWM_UNFOLD_B_WriteCompare
 144:.\Generated_Source\PSoC5/PWM_UNFOLD_B_PM.c ****                 #else
 145:.\Generated_Source\PSoC5/PWM_UNFOLD_B_PM.c ****                     PWM_UNFOLD_B_WriteCompare1(PWM_UNFOLD_B_backup.PWMCompareValue1);
 146:.\Generated_Source\PSoC5/PWM_UNFOLD_B_PM.c ****                     PWM_UNFOLD_B_WriteCompare2(PWM_UNFOLD_B_backup.PWMCompareValue2);
 147:.\Generated_Source\PSoC5/PWM_UNFOLD_B_PM.c ****                 #endif /* (PWM_UNFOLD_B_UseOneCompareMode) */
 148:.\Generated_Source\PSoC5/PWM_UNFOLD_B_PM.c ****                 
 149:.\Generated_Source\PSoC5/PWM_UNFOLD_B_PM.c ****                #if(PWM_UNFOLD_B_DeadBandMode == PWM_UNFOLD_B__B_PWM__DBM_256_CLOCKS || \
 150:.\Generated_Source\PSoC5/PWM_UNFOLD_B_PM.c ****                    PWM_UNFOLD_B_DeadBandMode == PWM_UNFOLD_B__B_PWM__DBM_2_4_CLOCKS)
 151:.\Generated_Source\PSoC5/PWM_UNFOLD_B_PM.c ****                     PWM_UNFOLD_B_WriteDeadTime(PWM_UNFOLD_B_backup.PWMdeadBandValue);
 172              		.loc 1 151 0
 173 0092 40F20003 		movw	r3, #:lower16:PWM_UNFOLD_B_backup
 174 0096 C0F20003 		movt	r3, #:upper16:PWM_UNFOLD_B_backup
 175 009a 5B79     		ldrb	r3, [r3, #5]	@ zero_extendqisi2
 176 009c 1846     		mov	r0, r3
 177 009e FFF7FEFF 		bl	PWM_UNFOLD_B_WriteDeadTime
 152:.\Generated_Source\PSoC5/PWM_UNFOLD_B_PM.c ****                 #endif /* deadband count is either 2-4 clocks or 256 clocks */
 153:.\Generated_Source\PSoC5/PWM_UNFOLD_B_PM.c ****             
 154:.\Generated_Source\PSoC5/PWM_UNFOLD_B_PM.c ****                 #if ( PWM_UNFOLD_B_KillModeMinTime)
 155:.\Generated_Source\PSoC5/PWM_UNFOLD_B_PM.c ****                     PWM_UNFOLD_B_WriteKillTime(PWM_UNFOLD_B_backup.PWMKillCounterPeriod);
 156:.\Generated_Source\PSoC5/PWM_UNFOLD_B_PM.c ****                 #endif /* ( PWM_UNFOLD_B_KillModeMinTime) */
 157:.\Generated_Source\PSoC5/PWM_UNFOLD_B_PM.c ****             #endif /* (CY_UDB_V0) */
 158:.\Generated_Source\PSoC5/PWM_UNFOLD_B_PM.c ****             
 159:.\Generated_Source\PSoC5/PWM_UNFOLD_B_PM.c ****             #if (CY_UDB_V1)
 160:.\Generated_Source\PSoC5/PWM_UNFOLD_B_PM.c ****                 #if(!PWM_UNFOLD_B_PWMModeIsCenterAligned)
ARM GAS  C:\Users\hoangp\AppData\Local\Temp\cc1R9pbZ.s 			page 7


 161:.\Generated_Source\PSoC5/PWM_UNFOLD_B_PM.c ****                     PWM_UNFOLD_B_WritePeriod(PWM_UNFOLD_B_backup.PWMPeriod);
 162:.\Generated_Source\PSoC5/PWM_UNFOLD_B_PM.c ****                 #endif /* (!PWM_UNFOLD_B_PWMModeIsCenterAligned) */
 163:.\Generated_Source\PSoC5/PWM_UNFOLD_B_PM.c ****                 PWM_UNFOLD_B_WriteCounter(PWM_UNFOLD_B_backup.PWMUdb);
 164:.\Generated_Source\PSoC5/PWM_UNFOLD_B_PM.c ****                 #if (PWM_UNFOLD_B_UseStatus)
 165:.\Generated_Source\PSoC5/PWM_UNFOLD_B_PM.c ****                     PWM_UNFOLD_B_STATUS_MASK = PWM_UNFOLD_B_backup.InterruptMaskValue;
 166:.\Generated_Source\PSoC5/PWM_UNFOLD_B_PM.c ****                 #endif /* (PWM_UNFOLD_B_UseStatus) */
 167:.\Generated_Source\PSoC5/PWM_UNFOLD_B_PM.c ****                 
 168:.\Generated_Source\PSoC5/PWM_UNFOLD_B_PM.c ****                 #if(PWM_UNFOLD_B_DeadBandMode == PWM_UNFOLD_B__B_PWM__DBM_256_CLOCKS || \
 169:.\Generated_Source\PSoC5/PWM_UNFOLD_B_PM.c ****                     PWM_UNFOLD_B_DeadBandMode == PWM_UNFOLD_B__B_PWM__DBM_2_4_CLOCKS)
 170:.\Generated_Source\PSoC5/PWM_UNFOLD_B_PM.c ****                     PWM_UNFOLD_B_WriteDeadTime(PWM_UNFOLD_B_backup.PWMdeadBandValue);
 171:.\Generated_Source\PSoC5/PWM_UNFOLD_B_PM.c ****                 #endif /* deadband count is either 2-4 clocks or 256 clocks */
 172:.\Generated_Source\PSoC5/PWM_UNFOLD_B_PM.c ****                 
 173:.\Generated_Source\PSoC5/PWM_UNFOLD_B_PM.c ****                 #if(PWM_UNFOLD_B_KillModeMinTime)
 174:.\Generated_Source\PSoC5/PWM_UNFOLD_B_PM.c ****                     PWM_UNFOLD_B_WriteKillTime(PWM_UNFOLD_B_backup.PWMKillCounterPeriod);
 175:.\Generated_Source\PSoC5/PWM_UNFOLD_B_PM.c ****                 #endif /* (PWM_UNFOLD_B_KillModeMinTime) */
 176:.\Generated_Source\PSoC5/PWM_UNFOLD_B_PM.c ****             #endif /* (CY_UDB_V1) */
 177:.\Generated_Source\PSoC5/PWM_UNFOLD_B_PM.c ****             
 178:.\Generated_Source\PSoC5/PWM_UNFOLD_B_PM.c ****             #if(PWM_UNFOLD_B_UseControl)
 179:.\Generated_Source\PSoC5/PWM_UNFOLD_B_PM.c ****                 PWM_UNFOLD_B_WriteControlRegister(PWM_UNFOLD_B_backup.PWMControlRegister); 
 178              		.loc 1 179 0
 179 00a2 40F20003 		movw	r3, #:lower16:PWM_UNFOLD_B_backup
 180 00a6 C0F20003 		movt	r3, #:upper16:PWM_UNFOLD_B_backup
 181 00aa 9B79     		ldrb	r3, [r3, #6]	@ zero_extendqisi2
 182 00ac 1846     		mov	r0, r3
 183 00ae FFF7FEFF 		bl	PWM_UNFOLD_B_WriteControlRegister
 180:.\Generated_Source\PSoC5/PWM_UNFOLD_B_PM.c ****             #endif /* (PWM_UNFOLD_B_UseControl) */
 181:.\Generated_Source\PSoC5/PWM_UNFOLD_B_PM.c ****         #endif  /* (!PWM_UNFOLD_B_UsingFixedFunction) */
 182:.\Generated_Source\PSoC5/PWM_UNFOLD_B_PM.c ****     }
 184              		.loc 1 182 0
 185 00b2 07F10807 		add	r7, r7, #8
 186 00b6 BD46     		mov	sp, r7
 187 00b8 80BD     		pop	{r7, pc}
 188              		.cfi_endproc
 189              	.LFE1:
 190              		.size	PWM_UNFOLD_B_RestoreConfig, .-PWM_UNFOLD_B_RestoreConfig
 191 00ba 00BF     		.section	.text.PWM_UNFOLD_B_Sleep,"ax",%progbits
 192              		.align	2
 193              		.global	PWM_UNFOLD_B_Sleep
 194              		.thumb
 195              		.thumb_func
 196              		.type	PWM_UNFOLD_B_Sleep, %function
 197              	PWM_UNFOLD_B_Sleep:
 198              	.LFB2:
 183:.\Generated_Source\PSoC5/PWM_UNFOLD_B_PM.c **** 
 184:.\Generated_Source\PSoC5/PWM_UNFOLD_B_PM.c **** 
 185:.\Generated_Source\PSoC5/PWM_UNFOLD_B_PM.c **** /*******************************************************************************
 186:.\Generated_Source\PSoC5/PWM_UNFOLD_B_PM.c **** * Function Name: PWM_UNFOLD_B_Sleep
 187:.\Generated_Source\PSoC5/PWM_UNFOLD_B_PM.c **** ********************************************************************************
 188:.\Generated_Source\PSoC5/PWM_UNFOLD_B_PM.c **** * 
 189:.\Generated_Source\PSoC5/PWM_UNFOLD_B_PM.c **** * Summary:
 190:.\Generated_Source\PSoC5/PWM_UNFOLD_B_PM.c **** *  Disables block's operation and saves the user configuration. Should be called 
 191:.\Generated_Source\PSoC5/PWM_UNFOLD_B_PM.c **** *  just prior to entering sleep.
 192:.\Generated_Source\PSoC5/PWM_UNFOLD_B_PM.c **** *  
 193:.\Generated_Source\PSoC5/PWM_UNFOLD_B_PM.c **** * Parameters:  
 194:.\Generated_Source\PSoC5/PWM_UNFOLD_B_PM.c **** *  None
 195:.\Generated_Source\PSoC5/PWM_UNFOLD_B_PM.c **** *
 196:.\Generated_Source\PSoC5/PWM_UNFOLD_B_PM.c **** * Return: 
ARM GAS  C:\Users\hoangp\AppData\Local\Temp\cc1R9pbZ.s 			page 8


 197:.\Generated_Source\PSoC5/PWM_UNFOLD_B_PM.c **** *  None
 198:.\Generated_Source\PSoC5/PWM_UNFOLD_B_PM.c **** *
 199:.\Generated_Source\PSoC5/PWM_UNFOLD_B_PM.c **** * Global variables:
 200:.\Generated_Source\PSoC5/PWM_UNFOLD_B_PM.c **** *  PWM_UNFOLD_B_backup.PWMEnableState:  Is modified depending on the enable 
 201:.\Generated_Source\PSoC5/PWM_UNFOLD_B_PM.c **** *  state of the block before entering sleep mode.
 202:.\Generated_Source\PSoC5/PWM_UNFOLD_B_PM.c **** *
 203:.\Generated_Source\PSoC5/PWM_UNFOLD_B_PM.c **** *******************************************************************************/
 204:.\Generated_Source\PSoC5/PWM_UNFOLD_B_PM.c **** void PWM_UNFOLD_B_Sleep(void) 
 205:.\Generated_Source\PSoC5/PWM_UNFOLD_B_PM.c **** {
 199              		.loc 1 205 0
 200              		.cfi_startproc
 201              		@ args = 0, pretend = 0, frame = 0
 202              		@ frame_needed = 1, uses_anonymous_args = 0
 203 0000 80B5     		push	{r7, lr}
 204              	.LCFI5:
 205              		.cfi_def_cfa_offset 8
 206 0002 00AF     		add	r7, sp, #0
 207              		.cfi_offset 14, -4
 208              		.cfi_offset 7, -8
 209              	.LCFI6:
 210              		.cfi_def_cfa_register 7
 206:.\Generated_Source\PSoC5/PWM_UNFOLD_B_PM.c ****     #if(PWM_UNFOLD_B_UseControl)
 207:.\Generated_Source\PSoC5/PWM_UNFOLD_B_PM.c ****         if(PWM_UNFOLD_B_CTRL_ENABLE == (PWM_UNFOLD_B_CONTROL & PWM_UNFOLD_B_CTRL_ENABLE))
 211              		.loc 1 207 0
 212 0004 46F27743 		movw	r3, #:lower16:1073767543
 213 0008 C4F20003 		movt	r3, #:upper16:1073767543
 214 000c 1B78     		ldrb	r3, [r3, #0]
 215 000e DBB2     		uxtb	r3, r3
 216 0010 5BB2     		sxtb	r3, r3
 217 0012 002B     		cmp	r3, #0
 218 0014 07DA     		bge	.L6
 208:.\Generated_Source\PSoC5/PWM_UNFOLD_B_PM.c ****         {
 209:.\Generated_Source\PSoC5/PWM_UNFOLD_B_PM.c ****             /*Component is enabled */
 210:.\Generated_Source\PSoC5/PWM_UNFOLD_B_PM.c ****             PWM_UNFOLD_B_backup.PWMEnableState = 1u;
 219              		.loc 1 210 0
 220 0016 40F20003 		movw	r3, #:lower16:PWM_UNFOLD_B_backup
 221 001a C0F20003 		movt	r3, #:upper16:PWM_UNFOLD_B_backup
 222 001e 4FF00102 		mov	r2, #1
 223 0022 1A70     		strb	r2, [r3, #0]
 224 0024 06E0     		b	.L7
 225              	.L6:
 211:.\Generated_Source\PSoC5/PWM_UNFOLD_B_PM.c ****         }
 212:.\Generated_Source\PSoC5/PWM_UNFOLD_B_PM.c ****         else
 213:.\Generated_Source\PSoC5/PWM_UNFOLD_B_PM.c ****         {
 214:.\Generated_Source\PSoC5/PWM_UNFOLD_B_PM.c ****             /* Component is disabled */
 215:.\Generated_Source\PSoC5/PWM_UNFOLD_B_PM.c ****             PWM_UNFOLD_B_backup.PWMEnableState = 0u;
 226              		.loc 1 215 0
 227 0026 40F20003 		movw	r3, #:lower16:PWM_UNFOLD_B_backup
 228 002a C0F20003 		movt	r3, #:upper16:PWM_UNFOLD_B_backup
 229 002e 4FF00002 		mov	r2, #0
 230 0032 1A70     		strb	r2, [r3, #0]
 231              	.L7:
 216:.\Generated_Source\PSoC5/PWM_UNFOLD_B_PM.c ****         }
 217:.\Generated_Source\PSoC5/PWM_UNFOLD_B_PM.c ****     #endif /* (PWM_UNFOLD_B_UseControl) */
 218:.\Generated_Source\PSoC5/PWM_UNFOLD_B_PM.c **** 
 219:.\Generated_Source\PSoC5/PWM_UNFOLD_B_PM.c ****     /* Stop component */
 220:.\Generated_Source\PSoC5/PWM_UNFOLD_B_PM.c ****     PWM_UNFOLD_B_Stop();
ARM GAS  C:\Users\hoangp\AppData\Local\Temp\cc1R9pbZ.s 			page 9


 232              		.loc 1 220 0
 233 0034 FFF7FEFF 		bl	PWM_UNFOLD_B_Stop
 221:.\Generated_Source\PSoC5/PWM_UNFOLD_B_PM.c ****     
 222:.\Generated_Source\PSoC5/PWM_UNFOLD_B_PM.c ****     /* Save registers configuration */
 223:.\Generated_Source\PSoC5/PWM_UNFOLD_B_PM.c ****     PWM_UNFOLD_B_SaveConfig();
 234              		.loc 1 223 0
 235 0038 FFF7FEFF 		bl	PWM_UNFOLD_B_SaveConfig
 224:.\Generated_Source\PSoC5/PWM_UNFOLD_B_PM.c **** }
 236              		.loc 1 224 0
 237 003c 80BD     		pop	{r7, pc}
 238              		.cfi_endproc
 239              	.LFE2:
 240              		.size	PWM_UNFOLD_B_Sleep, .-PWM_UNFOLD_B_Sleep
 241 003e 00BF     		.section	.text.PWM_UNFOLD_B_Wakeup,"ax",%progbits
 242              		.align	2
 243              		.global	PWM_UNFOLD_B_Wakeup
 244              		.thumb
 245              		.thumb_func
 246              		.type	PWM_UNFOLD_B_Wakeup, %function
 247              	PWM_UNFOLD_B_Wakeup:
 248              	.LFB3:
 225:.\Generated_Source\PSoC5/PWM_UNFOLD_B_PM.c **** 
 226:.\Generated_Source\PSoC5/PWM_UNFOLD_B_PM.c **** 
 227:.\Generated_Source\PSoC5/PWM_UNFOLD_B_PM.c **** /*******************************************************************************
 228:.\Generated_Source\PSoC5/PWM_UNFOLD_B_PM.c **** * Function Name: PWM_UNFOLD_B_Wakeup
 229:.\Generated_Source\PSoC5/PWM_UNFOLD_B_PM.c **** ********************************************************************************
 230:.\Generated_Source\PSoC5/PWM_UNFOLD_B_PM.c **** * 
 231:.\Generated_Source\PSoC5/PWM_UNFOLD_B_PM.c **** * Summary:
 232:.\Generated_Source\PSoC5/PWM_UNFOLD_B_PM.c **** *  Restores and enables the user configuration. Should be called just after 
 233:.\Generated_Source\PSoC5/PWM_UNFOLD_B_PM.c **** *  awaking from sleep.
 234:.\Generated_Source\PSoC5/PWM_UNFOLD_B_PM.c **** *  
 235:.\Generated_Source\PSoC5/PWM_UNFOLD_B_PM.c **** * Parameters:  
 236:.\Generated_Source\PSoC5/PWM_UNFOLD_B_PM.c **** *  None
 237:.\Generated_Source\PSoC5/PWM_UNFOLD_B_PM.c **** *
 238:.\Generated_Source\PSoC5/PWM_UNFOLD_B_PM.c **** * Return: 
 239:.\Generated_Source\PSoC5/PWM_UNFOLD_B_PM.c **** *  None
 240:.\Generated_Source\PSoC5/PWM_UNFOLD_B_PM.c **** *
 241:.\Generated_Source\PSoC5/PWM_UNFOLD_B_PM.c **** * Global variables:
 242:.\Generated_Source\PSoC5/PWM_UNFOLD_B_PM.c **** *  PWM_UNFOLD_B_backup.pwmEnable:  Is used to restore the enable state of 
 243:.\Generated_Source\PSoC5/PWM_UNFOLD_B_PM.c **** *  block on wakeup from sleep mode.
 244:.\Generated_Source\PSoC5/PWM_UNFOLD_B_PM.c **** *
 245:.\Generated_Source\PSoC5/PWM_UNFOLD_B_PM.c **** *******************************************************************************/
 246:.\Generated_Source\PSoC5/PWM_UNFOLD_B_PM.c **** void PWM_UNFOLD_B_Wakeup(void) 
 247:.\Generated_Source\PSoC5/PWM_UNFOLD_B_PM.c **** {
 249              		.loc 1 247 0
 250              		.cfi_startproc
 251              		@ args = 0, pretend = 0, frame = 0
 252              		@ frame_needed = 1, uses_anonymous_args = 0
 253 0000 80B5     		push	{r7, lr}
 254              	.LCFI7:
 255              		.cfi_def_cfa_offset 8
 256 0002 00AF     		add	r7, sp, #0
 257              		.cfi_offset 14, -4
 258              		.cfi_offset 7, -8
 259              	.LCFI8:
 260              		.cfi_def_cfa_register 7
 248:.\Generated_Source\PSoC5/PWM_UNFOLD_B_PM.c ****      /* Restore registers values */
ARM GAS  C:\Users\hoangp\AppData\Local\Temp\cc1R9pbZ.s 			page 10


 249:.\Generated_Source\PSoC5/PWM_UNFOLD_B_PM.c ****     PWM_UNFOLD_B_RestoreConfig();
 261              		.loc 1 249 0
 262 0004 FFF7FEFF 		bl	PWM_UNFOLD_B_RestoreConfig
 250:.\Generated_Source\PSoC5/PWM_UNFOLD_B_PM.c ****     
 251:.\Generated_Source\PSoC5/PWM_UNFOLD_B_PM.c ****     if(PWM_UNFOLD_B_backup.PWMEnableState != 0u)
 263              		.loc 1 251 0
 264 0008 40F20003 		movw	r3, #:lower16:PWM_UNFOLD_B_backup
 265 000c C0F20003 		movt	r3, #:upper16:PWM_UNFOLD_B_backup
 266 0010 1B78     		ldrb	r3, [r3, #0]	@ zero_extendqisi2
 267 0012 002B     		cmp	r3, #0
 268 0014 01D0     		beq	.L11
 252:.\Generated_Source\PSoC5/PWM_UNFOLD_B_PM.c ****     {
 253:.\Generated_Source\PSoC5/PWM_UNFOLD_B_PM.c ****         /* Enable component's operation */
 254:.\Generated_Source\PSoC5/PWM_UNFOLD_B_PM.c ****         PWM_UNFOLD_B_Enable();
 269              		.loc 1 254 0
 270 0016 FFF7FEFF 		bl	PWM_UNFOLD_B_Enable
 271              	.L11:
 255:.\Generated_Source\PSoC5/PWM_UNFOLD_B_PM.c ****     } /* Do nothing if component's block was disabled before */
 256:.\Generated_Source\PSoC5/PWM_UNFOLD_B_PM.c ****     
 257:.\Generated_Source\PSoC5/PWM_UNFOLD_B_PM.c **** }
 272              		.loc 1 257 0
 273 001a 80BD     		pop	{r7, pc}
 274              		.cfi_endproc
 275              	.LFE3:
 276              		.size	PWM_UNFOLD_B_Wakeup, .-PWM_UNFOLD_B_Wakeup
 277              		.text
 278              	.Letext0: