ARM GAS  C:\Users\hoangp\AppData\Local\Temp\ccq0lsHW.s 			page 1


   1              		.syntax unified
   2              		.cpu cortex-m3
   3              		.fpu softvfp
   4              		.eabi_attribute 20, 1
   5              		.eabi_attribute 21, 1
   6              		.eabi_attribute 23, 3
   7              		.eabi_attribute 24, 1
   8              		.eabi_attribute 25, 1
   9              		.eabi_attribute 26, 1
  10              		.eabi_attribute 30, 6
  11              		.eabi_attribute 18, 4
  12              		.thumb
  13              		.file	"PWM_BUCK.c"
  20 0000 CE010000 		.text
  20      02006100 
  20      00000201 
  20      FB0E0D00 
  20      01010101 
  21              	.Ltext0:
  22              		.cfi_sections	.debug_frame
  23              		.global	PWM_BUCK_initVar
  24              		.bss
  25              		.type	PWM_BUCK_initVar, %object
  26              		.size	PWM_BUCK_initVar, 1
  27              	PWM_BUCK_initVar:
  28 0000 00       		.space	1
  29              		.section	.text.PWM_BUCK_Start,"ax",%progbits
  30              		.align	2
  31              		.global	PWM_BUCK_Start
  32              		.thumb
  33              		.thumb_func
  34              		.type	PWM_BUCK_Start, %function
  35              	PWM_BUCK_Start:
  36              	.LFB0:
  37              		.file 1 ".\\Generated_Source\\PSoC5\\PWM_BUCK.c"
   1:.\Generated_Source\PSoC5/PWM_BUCK.c **** /*******************************************************************************
   2:.\Generated_Source\PSoC5/PWM_BUCK.c **** * File Name: PWM_BUCK.c  
   3:.\Generated_Source\PSoC5/PWM_BUCK.c **** * Version 2.40
   4:.\Generated_Source\PSoC5/PWM_BUCK.c **** *
   5:.\Generated_Source\PSoC5/PWM_BUCK.c **** * Description:
   6:.\Generated_Source\PSoC5/PWM_BUCK.c **** *  The PWM User Module consist of an 8 or 16-bit counter with two 8 or 16-bit
   7:.\Generated_Source\PSoC5/PWM_BUCK.c **** *  comparitors. Each instance of this user module is capable of generating
   8:.\Generated_Source\PSoC5/PWM_BUCK.c **** *  two PWM outputs with the same period. The pulse width is selectable between
   9:.\Generated_Source\PSoC5/PWM_BUCK.c **** *  1 and 255/65535. The period is selectable between 2 and 255/65536 clocks. 
  10:.\Generated_Source\PSoC5/PWM_BUCK.c **** *  The compare value output may be configured to be active when the present 
  11:.\Generated_Source\PSoC5/PWM_BUCK.c **** *  counter is less than or less than/equal to the compare value.
  12:.\Generated_Source\PSoC5/PWM_BUCK.c **** *  A terminal count output is also provided. It generates a pulse one clock
  13:.\Generated_Source\PSoC5/PWM_BUCK.c **** *  width wide when the counter is equal to zero.
  14:.\Generated_Source\PSoC5/PWM_BUCK.c **** *
  15:.\Generated_Source\PSoC5/PWM_BUCK.c **** * Note:
  16:.\Generated_Source\PSoC5/PWM_BUCK.c **** *
ARM GAS  C:\Users\hoangp\AppData\Local\Temp\ccq0lsHW.s 			page 2


  17:.\Generated_Source\PSoC5/PWM_BUCK.c **** *******************************************************************************
  18:.\Generated_Source\PSoC5/PWM_BUCK.c **** * Copyright 2008-2012, Cypress Semiconductor Corporation.  All rights reserved.
  19:.\Generated_Source\PSoC5/PWM_BUCK.c **** * You may use this file only in accordance with the license, terms, conditions, 
  20:.\Generated_Source\PSoC5/PWM_BUCK.c **** * disclaimers, and limitations in the end user license agreement accompanying 
  21:.\Generated_Source\PSoC5/PWM_BUCK.c **** * the software package with which this file was provided.
  22:.\Generated_Source\PSoC5/PWM_BUCK.c **** ********************************************************************************/
  23:.\Generated_Source\PSoC5/PWM_BUCK.c **** 
  24:.\Generated_Source\PSoC5/PWM_BUCK.c **** #include "cytypes.h"
  25:.\Generated_Source\PSoC5/PWM_BUCK.c **** #include "PWM_BUCK.h"
  26:.\Generated_Source\PSoC5/PWM_BUCK.c **** 
  27:.\Generated_Source\PSoC5/PWM_BUCK.c **** uint8 PWM_BUCK_initVar = 0u;
  28:.\Generated_Source\PSoC5/PWM_BUCK.c **** 
  29:.\Generated_Source\PSoC5/PWM_BUCK.c **** 
  30:.\Generated_Source\PSoC5/PWM_BUCK.c **** /*******************************************************************************
  31:.\Generated_Source\PSoC5/PWM_BUCK.c **** * Function Name: PWM_BUCK_Start
  32:.\Generated_Source\PSoC5/PWM_BUCK.c **** ********************************************************************************
  33:.\Generated_Source\PSoC5/PWM_BUCK.c **** *
  34:.\Generated_Source\PSoC5/PWM_BUCK.c **** * Summary:
  35:.\Generated_Source\PSoC5/PWM_BUCK.c **** *  The start function initializes the pwm with the default values, the 
  36:.\Generated_Source\PSoC5/PWM_BUCK.c **** *  enables the counter to begin counting.  It does not enable interrupts,
  37:.\Generated_Source\PSoC5/PWM_BUCK.c **** *  the EnableInt command should be called if interrupt generation is required.
  38:.\Generated_Source\PSoC5/PWM_BUCK.c **** *
  39:.\Generated_Source\PSoC5/PWM_BUCK.c **** * Parameters:  
  40:.\Generated_Source\PSoC5/PWM_BUCK.c **** *  None  
  41:.\Generated_Source\PSoC5/PWM_BUCK.c **** *
  42:.\Generated_Source\PSoC5/PWM_BUCK.c **** * Return: 
  43:.\Generated_Source\PSoC5/PWM_BUCK.c **** *  None
  44:.\Generated_Source\PSoC5/PWM_BUCK.c **** *
  45:.\Generated_Source\PSoC5/PWM_BUCK.c **** * Global variables:
  46:.\Generated_Source\PSoC5/PWM_BUCK.c **** *  PWM_BUCK_initVar: Is modified when this function is called for the 
  47:.\Generated_Source\PSoC5/PWM_BUCK.c **** *   first time. Is used to ensure that initialization happens only once.
  48:.\Generated_Source\PSoC5/PWM_BUCK.c **** *
  49:.\Generated_Source\PSoC5/PWM_BUCK.c **** *******************************************************************************/
  50:.\Generated_Source\PSoC5/PWM_BUCK.c **** void PWM_BUCK_Start(void) 
  51:.\Generated_Source\PSoC5/PWM_BUCK.c **** {
  38              		.loc 1 51 0
  39              		.cfi_startproc
  40              		@ args = 0, pretend = 0, frame = 0
  41              		@ frame_needed = 1, uses_anonymous_args = 0
  42 0000 80B5     		push	{r7, lr}
  43              	.LCFI0:
  44              		.cfi_def_cfa_offset 8
  45 0002 00AF     		add	r7, sp, #0
  46              		.cfi_offset 14, -4
  47              		.cfi_offset 7, -8
  48              	.LCFI1:
  49              		.cfi_def_cfa_register 7
  52:.\Generated_Source\PSoC5/PWM_BUCK.c ****     /* If not Initialized then initialize all required hardware and software */
  53:.\Generated_Source\PSoC5/PWM_BUCK.c ****     if(PWM_BUCK_initVar == 0u)
  50              		.loc 1 53 0
  51 0004 40F20003 		movw	r3, #:lower16:PWM_BUCK_initVar
  52 0008 C0F20003 		movt	r3, #:upper16:PWM_BUCK_initVar
  53 000c 1B78     		ldrb	r3, [r3, #0]	@ zero_extendqisi2
  54 000e 002B     		cmp	r3, #0
  55 0010 08D1     		bne	.L2
  54:.\Generated_Source\PSoC5/PWM_BUCK.c ****     {
  55:.\Generated_Source\PSoC5/PWM_BUCK.c ****         PWM_BUCK_Init();
ARM GAS  C:\Users\hoangp\AppData\Local\Temp\ccq0lsHW.s 			page 3


  56              		.loc 1 55 0
  57 0012 FFF7FEFF 		bl	PWM_BUCK_Init
  56:.\Generated_Source\PSoC5/PWM_BUCK.c ****         PWM_BUCK_initVar = 1u;
  58              		.loc 1 56 0
  59 0016 40F20003 		movw	r3, #:lower16:PWM_BUCK_initVar
  60 001a C0F20003 		movt	r3, #:upper16:PWM_BUCK_initVar
  61 001e 4FF00102 		mov	r2, #1
  62 0022 1A70     		strb	r2, [r3, #0]
  63              	.L2:
  57:.\Generated_Source\PSoC5/PWM_BUCK.c ****     }
  58:.\Generated_Source\PSoC5/PWM_BUCK.c ****     PWM_BUCK_Enable();
  64              		.loc 1 58 0
  65 0024 FFF7FEFF 		bl	PWM_BUCK_Enable
  59:.\Generated_Source\PSoC5/PWM_BUCK.c **** 
  60:.\Generated_Source\PSoC5/PWM_BUCK.c **** }
  66              		.loc 1 60 0
  67 0028 80BD     		pop	{r7, pc}
  68              		.cfi_endproc
  69              	.LFE0:
  70              		.size	PWM_BUCK_Start, .-PWM_BUCK_Start
  71 002a 00BF     		.section	.text.PWM_BUCK_Init,"ax",%progbits
  72              		.align	2
  73              		.global	PWM_BUCK_Init
  74              		.thumb
  75              		.thumb_func
  76              		.type	PWM_BUCK_Init, %function
  77              	PWM_BUCK_Init:
  78              	.LFB1:
  61:.\Generated_Source\PSoC5/PWM_BUCK.c **** 
  62:.\Generated_Source\PSoC5/PWM_BUCK.c **** 
  63:.\Generated_Source\PSoC5/PWM_BUCK.c **** /*******************************************************************************
  64:.\Generated_Source\PSoC5/PWM_BUCK.c **** * Function Name: PWM_BUCK_Init
  65:.\Generated_Source\PSoC5/PWM_BUCK.c **** ********************************************************************************
  66:.\Generated_Source\PSoC5/PWM_BUCK.c **** *
  67:.\Generated_Source\PSoC5/PWM_BUCK.c **** * Summary:
  68:.\Generated_Source\PSoC5/PWM_BUCK.c **** *  Initialize component's parameters to the parameters set by user in the 
  69:.\Generated_Source\PSoC5/PWM_BUCK.c **** *  customizer of the component placed onto schematic. Usually called in 
  70:.\Generated_Source\PSoC5/PWM_BUCK.c **** *  PWM_BUCK_Start().
  71:.\Generated_Source\PSoC5/PWM_BUCK.c **** *
  72:.\Generated_Source\PSoC5/PWM_BUCK.c **** * Parameters:  
  73:.\Generated_Source\PSoC5/PWM_BUCK.c **** *  None
  74:.\Generated_Source\PSoC5/PWM_BUCK.c **** *
  75:.\Generated_Source\PSoC5/PWM_BUCK.c **** * Return: 
  76:.\Generated_Source\PSoC5/PWM_BUCK.c **** *  None
  77:.\Generated_Source\PSoC5/PWM_BUCK.c **** *
  78:.\Generated_Source\PSoC5/PWM_BUCK.c **** *******************************************************************************/
  79:.\Generated_Source\PSoC5/PWM_BUCK.c **** void PWM_BUCK_Init(void) 
  80:.\Generated_Source\PSoC5/PWM_BUCK.c **** {
  79              		.loc 1 80 0
  80              		.cfi_startproc
  81              		@ args = 0, pretend = 0, frame = 8
  82              		@ frame_needed = 1, uses_anonymous_args = 0
  83 0000 80B5     		push	{r7, lr}
  84              	.LCFI2:
  85              		.cfi_def_cfa_offset 8
  86 0002 82B0     		sub	sp, sp, #8
  87              	.LCFI3:
ARM GAS  C:\Users\hoangp\AppData\Local\Temp\ccq0lsHW.s 			page 4


  88              		.cfi_def_cfa_offset 16
  89 0004 00AF     		add	r7, sp, #0
  90              		.cfi_offset 14, -4
  91              		.cfi_offset 7, -8
  92              	.LCFI4:
  93              		.cfi_def_cfa_register 7
  81:.\Generated_Source\PSoC5/PWM_BUCK.c ****     #if (PWM_BUCK_UsingFixedFunction || PWM_BUCK_UseControl)
  82:.\Generated_Source\PSoC5/PWM_BUCK.c ****         uint8 ctrl;
  83:.\Generated_Source\PSoC5/PWM_BUCK.c ****     #endif /* (PWM_BUCK_UsingFixedFunction || PWM_BUCK_UseControl) */
  84:.\Generated_Source\PSoC5/PWM_BUCK.c ****     
  85:.\Generated_Source\PSoC5/PWM_BUCK.c ****     #if(!PWM_BUCK_UsingFixedFunction) 
  86:.\Generated_Source\PSoC5/PWM_BUCK.c ****         #if(PWM_BUCK_UseStatus)
  87:.\Generated_Source\PSoC5/PWM_BUCK.c ****             /* Interrupt State Backup for Critical Region*/
  88:.\Generated_Source\PSoC5/PWM_BUCK.c ****             uint8 PWM_BUCK_interruptState;
  89:.\Generated_Source\PSoC5/PWM_BUCK.c ****         #endif /* (PWM_BUCK_UseStatus) */
  90:.\Generated_Source\PSoC5/PWM_BUCK.c ****     #endif /* (!PWM_BUCK_UsingFixedFunction) */
  91:.\Generated_Source\PSoC5/PWM_BUCK.c ****     
  92:.\Generated_Source\PSoC5/PWM_BUCK.c ****     #if (PWM_BUCK_UsingFixedFunction)
  93:.\Generated_Source\PSoC5/PWM_BUCK.c ****         /* You are allowed to write the compare value (FF only) */
  94:.\Generated_Source\PSoC5/PWM_BUCK.c ****         PWM_BUCK_CONTROL |= PWM_BUCK_CFG0_MODE;
  95:.\Generated_Source\PSoC5/PWM_BUCK.c ****         #if (PWM_BUCK_DeadBand2_4)
  96:.\Generated_Source\PSoC5/PWM_BUCK.c ****             PWM_BUCK_CONTROL |= PWM_BUCK_CFG0_DB;
  97:.\Generated_Source\PSoC5/PWM_BUCK.c ****         #endif /* (PWM_BUCK_DeadBand2_4) */
  98:.\Generated_Source\PSoC5/PWM_BUCK.c ****                 
  99:.\Generated_Source\PSoC5/PWM_BUCK.c ****         /* Set the default Compare Mode */
 100:.\Generated_Source\PSoC5/PWM_BUCK.c ****         #if(CY_PSOC5A)
 101:.\Generated_Source\PSoC5/PWM_BUCK.c ****                 ctrl = PWM_BUCK_CONTROL2 & ((uint8)(~PWM_BUCK_CTRL_CMPMODE1_MASK));
 102:.\Generated_Source\PSoC5/PWM_BUCK.c ****                 PWM_BUCK_CONTROL2 = ctrl | PWM_BUCK_DEFAULT_COMPARE1_MODE;
 103:.\Generated_Source\PSoC5/PWM_BUCK.c ****         #endif /* (CY_PSOC5A) */
 104:.\Generated_Source\PSoC5/PWM_BUCK.c ****         #if(CY_PSOC3 || CY_PSOC5LP)
 105:.\Generated_Source\PSoC5/PWM_BUCK.c ****                 ctrl = PWM_BUCK_CONTROL3 & ((uint8 )(~PWM_BUCK_CTRL_CMPMODE1_MASK));
 106:.\Generated_Source\PSoC5/PWM_BUCK.c ****                 PWM_BUCK_CONTROL3 = ctrl | PWM_BUCK_DEFAULT_COMPARE1_MODE;
 107:.\Generated_Source\PSoC5/PWM_BUCK.c ****         #endif /* (CY_PSOC3 || CY_PSOC5LP) */
 108:.\Generated_Source\PSoC5/PWM_BUCK.c ****         
 109:.\Generated_Source\PSoC5/PWM_BUCK.c ****          /* Clear and Set SYNCTC and SYNCCMP bits of RT1 register */
 110:.\Generated_Source\PSoC5/PWM_BUCK.c ****         PWM_BUCK_RT1 &= ((uint8)(~PWM_BUCK_RT1_MASK));
 111:.\Generated_Source\PSoC5/PWM_BUCK.c ****         PWM_BUCK_RT1 |= PWM_BUCK_SYNC;     
 112:.\Generated_Source\PSoC5/PWM_BUCK.c ****                 
 113:.\Generated_Source\PSoC5/PWM_BUCK.c ****         /*Enable DSI Sync all all inputs of the PWM*/
 114:.\Generated_Source\PSoC5/PWM_BUCK.c ****         PWM_BUCK_RT1 &= ((uint8)(~PWM_BUCK_SYNCDSI_MASK));
 115:.\Generated_Source\PSoC5/PWM_BUCK.c ****         PWM_BUCK_RT1 |= PWM_BUCK_SYNCDSI_EN;
 116:.\Generated_Source\PSoC5/PWM_BUCK.c ****        
 117:.\Generated_Source\PSoC5/PWM_BUCK.c ****     #elif (PWM_BUCK_UseControl)
 118:.\Generated_Source\PSoC5/PWM_BUCK.c ****         /* Set the default compare mode defined in the parameter */
 119:.\Generated_Source\PSoC5/PWM_BUCK.c ****         ctrl = PWM_BUCK_CONTROL & ((uint8)(~PWM_BUCK_CTRL_CMPMODE2_MASK)) & ((uint8)(~PWM_BUCK_CTRL
  94              		.loc 1 119 0
  95 0006 46F27453 		movw	r3, #:lower16:1073767796
  96 000a C4F20003 		movt	r3, #:upper16:1073767796
  97 000e 1B78     		ldrb	r3, [r3, #0]
  98 0010 DBB2     		uxtb	r3, r3
  99 0012 23F03F03 		bic	r3, r3, #63
 100 0016 BB71     		strb	r3, [r7, #6]
 120:.\Generated_Source\PSoC5/PWM_BUCK.c ****         PWM_BUCK_CONTROL = ctrl | PWM_BUCK_DEFAULT_COMPARE2_MODE | 
 101              		.loc 1 120 0
 102 0018 46F27453 		movw	r3, #:lower16:1073767796
 103 001c C4F20003 		movt	r3, #:upper16:1073767796
 104 0020 BA79     		ldrb	r2, [r7, #6]
ARM GAS  C:\Users\hoangp\AppData\Local\Temp\ccq0lsHW.s 			page 5


 105 0022 42F01902 		orr	r2, r2, #25
 106 0026 D2B2     		uxtb	r2, r2
 107 0028 1A70     		strb	r2, [r3, #0]
 121:.\Generated_Source\PSoC5/PWM_BUCK.c ****                                    PWM_BUCK_DEFAULT_COMPARE1_MODE;
 122:.\Generated_Source\PSoC5/PWM_BUCK.c ****     #endif /* (PWM_BUCK_UsingFixedFunction) */
 123:.\Generated_Source\PSoC5/PWM_BUCK.c ****         
 124:.\Generated_Source\PSoC5/PWM_BUCK.c ****     #if (!PWM_BUCK_UsingFixedFunction)
 125:.\Generated_Source\PSoC5/PWM_BUCK.c ****         #if (PWM_BUCK_Resolution == 8)
 126:.\Generated_Source\PSoC5/PWM_BUCK.c ****             /* Set FIFO 0 to 1 byte register for period*/
 127:.\Generated_Source\PSoC5/PWM_BUCK.c ****             PWM_BUCK_AUX_CONTROLDP0 |= (PWM_BUCK_AUX_CTRL_FIFO0_CLR);
 128:.\Generated_Source\PSoC5/PWM_BUCK.c ****         #else /* (PWM_BUCK_Resolution == 16)*/
 129:.\Generated_Source\PSoC5/PWM_BUCK.c ****             /* Set FIFO 0 to 1 byte register for period */
 130:.\Generated_Source\PSoC5/PWM_BUCK.c ****             PWM_BUCK_AUX_CONTROLDP0 |= (PWM_BUCK_AUX_CTRL_FIFO0_CLR);
 108              		.loc 1 130 0
 109 002a 46F29453 		movw	r3, #:lower16:1073767828
 110 002e C4F20003 		movt	r3, #:upper16:1073767828
 111 0032 46F29452 		movw	r2, #:lower16:1073767828
 112 0036 C4F20002 		movt	r2, #:upper16:1073767828
 113 003a 1278     		ldrb	r2, [r2, #0]
 114 003c D2B2     		uxtb	r2, r2
 115 003e 42F00102 		orr	r2, r2, #1
 116 0042 D2B2     		uxtb	r2, r2
 117 0044 1A70     		strb	r2, [r3, #0]
 131:.\Generated_Source\PSoC5/PWM_BUCK.c ****             PWM_BUCK_AUX_CONTROLDP1 |= (PWM_BUCK_AUX_CTRL_FIFO0_CLR);
 118              		.loc 1 131 0
 119 0046 46F29553 		movw	r3, #:lower16:1073767829
 120 004a C4F20003 		movt	r3, #:upper16:1073767829
 121 004e 46F29552 		movw	r2, #:lower16:1073767829
 122 0052 C4F20002 		movt	r2, #:upper16:1073767829
 123 0056 1278     		ldrb	r2, [r2, #0]
 124 0058 D2B2     		uxtb	r2, r2
 125 005a 42F00102 		orr	r2, r2, #1
 126 005e D2B2     		uxtb	r2, r2
 127 0060 1A70     		strb	r2, [r3, #0]
 132:.\Generated_Source\PSoC5/PWM_BUCK.c ****         #endif /* (PWM_BUCK_Resolution == 8) */
 133:.\Generated_Source\PSoC5/PWM_BUCK.c **** 
 134:.\Generated_Source\PSoC5/PWM_BUCK.c ****         PWM_BUCK_WriteCounter(PWM_BUCK_INIT_PERIOD_VALUE);
 128              		.loc 1 134 0
 129 0062 4FF40070 		mov	r0, #512
 130 0066 FFF7FEFF 		bl	PWM_BUCK_WriteCounter
 135:.\Generated_Source\PSoC5/PWM_BUCK.c ****     #endif /* (!PWM_BUCK_UsingFixedFunction) */
 136:.\Generated_Source\PSoC5/PWM_BUCK.c ****         
 137:.\Generated_Source\PSoC5/PWM_BUCK.c ****     PWM_BUCK_WritePeriod(PWM_BUCK_INIT_PERIOD_VALUE);
 131              		.loc 1 137 0
 132 006a 4FF40070 		mov	r0, #512
 133 006e FFF7FEFF 		bl	PWM_BUCK_WritePeriod
 138:.\Generated_Source\PSoC5/PWM_BUCK.c **** 
 139:.\Generated_Source\PSoC5/PWM_BUCK.c ****         #if (PWM_BUCK_UseOneCompareMode)
 140:.\Generated_Source\PSoC5/PWM_BUCK.c ****             PWM_BUCK_WriteCompare(PWM_BUCK_INIT_COMPARE_VALUE1);
 134              		.loc 1 140 0
 135 0072 4FF07C00 		mov	r0, #124
 136 0076 FFF7FEFF 		bl	PWM_BUCK_WriteCompare
 141:.\Generated_Source\PSoC5/PWM_BUCK.c ****         #else
 142:.\Generated_Source\PSoC5/PWM_BUCK.c ****             PWM_BUCK_WriteCompare1(PWM_BUCK_INIT_COMPARE_VALUE1);
 143:.\Generated_Source\PSoC5/PWM_BUCK.c ****             PWM_BUCK_WriteCompare2(PWM_BUCK_INIT_COMPARE_VALUE2);
 144:.\Generated_Source\PSoC5/PWM_BUCK.c ****         #endif /* (PWM_BUCK_UseOneCompareMode) */
 145:.\Generated_Source\PSoC5/PWM_BUCK.c ****         
ARM GAS  C:\Users\hoangp\AppData\Local\Temp\ccq0lsHW.s 			page 6


 146:.\Generated_Source\PSoC5/PWM_BUCK.c ****         #if (PWM_BUCK_KillModeMinTime)
 147:.\Generated_Source\PSoC5/PWM_BUCK.c ****             PWM_BUCK_WriteKillTime(PWM_BUCK_MinimumKillTime);
 148:.\Generated_Source\PSoC5/PWM_BUCK.c ****         #endif /* (PWM_BUCK_KillModeMinTime) */
 149:.\Generated_Source\PSoC5/PWM_BUCK.c ****         
 150:.\Generated_Source\PSoC5/PWM_BUCK.c ****         #if (PWM_BUCK_DeadBandUsed)
 151:.\Generated_Source\PSoC5/PWM_BUCK.c ****             PWM_BUCK_WriteDeadTime(PWM_BUCK_INIT_DEAD_TIME);
 137              		.loc 1 151 0
 138 007a 4FF00900 		mov	r0, #9
 139 007e FFF7FEFF 		bl	PWM_BUCK_WriteDeadTime
 152:.\Generated_Source\PSoC5/PWM_BUCK.c ****         #endif /* (PWM_BUCK_DeadBandUsed) */
 153:.\Generated_Source\PSoC5/PWM_BUCK.c **** 
 154:.\Generated_Source\PSoC5/PWM_BUCK.c ****     #if (PWM_BUCK_UseStatus || PWM_BUCK_UsingFixedFunction)
 155:.\Generated_Source\PSoC5/PWM_BUCK.c ****         PWM_BUCK_SetInterruptMode(PWM_BUCK_INIT_INTERRUPTS_MODE);
 140              		.loc 1 155 0
 141 0082 4FF00000 		mov	r0, #0
 142 0086 FFF7FEFF 		bl	PWM_BUCK_SetInterruptMode
 156:.\Generated_Source\PSoC5/PWM_BUCK.c ****     #endif /* (PWM_BUCK_UseStatus || PWM_BUCK_UsingFixedFunction) */
 157:.\Generated_Source\PSoC5/PWM_BUCK.c ****         
 158:.\Generated_Source\PSoC5/PWM_BUCK.c ****     #if (PWM_BUCK_UsingFixedFunction)
 159:.\Generated_Source\PSoC5/PWM_BUCK.c ****         /* Globally Enable the Fixed Function Block chosen */
 160:.\Generated_Source\PSoC5/PWM_BUCK.c ****         PWM_BUCK_GLOBAL_ENABLE |= PWM_BUCK_BLOCK_EN_MASK;
 161:.\Generated_Source\PSoC5/PWM_BUCK.c ****         /* Set the Interrupt source to come from the status register */
 162:.\Generated_Source\PSoC5/PWM_BUCK.c ****         PWM_BUCK_CONTROL2 |= PWM_BUCK_CTRL2_IRQ_SEL;
 163:.\Generated_Source\PSoC5/PWM_BUCK.c ****     #else
 164:.\Generated_Source\PSoC5/PWM_BUCK.c ****         #if(PWM_BUCK_UseStatus)
 165:.\Generated_Source\PSoC5/PWM_BUCK.c ****             
 166:.\Generated_Source\PSoC5/PWM_BUCK.c ****             /* CyEnterCriticalRegion and CyExitCriticalRegion are used to mark following region cri
 167:.\Generated_Source\PSoC5/PWM_BUCK.c ****             /* Enter Critical Region*/
 168:.\Generated_Source\PSoC5/PWM_BUCK.c ****             PWM_BUCK_interruptState = CyEnterCriticalSection();
 143              		.loc 1 168 0
 144 008a FFF7FEFF 		bl	CyEnterCriticalSection
 145 008e 0346     		mov	r3, r0
 146 0090 FB71     		strb	r3, [r7, #7]
 169:.\Generated_Source\PSoC5/PWM_BUCK.c ****             /* Use the interrupt output of the status register for IRQ output */
 170:.\Generated_Source\PSoC5/PWM_BUCK.c ****             PWM_BUCK_STATUS_AUX_CTRL |= PWM_BUCK_STATUS_ACTL_INT_EN_MASK;
 147              		.loc 1 170 0
 148 0092 46F29553 		movw	r3, #:lower16:1073767829
 149 0096 C4F20003 		movt	r3, #:upper16:1073767829
 150 009a 46F29552 		movw	r2, #:lower16:1073767829
 151 009e C4F20002 		movt	r2, #:upper16:1073767829
 152 00a2 1278     		ldrb	r2, [r2, #0]
 153 00a4 D2B2     		uxtb	r2, r2
 154 00a6 42F01002 		orr	r2, r2, #16
 155 00aa D2B2     		uxtb	r2, r2
 156 00ac 1A70     		strb	r2, [r3, #0]
 171:.\Generated_Source\PSoC5/PWM_BUCK.c ****             
 172:.\Generated_Source\PSoC5/PWM_BUCK.c ****              /* Exit Critical Region*/
 173:.\Generated_Source\PSoC5/PWM_BUCK.c ****             CyExitCriticalSection(PWM_BUCK_interruptState);
 157              		.loc 1 173 0
 158 00ae FB79     		ldrb	r3, [r7, #7]	@ zero_extendqisi2
 159 00b0 1846     		mov	r0, r3
 160 00b2 FFF7FEFF 		bl	CyExitCriticalSection
 174:.\Generated_Source\PSoC5/PWM_BUCK.c ****             
 175:.\Generated_Source\PSoC5/PWM_BUCK.c ****             /* Clear the FIFO to enable the PWM_BUCK_STATUS_FIFOFULL
 176:.\Generated_Source\PSoC5/PWM_BUCK.c ****                    bit to be set on FIFO full. */
 177:.\Generated_Source\PSoC5/PWM_BUCK.c ****             PWM_BUCK_ClearFIFO();
 161              		.loc 1 177 0
ARM GAS  C:\Users\hoangp\AppData\Local\Temp\ccq0lsHW.s 			page 7


 162 00b6 FFF7FEFF 		bl	PWM_BUCK_ClearFIFO
 178:.\Generated_Source\PSoC5/PWM_BUCK.c ****         #endif /* (PWM_BUCK_UseStatus) */
 179:.\Generated_Source\PSoC5/PWM_BUCK.c ****     #endif /* (PWM_BUCK_UsingFixedFunction) */
 180:.\Generated_Source\PSoC5/PWM_BUCK.c **** }
 163              		.loc 1 180 0
 164 00ba 07F10807 		add	r7, r7, #8
 165 00be BD46     		mov	sp, r7
 166 00c0 80BD     		pop	{r7, pc}
 167              		.cfi_endproc
 168              	.LFE1:
 169              		.size	PWM_BUCK_Init, .-PWM_BUCK_Init
 170 00c2 00BF     		.section	.text.PWM_BUCK_Enable,"ax",%progbits
 171              		.align	2
 172              		.global	PWM_BUCK_Enable
 173              		.thumb
 174              		.thumb_func
 175              		.type	PWM_BUCK_Enable, %function
 176              	PWM_BUCK_Enable:
 177              	.LFB2:
 181:.\Generated_Source\PSoC5/PWM_BUCK.c **** 
 182:.\Generated_Source\PSoC5/PWM_BUCK.c **** 
 183:.\Generated_Source\PSoC5/PWM_BUCK.c **** /*******************************************************************************
 184:.\Generated_Source\PSoC5/PWM_BUCK.c **** * Function Name: PWM_BUCK_Enable
 185:.\Generated_Source\PSoC5/PWM_BUCK.c **** ********************************************************************************
 186:.\Generated_Source\PSoC5/PWM_BUCK.c **** *
 187:.\Generated_Source\PSoC5/PWM_BUCK.c **** * Summary: 
 188:.\Generated_Source\PSoC5/PWM_BUCK.c **** *  Enables the PWM block operation
 189:.\Generated_Source\PSoC5/PWM_BUCK.c **** *
 190:.\Generated_Source\PSoC5/PWM_BUCK.c **** * Parameters:  
 191:.\Generated_Source\PSoC5/PWM_BUCK.c **** *  None
 192:.\Generated_Source\PSoC5/PWM_BUCK.c **** *
 193:.\Generated_Source\PSoC5/PWM_BUCK.c **** * Return: 
 194:.\Generated_Source\PSoC5/PWM_BUCK.c **** *  None
 195:.\Generated_Source\PSoC5/PWM_BUCK.c **** *
 196:.\Generated_Source\PSoC5/PWM_BUCK.c **** * Side Effects: 
 197:.\Generated_Source\PSoC5/PWM_BUCK.c **** *  This works only if software enable mode is chosen
 198:.\Generated_Source\PSoC5/PWM_BUCK.c **** *
 199:.\Generated_Source\PSoC5/PWM_BUCK.c **** *******************************************************************************/
 200:.\Generated_Source\PSoC5/PWM_BUCK.c **** void PWM_BUCK_Enable(void) 
 201:.\Generated_Source\PSoC5/PWM_BUCK.c **** {
 178              		.loc 1 201 0
 179              		.cfi_startproc
 180              		@ args = 0, pretend = 0, frame = 0
 181              		@ frame_needed = 1, uses_anonymous_args = 0
 182              		@ link register save eliminated.
 183 0000 80B4     		push	{r7}
 184              	.LCFI5:
 185              		.cfi_def_cfa_offset 4
 186 0002 00AF     		add	r7, sp, #0
 187              		.cfi_offset 7, -4
 188              	.LCFI6:
 189              		.cfi_def_cfa_register 7
 202:.\Generated_Source\PSoC5/PWM_BUCK.c ****     /* Globally Enable the Fixed Function Block chosen */
 203:.\Generated_Source\PSoC5/PWM_BUCK.c ****     #if (PWM_BUCK_UsingFixedFunction)
 204:.\Generated_Source\PSoC5/PWM_BUCK.c ****         PWM_BUCK_GLOBAL_ENABLE |= PWM_BUCK_BLOCK_EN_MASK;
 205:.\Generated_Source\PSoC5/PWM_BUCK.c ****         PWM_BUCK_GLOBAL_STBY_ENABLE |= PWM_BUCK_BLOCK_STBY_EN_MASK;
 206:.\Generated_Source\PSoC5/PWM_BUCK.c ****     #endif /* (PWM_BUCK_UsingFixedFunction) */
ARM GAS  C:\Users\hoangp\AppData\Local\Temp\ccq0lsHW.s 			page 8


 207:.\Generated_Source\PSoC5/PWM_BUCK.c ****     
 208:.\Generated_Source\PSoC5/PWM_BUCK.c ****     /* Enable the PWM from the control register  */
 209:.\Generated_Source\PSoC5/PWM_BUCK.c ****     #if (PWM_BUCK_UseControl || PWM_BUCK_UsingFixedFunction)
 210:.\Generated_Source\PSoC5/PWM_BUCK.c ****         PWM_BUCK_CONTROL |= PWM_BUCK_CTRL_ENABLE;
 190              		.loc 1 210 0
 191 0004 46F27453 		movw	r3, #:lower16:1073767796
 192 0008 C4F20003 		movt	r3, #:upper16:1073767796
 193 000c 46F27452 		movw	r2, #:lower16:1073767796
 194 0010 C4F20002 		movt	r2, #:upper16:1073767796
 195 0014 1278     		ldrb	r2, [r2, #0]
 196 0016 D2B2     		uxtb	r2, r2
 197 0018 6FEA4262 		mvn	r2, r2, lsl #25
 198 001c 6FEA5262 		mvn	r2, r2, lsr #25
 199 0020 D2B2     		uxtb	r2, r2
 200 0022 1A70     		strb	r2, [r3, #0]
 211:.\Generated_Source\PSoC5/PWM_BUCK.c ****     #endif /* (PWM_BUCK_UseControl || PWM_BUCK_UsingFixedFunction) */
 212:.\Generated_Source\PSoC5/PWM_BUCK.c **** }
 201              		.loc 1 212 0
 202 0024 BD46     		mov	sp, r7
 203 0026 80BC     		pop	{r7}
 204 0028 7047     		bx	lr
 205              		.cfi_endproc
 206              	.LFE2:
 207              		.size	PWM_BUCK_Enable, .-PWM_BUCK_Enable
 208 002a 00BF     		.section	.text.PWM_BUCK_Stop,"ax",%progbits
 209              		.align	2
 210              		.global	PWM_BUCK_Stop
 211              		.thumb
 212              		.thumb_func
 213              		.type	PWM_BUCK_Stop, %function
 214              	PWM_BUCK_Stop:
 215              	.LFB3:
 213:.\Generated_Source\PSoC5/PWM_BUCK.c **** 
 214:.\Generated_Source\PSoC5/PWM_BUCK.c **** 
 215:.\Generated_Source\PSoC5/PWM_BUCK.c **** /*******************************************************************************
 216:.\Generated_Source\PSoC5/PWM_BUCK.c **** * Function Name: PWM_BUCK_Stop
 217:.\Generated_Source\PSoC5/PWM_BUCK.c **** ********************************************************************************
 218:.\Generated_Source\PSoC5/PWM_BUCK.c **** *
 219:.\Generated_Source\PSoC5/PWM_BUCK.c **** * Summary:
 220:.\Generated_Source\PSoC5/PWM_BUCK.c **** *  The stop function halts the PWM, but does not change any modes or disable
 221:.\Generated_Source\PSoC5/PWM_BUCK.c **** *  interrupts.
 222:.\Generated_Source\PSoC5/PWM_BUCK.c **** *
 223:.\Generated_Source\PSoC5/PWM_BUCK.c **** * Parameters:  
 224:.\Generated_Source\PSoC5/PWM_BUCK.c **** *  None  
 225:.\Generated_Source\PSoC5/PWM_BUCK.c **** *
 226:.\Generated_Source\PSoC5/PWM_BUCK.c **** * Return: 
 227:.\Generated_Source\PSoC5/PWM_BUCK.c **** *  None
 228:.\Generated_Source\PSoC5/PWM_BUCK.c **** *
 229:.\Generated_Source\PSoC5/PWM_BUCK.c **** * Side Effects:
 230:.\Generated_Source\PSoC5/PWM_BUCK.c **** *  If the Enable mode is set to Hardware only then this function
 231:.\Generated_Source\PSoC5/PWM_BUCK.c **** *  has no effect on the operation of the PWM
 232:.\Generated_Source\PSoC5/PWM_BUCK.c **** *
 233:.\Generated_Source\PSoC5/PWM_BUCK.c **** *******************************************************************************/
 234:.\Generated_Source\PSoC5/PWM_BUCK.c **** void PWM_BUCK_Stop(void) 
 235:.\Generated_Source\PSoC5/PWM_BUCK.c **** {
 216              		.loc 1 235 0
 217              		.cfi_startproc
ARM GAS  C:\Users\hoangp\AppData\Local\Temp\ccq0lsHW.s 			page 9


 218              		@ args = 0, pretend = 0, frame = 0
 219              		@ frame_needed = 1, uses_anonymous_args = 0
 220              		@ link register save eliminated.
 221 0000 80B4     		push	{r7}
 222              	.LCFI7:
 223              		.cfi_def_cfa_offset 4
 224 0002 00AF     		add	r7, sp, #0
 225              		.cfi_offset 7, -4
 226              	.LCFI8:
 227              		.cfi_def_cfa_register 7
 236:.\Generated_Source\PSoC5/PWM_BUCK.c ****     #if (PWM_BUCK_UseControl || PWM_BUCK_UsingFixedFunction)
 237:.\Generated_Source\PSoC5/PWM_BUCK.c ****         PWM_BUCK_CONTROL &= ((uint8)(~PWM_BUCK_CTRL_ENABLE));
 228              		.loc 1 237 0
 229 0004 46F27453 		movw	r3, #:lower16:1073767796
 230 0008 C4F20003 		movt	r3, #:upper16:1073767796
 231 000c 46F27452 		movw	r2, #:lower16:1073767796
 232 0010 C4F20002 		movt	r2, #:upper16:1073767796
 233 0014 1278     		ldrb	r2, [r2, #0]
 234 0016 D2B2     		uxtb	r2, r2
 235 0018 02F07F02 		and	r2, r2, #127
 236 001c 1A70     		strb	r2, [r3, #0]
 238:.\Generated_Source\PSoC5/PWM_BUCK.c ****     #endif /* (PWM_BUCK_UseControl || PWM_BUCK_UsingFixedFunction) */
 239:.\Generated_Source\PSoC5/PWM_BUCK.c ****     
 240:.\Generated_Source\PSoC5/PWM_BUCK.c ****     /* Globally disable the Fixed Function Block chosen */
 241:.\Generated_Source\PSoC5/PWM_BUCK.c ****     #if (PWM_BUCK_UsingFixedFunction)
 242:.\Generated_Source\PSoC5/PWM_BUCK.c ****         PWM_BUCK_GLOBAL_ENABLE &= ((uint8)(~PWM_BUCK_BLOCK_EN_MASK));
 243:.\Generated_Source\PSoC5/PWM_BUCK.c ****         PWM_BUCK_GLOBAL_STBY_ENABLE &= ((uint8)(~PWM_BUCK_BLOCK_STBY_EN_MASK));
 244:.\Generated_Source\PSoC5/PWM_BUCK.c ****     #endif /* (PWM_BUCK_UsingFixedFunction) */
 245:.\Generated_Source\PSoC5/PWM_BUCK.c **** }
 237              		.loc 1 245 0
 238 001e BD46     		mov	sp, r7
 239 0020 80BC     		pop	{r7}
 240 0022 7047     		bx	lr
 241              		.cfi_endproc
 242              	.LFE3:
 243              		.size	PWM_BUCK_Stop, .-PWM_BUCK_Stop
 244              		.section	.text.PWM_BUCK_WriteCounter,"ax",%progbits
 245              		.align	2
 246              		.global	PWM_BUCK_WriteCounter
 247              		.thumb
 248              		.thumb_func
 249              		.type	PWM_BUCK_WriteCounter, %function
 250              	PWM_BUCK_WriteCounter:
 251              	.LFB4:
 246:.\Generated_Source\PSoC5/PWM_BUCK.c **** 
 247:.\Generated_Source\PSoC5/PWM_BUCK.c **** 
 248:.\Generated_Source\PSoC5/PWM_BUCK.c **** #if (PWM_BUCK_UseOneCompareMode)
 249:.\Generated_Source\PSoC5/PWM_BUCK.c **** 	#if (PWM_BUCK_CompareMode1SW)
 250:.\Generated_Source\PSoC5/PWM_BUCK.c **** 
 251:.\Generated_Source\PSoC5/PWM_BUCK.c **** 
 252:.\Generated_Source\PSoC5/PWM_BUCK.c **** 		/*******************************************************************************
 253:.\Generated_Source\PSoC5/PWM_BUCK.c **** 		* Function Name: PWM_BUCK_SetCompareMode
 254:.\Generated_Source\PSoC5/PWM_BUCK.c **** 		********************************************************************************
 255:.\Generated_Source\PSoC5/PWM_BUCK.c **** 		* 
 256:.\Generated_Source\PSoC5/PWM_BUCK.c **** 		* Summary:
 257:.\Generated_Source\PSoC5/PWM_BUCK.c **** 		*  This function writes the Compare Mode for the pwm output when in Dither mode,
 258:.\Generated_Source\PSoC5/PWM_BUCK.c **** 		*  Center Align Mode or One Output Mode.
ARM GAS  C:\Users\hoangp\AppData\Local\Temp\ccq0lsHW.s 			page 10


 259:.\Generated_Source\PSoC5/PWM_BUCK.c **** 		*
 260:.\Generated_Source\PSoC5/PWM_BUCK.c **** 		* Parameters:
 261:.\Generated_Source\PSoC5/PWM_BUCK.c **** 		*  comparemode:  The new compare mode for the PWM output. Use the compare types
 262:.\Generated_Source\PSoC5/PWM_BUCK.c **** 		*                defined in the H file as input arguments.
 263:.\Generated_Source\PSoC5/PWM_BUCK.c **** 		*
 264:.\Generated_Source\PSoC5/PWM_BUCK.c **** 		* Return:
 265:.\Generated_Source\PSoC5/PWM_BUCK.c **** 		*  None
 266:.\Generated_Source\PSoC5/PWM_BUCK.c **** 		*
 267:.\Generated_Source\PSoC5/PWM_BUCK.c **** 		*******************************************************************************/
 268:.\Generated_Source\PSoC5/PWM_BUCK.c **** 		void PWM_BUCK_SetCompareMode(uint8 comparemode) 
 269:.\Generated_Source\PSoC5/PWM_BUCK.c **** 		{
 270:.\Generated_Source\PSoC5/PWM_BUCK.c **** 		    #if(PWM_BUCK_UsingFixedFunction)
 271:.\Generated_Source\PSoC5/PWM_BUCK.c ****             
 272:.\Generated_Source\PSoC5/PWM_BUCK.c ****                 #if(0 != PWM_BUCK_CTRL_CMPMODE1_SHIFT)
 273:.\Generated_Source\PSoC5/PWM_BUCK.c ****                     uint8 comparemodemasked = ((uint8)((uint8)comparemode << PWM_BUCK_CTRL_CMPMODE1
 274:.\Generated_Source\PSoC5/PWM_BUCK.c ****                 #else
 275:.\Generated_Source\PSoC5/PWM_BUCK.c ****                     uint8 comparemodemasked = comparemode;
 276:.\Generated_Source\PSoC5/PWM_BUCK.c ****                 #endif /* (0 != PWM_BUCK_CTRL_CMPMODE1_SHIFT) */
 277:.\Generated_Source\PSoC5/PWM_BUCK.c ****             
 278:.\Generated_Source\PSoC5/PWM_BUCK.c **** 		        #if(CY_PSOC5A)
 279:.\Generated_Source\PSoC5/PWM_BUCK.c **** 		            PWM_BUCK_CONTROL2 &= ((uint8)(~PWM_BUCK_CTRL_CMPMODE1_MASK)); /*Clear Existing Data *
 280:.\Generated_Source\PSoC5/PWM_BUCK.c **** 		            PWM_BUCK_CONTROL2 |= comparemodemasked;  
 281:.\Generated_Source\PSoC5/PWM_BUCK.c **** 		        #endif /* (CY_PSOC5A) */
 282:.\Generated_Source\PSoC5/PWM_BUCK.c **** 		                
 283:.\Generated_Source\PSoC5/PWM_BUCK.c **** 		        #if(CY_PSOC3 || CY_PSOC5LP)
 284:.\Generated_Source\PSoC5/PWM_BUCK.c **** 		            PWM_BUCK_CONTROL3 &= ((uint8)(~PWM_BUCK_CTRL_CMPMODE1_MASK)); /*Clear Existing Data *
 285:.\Generated_Source\PSoC5/PWM_BUCK.c **** 		            PWM_BUCK_CONTROL3 |= comparemodemasked;     
 286:.\Generated_Source\PSoC5/PWM_BUCK.c **** 		        #endif /* (CY_PSOC3 || CY_PSOC5LP) */
 287:.\Generated_Source\PSoC5/PWM_BUCK.c **** 		                
 288:.\Generated_Source\PSoC5/PWM_BUCK.c **** 		    #elif (PWM_BUCK_UseControl)
 289:.\Generated_Source\PSoC5/PWM_BUCK.c **** 		        
 290:.\Generated_Source\PSoC5/PWM_BUCK.c ****                 #if(0 != PWM_BUCK_CTRL_CMPMODE1_SHIFT)
 291:.\Generated_Source\PSoC5/PWM_BUCK.c ****                     uint8 comparemode1masked = ((uint8)((uint8)comparemode << PWM_BUCK_CTRL_CMPMODE
 292:.\Generated_Source\PSoC5/PWM_BUCK.c ****     		                                    PWM_BUCK_CTRL_CMPMODE1_MASK;
 293:.\Generated_Source\PSoC5/PWM_BUCK.c ****                 #else
 294:.\Generated_Source\PSoC5/PWM_BUCK.c ****                     uint8 comparemode1masked = comparemode & PWM_BUCK_CTRL_CMPMODE1_MASK;          
 295:.\Generated_Source\PSoC5/PWM_BUCK.c ****                 #endif /* (0 != PWM_BUCK_CTRL_CMPMODE1_SHIFT) */
 296:.\Generated_Source\PSoC5/PWM_BUCK.c ****                 
 297:.\Generated_Source\PSoC5/PWM_BUCK.c ****                 #if(0 != PWM_BUCK_CTRL_CMPMODE2_SHIFT)                            
 298:.\Generated_Source\PSoC5/PWM_BUCK.c ****     		        uint8 comparemode2masked = ((uint8)((uint8)comparemode << PWM_BUCK_CTRL_CMPMODE2_SHIF
 299:.\Generated_Source\PSoC5/PWM_BUCK.c ****     		                                   PWM_BUCK_CTRL_CMPMODE2_MASK;
 300:.\Generated_Source\PSoC5/PWM_BUCK.c ****                 #else
 301:.\Generated_Source\PSoC5/PWM_BUCK.c ****     		        uint8 comparemode2masked = comparemode & PWM_BUCK_CTRL_CMPMODE2_MASK;                
 302:.\Generated_Source\PSoC5/PWM_BUCK.c ****                 #endif /* (0 != PWM_BUCK_CTRL_CMPMODE2_SHIFT) */
 303:.\Generated_Source\PSoC5/PWM_BUCK.c ****                 
 304:.\Generated_Source\PSoC5/PWM_BUCK.c **** 		        /*Clear existing mode */
 305:.\Generated_Source\PSoC5/PWM_BUCK.c **** 		        PWM_BUCK_CONTROL &= ((uint8)(~(PWM_BUCK_CTRL_CMPMODE1_MASK | PWM_BUCK_CTRL_CMPMODE2_MASK)
 306:.\Generated_Source\PSoC5/PWM_BUCK.c **** 		        PWM_BUCK_CONTROL |= (comparemode1masked | comparemode2masked);
 307:.\Generated_Source\PSoC5/PWM_BUCK.c **** 		        
 308:.\Generated_Source\PSoC5/PWM_BUCK.c **** 		    #else
 309:.\Generated_Source\PSoC5/PWM_BUCK.c **** 		        uint8 temp = comparemode;
 310:.\Generated_Source\PSoC5/PWM_BUCK.c **** 		    #endif /* (PWM_BUCK_UsingFixedFunction) */
 311:.\Generated_Source\PSoC5/PWM_BUCK.c **** 		}
 312:.\Generated_Source\PSoC5/PWM_BUCK.c **** 	#endif /* PWM_BUCK_CompareMode1SW */
 313:.\Generated_Source\PSoC5/PWM_BUCK.c **** 
 314:.\Generated_Source\PSoC5/PWM_BUCK.c **** #else /* UseOneCompareMode */
 315:.\Generated_Source\PSoC5/PWM_BUCK.c **** 
ARM GAS  C:\Users\hoangp\AppData\Local\Temp\ccq0lsHW.s 			page 11


 316:.\Generated_Source\PSoC5/PWM_BUCK.c **** 	#if (PWM_BUCK_CompareMode1SW)
 317:.\Generated_Source\PSoC5/PWM_BUCK.c **** 
 318:.\Generated_Source\PSoC5/PWM_BUCK.c **** 
 319:.\Generated_Source\PSoC5/PWM_BUCK.c **** 		/*******************************************************************************
 320:.\Generated_Source\PSoC5/PWM_BUCK.c **** 		* Function Name: PWM_BUCK_SetCompareMode1
 321:.\Generated_Source\PSoC5/PWM_BUCK.c **** 		********************************************************************************
 322:.\Generated_Source\PSoC5/PWM_BUCK.c **** 		* 
 323:.\Generated_Source\PSoC5/PWM_BUCK.c **** 		* Summary:
 324:.\Generated_Source\PSoC5/PWM_BUCK.c **** 		*  This function writes the Compare Mode for the pwm or pwm1 output
 325:.\Generated_Source\PSoC5/PWM_BUCK.c **** 		*
 326:.\Generated_Source\PSoC5/PWM_BUCK.c **** 		* Parameters:  
 327:.\Generated_Source\PSoC5/PWM_BUCK.c **** 		*  comparemode:  The new compare mode for the PWM output. Use the compare types
 328:.\Generated_Source\PSoC5/PWM_BUCK.c **** 		*                defined in the H file as input arguments.
 329:.\Generated_Source\PSoC5/PWM_BUCK.c **** 		*
 330:.\Generated_Source\PSoC5/PWM_BUCK.c **** 		* Return: 
 331:.\Generated_Source\PSoC5/PWM_BUCK.c **** 		*  None
 332:.\Generated_Source\PSoC5/PWM_BUCK.c **** 		*
 333:.\Generated_Source\PSoC5/PWM_BUCK.c **** 		*******************************************************************************/
 334:.\Generated_Source\PSoC5/PWM_BUCK.c **** 		void PWM_BUCK_SetCompareMode1(uint8 comparemode) 
 335:.\Generated_Source\PSoC5/PWM_BUCK.c **** 		{
 336:.\Generated_Source\PSoC5/PWM_BUCK.c **** 		    #if(0 != PWM_BUCK_CTRL_CMPMODE1_SHIFT)
 337:.\Generated_Source\PSoC5/PWM_BUCK.c ****                 uint8 comparemodemasked = ((uint8)((uint8)comparemode << PWM_BUCK_CTRL_CMPMODE1_SHI
 338:.\Generated_Source\PSoC5/PWM_BUCK.c ****     		                               PWM_BUCK_CTRL_CMPMODE1_MASK;
 339:.\Generated_Source\PSoC5/PWM_BUCK.c **** 		    #else
 340:.\Generated_Source\PSoC5/PWM_BUCK.c ****                 uint8 comparemodemasked = comparemode & PWM_BUCK_CTRL_CMPMODE1_MASK;               
 341:.\Generated_Source\PSoC5/PWM_BUCK.c ****             #endif /* (0 != PWM_BUCK_CTRL_CMPMODE1_SHIFT) */
 342:.\Generated_Source\PSoC5/PWM_BUCK.c ****                    
 343:.\Generated_Source\PSoC5/PWM_BUCK.c **** 		    #if (PWM_BUCK_UseControl)
 344:.\Generated_Source\PSoC5/PWM_BUCK.c **** 		        PWM_BUCK_CONTROL &= ((uint8)(~PWM_BUCK_CTRL_CMPMODE1_MASK)); /*Clear existing mode */
 345:.\Generated_Source\PSoC5/PWM_BUCK.c **** 		        PWM_BUCK_CONTROL |= comparemodemasked;
 346:.\Generated_Source\PSoC5/PWM_BUCK.c **** 		    #endif /* (PWM_BUCK_UseControl) */
 347:.\Generated_Source\PSoC5/PWM_BUCK.c **** 		}
 348:.\Generated_Source\PSoC5/PWM_BUCK.c **** 	#endif /* PWM_BUCK_CompareMode1SW */
 349:.\Generated_Source\PSoC5/PWM_BUCK.c **** 
 350:.\Generated_Source\PSoC5/PWM_BUCK.c **** #if (PWM_BUCK_CompareMode2SW)
 351:.\Generated_Source\PSoC5/PWM_BUCK.c **** 
 352:.\Generated_Source\PSoC5/PWM_BUCK.c **** 
 353:.\Generated_Source\PSoC5/PWM_BUCK.c ****     /*******************************************************************************
 354:.\Generated_Source\PSoC5/PWM_BUCK.c ****     * Function Name: PWM_BUCK_SetCompareMode2
 355:.\Generated_Source\PSoC5/PWM_BUCK.c ****     ********************************************************************************
 356:.\Generated_Source\PSoC5/PWM_BUCK.c ****     * 
 357:.\Generated_Source\PSoC5/PWM_BUCK.c ****     * Summary:
 358:.\Generated_Source\PSoC5/PWM_BUCK.c ****     *  This function writes the Compare Mode for the pwm or pwm2 output
 359:.\Generated_Source\PSoC5/PWM_BUCK.c ****     *
 360:.\Generated_Source\PSoC5/PWM_BUCK.c ****     * Parameters:  
 361:.\Generated_Source\PSoC5/PWM_BUCK.c ****     *  comparemode:  The new compare mode for the PWM output. Use the compare types
 362:.\Generated_Source\PSoC5/PWM_BUCK.c ****     *                defined in the H file as input arguments.
 363:.\Generated_Source\PSoC5/PWM_BUCK.c ****     *
 364:.\Generated_Source\PSoC5/PWM_BUCK.c ****     * Return: 
 365:.\Generated_Source\PSoC5/PWM_BUCK.c ****     *  None
 366:.\Generated_Source\PSoC5/PWM_BUCK.c ****     *
 367:.\Generated_Source\PSoC5/PWM_BUCK.c ****     *******************************************************************************/
 368:.\Generated_Source\PSoC5/PWM_BUCK.c ****     void PWM_BUCK_SetCompareMode2(uint8 comparemode) 
 369:.\Generated_Source\PSoC5/PWM_BUCK.c ****     {
 370:.\Generated_Source\PSoC5/PWM_BUCK.c **** 
 371:.\Generated_Source\PSoC5/PWM_BUCK.c ****         #if(0 != PWM_BUCK_CTRL_CMPMODE2_SHIFT)
 372:.\Generated_Source\PSoC5/PWM_BUCK.c ****             uint8 comparemodemasked = ((uint8)((uint8)comparemode << PWM_BUCK_CTRL_CMPMODE2_SHIFT))
ARM GAS  C:\Users\hoangp\AppData\Local\Temp\ccq0lsHW.s 			page 12


 373:.\Generated_Source\PSoC5/PWM_BUCK.c ****                                                  PWM_BUCK_CTRL_CMPMODE2_MASK;
 374:.\Generated_Source\PSoC5/PWM_BUCK.c ****         #else
 375:.\Generated_Source\PSoC5/PWM_BUCK.c ****             uint8 comparemodemasked = comparemode & PWM_BUCK_CTRL_CMPMODE2_MASK;            
 376:.\Generated_Source\PSoC5/PWM_BUCK.c ****         #endif /* (0 != PWM_BUCK_CTRL_CMPMODE2_SHIFT) */
 377:.\Generated_Source\PSoC5/PWM_BUCK.c ****         
 378:.\Generated_Source\PSoC5/PWM_BUCK.c ****         #if (PWM_BUCK_UseControl)
 379:.\Generated_Source\PSoC5/PWM_BUCK.c ****             PWM_BUCK_CONTROL &= ((uint8)(~PWM_BUCK_CTRL_CMPMODE2_MASK)); /*Clear existing mode */
 380:.\Generated_Source\PSoC5/PWM_BUCK.c ****             PWM_BUCK_CONTROL |= comparemodemasked;
 381:.\Generated_Source\PSoC5/PWM_BUCK.c ****         #endif /* (PWM_BUCK_UseControl) */
 382:.\Generated_Source\PSoC5/PWM_BUCK.c ****     }
 383:.\Generated_Source\PSoC5/PWM_BUCK.c ****     #endif /*PWM_BUCK_CompareMode2SW */
 384:.\Generated_Source\PSoC5/PWM_BUCK.c **** 
 385:.\Generated_Source\PSoC5/PWM_BUCK.c **** #endif /* UseOneCompareMode */
 386:.\Generated_Source\PSoC5/PWM_BUCK.c **** 
 387:.\Generated_Source\PSoC5/PWM_BUCK.c **** 
 388:.\Generated_Source\PSoC5/PWM_BUCK.c **** #if (!PWM_BUCK_UsingFixedFunction)
 389:.\Generated_Source\PSoC5/PWM_BUCK.c **** 
 390:.\Generated_Source\PSoC5/PWM_BUCK.c **** 
 391:.\Generated_Source\PSoC5/PWM_BUCK.c ****     /*******************************************************************************
 392:.\Generated_Source\PSoC5/PWM_BUCK.c ****     * Function Name: PWM_BUCK_WriteCounter
 393:.\Generated_Source\PSoC5/PWM_BUCK.c ****     ********************************************************************************
 394:.\Generated_Source\PSoC5/PWM_BUCK.c ****     * 
 395:.\Generated_Source\PSoC5/PWM_BUCK.c ****     * Summary:
 396:.\Generated_Source\PSoC5/PWM_BUCK.c ****     *  This function is used to change the counter value.
 397:.\Generated_Source\PSoC5/PWM_BUCK.c ****     *
 398:.\Generated_Source\PSoC5/PWM_BUCK.c ****     * Parameters:  
 399:.\Generated_Source\PSoC5/PWM_BUCK.c ****     *  counter:  This value may be between 1 and (2^Resolution)-1.   
 400:.\Generated_Source\PSoC5/PWM_BUCK.c ****     *
 401:.\Generated_Source\PSoC5/PWM_BUCK.c ****     * Return: 
 402:.\Generated_Source\PSoC5/PWM_BUCK.c ****     *  None
 403:.\Generated_Source\PSoC5/PWM_BUCK.c ****     *
 404:.\Generated_Source\PSoC5/PWM_BUCK.c ****     *******************************************************************************/
 405:.\Generated_Source\PSoC5/PWM_BUCK.c ****     void PWM_BUCK_WriteCounter(uint16 counter) \
 406:.\Generated_Source\PSoC5/PWM_BUCK.c ****                                        
 407:.\Generated_Source\PSoC5/PWM_BUCK.c ****     {
 252              		.loc 1 407 0
 253              		.cfi_startproc
 254              		@ args = 0, pretend = 0, frame = 8
 255              		@ frame_needed = 1, uses_anonymous_args = 0
 256              		@ link register save eliminated.
 257 0000 80B4     		push	{r7}
 258              	.LCFI9:
 259              		.cfi_def_cfa_offset 4
 260 0002 83B0     		sub	sp, sp, #12
 261              	.LCFI10:
 262              		.cfi_def_cfa_offset 16
 263 0004 00AF     		add	r7, sp, #0
 264              		.cfi_offset 7, -4
 265              	.LCFI11:
 266              		.cfi_def_cfa_register 7
 267 0006 0346     		mov	r3, r0
 268 0008 FB80     		strh	r3, [r7, #6]	@ movhi
 408:.\Generated_Source\PSoC5/PWM_BUCK.c ****         CY_SET_REG16(PWM_BUCK_COUNTER_LSB_PTR, counter);
 269              		.loc 1 408 0
 270 000a 46F60823 		movw	r3, #:lower16:1073768968
 271 000e C4F20003 		movt	r3, #:upper16:1073768968
 272 0012 FA88     		ldrh	r2, [r7, #6]	@ movhi
ARM GAS  C:\Users\hoangp\AppData\Local\Temp\ccq0lsHW.s 			page 13


 273 0014 1A80     		strh	r2, [r3, #0]	@ movhi
 409:.\Generated_Source\PSoC5/PWM_BUCK.c ****     }
 274              		.loc 1 409 0
 275 0016 07F10C07 		add	r7, r7, #12
 276 001a BD46     		mov	sp, r7
 277 001c 80BC     		pop	{r7}
 278 001e 7047     		bx	lr
 279              		.cfi_endproc
 280              	.LFE4:
 281              		.size	PWM_BUCK_WriteCounter, .-PWM_BUCK_WriteCounter
 282              		.section	.text.PWM_BUCK_ReadCounter,"ax",%progbits
 283              		.align	2
 284              		.global	PWM_BUCK_ReadCounter
 285              		.thumb
 286              		.thumb_func
 287              		.type	PWM_BUCK_ReadCounter, %function
 288              	PWM_BUCK_ReadCounter:
 289              	.LFB5:
 410:.\Generated_Source\PSoC5/PWM_BUCK.c **** 
 411:.\Generated_Source\PSoC5/PWM_BUCK.c **** 
 412:.\Generated_Source\PSoC5/PWM_BUCK.c ****     /*******************************************************************************
 413:.\Generated_Source\PSoC5/PWM_BUCK.c ****     * Function Name: PWM_BUCK_ReadCounter
 414:.\Generated_Source\PSoC5/PWM_BUCK.c ****     ********************************************************************************
 415:.\Generated_Source\PSoC5/PWM_BUCK.c ****     * 
 416:.\Generated_Source\PSoC5/PWM_BUCK.c ****     * Summary:
 417:.\Generated_Source\PSoC5/PWM_BUCK.c ****     *  This function returns the current value of the counter.  It doesn't matter
 418:.\Generated_Source\PSoC5/PWM_BUCK.c ****     *  if the counter is enabled or running.
 419:.\Generated_Source\PSoC5/PWM_BUCK.c ****     *
 420:.\Generated_Source\PSoC5/PWM_BUCK.c ****     * Parameters:  
 421:.\Generated_Source\PSoC5/PWM_BUCK.c ****     *  None  
 422:.\Generated_Source\PSoC5/PWM_BUCK.c ****     *
 423:.\Generated_Source\PSoC5/PWM_BUCK.c ****     * Return: 
 424:.\Generated_Source\PSoC5/PWM_BUCK.c ****     *  The current value of the counter.
 425:.\Generated_Source\PSoC5/PWM_BUCK.c ****     *
 426:.\Generated_Source\PSoC5/PWM_BUCK.c ****     *******************************************************************************/
 427:.\Generated_Source\PSoC5/PWM_BUCK.c ****     uint16 PWM_BUCK_ReadCounter(void) 
 428:.\Generated_Source\PSoC5/PWM_BUCK.c ****     {
 290              		.loc 1 428 0
 291              		.cfi_startproc
 292              		@ args = 0, pretend = 0, frame = 0
 293              		@ frame_needed = 1, uses_anonymous_args = 0
 294              		@ link register save eliminated.
 295 0000 80B4     		push	{r7}
 296              	.LCFI12:
 297              		.cfi_def_cfa_offset 4
 298 0002 00AF     		add	r7, sp, #0
 299              		.cfi_offset 7, -4
 300              	.LCFI13:
 301              		.cfi_def_cfa_register 7
 429:.\Generated_Source\PSoC5/PWM_BUCK.c ****         /* Force capture by reading Accumulator */
 430:.\Generated_Source\PSoC5/PWM_BUCK.c ****         /* Must first do a software capture to be able to read the counter */
 431:.\Generated_Source\PSoC5/PWM_BUCK.c ****         /* It is up to the user code to make sure there isn't already captured data in the FIFO */
 432:.\Generated_Source\PSoC5/PWM_BUCK.c ****         (void)PWM_BUCK_COUNTERCAP_LSB;
 302              		.loc 1 432 0
 303 0004 46F62823 		movw	r3, #:lower16:1073769000
 304 0008 C4F20003 		movt	r3, #:upper16:1073769000
 305 000c 1B88     		ldrh	r3, [r3, #0]	@ movhi
ARM GAS  C:\Users\hoangp\AppData\Local\Temp\ccq0lsHW.s 			page 14


 433:.\Generated_Source\PSoC5/PWM_BUCK.c ****         
 434:.\Generated_Source\PSoC5/PWM_BUCK.c ****         /* Read the data from the FIFO (or capture register for Fixed Function)*/
 435:.\Generated_Source\PSoC5/PWM_BUCK.c ****         return (CY_GET_REG16(PWM_BUCK_CAPTURE_LSB_PTR));
 306              		.loc 1 435 0
 307 000e 46F6A823 		movw	r3, #:lower16:1073769128
 308 0012 C4F20003 		movt	r3, #:upper16:1073769128
 309 0016 1B88     		ldrh	r3, [r3, #0]	@ movhi
 310 0018 9BB2     		uxth	r3, r3
 436:.\Generated_Source\PSoC5/PWM_BUCK.c ****     }
 311              		.loc 1 436 0
 312 001a 1846     		mov	r0, r3
 313 001c BD46     		mov	sp, r7
 314 001e 80BC     		pop	{r7}
 315 0020 7047     		bx	lr
 316              		.cfi_endproc
 317              	.LFE5:
 318              		.size	PWM_BUCK_ReadCounter, .-PWM_BUCK_ReadCounter
 319 0022 00BF     		.section	.text.PWM_BUCK_ClearFIFO,"ax",%progbits
 320              		.align	2
 321              		.global	PWM_BUCK_ClearFIFO
 322              		.thumb
 323              		.thumb_func
 324              		.type	PWM_BUCK_ClearFIFO, %function
 325              	PWM_BUCK_ClearFIFO:
 326              	.LFB6:
 437:.\Generated_Source\PSoC5/PWM_BUCK.c **** 
 438:.\Generated_Source\PSoC5/PWM_BUCK.c ****         #if (PWM_BUCK_UseStatus)
 439:.\Generated_Source\PSoC5/PWM_BUCK.c **** 
 440:.\Generated_Source\PSoC5/PWM_BUCK.c **** 
 441:.\Generated_Source\PSoC5/PWM_BUCK.c ****             /*******************************************************************************
 442:.\Generated_Source\PSoC5/PWM_BUCK.c ****             * Function Name: PWM_BUCK_ClearFIFO
 443:.\Generated_Source\PSoC5/PWM_BUCK.c ****             ********************************************************************************
 444:.\Generated_Source\PSoC5/PWM_BUCK.c ****             * 
 445:.\Generated_Source\PSoC5/PWM_BUCK.c ****             * Summary:
 446:.\Generated_Source\PSoC5/PWM_BUCK.c ****             *  This function clears all capture data from the capture FIFO
 447:.\Generated_Source\PSoC5/PWM_BUCK.c ****             *
 448:.\Generated_Source\PSoC5/PWM_BUCK.c ****             * Parameters:  
 449:.\Generated_Source\PSoC5/PWM_BUCK.c ****             *  None
 450:.\Generated_Source\PSoC5/PWM_BUCK.c ****             *
 451:.\Generated_Source\PSoC5/PWM_BUCK.c ****             * Return: 
 452:.\Generated_Source\PSoC5/PWM_BUCK.c ****             *  None
 453:.\Generated_Source\PSoC5/PWM_BUCK.c ****             *
 454:.\Generated_Source\PSoC5/PWM_BUCK.c ****             *******************************************************************************/
 455:.\Generated_Source\PSoC5/PWM_BUCK.c ****             void PWM_BUCK_ClearFIFO(void) 
 456:.\Generated_Source\PSoC5/PWM_BUCK.c ****             {
 327              		.loc 1 456 0
 328              		.cfi_startproc
 329              		@ args = 0, pretend = 0, frame = 0
 330              		@ frame_needed = 1, uses_anonymous_args = 0
 331 0000 80B5     		push	{r7, lr}
 332              	.LCFI14:
 333              		.cfi_def_cfa_offset 8
 334 0002 00AF     		add	r7, sp, #0
 335              		.cfi_offset 14, -4
 336              		.cfi_offset 7, -8
 337              	.LCFI15:
 338              		.cfi_def_cfa_register 7
ARM GAS  C:\Users\hoangp\AppData\Local\Temp\ccq0lsHW.s 			page 15


 457:.\Generated_Source\PSoC5/PWM_BUCK.c ****                 while(0u != (PWM_BUCK_ReadStatusRegister() & PWM_BUCK_STATUS_FIFONEMPTY))
 339              		.loc 1 457 0
 340 0004 01E0     		b	.L15
 341              	.L16:
 458:.\Generated_Source\PSoC5/PWM_BUCK.c ****                 {
 459:.\Generated_Source\PSoC5/PWM_BUCK.c ****                     (void)PWM_BUCK_ReadCapture();
 342              		.loc 1 459 0
 343 0006 FFF7FEFF 		bl	PWM_BUCK_ReadCapture
 344              	.L15:
 345              		.loc 1 457 0
 346 000a FFF7FEFF 		bl	PWM_BUCK_ReadStatusRegister
 347 000e 0346     		mov	r3, r0
 348 0010 03F01003 		and	r3, r3, #16
 349 0014 002B     		cmp	r3, #0
 350 0016 F6D1     		bne	.L16
 460:.\Generated_Source\PSoC5/PWM_BUCK.c ****                 }
 461:.\Generated_Source\PSoC5/PWM_BUCK.c ****             }
 351              		.loc 1 461 0
 352 0018 80BD     		pop	{r7, pc}
 353              		.cfi_endproc
 354              	.LFE6:
 355              		.size	PWM_BUCK_ClearFIFO, .-PWM_BUCK_ClearFIFO
 356 001a 00BF     		.section	.text.PWM_BUCK_WritePeriod,"ax",%progbits
 357              		.align	2
 358              		.global	PWM_BUCK_WritePeriod
 359              		.thumb
 360              		.thumb_func
 361              		.type	PWM_BUCK_WritePeriod, %function
 362              	PWM_BUCK_WritePeriod:
 363              	.LFB7:
 462:.\Generated_Source\PSoC5/PWM_BUCK.c **** 
 463:.\Generated_Source\PSoC5/PWM_BUCK.c ****         #endif /* PWM_BUCK_UseStatus */
 464:.\Generated_Source\PSoC5/PWM_BUCK.c **** 
 465:.\Generated_Source\PSoC5/PWM_BUCK.c **** #endif /* !PWM_BUCK_UsingFixedFunction */
 466:.\Generated_Source\PSoC5/PWM_BUCK.c **** 
 467:.\Generated_Source\PSoC5/PWM_BUCK.c **** 
 468:.\Generated_Source\PSoC5/PWM_BUCK.c **** /*******************************************************************************
 469:.\Generated_Source\PSoC5/PWM_BUCK.c **** * Function Name: PWM_BUCK_WritePeriod
 470:.\Generated_Source\PSoC5/PWM_BUCK.c **** ********************************************************************************
 471:.\Generated_Source\PSoC5/PWM_BUCK.c **** * 
 472:.\Generated_Source\PSoC5/PWM_BUCK.c **** * Summary:
 473:.\Generated_Source\PSoC5/PWM_BUCK.c **** *  This function is used to change the period of the counter.  The new period 
 474:.\Generated_Source\PSoC5/PWM_BUCK.c **** *  will be loaded the next time terminal count is detected.
 475:.\Generated_Source\PSoC5/PWM_BUCK.c **** *
 476:.\Generated_Source\PSoC5/PWM_BUCK.c **** * Parameters:  
 477:.\Generated_Source\PSoC5/PWM_BUCK.c **** *  period:  Period value. May be between 1 and (2^Resolution)-1.  A value of 0 
 478:.\Generated_Source\PSoC5/PWM_BUCK.c **** *           will result in the counter remaining at zero.
 479:.\Generated_Source\PSoC5/PWM_BUCK.c **** *
 480:.\Generated_Source\PSoC5/PWM_BUCK.c **** * Return: 
 481:.\Generated_Source\PSoC5/PWM_BUCK.c **** *  None
 482:.\Generated_Source\PSoC5/PWM_BUCK.c **** *
 483:.\Generated_Source\PSoC5/PWM_BUCK.c **** *******************************************************************************/
 484:.\Generated_Source\PSoC5/PWM_BUCK.c **** void PWM_BUCK_WritePeriod(uint16 period) 
 485:.\Generated_Source\PSoC5/PWM_BUCK.c **** {
 364              		.loc 1 485 0
 365              		.cfi_startproc
 366              		@ args = 0, pretend = 0, frame = 8
ARM GAS  C:\Users\hoangp\AppData\Local\Temp\ccq0lsHW.s 			page 16


 367              		@ frame_needed = 1, uses_anonymous_args = 0
 368              		@ link register save eliminated.
 369 0000 80B4     		push	{r7}
 370              	.LCFI16:
 371              		.cfi_def_cfa_offset 4
 372 0002 83B0     		sub	sp, sp, #12
 373              	.LCFI17:
 374              		.cfi_def_cfa_offset 16
 375 0004 00AF     		add	r7, sp, #0
 376              		.cfi_offset 7, -4
 377              	.LCFI18:
 378              		.cfi_def_cfa_register 7
 379 0006 0346     		mov	r3, r0
 380 0008 FB80     		strh	r3, [r7, #6]	@ movhi
 486:.\Generated_Source\PSoC5/PWM_BUCK.c ****     #if(PWM_BUCK_UsingFixedFunction)
 487:.\Generated_Source\PSoC5/PWM_BUCK.c ****         CY_SET_REG16(PWM_BUCK_PERIOD_LSB_PTR, (uint16)period);
 488:.\Generated_Source\PSoC5/PWM_BUCK.c ****     #else
 489:.\Generated_Source\PSoC5/PWM_BUCK.c ****         CY_SET_REG16(PWM_BUCK_PERIOD_LSB_PTR, period);
 381              		.loc 1 489 0
 382 000a 46F68823 		movw	r3, #:lower16:1073769096
 383 000e C4F20003 		movt	r3, #:upper16:1073769096
 384 0012 FA88     		ldrh	r2, [r7, #6]	@ movhi
 385 0014 1A80     		strh	r2, [r3, #0]	@ movhi
 490:.\Generated_Source\PSoC5/PWM_BUCK.c ****     #endif /* (PWM_BUCK_UsingFixedFunction) */
 491:.\Generated_Source\PSoC5/PWM_BUCK.c **** }
 386              		.loc 1 491 0
 387 0016 07F10C07 		add	r7, r7, #12
 388 001a BD46     		mov	sp, r7
 389 001c 80BC     		pop	{r7}
 390 001e 7047     		bx	lr
 391              		.cfi_endproc
 392              	.LFE7:
 393              		.size	PWM_BUCK_WritePeriod, .-PWM_BUCK_WritePeriod
 394              		.section	.text.PWM_BUCK_WriteCompare,"ax",%progbits
 395              		.align	2
 396              		.global	PWM_BUCK_WriteCompare
 397              		.thumb
 398              		.thumb_func
 399              		.type	PWM_BUCK_WriteCompare, %function
 400              	PWM_BUCK_WriteCompare:
 401              	.LFB8:
 492:.\Generated_Source\PSoC5/PWM_BUCK.c **** 
 493:.\Generated_Source\PSoC5/PWM_BUCK.c **** #if (PWM_BUCK_UseOneCompareMode)
 494:.\Generated_Source\PSoC5/PWM_BUCK.c **** 
 495:.\Generated_Source\PSoC5/PWM_BUCK.c **** 
 496:.\Generated_Source\PSoC5/PWM_BUCK.c ****     /*******************************************************************************
 497:.\Generated_Source\PSoC5/PWM_BUCK.c ****     * Function Name: PWM_BUCK_WriteCompare
 498:.\Generated_Source\PSoC5/PWM_BUCK.c ****     ********************************************************************************
 499:.\Generated_Source\PSoC5/PWM_BUCK.c ****     * 
 500:.\Generated_Source\PSoC5/PWM_BUCK.c ****     * Summary:
 501:.\Generated_Source\PSoC5/PWM_BUCK.c ****     *  This funtion is used to change the compare1 value when the PWM is in Dither
 502:.\Generated_Source\PSoC5/PWM_BUCK.c ****     *  mode. The compare output will reflect the new value on the next UDB clock. 
 503:.\Generated_Source\PSoC5/PWM_BUCK.c ****     *  The compare output will be driven high when the present counter value is 
 504:.\Generated_Source\PSoC5/PWM_BUCK.c ****     *  compared to the compare value based on the compare mode defined in 
 505:.\Generated_Source\PSoC5/PWM_BUCK.c ****     *  Dither Mode.
 506:.\Generated_Source\PSoC5/PWM_BUCK.c ****     *
 507:.\Generated_Source\PSoC5/PWM_BUCK.c ****     * Parameters:  
ARM GAS  C:\Users\hoangp\AppData\Local\Temp\ccq0lsHW.s 			page 17


 508:.\Generated_Source\PSoC5/PWM_BUCK.c ****     *  compare:  New compare value.  
 509:.\Generated_Source\PSoC5/PWM_BUCK.c ****     *
 510:.\Generated_Source\PSoC5/PWM_BUCK.c ****     * Return: 
 511:.\Generated_Source\PSoC5/PWM_BUCK.c ****     *  None
 512:.\Generated_Source\PSoC5/PWM_BUCK.c ****     *
 513:.\Generated_Source\PSoC5/PWM_BUCK.c ****     * Side Effects:
 514:.\Generated_Source\PSoC5/PWM_BUCK.c ****     *  This function is only available if the PWM mode parameter is set to
 515:.\Generated_Source\PSoC5/PWM_BUCK.c ****     *  Dither Mode, Center Aligned Mode or One Output Mode
 516:.\Generated_Source\PSoC5/PWM_BUCK.c ****     *
 517:.\Generated_Source\PSoC5/PWM_BUCK.c ****     *******************************************************************************/
 518:.\Generated_Source\PSoC5/PWM_BUCK.c ****     void PWM_BUCK_WriteCompare(uint16 compare) \
 519:.\Generated_Source\PSoC5/PWM_BUCK.c ****                                        
 520:.\Generated_Source\PSoC5/PWM_BUCK.c ****     {	
 402              		.loc 1 520 0
 403              		.cfi_startproc
 404              		@ args = 0, pretend = 0, frame = 8
 405              		@ frame_needed = 1, uses_anonymous_args = 0
 406              		@ link register save eliminated.
 407 0000 80B4     		push	{r7}
 408              	.LCFI19:
 409              		.cfi_def_cfa_offset 4
 410 0002 83B0     		sub	sp, sp, #12
 411              	.LCFI20:
 412              		.cfi_def_cfa_offset 16
 413 0004 00AF     		add	r7, sp, #0
 414              		.cfi_offset 7, -4
 415              	.LCFI21:
 416              		.cfi_def_cfa_register 7
 417 0006 0346     		mov	r3, r0
 418 0008 FB80     		strh	r3, [r7, #6]	@ movhi
 521:.\Generated_Source\PSoC5/PWM_BUCK.c **** 		#if(PWM_BUCK_UsingFixedFunction)
 522:.\Generated_Source\PSoC5/PWM_BUCK.c **** 			CY_SET_REG16(PWM_BUCK_COMPARE1_LSB_PTR, (uint16)compare);
 523:.\Generated_Source\PSoC5/PWM_BUCK.c **** 		#else
 524:.\Generated_Source\PSoC5/PWM_BUCK.c **** 	        CY_SET_REG16(PWM_BUCK_COMPARE1_LSB_PTR, compare);	
 419              		.loc 1 524 0
 420 000a 46F64823 		movw	r3, #:lower16:1073769032
 421 000e C4F20003 		movt	r3, #:upper16:1073769032
 422 0012 FA88     		ldrh	r2, [r7, #6]	@ movhi
 423 0014 1A80     		strh	r2, [r3, #0]	@ movhi
 525:.\Generated_Source\PSoC5/PWM_BUCK.c **** 		#endif /* (PWM_BUCK_UsingFixedFunction) */
 526:.\Generated_Source\PSoC5/PWM_BUCK.c ****         
 527:.\Generated_Source\PSoC5/PWM_BUCK.c ****         #if (PWM_BUCK_PWMMode == PWM_BUCK__B_PWM__DITHER)
 528:.\Generated_Source\PSoC5/PWM_BUCK.c ****             #if(PWM_BUCK_UsingFixedFunction)
 529:.\Generated_Source\PSoC5/PWM_BUCK.c ****     			CY_SET_REG16(PWM_BUCK_COMPARE2_LSB_PTR, (uint16)(compare + 1u));
 530:.\Generated_Source\PSoC5/PWM_BUCK.c ****     		#else
 531:.\Generated_Source\PSoC5/PWM_BUCK.c ****     	        CY_SET_REG16(PWM_BUCK_COMPARE2_LSB_PTR, (compare + 1u));	
 532:.\Generated_Source\PSoC5/PWM_BUCK.c ****     		#endif /* (PWM_BUCK_UsingFixedFunction) */
 533:.\Generated_Source\PSoC5/PWM_BUCK.c ****         #endif /* (PWM_BUCK_PWMMode == PWM_BUCK__B_PWM__DITHER) */
 534:.\Generated_Source\PSoC5/PWM_BUCK.c ****     }
 424              		.loc 1 534 0
 425 0016 07F10C07 		add	r7, r7, #12
 426 001a BD46     		mov	sp, r7
 427 001c 80BC     		pop	{r7}
 428 001e 7047     		bx	lr
 429              		.cfi_endproc
 430              	.LFE8:
 431              		.size	PWM_BUCK_WriteCompare, .-PWM_BUCK_WriteCompare
ARM GAS  C:\Users\hoangp\AppData\Local\Temp\ccq0lsHW.s 			page 18


 432              		.section	.text.PWM_BUCK_WriteDeadTime,"ax",%progbits
 433              		.align	2
 434              		.global	PWM_BUCK_WriteDeadTime
 435              		.thumb
 436              		.thumb_func
 437              		.type	PWM_BUCK_WriteDeadTime, %function
 438              	PWM_BUCK_WriteDeadTime:
 439              	.LFB9:
 535:.\Generated_Source\PSoC5/PWM_BUCK.c **** 
 536:.\Generated_Source\PSoC5/PWM_BUCK.c **** 
 537:.\Generated_Source\PSoC5/PWM_BUCK.c **** #else
 538:.\Generated_Source\PSoC5/PWM_BUCK.c **** 
 539:.\Generated_Source\PSoC5/PWM_BUCK.c **** 
 540:.\Generated_Source\PSoC5/PWM_BUCK.c ****     /*******************************************************************************
 541:.\Generated_Source\PSoC5/PWM_BUCK.c ****     * Function Name: PWM_BUCK_WriteCompare1
 542:.\Generated_Source\PSoC5/PWM_BUCK.c ****     ********************************************************************************
 543:.\Generated_Source\PSoC5/PWM_BUCK.c ****     * 
 544:.\Generated_Source\PSoC5/PWM_BUCK.c ****     * Summary:
 545:.\Generated_Source\PSoC5/PWM_BUCK.c ****     *  This funtion is used to change the compare1 value.  The compare output will 
 546:.\Generated_Source\PSoC5/PWM_BUCK.c ****     *  reflect the new value on the next UDB clock.  The compare output will be 
 547:.\Generated_Source\PSoC5/PWM_BUCK.c ****     *  driven high when the present counter value is less than or less than or 
 548:.\Generated_Source\PSoC5/PWM_BUCK.c ****     *  equal to the compare register, depending on the mode.
 549:.\Generated_Source\PSoC5/PWM_BUCK.c ****     *
 550:.\Generated_Source\PSoC5/PWM_BUCK.c ****     * Parameters:  
 551:.\Generated_Source\PSoC5/PWM_BUCK.c ****     *  compare:  New compare value.  
 552:.\Generated_Source\PSoC5/PWM_BUCK.c ****     *
 553:.\Generated_Source\PSoC5/PWM_BUCK.c ****     * Return: 
 554:.\Generated_Source\PSoC5/PWM_BUCK.c ****     *  None
 555:.\Generated_Source\PSoC5/PWM_BUCK.c ****     *
 556:.\Generated_Source\PSoC5/PWM_BUCK.c ****     *******************************************************************************/
 557:.\Generated_Source\PSoC5/PWM_BUCK.c ****     void PWM_BUCK_WriteCompare1(uint16 compare) \
 558:.\Generated_Source\PSoC5/PWM_BUCK.c ****                                         
 559:.\Generated_Source\PSoC5/PWM_BUCK.c ****     {
 560:.\Generated_Source\PSoC5/PWM_BUCK.c ****         #if(PWM_BUCK_UsingFixedFunction)
 561:.\Generated_Source\PSoC5/PWM_BUCK.c ****             CY_SET_REG16(PWM_BUCK_COMPARE1_LSB_PTR, (uint16)compare);
 562:.\Generated_Source\PSoC5/PWM_BUCK.c ****         #else
 563:.\Generated_Source\PSoC5/PWM_BUCK.c ****             CY_SET_REG16(PWM_BUCK_COMPARE1_LSB_PTR, compare);
 564:.\Generated_Source\PSoC5/PWM_BUCK.c ****         #endif /* (PWM_BUCK_UsingFixedFunction) */
 565:.\Generated_Source\PSoC5/PWM_BUCK.c ****     }
 566:.\Generated_Source\PSoC5/PWM_BUCK.c **** 
 567:.\Generated_Source\PSoC5/PWM_BUCK.c **** 
 568:.\Generated_Source\PSoC5/PWM_BUCK.c ****     /*******************************************************************************
 569:.\Generated_Source\PSoC5/PWM_BUCK.c ****     * Function Name: PWM_BUCK_WriteCompare2
 570:.\Generated_Source\PSoC5/PWM_BUCK.c ****     ********************************************************************************
 571:.\Generated_Source\PSoC5/PWM_BUCK.c ****     * 
 572:.\Generated_Source\PSoC5/PWM_BUCK.c ****     * Summary:
 573:.\Generated_Source\PSoC5/PWM_BUCK.c ****     *  This funtion is used to change the compare value, for compare1 output.  
 574:.\Generated_Source\PSoC5/PWM_BUCK.c ****     *  The compare output will reflect the new value on the next UDB clock.  
 575:.\Generated_Source\PSoC5/PWM_BUCK.c ****     *  The compare output will be driven high when the present counter value is 
 576:.\Generated_Source\PSoC5/PWM_BUCK.c ****     *  less than or less than or equal to the compare register, depending on the 
 577:.\Generated_Source\PSoC5/PWM_BUCK.c ****     *  mode.
 578:.\Generated_Source\PSoC5/PWM_BUCK.c ****     *
 579:.\Generated_Source\PSoC5/PWM_BUCK.c ****     * Parameters:  
 580:.\Generated_Source\PSoC5/PWM_BUCK.c ****     *  compare:  New compare value.  
 581:.\Generated_Source\PSoC5/PWM_BUCK.c ****     *
 582:.\Generated_Source\PSoC5/PWM_BUCK.c ****     * Return: 
 583:.\Generated_Source\PSoC5/PWM_BUCK.c ****     *  None
ARM GAS  C:\Users\hoangp\AppData\Local\Temp\ccq0lsHW.s 			page 19


 584:.\Generated_Source\PSoC5/PWM_BUCK.c ****     *
 585:.\Generated_Source\PSoC5/PWM_BUCK.c ****     *******************************************************************************/
 586:.\Generated_Source\PSoC5/PWM_BUCK.c ****     void PWM_BUCK_WriteCompare2(uint16 compare) \
 587:.\Generated_Source\PSoC5/PWM_BUCK.c ****                                         
 588:.\Generated_Source\PSoC5/PWM_BUCK.c ****     {
 589:.\Generated_Source\PSoC5/PWM_BUCK.c ****         #if(PWM_BUCK_UsingFixedFunction)
 590:.\Generated_Source\PSoC5/PWM_BUCK.c ****             CY_SET_REG16(PWM_BUCK_COMPARE2_LSB_PTR, compare);
 591:.\Generated_Source\PSoC5/PWM_BUCK.c ****         #else
 592:.\Generated_Source\PSoC5/PWM_BUCK.c ****             CY_SET_REG16(PWM_BUCK_COMPARE2_LSB_PTR, compare);
 593:.\Generated_Source\PSoC5/PWM_BUCK.c ****         #endif /* (PWM_BUCK_UsingFixedFunction) */
 594:.\Generated_Source\PSoC5/PWM_BUCK.c ****     }
 595:.\Generated_Source\PSoC5/PWM_BUCK.c **** #endif /* UseOneCompareMode */
 596:.\Generated_Source\PSoC5/PWM_BUCK.c **** 
 597:.\Generated_Source\PSoC5/PWM_BUCK.c **** #if (PWM_BUCK_DeadBandUsed)
 598:.\Generated_Source\PSoC5/PWM_BUCK.c **** 
 599:.\Generated_Source\PSoC5/PWM_BUCK.c **** 
 600:.\Generated_Source\PSoC5/PWM_BUCK.c ****     /*******************************************************************************
 601:.\Generated_Source\PSoC5/PWM_BUCK.c ****     * Function Name: PWM_BUCK_WriteDeadTime
 602:.\Generated_Source\PSoC5/PWM_BUCK.c ****     ********************************************************************************
 603:.\Generated_Source\PSoC5/PWM_BUCK.c ****     * 
 604:.\Generated_Source\PSoC5/PWM_BUCK.c ****     * Summary:
 605:.\Generated_Source\PSoC5/PWM_BUCK.c ****     *  This function writes the dead-band counts to the corresponding register
 606:.\Generated_Source\PSoC5/PWM_BUCK.c ****     *
 607:.\Generated_Source\PSoC5/PWM_BUCK.c ****     * Parameters:  
 608:.\Generated_Source\PSoC5/PWM_BUCK.c ****     *  deadtime:  Number of counts for dead time 
 609:.\Generated_Source\PSoC5/PWM_BUCK.c ****     *
 610:.\Generated_Source\PSoC5/PWM_BUCK.c ****     * Return: 
 611:.\Generated_Source\PSoC5/PWM_BUCK.c ****     *  None
 612:.\Generated_Source\PSoC5/PWM_BUCK.c ****     *
 613:.\Generated_Source\PSoC5/PWM_BUCK.c ****     *******************************************************************************/
 614:.\Generated_Source\PSoC5/PWM_BUCK.c ****     void PWM_BUCK_WriteDeadTime(uint8 deadtime) 
 615:.\Generated_Source\PSoC5/PWM_BUCK.c ****     {
 440              		.loc 1 615 0
 441              		.cfi_startproc
 442              		@ args = 0, pretend = 0, frame = 8
 443              		@ frame_needed = 1, uses_anonymous_args = 0
 444              		@ link register save eliminated.
 445 0000 80B4     		push	{r7}
 446              	.LCFI22:
 447              		.cfi_def_cfa_offset 4
 448 0002 83B0     		sub	sp, sp, #12
 449              	.LCFI23:
 450              		.cfi_def_cfa_offset 16
 451 0004 00AF     		add	r7, sp, #0
 452              		.cfi_offset 7, -4
 453              	.LCFI24:
 454              		.cfi_def_cfa_register 7
 455 0006 0346     		mov	r3, r0
 456 0008 FB71     		strb	r3, [r7, #7]
 616:.\Generated_Source\PSoC5/PWM_BUCK.c ****         /* If using the Dead Band 1-255 mode then just write the register */
 617:.\Generated_Source\PSoC5/PWM_BUCK.c ****         #if(!PWM_BUCK_DeadBand2_4)
 618:.\Generated_Source\PSoC5/PWM_BUCK.c ****             CY_SET_REG8(PWM_BUCK_DEADBAND_COUNT_PTR, deadtime);
 457              		.loc 1 618 0
 458 000a 46F22B53 		movw	r3, #:lower16:1073767723
 459 000e C4F20003 		movt	r3, #:upper16:1073767723
 460 0012 FA79     		ldrb	r2, [r7, #7]
 461 0014 1A70     		strb	r2, [r3, #0]
ARM GAS  C:\Users\hoangp\AppData\Local\Temp\ccq0lsHW.s 			page 20


 619:.\Generated_Source\PSoC5/PWM_BUCK.c ****         #else
 620:.\Generated_Source\PSoC5/PWM_BUCK.c ****             /* Otherwise the data has to be masked and offset */        
 621:.\Generated_Source\PSoC5/PWM_BUCK.c ****             /* Clear existing data */
 622:.\Generated_Source\PSoC5/PWM_BUCK.c ****             PWM_BUCK_DEADBAND_COUNT &= ((uint8)(~PWM_BUCK_DEADBAND_COUNT_MASK));
 623:.\Generated_Source\PSoC5/PWM_BUCK.c ****             
 624:.\Generated_Source\PSoC5/PWM_BUCK.c ****             /* Set new dead time */
 625:.\Generated_Source\PSoC5/PWM_BUCK.c ****             #if(PWM_BUCK_DEADBAND_COUNT_SHIFT)        
 626:.\Generated_Source\PSoC5/PWM_BUCK.c ****                 PWM_BUCK_DEADBAND_COUNT |= ((uint8)((uint8)deadtime << PWM_BUCK_DEADBAND_COUNT_SHIF
 627:.\Generated_Source\PSoC5/PWM_BUCK.c ****                                                     PWM_BUCK_DEADBAND_COUNT_MASK;
 628:.\Generated_Source\PSoC5/PWM_BUCK.c ****             #else
 629:.\Generated_Source\PSoC5/PWM_BUCK.c ****                 PWM_BUCK_DEADBAND_COUNT |= deadtime & PWM_BUCK_DEADBAND_COUNT_MASK;        
 630:.\Generated_Source\PSoC5/PWM_BUCK.c ****             #endif /* (PWM_BUCK_DEADBAND_COUNT_SHIFT) */
 631:.\Generated_Source\PSoC5/PWM_BUCK.c ****         
 632:.\Generated_Source\PSoC5/PWM_BUCK.c ****         #endif /* (!PWM_BUCK_DeadBand2_4) */
 633:.\Generated_Source\PSoC5/PWM_BUCK.c ****     }
 462              		.loc 1 633 0
 463 0016 07F10C07 		add	r7, r7, #12
 464 001a BD46     		mov	sp, r7
 465 001c 80BC     		pop	{r7}
 466 001e 7047     		bx	lr
 467              		.cfi_endproc
 468              	.LFE9:
 469              		.size	PWM_BUCK_WriteDeadTime, .-PWM_BUCK_WriteDeadTime
 470              		.section	.text.PWM_BUCK_ReadDeadTime,"ax",%progbits
 471              		.align	2
 472              		.global	PWM_BUCK_ReadDeadTime
 473              		.thumb
 474              		.thumb_func
 475              		.type	PWM_BUCK_ReadDeadTime, %function
 476              	PWM_BUCK_ReadDeadTime:
 477              	.LFB10:
 634:.\Generated_Source\PSoC5/PWM_BUCK.c **** 
 635:.\Generated_Source\PSoC5/PWM_BUCK.c **** 
 636:.\Generated_Source\PSoC5/PWM_BUCK.c ****     /*******************************************************************************
 637:.\Generated_Source\PSoC5/PWM_BUCK.c ****     * Function Name: PWM_BUCK_ReadDeadTime
 638:.\Generated_Source\PSoC5/PWM_BUCK.c ****     ********************************************************************************
 639:.\Generated_Source\PSoC5/PWM_BUCK.c ****     * 
 640:.\Generated_Source\PSoC5/PWM_BUCK.c ****     * Summary:
 641:.\Generated_Source\PSoC5/PWM_BUCK.c ****     *  This function reads the dead-band counts from the corresponding register
 642:.\Generated_Source\PSoC5/PWM_BUCK.c ****     *
 643:.\Generated_Source\PSoC5/PWM_BUCK.c ****     * Parameters:  
 644:.\Generated_Source\PSoC5/PWM_BUCK.c ****     *  None
 645:.\Generated_Source\PSoC5/PWM_BUCK.c ****     *
 646:.\Generated_Source\PSoC5/PWM_BUCK.c ****     * Return: 
 647:.\Generated_Source\PSoC5/PWM_BUCK.c ****     *  Dead Band Counts
 648:.\Generated_Source\PSoC5/PWM_BUCK.c ****     *
 649:.\Generated_Source\PSoC5/PWM_BUCK.c ****     *******************************************************************************/
 650:.\Generated_Source\PSoC5/PWM_BUCK.c ****     uint8 PWM_BUCK_ReadDeadTime(void) 
 651:.\Generated_Source\PSoC5/PWM_BUCK.c ****     {
 478              		.loc 1 651 0
 479              		.cfi_startproc
 480              		@ args = 0, pretend = 0, frame = 0
 481              		@ frame_needed = 1, uses_anonymous_args = 0
 482              		@ link register save eliminated.
 483 0000 80B4     		push	{r7}
 484              	.LCFI25:
 485              		.cfi_def_cfa_offset 4
ARM GAS  C:\Users\hoangp\AppData\Local\Temp\ccq0lsHW.s 			page 21


 486 0002 00AF     		add	r7, sp, #0
 487              		.cfi_offset 7, -4
 488              	.LCFI26:
 489              		.cfi_def_cfa_register 7
 652:.\Generated_Source\PSoC5/PWM_BUCK.c ****         /* If using the Dead Band 1-255 mode then just read the register */
 653:.\Generated_Source\PSoC5/PWM_BUCK.c ****         #if(!PWM_BUCK_DeadBand2_4)
 654:.\Generated_Source\PSoC5/PWM_BUCK.c ****             return (CY_GET_REG8(PWM_BUCK_DEADBAND_COUNT_PTR));
 490              		.loc 1 654 0
 491 0004 46F22B53 		movw	r3, #:lower16:1073767723
 492 0008 C4F20003 		movt	r3, #:upper16:1073767723
 493 000c 1B78     		ldrb	r3, [r3, #0]
 494 000e DBB2     		uxtb	r3, r3
 655:.\Generated_Source\PSoC5/PWM_BUCK.c ****         #else
 656:.\Generated_Source\PSoC5/PWM_BUCK.c ****         
 657:.\Generated_Source\PSoC5/PWM_BUCK.c ****             /* Otherwise the data has to be masked and offset */
 658:.\Generated_Source\PSoC5/PWM_BUCK.c ****             #if(PWM_BUCK_DEADBAND_COUNT_SHIFT)      
 659:.\Generated_Source\PSoC5/PWM_BUCK.c ****                 return ((uint8)(((uint8)(PWM_BUCK_DEADBAND_COUNT & PWM_BUCK_DEADBAND_COUNT_MASK)) >
 660:.\Generated_Source\PSoC5/PWM_BUCK.c ****                                                                            PWM_BUCK_DEADBAND_COUNT_
 661:.\Generated_Source\PSoC5/PWM_BUCK.c ****             #else
 662:.\Generated_Source\PSoC5/PWM_BUCK.c ****                 return (PWM_BUCK_DEADBAND_COUNT & PWM_BUCK_DEADBAND_COUNT_MASK);
 663:.\Generated_Source\PSoC5/PWM_BUCK.c ****             #endif /* (PWM_BUCK_DEADBAND_COUNT_SHIFT) */
 664:.\Generated_Source\PSoC5/PWM_BUCK.c ****         #endif /* (!PWM_BUCK_DeadBand2_4) */
 665:.\Generated_Source\PSoC5/PWM_BUCK.c ****     }
 495              		.loc 1 665 0
 496 0010 1846     		mov	r0, r3
 497 0012 BD46     		mov	sp, r7
 498 0014 80BC     		pop	{r7}
 499 0016 7047     		bx	lr
 500              		.cfi_endproc
 501              	.LFE10:
 502              		.size	PWM_BUCK_ReadDeadTime, .-PWM_BUCK_ReadDeadTime
 503              		.section	.text.PWM_BUCK_SetInterruptMode,"ax",%progbits
 504              		.align	2
 505              		.global	PWM_BUCK_SetInterruptMode
 506              		.thumb
 507              		.thumb_func
 508              		.type	PWM_BUCK_SetInterruptMode, %function
 509              	PWM_BUCK_SetInterruptMode:
 510              	.LFB11:
 666:.\Generated_Source\PSoC5/PWM_BUCK.c **** #endif /* DeadBandUsed */
 667:.\Generated_Source\PSoC5/PWM_BUCK.c **** 
 668:.\Generated_Source\PSoC5/PWM_BUCK.c **** #if (PWM_BUCK_UseStatus || PWM_BUCK_UsingFixedFunction)
 669:.\Generated_Source\PSoC5/PWM_BUCK.c **** 
 670:.\Generated_Source\PSoC5/PWM_BUCK.c **** 
 671:.\Generated_Source\PSoC5/PWM_BUCK.c ****     /*******************************************************************************
 672:.\Generated_Source\PSoC5/PWM_BUCK.c ****     * Function Name: PWM_BUCK_SetInterruptMode
 673:.\Generated_Source\PSoC5/PWM_BUCK.c ****     ********************************************************************************
 674:.\Generated_Source\PSoC5/PWM_BUCK.c ****     * 
 675:.\Generated_Source\PSoC5/PWM_BUCK.c ****     * Summary:
 676:.\Generated_Source\PSoC5/PWM_BUCK.c ****     *  This function configures the interrupts mask control of theinterrupt 
 677:.\Generated_Source\PSoC5/PWM_BUCK.c ****     *  source status register.
 678:.\Generated_Source\PSoC5/PWM_BUCK.c ****     *
 679:.\Generated_Source\PSoC5/PWM_BUCK.c ****     * Parameters:  
 680:.\Generated_Source\PSoC5/PWM_BUCK.c ****     *  uint8 interruptMode: Bit field containing the interrupt sources enabled 
 681:.\Generated_Source\PSoC5/PWM_BUCK.c ****     *
 682:.\Generated_Source\PSoC5/PWM_BUCK.c ****     * Return: 
 683:.\Generated_Source\PSoC5/PWM_BUCK.c ****     *  None
ARM GAS  C:\Users\hoangp\AppData\Local\Temp\ccq0lsHW.s 			page 22


 684:.\Generated_Source\PSoC5/PWM_BUCK.c ****     *
 685:.\Generated_Source\PSoC5/PWM_BUCK.c ****     *******************************************************************************/
 686:.\Generated_Source\PSoC5/PWM_BUCK.c ****     void PWM_BUCK_SetInterruptMode(uint8 interruptMode)  
 687:.\Generated_Source\PSoC5/PWM_BUCK.c ****     {
 511              		.loc 1 687 0
 512              		.cfi_startproc
 513              		@ args = 0, pretend = 0, frame = 8
 514              		@ frame_needed = 1, uses_anonymous_args = 0
 515              		@ link register save eliminated.
 516 0000 80B4     		push	{r7}
 517              	.LCFI27:
 518              		.cfi_def_cfa_offset 4
 519 0002 83B0     		sub	sp, sp, #12
 520              	.LCFI28:
 521              		.cfi_def_cfa_offset 16
 522 0004 00AF     		add	r7, sp, #0
 523              		.cfi_offset 7, -4
 524              	.LCFI29:
 525              		.cfi_def_cfa_register 7
 526 0006 0346     		mov	r3, r0
 527 0008 FB71     		strb	r3, [r7, #7]
 688:.\Generated_Source\PSoC5/PWM_BUCK.c ****     	CY_SET_REG8(PWM_BUCK_STATUS_MASK_PTR, interruptMode);
 528              		.loc 1 688 0
 529 000a 46F28553 		movw	r3, #:lower16:1073767813
 530 000e C4F20003 		movt	r3, #:upper16:1073767813
 531 0012 FA79     		ldrb	r2, [r7, #7]
 532 0014 1A70     		strb	r2, [r3, #0]
 689:.\Generated_Source\PSoC5/PWM_BUCK.c ****     }
 533              		.loc 1 689 0
 534 0016 07F10C07 		add	r7, r7, #12
 535 001a BD46     		mov	sp, r7
 536 001c 80BC     		pop	{r7}
 537 001e 7047     		bx	lr
 538              		.cfi_endproc
 539              	.LFE11:
 540              		.size	PWM_BUCK_SetInterruptMode, .-PWM_BUCK_SetInterruptMode
 541              		.section	.text.PWM_BUCK_ReadStatusRegister,"ax",%progbits
 542              		.align	2
 543              		.global	PWM_BUCK_ReadStatusRegister
 544              		.thumb
 545              		.thumb_func
 546              		.type	PWM_BUCK_ReadStatusRegister, %function
 547              	PWM_BUCK_ReadStatusRegister:
 548              	.LFB12:
 690:.\Generated_Source\PSoC5/PWM_BUCK.c **** 
 691:.\Generated_Source\PSoC5/PWM_BUCK.c **** 
 692:.\Generated_Source\PSoC5/PWM_BUCK.c ****     /*******************************************************************************
 693:.\Generated_Source\PSoC5/PWM_BUCK.c ****     * Function Name: PWM_BUCK_ReadStatusRegister
 694:.\Generated_Source\PSoC5/PWM_BUCK.c ****     ********************************************************************************
 695:.\Generated_Source\PSoC5/PWM_BUCK.c ****     * 
 696:.\Generated_Source\PSoC5/PWM_BUCK.c ****     * Summary:
 697:.\Generated_Source\PSoC5/PWM_BUCK.c ****     *  This function returns the current state of the status register. 
 698:.\Generated_Source\PSoC5/PWM_BUCK.c ****     *
 699:.\Generated_Source\PSoC5/PWM_BUCK.c ****     * Parameters:  
 700:.\Generated_Source\PSoC5/PWM_BUCK.c ****     *  None
 701:.\Generated_Source\PSoC5/PWM_BUCK.c ****     *
 702:.\Generated_Source\PSoC5/PWM_BUCK.c ****     * Return: 
ARM GAS  C:\Users\hoangp\AppData\Local\Temp\ccq0lsHW.s 			page 23


 703:.\Generated_Source\PSoC5/PWM_BUCK.c ****     *  uint8 : Current status register value. The status register bits are:
 704:.\Generated_Source\PSoC5/PWM_BUCK.c ****     *  [7:6] : Unused(0)
 705:.\Generated_Source\PSoC5/PWM_BUCK.c ****     *  [5]   : Kill event output
 706:.\Generated_Source\PSoC5/PWM_BUCK.c ****     *  [4]   : FIFO not empty
 707:.\Generated_Source\PSoC5/PWM_BUCK.c ****     *  [3]   : FIFO full
 708:.\Generated_Source\PSoC5/PWM_BUCK.c ****     *  [2]   : Terminal count
 709:.\Generated_Source\PSoC5/PWM_BUCK.c ****     *  [1]   : Compare output 2
 710:.\Generated_Source\PSoC5/PWM_BUCK.c ****     *  [0]   : Compare output 1
 711:.\Generated_Source\PSoC5/PWM_BUCK.c ****     *
 712:.\Generated_Source\PSoC5/PWM_BUCK.c ****     *******************************************************************************/
 713:.\Generated_Source\PSoC5/PWM_BUCK.c ****     uint8 PWM_BUCK_ReadStatusRegister(void)   
 714:.\Generated_Source\PSoC5/PWM_BUCK.c ****     {
 549              		.loc 1 714 0
 550              		.cfi_startproc
 551              		@ args = 0, pretend = 0, frame = 8
 552              		@ frame_needed = 1, uses_anonymous_args = 0
 553              		@ link register save eliminated.
 554 0000 80B4     		push	{r7}
 555              	.LCFI30:
 556              		.cfi_def_cfa_offset 4
 557 0002 83B0     		sub	sp, sp, #12
 558              	.LCFI31:
 559              		.cfi_def_cfa_offset 16
 560 0004 00AF     		add	r7, sp, #0
 561              		.cfi_offset 7, -4
 562              	.LCFI32:
 563              		.cfi_def_cfa_register 7
 715:.\Generated_Source\PSoC5/PWM_BUCK.c ****     	uint8 result;
 716:.\Generated_Source\PSoC5/PWM_BUCK.c ****     	
 717:.\Generated_Source\PSoC5/PWM_BUCK.c ****     	result = CY_GET_REG8(PWM_BUCK_STATUS_PTR);
 564              		.loc 1 717 0
 565 0006 46F26553 		movw	r3, #:lower16:1073767781
 566 000a C4F20003 		movt	r3, #:upper16:1073767781
 567 000e 1B78     		ldrb	r3, [r3, #0]
 568 0010 FB71     		strb	r3, [r7, #7]
 718:.\Generated_Source\PSoC5/PWM_BUCK.c ****     	return (result);
 569              		.loc 1 718 0
 570 0012 FB79     		ldrb	r3, [r7, #7]	@ zero_extendqisi2
 719:.\Generated_Source\PSoC5/PWM_BUCK.c ****     }
 571              		.loc 1 719 0
 572 0014 1846     		mov	r0, r3
 573 0016 07F10C07 		add	r7, r7, #12
 574 001a BD46     		mov	sp, r7
 575 001c 80BC     		pop	{r7}
 576 001e 7047     		bx	lr
 577              		.cfi_endproc
 578              	.LFE12:
 579              		.size	PWM_BUCK_ReadStatusRegister, .-PWM_BUCK_ReadStatusRegister
 580              		.section	.text.PWM_BUCK_ReadControlRegister,"ax",%progbits
 581              		.align	2
 582              		.global	PWM_BUCK_ReadControlRegister
 583              		.thumb
 584              		.thumb_func
 585              		.type	PWM_BUCK_ReadControlRegister, %function
 586              	PWM_BUCK_ReadControlRegister:
 587              	.LFB13:
 720:.\Generated_Source\PSoC5/PWM_BUCK.c **** 
ARM GAS  C:\Users\hoangp\AppData\Local\Temp\ccq0lsHW.s 			page 24


 721:.\Generated_Source\PSoC5/PWM_BUCK.c **** #endif /* (PWM_BUCK_UseStatus || PWM_BUCK_UsingFixedFunction) */
 722:.\Generated_Source\PSoC5/PWM_BUCK.c **** 
 723:.\Generated_Source\PSoC5/PWM_BUCK.c **** 
 724:.\Generated_Source\PSoC5/PWM_BUCK.c **** #if (PWM_BUCK_UseControl)
 725:.\Generated_Source\PSoC5/PWM_BUCK.c **** 
 726:.\Generated_Source\PSoC5/PWM_BUCK.c **** 
 727:.\Generated_Source\PSoC5/PWM_BUCK.c ****     /*******************************************************************************
 728:.\Generated_Source\PSoC5/PWM_BUCK.c ****     * Function Name: PWM_BUCK_ReadControlRegister
 729:.\Generated_Source\PSoC5/PWM_BUCK.c ****     ********************************************************************************
 730:.\Generated_Source\PSoC5/PWM_BUCK.c ****     * 
 731:.\Generated_Source\PSoC5/PWM_BUCK.c ****     * Summary:
 732:.\Generated_Source\PSoC5/PWM_BUCK.c ****     *  Returns the current state of the control register. This API is available 
 733:.\Generated_Source\PSoC5/PWM_BUCK.c ****     *  only if the control register is not removed.
 734:.\Generated_Source\PSoC5/PWM_BUCK.c ****     *
 735:.\Generated_Source\PSoC5/PWM_BUCK.c ****     * Parameters:  
 736:.\Generated_Source\PSoC5/PWM_BUCK.c ****     *  None 
 737:.\Generated_Source\PSoC5/PWM_BUCK.c ****     *
 738:.\Generated_Source\PSoC5/PWM_BUCK.c ****     * Return: 
 739:.\Generated_Source\PSoC5/PWM_BUCK.c ****     *  uint8 : Current control register value
 740:.\Generated_Source\PSoC5/PWM_BUCK.c ****     *
 741:.\Generated_Source\PSoC5/PWM_BUCK.c ****     *******************************************************************************/    
 742:.\Generated_Source\PSoC5/PWM_BUCK.c ****     uint8 PWM_BUCK_ReadControlRegister(void) 
 743:.\Generated_Source\PSoC5/PWM_BUCK.c ****     {
 588              		.loc 1 743 0
 589              		.cfi_startproc
 590              		@ args = 0, pretend = 0, frame = 8
 591              		@ frame_needed = 1, uses_anonymous_args = 0
 592              		@ link register save eliminated.
 593 0000 80B4     		push	{r7}
 594              	.LCFI33:
 595              		.cfi_def_cfa_offset 4
 596 0002 83B0     		sub	sp, sp, #12
 597              	.LCFI34:
 598              		.cfi_def_cfa_offset 16
 599 0004 00AF     		add	r7, sp, #0
 600              		.cfi_offset 7, -4
 601              	.LCFI35:
 602              		.cfi_def_cfa_register 7
 744:.\Generated_Source\PSoC5/PWM_BUCK.c ****     	uint8 result;
 745:.\Generated_Source\PSoC5/PWM_BUCK.c ****     	
 746:.\Generated_Source\PSoC5/PWM_BUCK.c ****     	result = CY_GET_REG8(PWM_BUCK_CONTROL_PTR);
 603              		.loc 1 746 0
 604 0006 46F27453 		movw	r3, #:lower16:1073767796
 605 000a C4F20003 		movt	r3, #:upper16:1073767796
 606 000e 1B78     		ldrb	r3, [r3, #0]
 607 0010 FB71     		strb	r3, [r7, #7]
 747:.\Generated_Source\PSoC5/PWM_BUCK.c ****     	return (result);
 608              		.loc 1 747 0
 609 0012 FB79     		ldrb	r3, [r7, #7]	@ zero_extendqisi2
 748:.\Generated_Source\PSoC5/PWM_BUCK.c ****     }
 610              		.loc 1 748 0
 611 0014 1846     		mov	r0, r3
 612 0016 07F10C07 		add	r7, r7, #12
 613 001a BD46     		mov	sp, r7
 614 001c 80BC     		pop	{r7}
 615 001e 7047     		bx	lr
 616              		.cfi_endproc
ARM GAS  C:\Users\hoangp\AppData\Local\Temp\ccq0lsHW.s 			page 25


 617              	.LFE13:
 618              		.size	PWM_BUCK_ReadControlRegister, .-PWM_BUCK_ReadControlRegister
 619              		.section	.text.PWM_BUCK_WriteControlRegister,"ax",%progbits
 620              		.align	2
 621              		.global	PWM_BUCK_WriteControlRegister
 622              		.thumb
 623              		.thumb_func
 624              		.type	PWM_BUCK_WriteControlRegister, %function
 625              	PWM_BUCK_WriteControlRegister:
 626              	.LFB14:
 749:.\Generated_Source\PSoC5/PWM_BUCK.c **** 
 750:.\Generated_Source\PSoC5/PWM_BUCK.c **** 
 751:.\Generated_Source\PSoC5/PWM_BUCK.c ****     /*******************************************************************************
 752:.\Generated_Source\PSoC5/PWM_BUCK.c ****     * Function Name: PWM_BUCK_WriteControlRegister
 753:.\Generated_Source\PSoC5/PWM_BUCK.c ****     ********************************************************************************
 754:.\Generated_Source\PSoC5/PWM_BUCK.c ****     * 
 755:.\Generated_Source\PSoC5/PWM_BUCK.c ****     * Summary:
 756:.\Generated_Source\PSoC5/PWM_BUCK.c ****     *  Sets the bit field of the control register. This API is available only if 
 757:.\Generated_Source\PSoC5/PWM_BUCK.c ****     *  the control register is not removed.
 758:.\Generated_Source\PSoC5/PWM_BUCK.c ****     *
 759:.\Generated_Source\PSoC5/PWM_BUCK.c ****     * Parameters:  
 760:.\Generated_Source\PSoC5/PWM_BUCK.c ****     *  uint8 control: Control register bit field, The status register bits are:
 761:.\Generated_Source\PSoC5/PWM_BUCK.c ****     *  [7]   : PWM Enable
 762:.\Generated_Source\PSoC5/PWM_BUCK.c ****     *  [6]   : Reset
 763:.\Generated_Source\PSoC5/PWM_BUCK.c ****     *  [5:3] : Compare Mode2
 764:.\Generated_Source\PSoC5/PWM_BUCK.c ****     *  [2:0] : Compare Mode2
 765:.\Generated_Source\PSoC5/PWM_BUCK.c ****     *
 766:.\Generated_Source\PSoC5/PWM_BUCK.c ****     * Return: 
 767:.\Generated_Source\PSoC5/PWM_BUCK.c ****     *  None
 768:.\Generated_Source\PSoC5/PWM_BUCK.c ****     *
 769:.\Generated_Source\PSoC5/PWM_BUCK.c ****     *******************************************************************************/  
 770:.\Generated_Source\PSoC5/PWM_BUCK.c ****     void PWM_BUCK_WriteControlRegister(uint8 control) 
 771:.\Generated_Source\PSoC5/PWM_BUCK.c ****     {
 627              		.loc 1 771 0
 628              		.cfi_startproc
 629              		@ args = 0, pretend = 0, frame = 8
 630              		@ frame_needed = 1, uses_anonymous_args = 0
 631              		@ link register save eliminated.
 632 0000 80B4     		push	{r7}
 633              	.LCFI36:
 634              		.cfi_def_cfa_offset 4
 635 0002 83B0     		sub	sp, sp, #12
 636              	.LCFI37:
 637              		.cfi_def_cfa_offset 16
 638 0004 00AF     		add	r7, sp, #0
 639              		.cfi_offset 7, -4
 640              	.LCFI38:
 641              		.cfi_def_cfa_register 7
 642 0006 0346     		mov	r3, r0
 643 0008 FB71     		strb	r3, [r7, #7]
 772:.\Generated_Source\PSoC5/PWM_BUCK.c ****     	CY_SET_REG8(PWM_BUCK_CONTROL_PTR, control);
 644              		.loc 1 772 0
 645 000a 46F27453 		movw	r3, #:lower16:1073767796
 646 000e C4F20003 		movt	r3, #:upper16:1073767796
 647 0012 FA79     		ldrb	r2, [r7, #7]
 648 0014 1A70     		strb	r2, [r3, #0]
 773:.\Generated_Source\PSoC5/PWM_BUCK.c ****     }
ARM GAS  C:\Users\hoangp\AppData\Local\Temp\ccq0lsHW.s 			page 26


 649              		.loc 1 773 0
 650 0016 07F10C07 		add	r7, r7, #12
 651 001a BD46     		mov	sp, r7
 652 001c 80BC     		pop	{r7}
 653 001e 7047     		bx	lr
 654              		.cfi_endproc
 655              	.LFE14:
 656              		.size	PWM_BUCK_WriteControlRegister, .-PWM_BUCK_WriteControlRegister
 657              		.section	.text.PWM_BUCK_ReadCapture,"ax",%progbits
 658              		.align	2
 659              		.global	PWM_BUCK_ReadCapture
 660              		.thumb
 661              		.thumb_func
 662              		.type	PWM_BUCK_ReadCapture, %function
 663              	PWM_BUCK_ReadCapture:
 664              	.LFB15:
 774:.\Generated_Source\PSoC5/PWM_BUCK.c **** 	
 775:.\Generated_Source\PSoC5/PWM_BUCK.c **** #endif /* (PWM_BUCK_UseControl) */
 776:.\Generated_Source\PSoC5/PWM_BUCK.c **** 
 777:.\Generated_Source\PSoC5/PWM_BUCK.c **** 
 778:.\Generated_Source\PSoC5/PWM_BUCK.c **** #if (!PWM_BUCK_UsingFixedFunction)
 779:.\Generated_Source\PSoC5/PWM_BUCK.c **** 
 780:.\Generated_Source\PSoC5/PWM_BUCK.c **** 
 781:.\Generated_Source\PSoC5/PWM_BUCK.c ****     /*******************************************************************************
 782:.\Generated_Source\PSoC5/PWM_BUCK.c ****     * Function Name: PWM_BUCK_ReadCapture
 783:.\Generated_Source\PSoC5/PWM_BUCK.c ****     ********************************************************************************
 784:.\Generated_Source\PSoC5/PWM_BUCK.c ****     * 
 785:.\Generated_Source\PSoC5/PWM_BUCK.c ****     * Summary:
 786:.\Generated_Source\PSoC5/PWM_BUCK.c ****     *  Reads the capture value from the capture FIFO.
 787:.\Generated_Source\PSoC5/PWM_BUCK.c ****     *
 788:.\Generated_Source\PSoC5/PWM_BUCK.c ****     * Parameters:  
 789:.\Generated_Source\PSoC5/PWM_BUCK.c ****     *  None
 790:.\Generated_Source\PSoC5/PWM_BUCK.c ****     *
 791:.\Generated_Source\PSoC5/PWM_BUCK.c ****     * Return: 
 792:.\Generated_Source\PSoC5/PWM_BUCK.c ****     *  uint8/uint16: The current capture value
 793:.\Generated_Source\PSoC5/PWM_BUCK.c ****     *
 794:.\Generated_Source\PSoC5/PWM_BUCK.c ****     *******************************************************************************/  
 795:.\Generated_Source\PSoC5/PWM_BUCK.c ****     uint16 PWM_BUCK_ReadCapture(void)  
 796:.\Generated_Source\PSoC5/PWM_BUCK.c ****     {
 665              		.loc 1 796 0
 666              		.cfi_startproc
 667              		@ args = 0, pretend = 0, frame = 0
 668              		@ frame_needed = 1, uses_anonymous_args = 0
 669              		@ link register save eliminated.
 670 0000 80B4     		push	{r7}
 671              	.LCFI39:
 672              		.cfi_def_cfa_offset 4
 673 0002 00AF     		add	r7, sp, #0
 674              		.cfi_offset 7, -4
 675              	.LCFI40:
 676              		.cfi_def_cfa_register 7
 797:.\Generated_Source\PSoC5/PWM_BUCK.c ****     	return (CY_GET_REG16(PWM_BUCK_CAPTURE_LSB_PTR));
 677              		.loc 1 797 0
 678 0004 46F6A823 		movw	r3, #:lower16:1073769128
 679 0008 C4F20003 		movt	r3, #:upper16:1073769128
 680 000c 1B88     		ldrh	r3, [r3, #0]	@ movhi
 681 000e 9BB2     		uxth	r3, r3
ARM GAS  C:\Users\hoangp\AppData\Local\Temp\ccq0lsHW.s 			page 27


 798:.\Generated_Source\PSoC5/PWM_BUCK.c ****     }
 682              		.loc 1 798 0
 683 0010 1846     		mov	r0, r3
 684 0012 BD46     		mov	sp, r7
 685 0014 80BC     		pop	{r7}
 686 0016 7047     		bx	lr
 687              		.cfi_endproc
 688              	.LFE15:
 689              		.size	PWM_BUCK_ReadCapture, .-PWM_BUCK_ReadCapture
 690              		.section	.text.PWM_BUCK_ReadCompare,"ax",%progbits
 691              		.align	2
 692              		.global	PWM_BUCK_ReadCompare
 693              		.thumb
 694              		.thumb_func
 695              		.type	PWM_BUCK_ReadCompare, %function
 696              	PWM_BUCK_ReadCompare:
 697              	.LFB16:
 799:.\Generated_Source\PSoC5/PWM_BUCK.c **** 	
 800:.\Generated_Source\PSoC5/PWM_BUCK.c **** #endif /* (!PWM_BUCK_UsingFixedFunction) */
 801:.\Generated_Source\PSoC5/PWM_BUCK.c **** 
 802:.\Generated_Source\PSoC5/PWM_BUCK.c **** 
 803:.\Generated_Source\PSoC5/PWM_BUCK.c **** #if (PWM_BUCK_UseOneCompareMode)
 804:.\Generated_Source\PSoC5/PWM_BUCK.c **** 
 805:.\Generated_Source\PSoC5/PWM_BUCK.c **** 
 806:.\Generated_Source\PSoC5/PWM_BUCK.c ****     /*******************************************************************************
 807:.\Generated_Source\PSoC5/PWM_BUCK.c ****     * Function Name: PWM_BUCK_ReadCompare
 808:.\Generated_Source\PSoC5/PWM_BUCK.c ****     ********************************************************************************
 809:.\Generated_Source\PSoC5/PWM_BUCK.c ****     * 
 810:.\Generated_Source\PSoC5/PWM_BUCK.c ****     * Summary:
 811:.\Generated_Source\PSoC5/PWM_BUCK.c ****     *  Reads the compare value for the compare output when the PWM Mode parameter is 
 812:.\Generated_Source\PSoC5/PWM_BUCK.c ****     *  set to Dither mode, Center Aligned mode, or One Output mode.
 813:.\Generated_Source\PSoC5/PWM_BUCK.c ****     *
 814:.\Generated_Source\PSoC5/PWM_BUCK.c ****     * Parameters:  
 815:.\Generated_Source\PSoC5/PWM_BUCK.c ****     *  None
 816:.\Generated_Source\PSoC5/PWM_BUCK.c ****     *
 817:.\Generated_Source\PSoC5/PWM_BUCK.c ****     * Return: 
 818:.\Generated_Source\PSoC5/PWM_BUCK.c ****     *  uint8/uint16: Current compare value
 819:.\Generated_Source\PSoC5/PWM_BUCK.c ****     *
 820:.\Generated_Source\PSoC5/PWM_BUCK.c ****     *******************************************************************************/  
 821:.\Generated_Source\PSoC5/PWM_BUCK.c ****     uint16 PWM_BUCK_ReadCompare(void)  
 822:.\Generated_Source\PSoC5/PWM_BUCK.c ****     {
 698              		.loc 1 822 0
 699              		.cfi_startproc
 700              		@ args = 0, pretend = 0, frame = 0
 701              		@ frame_needed = 1, uses_anonymous_args = 0
 702              		@ link register save eliminated.
 703 0000 80B4     		push	{r7}
 704              	.LCFI41:
 705              		.cfi_def_cfa_offset 4
 706 0002 00AF     		add	r7, sp, #0
 707              		.cfi_offset 7, -4
 708              	.LCFI42:
 709              		.cfi_def_cfa_register 7
 823:.\Generated_Source\PSoC5/PWM_BUCK.c **** 		#if(PWM_BUCK_UsingFixedFunction)
 824:.\Generated_Source\PSoC5/PWM_BUCK.c ****             return ((uint16)CY_GET_REG16(PWM_BUCK_COMPARE1_LSB_PTR));
 825:.\Generated_Source\PSoC5/PWM_BUCK.c ****         #else
 826:.\Generated_Source\PSoC5/PWM_BUCK.c ****             return (CY_GET_REG16(PWM_BUCK_COMPARE1_LSB_PTR));
ARM GAS  C:\Users\hoangp\AppData\Local\Temp\ccq0lsHW.s 			page 28


 710              		.loc 1 826 0
 711 0004 46F64823 		movw	r3, #:lower16:1073769032
 712 0008 C4F20003 		movt	r3, #:upper16:1073769032
 713 000c 1B88     		ldrh	r3, [r3, #0]	@ movhi
 714 000e 9BB2     		uxth	r3, r3
 827:.\Generated_Source\PSoC5/PWM_BUCK.c ****         #endif /* (PWM_BUCK_UsingFixedFunction) */
 828:.\Generated_Source\PSoC5/PWM_BUCK.c ****     }
 715              		.loc 1 828 0
 716 0010 1846     		mov	r0, r3
 717 0012 BD46     		mov	sp, r7
 718 0014 80BC     		pop	{r7}
 719 0016 7047     		bx	lr
 720              		.cfi_endproc
 721              	.LFE16:
 722              		.size	PWM_BUCK_ReadCompare, .-PWM_BUCK_ReadCompare
 723              		.section	.text.PWM_BUCK_ReadPeriod,"ax",%progbits
 724              		.align	2
 725              		.global	PWM_BUCK_ReadPeriod
 726              		.thumb
 727              		.thumb_func
 728              		.type	PWM_BUCK_ReadPeriod, %function
 729              	PWM_BUCK_ReadPeriod:
 730              	.LFB17:
 829:.\Generated_Source\PSoC5/PWM_BUCK.c **** 
 830:.\Generated_Source\PSoC5/PWM_BUCK.c **** #else
 831:.\Generated_Source\PSoC5/PWM_BUCK.c **** 
 832:.\Generated_Source\PSoC5/PWM_BUCK.c **** 
 833:.\Generated_Source\PSoC5/PWM_BUCK.c ****     /*******************************************************************************
 834:.\Generated_Source\PSoC5/PWM_BUCK.c ****     * Function Name: PWM_BUCK_ReadCompare1
 835:.\Generated_Source\PSoC5/PWM_BUCK.c ****     ********************************************************************************
 836:.\Generated_Source\PSoC5/PWM_BUCK.c ****     * 
 837:.\Generated_Source\PSoC5/PWM_BUCK.c ****     * Summary:
 838:.\Generated_Source\PSoC5/PWM_BUCK.c ****     *  Reads the compare value for the compare1 output.
 839:.\Generated_Source\PSoC5/PWM_BUCK.c ****     *
 840:.\Generated_Source\PSoC5/PWM_BUCK.c ****     * Parameters:  
 841:.\Generated_Source\PSoC5/PWM_BUCK.c ****     *  None
 842:.\Generated_Source\PSoC5/PWM_BUCK.c ****     *
 843:.\Generated_Source\PSoC5/PWM_BUCK.c ****     * Return: 
 844:.\Generated_Source\PSoC5/PWM_BUCK.c ****     *  uint8/uint16: Current compare value.
 845:.\Generated_Source\PSoC5/PWM_BUCK.c ****     *
 846:.\Generated_Source\PSoC5/PWM_BUCK.c ****     *******************************************************************************/  
 847:.\Generated_Source\PSoC5/PWM_BUCK.c ****     uint16 PWM_BUCK_ReadCompare1(void) 
 848:.\Generated_Source\PSoC5/PWM_BUCK.c ****     {
 849:.\Generated_Source\PSoC5/PWM_BUCK.c **** 		return (CY_GET_REG16(PWM_BUCK_COMPARE1_LSB_PTR));
 850:.\Generated_Source\PSoC5/PWM_BUCK.c ****     }
 851:.\Generated_Source\PSoC5/PWM_BUCK.c **** 
 852:.\Generated_Source\PSoC5/PWM_BUCK.c **** 
 853:.\Generated_Source\PSoC5/PWM_BUCK.c ****     /*******************************************************************************
 854:.\Generated_Source\PSoC5/PWM_BUCK.c ****     * Function Name: PWM_BUCK_ReadCompare2
 855:.\Generated_Source\PSoC5/PWM_BUCK.c ****     ********************************************************************************
 856:.\Generated_Source\PSoC5/PWM_BUCK.c ****     * 
 857:.\Generated_Source\PSoC5/PWM_BUCK.c ****     * Summary:
 858:.\Generated_Source\PSoC5/PWM_BUCK.c ****     *  Reads the compare value for the compare2 output.
 859:.\Generated_Source\PSoC5/PWM_BUCK.c ****     *
 860:.\Generated_Source\PSoC5/PWM_BUCK.c ****     * Parameters:  
 861:.\Generated_Source\PSoC5/PWM_BUCK.c ****     *  None
 862:.\Generated_Source\PSoC5/PWM_BUCK.c ****     *
ARM GAS  C:\Users\hoangp\AppData\Local\Temp\ccq0lsHW.s 			page 29


 863:.\Generated_Source\PSoC5/PWM_BUCK.c ****     * Return: 
 864:.\Generated_Source\PSoC5/PWM_BUCK.c ****     *  uint8/uint16: Current compare value.
 865:.\Generated_Source\PSoC5/PWM_BUCK.c ****     *
 866:.\Generated_Source\PSoC5/PWM_BUCK.c ****     *******************************************************************************/  
 867:.\Generated_Source\PSoC5/PWM_BUCK.c ****     uint16 PWM_BUCK_ReadCompare2(void)  
 868:.\Generated_Source\PSoC5/PWM_BUCK.c ****     {
 869:.\Generated_Source\PSoC5/PWM_BUCK.c **** 		return (CY_GET_REG16(PWM_BUCK_COMPARE2_LSB_PTR));
 870:.\Generated_Source\PSoC5/PWM_BUCK.c ****     }
 871:.\Generated_Source\PSoC5/PWM_BUCK.c **** 
 872:.\Generated_Source\PSoC5/PWM_BUCK.c **** #endif /* (PWM_BUCK_UseOneCompareMode) */
 873:.\Generated_Source\PSoC5/PWM_BUCK.c **** 
 874:.\Generated_Source\PSoC5/PWM_BUCK.c **** 
 875:.\Generated_Source\PSoC5/PWM_BUCK.c **** /*******************************************************************************
 876:.\Generated_Source\PSoC5/PWM_BUCK.c **** * Function Name: PWM_BUCK_ReadPeriod
 877:.\Generated_Source\PSoC5/PWM_BUCK.c **** ********************************************************************************
 878:.\Generated_Source\PSoC5/PWM_BUCK.c **** * 
 879:.\Generated_Source\PSoC5/PWM_BUCK.c **** * Summary:
 880:.\Generated_Source\PSoC5/PWM_BUCK.c **** *  Reads the period value used by the PWM hardware.
 881:.\Generated_Source\PSoC5/PWM_BUCK.c **** *
 882:.\Generated_Source\PSoC5/PWM_BUCK.c **** * Parameters:  
 883:.\Generated_Source\PSoC5/PWM_BUCK.c **** *  None
 884:.\Generated_Source\PSoC5/PWM_BUCK.c **** *
 885:.\Generated_Source\PSoC5/PWM_BUCK.c **** * Return: 
 886:.\Generated_Source\PSoC5/PWM_BUCK.c **** *  uint8/16: Period value
 887:.\Generated_Source\PSoC5/PWM_BUCK.c **** *
 888:.\Generated_Source\PSoC5/PWM_BUCK.c **** *******************************************************************************/ 
 889:.\Generated_Source\PSoC5/PWM_BUCK.c **** uint16 PWM_BUCK_ReadPeriod(void) 
 890:.\Generated_Source\PSoC5/PWM_BUCK.c **** {
 731              		.loc 1 890 0
 732              		.cfi_startproc
 733              		@ args = 0, pretend = 0, frame = 0
 734              		@ frame_needed = 1, uses_anonymous_args = 0
 735              		@ link register save eliminated.
 736 0000 80B4     		push	{r7}
 737              	.LCFI43:
 738              		.cfi_def_cfa_offset 4
 739 0002 00AF     		add	r7, sp, #0
 740              		.cfi_offset 7, -4
 741              	.LCFI44:
 742              		.cfi_def_cfa_register 7
 891:.\Generated_Source\PSoC5/PWM_BUCK.c **** 	#if(PWM_BUCK_UsingFixedFunction)
 892:.\Generated_Source\PSoC5/PWM_BUCK.c ****         return ((uint16)CY_GET_REG16(PWM_BUCK_PERIOD_LSB_PTR));
 893:.\Generated_Source\PSoC5/PWM_BUCK.c ****     #else
 894:.\Generated_Source\PSoC5/PWM_BUCK.c ****         return (CY_GET_REG16(PWM_BUCK_PERIOD_LSB_PTR));
 743              		.loc 1 894 0
 744 0004 46F68823 		movw	r3, #:lower16:1073769096
 745 0008 C4F20003 		movt	r3, #:upper16:1073769096
 746 000c 1B88     		ldrh	r3, [r3, #0]	@ movhi
 747 000e 9BB2     		uxth	r3, r3
 895:.\Generated_Source\PSoC5/PWM_BUCK.c ****     #endif /* (PWM_BUCK_UsingFixedFunction) */
 896:.\Generated_Source\PSoC5/PWM_BUCK.c **** }
 748              		.loc 1 896 0
 749 0010 1846     		mov	r0, r3
 750 0012 BD46     		mov	sp, r7
 751 0014 80BC     		pop	{r7}
 752 0016 7047     		bx	lr
 753              		.cfi_endproc
ARM GAS  C:\Users\hoangp\AppData\Local\Temp\ccq0lsHW.s 			page 30


 754              	.LFE17:
 755              		.size	PWM_BUCK_ReadPeriod, .-PWM_BUCK_ReadPeriod
 756              		.text
 757              	.Letext0: