ARM GAS  C:\Users\hoangp\AppData\Local\Temp\cclzLJue.s 			page 1


   1              		.syntax unified
   2              		.cpu cortex-m3
   3              		.fpu softvfp
   4              		.eabi_attribute 20, 1
   5              		.eabi_attribute 21, 1
   6              		.eabi_attribute 23, 3
   7              		.eabi_attribute 24, 1
   8              		.eabi_attribute 25, 1
   9              		.eabi_attribute 26, 1
  10              		.eabi_attribute 30, 6
  11              		.eabi_attribute 18, 4
  12              		.thumb
  13              		.file	"PWM_BUCK_PM.c"
  20 0000 D8000000 		.text
  20      02007200 
  20      00000201 
  20      FB0E0D00 
  20      01010101 
  21              	.Ltext0:
  22              		.cfi_sections	.debug_frame
  23              		.bss
  24              		.align	2
  25              	PWM_BUCK_backup:
  26 0000 00000000 		.space	12
  26      00000000 
  26      00000000 
  27              		.section	.text.PWM_BUCK_SaveConfig,"ax",%progbits
  28              		.align	2
  29              		.global	PWM_BUCK_SaveConfig
  30              		.thumb
  31              		.thumb_func
  32              		.type	PWM_BUCK_SaveConfig, %function
  33              	PWM_BUCK_SaveConfig:
  34              	.LFB0:
  35              		.file 1 ".\\Generated_Source\\PSoC5\\PWM_BUCK_PM.c"
   1:.\Generated_Source\PSoC5/PWM_BUCK_PM.c **** /*******************************************************************************
   2:.\Generated_Source\PSoC5/PWM_BUCK_PM.c **** * File Name: PWM_BUCK_PM.c
   3:.\Generated_Source\PSoC5/PWM_BUCK_PM.c **** * Version 2.40
   4:.\Generated_Source\PSoC5/PWM_BUCK_PM.c **** *
   5:.\Generated_Source\PSoC5/PWM_BUCK_PM.c **** * Description:
   6:.\Generated_Source\PSoC5/PWM_BUCK_PM.c **** *  This file provides the power management source code to API for the
   7:.\Generated_Source\PSoC5/PWM_BUCK_PM.c **** *  PWM.
   8:.\Generated_Source\PSoC5/PWM_BUCK_PM.c **** *
   9:.\Generated_Source\PSoC5/PWM_BUCK_PM.c **** * Note:
  10:.\Generated_Source\PSoC5/PWM_BUCK_PM.c **** *
  11:.\Generated_Source\PSoC5/PWM_BUCK_PM.c **** ********************************************************************************
  12:.\Generated_Source\PSoC5/PWM_BUCK_PM.c **** * Copyright 2008-2012, Cypress Semiconductor Corporation.  All rights reserved.
  13:.\Generated_Source\PSoC5/PWM_BUCK_PM.c **** * You may use this file only in accordance with the license, terms, conditions,
  14:.\Generated_Source\PSoC5/PWM_BUCK_PM.c **** * disclaimers, and limitations in the end user license agreement accompanying
  15:.\Generated_Source\PSoC5/PWM_BUCK_PM.c **** * the software package with which this file was provided.
  16:.\Generated_Source\PSoC5/PWM_BUCK_PM.c **** *******************************************************************************/
ARM GAS  C:\Users\hoangp\AppData\Local\Temp\cclzLJue.s 			page 2


  17:.\Generated_Source\PSoC5/PWM_BUCK_PM.c **** #include "cytypes.h"
  18:.\Generated_Source\PSoC5/PWM_BUCK_PM.c **** #include "PWM_BUCK.h"
  19:.\Generated_Source\PSoC5/PWM_BUCK_PM.c **** 
  20:.\Generated_Source\PSoC5/PWM_BUCK_PM.c **** static PWM_BUCK_backupStruct PWM_BUCK_backup;
  21:.\Generated_Source\PSoC5/PWM_BUCK_PM.c **** 
  22:.\Generated_Source\PSoC5/PWM_BUCK_PM.c **** 
  23:.\Generated_Source\PSoC5/PWM_BUCK_PM.c **** /*******************************************************************************
  24:.\Generated_Source\PSoC5/PWM_BUCK_PM.c **** * Function Name: PWM_BUCK_SaveConfig
  25:.\Generated_Source\PSoC5/PWM_BUCK_PM.c **** ********************************************************************************
  26:.\Generated_Source\PSoC5/PWM_BUCK_PM.c **** *
  27:.\Generated_Source\PSoC5/PWM_BUCK_PM.c **** * Summary:
  28:.\Generated_Source\PSoC5/PWM_BUCK_PM.c **** *  Saves the current user configuration of the component.
  29:.\Generated_Source\PSoC5/PWM_BUCK_PM.c **** *  
  30:.\Generated_Source\PSoC5/PWM_BUCK_PM.c **** * Parameters:  
  31:.\Generated_Source\PSoC5/PWM_BUCK_PM.c **** *  None
  32:.\Generated_Source\PSoC5/PWM_BUCK_PM.c **** *
  33:.\Generated_Source\PSoC5/PWM_BUCK_PM.c **** * Return: 
  34:.\Generated_Source\PSoC5/PWM_BUCK_PM.c **** *  None
  35:.\Generated_Source\PSoC5/PWM_BUCK_PM.c **** *
  36:.\Generated_Source\PSoC5/PWM_BUCK_PM.c **** * Global variables:
  37:.\Generated_Source\PSoC5/PWM_BUCK_PM.c **** *  PWM_BUCK_backup:  Variables of this global structure are modified to 
  38:.\Generated_Source\PSoC5/PWM_BUCK_PM.c **** *  store the values of non retention configuration registers when Sleep() API is 
  39:.\Generated_Source\PSoC5/PWM_BUCK_PM.c **** *  called.
  40:.\Generated_Source\PSoC5/PWM_BUCK_PM.c **** *
  41:.\Generated_Source\PSoC5/PWM_BUCK_PM.c **** *******************************************************************************/
  42:.\Generated_Source\PSoC5/PWM_BUCK_PM.c **** void PWM_BUCK_SaveConfig(void) 
  43:.\Generated_Source\PSoC5/PWM_BUCK_PM.c **** {
  36              		.loc 1 43 0
  37              		.cfi_startproc
  38              		@ args = 0, pretend = 0, frame = 0
  39              		@ frame_needed = 1, uses_anonymous_args = 0
  40 0000 80B5     		push	{r7, lr}
  41              	.LCFI0:
  42              		.cfi_def_cfa_offset 8
  43 0002 00AF     		add	r7, sp, #0
  44              		.cfi_offset 14, -4
  45              		.cfi_offset 7, -8
  46              	.LCFI1:
  47              		.cfi_def_cfa_register 7
  44:.\Generated_Source\PSoC5/PWM_BUCK_PM.c ****     
  45:.\Generated_Source\PSoC5/PWM_BUCK_PM.c ****     #if(!PWM_BUCK_UsingFixedFunction)
  46:.\Generated_Source\PSoC5/PWM_BUCK_PM.c ****         #if (CY_UDB_V0)
  47:.\Generated_Source\PSoC5/PWM_BUCK_PM.c ****             PWM_BUCK_backup.PWMUdb = PWM_BUCK_ReadCounter();
  48              		.loc 1 47 0
  49 0004 FFF7FEFF 		bl	PWM_BUCK_ReadCounter
  50 0008 0346     		mov	r3, r0
  51 000a 1A46     		mov	r2, r3
  52 000c 40F20003 		movw	r3, #:lower16:PWM_BUCK_backup
  53 0010 C0F20003 		movt	r3, #:upper16:PWM_BUCK_backup
  54 0014 5A80     		strh	r2, [r3, #2]	@ movhi
  48:.\Generated_Source\PSoC5/PWM_BUCK_PM.c ****             PWM_BUCK_backup.PWMPeriod = PWM_BUCK_ReadPeriod();
  55              		.loc 1 48 0
  56 0016 FFF7FEFF 		bl	PWM_BUCK_ReadPeriod
  57 001a 0346     		mov	r3, r0
  58 001c 1A46     		mov	r2, r3
  59 001e 40F20003 		movw	r3, #:lower16:PWM_BUCK_backup
  60 0022 C0F20003 		movt	r3, #:upper16:PWM_BUCK_backup
ARM GAS  C:\Users\hoangp\AppData\Local\Temp\cclzLJue.s 			page 3


  61 0026 9A80     		strh	r2, [r3, #4]	@ movhi
  49:.\Generated_Source\PSoC5/PWM_BUCK_PM.c ****             #if (PWM_BUCK_UseStatus)
  50:.\Generated_Source\PSoC5/PWM_BUCK_PM.c ****                 PWM_BUCK_backup.InterruptMaskValue = PWM_BUCK_STATUS_MASK;
  62              		.loc 1 50 0
  63 0028 46F28553 		movw	r3, #:lower16:1073767813
  64 002c C4F20003 		movt	r3, #:upper16:1073767813
  65 0030 1B78     		ldrb	r3, [r3, #0]
  66 0032 DAB2     		uxtb	r2, r3
  67 0034 40F20003 		movw	r3, #:lower16:PWM_BUCK_backup
  68 0038 C0F20003 		movt	r3, #:upper16:PWM_BUCK_backup
  69 003c 9A71     		strb	r2, [r3, #6]
  51:.\Generated_Source\PSoC5/PWM_BUCK_PM.c ****             #endif /* (PWM_BUCK_UseStatus) */
  52:.\Generated_Source\PSoC5/PWM_BUCK_PM.c ****             
  53:.\Generated_Source\PSoC5/PWM_BUCK_PM.c ****             #if(PWM_BUCK_UseOneCompareMode)
  54:.\Generated_Source\PSoC5/PWM_BUCK_PM.c ****                 PWM_BUCK_backup.PWMCompareValue = PWM_BUCK_ReadCompare();
  70              		.loc 1 54 0
  71 003e FFF7FEFF 		bl	PWM_BUCK_ReadCompare
  72 0042 0346     		mov	r3, r0
  73 0044 1A46     		mov	r2, r3
  74 0046 40F20003 		movw	r3, #:lower16:PWM_BUCK_backup
  75 004a C0F20003 		movt	r3, #:upper16:PWM_BUCK_backup
  76 004e 1A81     		strh	r2, [r3, #8]	@ movhi
  55:.\Generated_Source\PSoC5/PWM_BUCK_PM.c ****             #else
  56:.\Generated_Source\PSoC5/PWM_BUCK_PM.c ****                 PWM_BUCK_backup.PWMCompareValue1 = PWM_BUCK_ReadCompare1();
  57:.\Generated_Source\PSoC5/PWM_BUCK_PM.c ****                 PWM_BUCK_backup.PWMCompareValue2 = PWM_BUCK_ReadCompare2();
  58:.\Generated_Source\PSoC5/PWM_BUCK_PM.c ****             #endif /* (PWM_BUCK_UseOneCompareMode) */
  59:.\Generated_Source\PSoC5/PWM_BUCK_PM.c ****             
  60:.\Generated_Source\PSoC5/PWM_BUCK_PM.c ****            #if(PWM_BUCK_DeadBandUsed)
  61:.\Generated_Source\PSoC5/PWM_BUCK_PM.c ****                 PWM_BUCK_backup.PWMdeadBandValue = PWM_BUCK_ReadDeadTime();
  77              		.loc 1 61 0
  78 0050 FFF7FEFF 		bl	PWM_BUCK_ReadDeadTime
  79 0054 0346     		mov	r3, r0
  80 0056 1A46     		mov	r2, r3
  81 0058 40F20003 		movw	r3, #:lower16:PWM_BUCK_backup
  82 005c C0F20003 		movt	r3, #:upper16:PWM_BUCK_backup
  83 0060 9A72     		strb	r2, [r3, #10]
  62:.\Generated_Source\PSoC5/PWM_BUCK_PM.c ****             #endif /* (PWM_BUCK_DeadBandUsed) */
  63:.\Generated_Source\PSoC5/PWM_BUCK_PM.c ****           
  64:.\Generated_Source\PSoC5/PWM_BUCK_PM.c ****             #if ( PWM_BUCK_KillModeMinTime)
  65:.\Generated_Source\PSoC5/PWM_BUCK_PM.c ****                 PWM_BUCK_backup.PWMKillCounterPeriod = PWM_BUCK_ReadKillTime();
  66:.\Generated_Source\PSoC5/PWM_BUCK_PM.c ****             #endif /* ( PWM_BUCK_KillModeMinTime) */
  67:.\Generated_Source\PSoC5/PWM_BUCK_PM.c ****         #endif /* (CY_UDB_V0) */
  68:.\Generated_Source\PSoC5/PWM_BUCK_PM.c ****         
  69:.\Generated_Source\PSoC5/PWM_BUCK_PM.c ****         #if (CY_UDB_V1)
  70:.\Generated_Source\PSoC5/PWM_BUCK_PM.c ****             #if(!PWM_BUCK_PWMModeIsCenterAligned)
  71:.\Generated_Source\PSoC5/PWM_BUCK_PM.c ****                 PWM_BUCK_backup.PWMPeriod = PWM_BUCK_ReadPeriod();
  72:.\Generated_Source\PSoC5/PWM_BUCK_PM.c ****             #endif /* (!PWM_BUCK_PWMModeIsCenterAligned) */
  73:.\Generated_Source\PSoC5/PWM_BUCK_PM.c ****             PWM_BUCK_backup.PWMUdb = PWM_BUCK_ReadCounter();
  74:.\Generated_Source\PSoC5/PWM_BUCK_PM.c ****             #if (PWM_BUCK_UseStatus)
  75:.\Generated_Source\PSoC5/PWM_BUCK_PM.c ****                 PWM_BUCK_backup.InterruptMaskValue = PWM_BUCK_STATUS_MASK;
  76:.\Generated_Source\PSoC5/PWM_BUCK_PM.c ****             #endif /* (PWM_BUCK_UseStatus) */
  77:.\Generated_Source\PSoC5/PWM_BUCK_PM.c ****             
  78:.\Generated_Source\PSoC5/PWM_BUCK_PM.c ****             #if(PWM_BUCK_DeadBandMode == PWM_BUCK__B_PWM__DBM_256_CLOCKS || \
  79:.\Generated_Source\PSoC5/PWM_BUCK_PM.c ****                 PWM_BUCK_DeadBandMode == PWM_BUCK__B_PWM__DBM_2_4_CLOCKS)
  80:.\Generated_Source\PSoC5/PWM_BUCK_PM.c ****                 PWM_BUCK_backup.PWMdeadBandValue = PWM_BUCK_ReadDeadTime();
  81:.\Generated_Source\PSoC5/PWM_BUCK_PM.c ****             #endif /*  deadband count is either 2-4 clocks or 256 clocks */
  82:.\Generated_Source\PSoC5/PWM_BUCK_PM.c ****             
ARM GAS  C:\Users\hoangp\AppData\Local\Temp\cclzLJue.s 			page 4


  83:.\Generated_Source\PSoC5/PWM_BUCK_PM.c ****             #if(PWM_BUCK_KillModeMinTime)
  84:.\Generated_Source\PSoC5/PWM_BUCK_PM.c ****                  PWM_BUCK_backup.PWMKillCounterPeriod = PWM_BUCK_ReadKillTime();
  85:.\Generated_Source\PSoC5/PWM_BUCK_PM.c ****             #endif /* (PWM_BUCK_KillModeMinTime) */
  86:.\Generated_Source\PSoC5/PWM_BUCK_PM.c ****         #endif /* (CY_UDB_V1) */
  87:.\Generated_Source\PSoC5/PWM_BUCK_PM.c ****         
  88:.\Generated_Source\PSoC5/PWM_BUCK_PM.c ****         #if(PWM_BUCK_UseControl)
  89:.\Generated_Source\PSoC5/PWM_BUCK_PM.c ****             PWM_BUCK_backup.PWMControlRegister = PWM_BUCK_ReadControlRegister();
  84              		.loc 1 89 0
  85 0062 FFF7FEFF 		bl	PWM_BUCK_ReadControlRegister
  86 0066 0346     		mov	r3, r0
  87 0068 1A46     		mov	r2, r3
  88 006a 40F20003 		movw	r3, #:lower16:PWM_BUCK_backup
  89 006e C0F20003 		movt	r3, #:upper16:PWM_BUCK_backup
  90 0072 DA72     		strb	r2, [r3, #11]
  90:.\Generated_Source\PSoC5/PWM_BUCK_PM.c ****         #endif /* (PWM_BUCK_UseControl) */
  91:.\Generated_Source\PSoC5/PWM_BUCK_PM.c ****     #endif  /* (!PWM_BUCK_UsingFixedFunction) */
  92:.\Generated_Source\PSoC5/PWM_BUCK_PM.c **** }
  91              		.loc 1 92 0
  92 0074 80BD     		pop	{r7, pc}
  93              		.cfi_endproc
  94              	.LFE0:
  95              		.size	PWM_BUCK_SaveConfig, .-PWM_BUCK_SaveConfig
  96 0076 00BF     		.section	.text.PWM_BUCK_RestoreConfig,"ax",%progbits
  97              		.align	2
  98              		.global	PWM_BUCK_RestoreConfig
  99              		.thumb
 100              		.thumb_func
 101              		.type	PWM_BUCK_RestoreConfig, %function
 102              	PWM_BUCK_RestoreConfig:
 103              	.LFB1:
  93:.\Generated_Source\PSoC5/PWM_BUCK_PM.c **** 
  94:.\Generated_Source\PSoC5/PWM_BUCK_PM.c **** 
  95:.\Generated_Source\PSoC5/PWM_BUCK_PM.c **** /*******************************************************************************
  96:.\Generated_Source\PSoC5/PWM_BUCK_PM.c **** * Function Name: PWM_BUCK_RestoreConfig
  97:.\Generated_Source\PSoC5/PWM_BUCK_PM.c **** ********************************************************************************
  98:.\Generated_Source\PSoC5/PWM_BUCK_PM.c **** * 
  99:.\Generated_Source\PSoC5/PWM_BUCK_PM.c **** * Summary:
 100:.\Generated_Source\PSoC5/PWM_BUCK_PM.c **** *  Restores the current user configuration of the component.
 101:.\Generated_Source\PSoC5/PWM_BUCK_PM.c **** *
 102:.\Generated_Source\PSoC5/PWM_BUCK_PM.c **** * Parameters:  
 103:.\Generated_Source\PSoC5/PWM_BUCK_PM.c **** *  None
 104:.\Generated_Source\PSoC5/PWM_BUCK_PM.c **** *
 105:.\Generated_Source\PSoC5/PWM_BUCK_PM.c **** * Return: 
 106:.\Generated_Source\PSoC5/PWM_BUCK_PM.c **** *  None
 107:.\Generated_Source\PSoC5/PWM_BUCK_PM.c **** *
 108:.\Generated_Source\PSoC5/PWM_BUCK_PM.c **** * Global variables:
 109:.\Generated_Source\PSoC5/PWM_BUCK_PM.c **** *  PWM_BUCK_backup:  Variables of this global structure are used to  
 110:.\Generated_Source\PSoC5/PWM_BUCK_PM.c **** *  restore the values of non retention registers on wakeup from sleep mode.
 111:.\Generated_Source\PSoC5/PWM_BUCK_PM.c **** *
 112:.\Generated_Source\PSoC5/PWM_BUCK_PM.c **** *******************************************************************************/
 113:.\Generated_Source\PSoC5/PWM_BUCK_PM.c **** void PWM_BUCK_RestoreConfig(void) 
 114:.\Generated_Source\PSoC5/PWM_BUCK_PM.c **** {
 104              		.loc 1 114 0
 105              		.cfi_startproc
 106              		@ args = 0, pretend = 0, frame = 8
 107              		@ frame_needed = 1, uses_anonymous_args = 0
 108 0000 80B5     		push	{r7, lr}
ARM GAS  C:\Users\hoangp\AppData\Local\Temp\cclzLJue.s 			page 5


 109              	.LCFI2:
 110              		.cfi_def_cfa_offset 8
 111 0002 82B0     		sub	sp, sp, #8
 112              	.LCFI3:
 113              		.cfi_def_cfa_offset 16
 114 0004 00AF     		add	r7, sp, #0
 115              		.cfi_offset 14, -4
 116              		.cfi_offset 7, -8
 117              	.LCFI4:
 118              		.cfi_def_cfa_register 7
 115:.\Generated_Source\PSoC5/PWM_BUCK_PM.c ****         #if(!PWM_BUCK_UsingFixedFunction)
 116:.\Generated_Source\PSoC5/PWM_BUCK_PM.c ****             #if (CY_UDB_V0)
 117:.\Generated_Source\PSoC5/PWM_BUCK_PM.c ****                 /* Interrupt State Backup for Critical Region*/
 118:.\Generated_Source\PSoC5/PWM_BUCK_PM.c ****                 uint8 PWM_BUCK_interruptState;
 119:.\Generated_Source\PSoC5/PWM_BUCK_PM.c ****                 /* Enter Critical Region*/
 120:.\Generated_Source\PSoC5/PWM_BUCK_PM.c ****                 PWM_BUCK_interruptState = CyEnterCriticalSection();
 119              		.loc 1 120 0
 120 0006 FFF7FEFF 		bl	CyEnterCriticalSection
 121 000a 0346     		mov	r3, r0
 122 000c FB71     		strb	r3, [r7, #7]
 121:.\Generated_Source\PSoC5/PWM_BUCK_PM.c ****                 #if (PWM_BUCK_UseStatus)
 122:.\Generated_Source\PSoC5/PWM_BUCK_PM.c ****                     /* Use the interrupt output of the status register for IRQ output */
 123:.\Generated_Source\PSoC5/PWM_BUCK_PM.c ****                     PWM_BUCK_STATUS_AUX_CTRL |= PWM_BUCK_STATUS_ACTL_INT_EN_MASK;
 123              		.loc 1 123 0
 124 000e 46F29553 		movw	r3, #:lower16:1073767829
 125 0012 C4F20003 		movt	r3, #:upper16:1073767829
 126 0016 46F29552 		movw	r2, #:lower16:1073767829
 127 001a C4F20002 		movt	r2, #:upper16:1073767829
 128 001e 1278     		ldrb	r2, [r2, #0]
 129 0020 D2B2     		uxtb	r2, r2
 130 0022 42F01002 		orr	r2, r2, #16
 131 0026 D2B2     		uxtb	r2, r2
 132 0028 1A70     		strb	r2, [r3, #0]
 124:.\Generated_Source\PSoC5/PWM_BUCK_PM.c ****                     
 125:.\Generated_Source\PSoC5/PWM_BUCK_PM.c ****                     PWM_BUCK_STATUS_MASK = PWM_BUCK_backup.InterruptMaskValue;
 133              		.loc 1 125 0
 134 002a 46F28553 		movw	r3, #:lower16:1073767813
 135 002e C4F20003 		movt	r3, #:upper16:1073767813
 136 0032 40F20002 		movw	r2, #:lower16:PWM_BUCK_backup
 137 0036 C0F20002 		movt	r2, #:upper16:PWM_BUCK_backup
 138 003a 9279     		ldrb	r2, [r2, #6]	@ zero_extendqisi2
 139 003c 1A70     		strb	r2, [r3, #0]
 126:.\Generated_Source\PSoC5/PWM_BUCK_PM.c ****                 #endif /* (PWM_BUCK_UseStatus) */
 127:.\Generated_Source\PSoC5/PWM_BUCK_PM.c ****                 
 128:.\Generated_Source\PSoC5/PWM_BUCK_PM.c ****                 #if (PWM_BUCK_Resolution == 8)
 129:.\Generated_Source\PSoC5/PWM_BUCK_PM.c ****                     /* Set FIFO 0 to 1 byte register for period*/
 130:.\Generated_Source\PSoC5/PWM_BUCK_PM.c ****                     PWM_BUCK_AUX_CONTROLDP0 |= (PWM_BUCK_AUX_CTRL_FIFO0_CLR);
 131:.\Generated_Source\PSoC5/PWM_BUCK_PM.c ****                 #else /* (PWM_BUCK_Resolution == 16)*/
 132:.\Generated_Source\PSoC5/PWM_BUCK_PM.c ****                     /* Set FIFO 0 to 1 byte register for period */
 133:.\Generated_Source\PSoC5/PWM_BUCK_PM.c ****                     PWM_BUCK_AUX_CONTROLDP0 |= (PWM_BUCK_AUX_CTRL_FIFO0_CLR);
 140              		.loc 1 133 0
 141 003e 46F29453 		movw	r3, #:lower16:1073767828
 142 0042 C4F20003 		movt	r3, #:upper16:1073767828
 143 0046 46F29452 		movw	r2, #:lower16:1073767828
 144 004a C4F20002 		movt	r2, #:upper16:1073767828
 145 004e 1278     		ldrb	r2, [r2, #0]
 146 0050 D2B2     		uxtb	r2, r2
ARM GAS  C:\Users\hoangp\AppData\Local\Temp\cclzLJue.s 			page 6


 147 0052 42F00102 		orr	r2, r2, #1
 148 0056 D2B2     		uxtb	r2, r2
 149 0058 1A70     		strb	r2, [r3, #0]
 134:.\Generated_Source\PSoC5/PWM_BUCK_PM.c ****                     PWM_BUCK_AUX_CONTROLDP1 |= (PWM_BUCK_AUX_CTRL_FIFO0_CLR);
 150              		.loc 1 134 0
 151 005a 46F29553 		movw	r3, #:lower16:1073767829
 152 005e C4F20003 		movt	r3, #:upper16:1073767829
 153 0062 46F29552 		movw	r2, #:lower16:1073767829
 154 0066 C4F20002 		movt	r2, #:upper16:1073767829
 155 006a 1278     		ldrb	r2, [r2, #0]
 156 006c D2B2     		uxtb	r2, r2
 157 006e 42F00102 		orr	r2, r2, #1
 158 0072 D2B2     		uxtb	r2, r2
 159 0074 1A70     		strb	r2, [r3, #0]
 135:.\Generated_Source\PSoC5/PWM_BUCK_PM.c ****                 #endif /* (PWM_BUCK_Resolution == 8) */
 136:.\Generated_Source\PSoC5/PWM_BUCK_PM.c ****                 /* Exit Critical Region*/
 137:.\Generated_Source\PSoC5/PWM_BUCK_PM.c ****                 CyExitCriticalSection(PWM_BUCK_interruptState);
 160              		.loc 1 137 0
 161 0076 FB79     		ldrb	r3, [r7, #7]	@ zero_extendqisi2
 162 0078 1846     		mov	r0, r3
 163 007a FFF7FEFF 		bl	CyExitCriticalSection
 138:.\Generated_Source\PSoC5/PWM_BUCK_PM.c ****                 
 139:.\Generated_Source\PSoC5/PWM_BUCK_PM.c ****                 PWM_BUCK_WriteCounter(PWM_BUCK_backup.PWMUdb);
 164              		.loc 1 139 0
 165 007e 40F20003 		movw	r3, #:lower16:PWM_BUCK_backup
 166 0082 C0F20003 		movt	r3, #:upper16:PWM_BUCK_backup
 167 0086 5B88     		ldrh	r3, [r3, #2]
 168 0088 1846     		mov	r0, r3
 169 008a FFF7FEFF 		bl	PWM_BUCK_WriteCounter
 140:.\Generated_Source\PSoC5/PWM_BUCK_PM.c ****                 PWM_BUCK_WritePeriod(PWM_BUCK_backup.PWMPeriod);
 170              		.loc 1 140 0
 171 008e 40F20003 		movw	r3, #:lower16:PWM_BUCK_backup
 172 0092 C0F20003 		movt	r3, #:upper16:PWM_BUCK_backup
 173 0096 9B88     		ldrh	r3, [r3, #4]
 174 0098 1846     		mov	r0, r3
 175 009a FFF7FEFF 		bl	PWM_BUCK_WritePeriod
 141:.\Generated_Source\PSoC5/PWM_BUCK_PM.c ****                 
 142:.\Generated_Source\PSoC5/PWM_BUCK_PM.c ****                 #if(PWM_BUCK_UseOneCompareMode)
 143:.\Generated_Source\PSoC5/PWM_BUCK_PM.c ****                     PWM_BUCK_WriteCompare(PWM_BUCK_backup.PWMCompareValue);
 176              		.loc 1 143 0
 177 009e 40F20003 		movw	r3, #:lower16:PWM_BUCK_backup
 178 00a2 C0F20003 		movt	r3, #:upper16:PWM_BUCK_backup
 179 00a6 1B89     		ldrh	r3, [r3, #8]
 180 00a8 1846     		mov	r0, r3
 181 00aa FFF7FEFF 		bl	PWM_BUCK_WriteCompare
 144:.\Generated_Source\PSoC5/PWM_BUCK_PM.c ****                 #else
 145:.\Generated_Source\PSoC5/PWM_BUCK_PM.c ****                     PWM_BUCK_WriteCompare1(PWM_BUCK_backup.PWMCompareValue1);
 146:.\Generated_Source\PSoC5/PWM_BUCK_PM.c ****                     PWM_BUCK_WriteCompare2(PWM_BUCK_backup.PWMCompareValue2);
 147:.\Generated_Source\PSoC5/PWM_BUCK_PM.c ****                 #endif /* (PWM_BUCK_UseOneCompareMode) */
 148:.\Generated_Source\PSoC5/PWM_BUCK_PM.c ****                 
 149:.\Generated_Source\PSoC5/PWM_BUCK_PM.c ****                #if(PWM_BUCK_DeadBandMode == PWM_BUCK__B_PWM__DBM_256_CLOCKS || \
 150:.\Generated_Source\PSoC5/PWM_BUCK_PM.c ****                    PWM_BUCK_DeadBandMode == PWM_BUCK__B_PWM__DBM_2_4_CLOCKS)
 151:.\Generated_Source\PSoC5/PWM_BUCK_PM.c ****                     PWM_BUCK_WriteDeadTime(PWM_BUCK_backup.PWMdeadBandValue);
 182              		.loc 1 151 0
 183 00ae 40F20003 		movw	r3, #:lower16:PWM_BUCK_backup
 184 00b2 C0F20003 		movt	r3, #:upper16:PWM_BUCK_backup
 185 00b6 9B7A     		ldrb	r3, [r3, #10]	@ zero_extendqisi2
ARM GAS  C:\Users\hoangp\AppData\Local\Temp\cclzLJue.s 			page 7


 186 00b8 1846     		mov	r0, r3
 187 00ba FFF7FEFF 		bl	PWM_BUCK_WriteDeadTime
 152:.\Generated_Source\PSoC5/PWM_BUCK_PM.c ****                 #endif /* deadband count is either 2-4 clocks or 256 clocks */
 153:.\Generated_Source\PSoC5/PWM_BUCK_PM.c ****             
 154:.\Generated_Source\PSoC5/PWM_BUCK_PM.c ****                 #if ( PWM_BUCK_KillModeMinTime)
 155:.\Generated_Source\PSoC5/PWM_BUCK_PM.c ****                     PWM_BUCK_WriteKillTime(PWM_BUCK_backup.PWMKillCounterPeriod);
 156:.\Generated_Source\PSoC5/PWM_BUCK_PM.c ****                 #endif /* ( PWM_BUCK_KillModeMinTime) */
 157:.\Generated_Source\PSoC5/PWM_BUCK_PM.c ****             #endif /* (CY_UDB_V0) */
 158:.\Generated_Source\PSoC5/PWM_BUCK_PM.c ****             
 159:.\Generated_Source\PSoC5/PWM_BUCK_PM.c ****             #if (CY_UDB_V1)
 160:.\Generated_Source\PSoC5/PWM_BUCK_PM.c ****                 #if(!PWM_BUCK_PWMModeIsCenterAligned)
 161:.\Generated_Source\PSoC5/PWM_BUCK_PM.c ****                     PWM_BUCK_WritePeriod(PWM_BUCK_backup.PWMPeriod);
 162:.\Generated_Source\PSoC5/PWM_BUCK_PM.c ****                 #endif /* (!PWM_BUCK_PWMModeIsCenterAligned) */
 163:.\Generated_Source\PSoC5/PWM_BUCK_PM.c ****                 PWM_BUCK_WriteCounter(PWM_BUCK_backup.PWMUdb);
 164:.\Generated_Source\PSoC5/PWM_BUCK_PM.c ****                 #if (PWM_BUCK_UseStatus)
 165:.\Generated_Source\PSoC5/PWM_BUCK_PM.c ****                     PWM_BUCK_STATUS_MASK = PWM_BUCK_backup.InterruptMaskValue;
 166:.\Generated_Source\PSoC5/PWM_BUCK_PM.c ****                 #endif /* (PWM_BUCK_UseStatus) */
 167:.\Generated_Source\PSoC5/PWM_BUCK_PM.c ****                 
 168:.\Generated_Source\PSoC5/PWM_BUCK_PM.c ****                 #if(PWM_BUCK_DeadBandMode == PWM_BUCK__B_PWM__DBM_256_CLOCKS || \
 169:.\Generated_Source\PSoC5/PWM_BUCK_PM.c ****                     PWM_BUCK_DeadBandMode == PWM_BUCK__B_PWM__DBM_2_4_CLOCKS)
 170:.\Generated_Source\PSoC5/PWM_BUCK_PM.c ****                     PWM_BUCK_WriteDeadTime(PWM_BUCK_backup.PWMdeadBandValue);
 171:.\Generated_Source\PSoC5/PWM_BUCK_PM.c ****                 #endif /* deadband count is either 2-4 clocks or 256 clocks */
 172:.\Generated_Source\PSoC5/PWM_BUCK_PM.c ****                 
 173:.\Generated_Source\PSoC5/PWM_BUCK_PM.c ****                 #if(PWM_BUCK_KillModeMinTime)
 174:.\Generated_Source\PSoC5/PWM_BUCK_PM.c ****                     PWM_BUCK_WriteKillTime(PWM_BUCK_backup.PWMKillCounterPeriod);
 175:.\Generated_Source\PSoC5/PWM_BUCK_PM.c ****                 #endif /* (PWM_BUCK_KillModeMinTime) */
 176:.\Generated_Source\PSoC5/PWM_BUCK_PM.c ****             #endif /* (CY_UDB_V1) */
 177:.\Generated_Source\PSoC5/PWM_BUCK_PM.c ****             
 178:.\Generated_Source\PSoC5/PWM_BUCK_PM.c ****             #if(PWM_BUCK_UseControl)
 179:.\Generated_Source\PSoC5/PWM_BUCK_PM.c ****                 PWM_BUCK_WriteControlRegister(PWM_BUCK_backup.PWMControlRegister); 
 188              		.loc 1 179 0
 189 00be 40F20003 		movw	r3, #:lower16:PWM_BUCK_backup
 190 00c2 C0F20003 		movt	r3, #:upper16:PWM_BUCK_backup
 191 00c6 DB7A     		ldrb	r3, [r3, #11]	@ zero_extendqisi2
 192 00c8 1846     		mov	r0, r3
 193 00ca FFF7FEFF 		bl	PWM_BUCK_WriteControlRegister
 180:.\Generated_Source\PSoC5/PWM_BUCK_PM.c ****             #endif /* (PWM_BUCK_UseControl) */
 181:.\Generated_Source\PSoC5/PWM_BUCK_PM.c ****         #endif  /* (!PWM_BUCK_UsingFixedFunction) */
 182:.\Generated_Source\PSoC5/PWM_BUCK_PM.c ****     }
 194              		.loc 1 182 0
 195 00ce 07F10807 		add	r7, r7, #8
 196 00d2 BD46     		mov	sp, r7
 197 00d4 80BD     		pop	{r7, pc}
 198              		.cfi_endproc
 199              	.LFE1:
 200              		.size	PWM_BUCK_RestoreConfig, .-PWM_BUCK_RestoreConfig
 201 00d6 00BF     		.section	.text.PWM_BUCK_Sleep,"ax",%progbits
 202              		.align	2
 203              		.global	PWM_BUCK_Sleep
 204              		.thumb
 205              		.thumb_func
 206              		.type	PWM_BUCK_Sleep, %function
 207              	PWM_BUCK_Sleep:
 208              	.LFB2:
 183:.\Generated_Source\PSoC5/PWM_BUCK_PM.c **** 
 184:.\Generated_Source\PSoC5/PWM_BUCK_PM.c **** 
 185:.\Generated_Source\PSoC5/PWM_BUCK_PM.c **** /*******************************************************************************
ARM GAS  C:\Users\hoangp\AppData\Local\Temp\cclzLJue.s 			page 8


 186:.\Generated_Source\PSoC5/PWM_BUCK_PM.c **** * Function Name: PWM_BUCK_Sleep
 187:.\Generated_Source\PSoC5/PWM_BUCK_PM.c **** ********************************************************************************
 188:.\Generated_Source\PSoC5/PWM_BUCK_PM.c **** * 
 189:.\Generated_Source\PSoC5/PWM_BUCK_PM.c **** * Summary:
 190:.\Generated_Source\PSoC5/PWM_BUCK_PM.c **** *  Disables block's operation and saves the user configuration. Should be called 
 191:.\Generated_Source\PSoC5/PWM_BUCK_PM.c **** *  just prior to entering sleep.
 192:.\Generated_Source\PSoC5/PWM_BUCK_PM.c **** *  
 193:.\Generated_Source\PSoC5/PWM_BUCK_PM.c **** * Parameters:  
 194:.\Generated_Source\PSoC5/PWM_BUCK_PM.c **** *  None
 195:.\Generated_Source\PSoC5/PWM_BUCK_PM.c **** *
 196:.\Generated_Source\PSoC5/PWM_BUCK_PM.c **** * Return: 
 197:.\Generated_Source\PSoC5/PWM_BUCK_PM.c **** *  None
 198:.\Generated_Source\PSoC5/PWM_BUCK_PM.c **** *
 199:.\Generated_Source\PSoC5/PWM_BUCK_PM.c **** * Global variables:
 200:.\Generated_Source\PSoC5/PWM_BUCK_PM.c **** *  PWM_BUCK_backup.PWMEnableState:  Is modified depending on the enable 
 201:.\Generated_Source\PSoC5/PWM_BUCK_PM.c **** *  state of the block before entering sleep mode.
 202:.\Generated_Source\PSoC5/PWM_BUCK_PM.c **** *
 203:.\Generated_Source\PSoC5/PWM_BUCK_PM.c **** *******************************************************************************/
 204:.\Generated_Source\PSoC5/PWM_BUCK_PM.c **** void PWM_BUCK_Sleep(void) 
 205:.\Generated_Source\PSoC5/PWM_BUCK_PM.c **** {
 209              		.loc 1 205 0
 210              		.cfi_startproc
 211              		@ args = 0, pretend = 0, frame = 0
 212              		@ frame_needed = 1, uses_anonymous_args = 0
 213 0000 80B5     		push	{r7, lr}
 214              	.LCFI5:
 215              		.cfi_def_cfa_offset 8
 216 0002 00AF     		add	r7, sp, #0
 217              		.cfi_offset 14, -4
 218              		.cfi_offset 7, -8
 219              	.LCFI6:
 220              		.cfi_def_cfa_register 7
 206:.\Generated_Source\PSoC5/PWM_BUCK_PM.c ****     #if(PWM_BUCK_UseControl)
 207:.\Generated_Source\PSoC5/PWM_BUCK_PM.c ****         if(PWM_BUCK_CTRL_ENABLE == (PWM_BUCK_CONTROL & PWM_BUCK_CTRL_ENABLE))
 221              		.loc 1 207 0
 222 0004 46F27553 		movw	r3, #:lower16:1073767797
 223 0008 C4F20003 		movt	r3, #:upper16:1073767797
 224 000c 1B78     		ldrb	r3, [r3, #0]
 225 000e DBB2     		uxtb	r3, r3
 226 0010 5BB2     		sxtb	r3, r3
 227 0012 002B     		cmp	r3, #0
 228 0014 07DA     		bge	.L6
 208:.\Generated_Source\PSoC5/PWM_BUCK_PM.c ****         {
 209:.\Generated_Source\PSoC5/PWM_BUCK_PM.c ****             /*Component is enabled */
 210:.\Generated_Source\PSoC5/PWM_BUCK_PM.c ****             PWM_BUCK_backup.PWMEnableState = 1u;
 229              		.loc 1 210 0
 230 0016 40F20003 		movw	r3, #:lower16:PWM_BUCK_backup
 231 001a C0F20003 		movt	r3, #:upper16:PWM_BUCK_backup
 232 001e 4FF00102 		mov	r2, #1
 233 0022 1A70     		strb	r2, [r3, #0]
 234 0024 06E0     		b	.L7
 235              	.L6:
 211:.\Generated_Source\PSoC5/PWM_BUCK_PM.c ****         }
 212:.\Generated_Source\PSoC5/PWM_BUCK_PM.c ****         else
 213:.\Generated_Source\PSoC5/PWM_BUCK_PM.c ****         {
 214:.\Generated_Source\PSoC5/PWM_BUCK_PM.c ****             /* Component is disabled */
 215:.\Generated_Source\PSoC5/PWM_BUCK_PM.c ****             PWM_BUCK_backup.PWMEnableState = 0u;
ARM GAS  C:\Users\hoangp\AppData\Local\Temp\cclzLJue.s 			page 9


 236              		.loc 1 215 0
 237 0026 40F20003 		movw	r3, #:lower16:PWM_BUCK_backup
 238 002a C0F20003 		movt	r3, #:upper16:PWM_BUCK_backup
 239 002e 4FF00002 		mov	r2, #0
 240 0032 1A70     		strb	r2, [r3, #0]
 241              	.L7:
 216:.\Generated_Source\PSoC5/PWM_BUCK_PM.c ****         }
 217:.\Generated_Source\PSoC5/PWM_BUCK_PM.c ****     #endif /* (PWM_BUCK_UseControl) */
 218:.\Generated_Source\PSoC5/PWM_BUCK_PM.c **** 
 219:.\Generated_Source\PSoC5/PWM_BUCK_PM.c ****     /* Stop component */
 220:.\Generated_Source\PSoC5/PWM_BUCK_PM.c ****     PWM_BUCK_Stop();
 242              		.loc 1 220 0
 243 0034 FFF7FEFF 		bl	PWM_BUCK_Stop
 221:.\Generated_Source\PSoC5/PWM_BUCK_PM.c ****     
 222:.\Generated_Source\PSoC5/PWM_BUCK_PM.c ****     /* Save registers configuration */
 223:.\Generated_Source\PSoC5/PWM_BUCK_PM.c ****     PWM_BUCK_SaveConfig();
 244              		.loc 1 223 0
 245 0038 FFF7FEFF 		bl	PWM_BUCK_SaveConfig
 224:.\Generated_Source\PSoC5/PWM_BUCK_PM.c **** }
 246              		.loc 1 224 0
 247 003c 80BD     		pop	{r7, pc}
 248              		.cfi_endproc
 249              	.LFE2:
 250              		.size	PWM_BUCK_Sleep, .-PWM_BUCK_Sleep
 251 003e 00BF     		.section	.text.PWM_BUCK_Wakeup,"ax",%progbits
 252              		.align	2
 253              		.global	PWM_BUCK_Wakeup
 254              		.thumb
 255              		.thumb_func
 256              		.type	PWM_BUCK_Wakeup, %function
 257              	PWM_BUCK_Wakeup:
 258              	.LFB3:
 225:.\Generated_Source\PSoC5/PWM_BUCK_PM.c **** 
 226:.\Generated_Source\PSoC5/PWM_BUCK_PM.c **** 
 227:.\Generated_Source\PSoC5/PWM_BUCK_PM.c **** /*******************************************************************************
 228:.\Generated_Source\PSoC5/PWM_BUCK_PM.c **** * Function Name: PWM_BUCK_Wakeup
 229:.\Generated_Source\PSoC5/PWM_BUCK_PM.c **** ********************************************************************************
 230:.\Generated_Source\PSoC5/PWM_BUCK_PM.c **** * 
 231:.\Generated_Source\PSoC5/PWM_BUCK_PM.c **** * Summary:
 232:.\Generated_Source\PSoC5/PWM_BUCK_PM.c **** *  Restores and enables the user configuration. Should be called just after 
 233:.\Generated_Source\PSoC5/PWM_BUCK_PM.c **** *  awaking from sleep.
 234:.\Generated_Source\PSoC5/PWM_BUCK_PM.c **** *  
 235:.\Generated_Source\PSoC5/PWM_BUCK_PM.c **** * Parameters:  
 236:.\Generated_Source\PSoC5/PWM_BUCK_PM.c **** *  None
 237:.\Generated_Source\PSoC5/PWM_BUCK_PM.c **** *
 238:.\Generated_Source\PSoC5/PWM_BUCK_PM.c **** * Return: 
 239:.\Generated_Source\PSoC5/PWM_BUCK_PM.c **** *  None
 240:.\Generated_Source\PSoC5/PWM_BUCK_PM.c **** *
 241:.\Generated_Source\PSoC5/PWM_BUCK_PM.c **** * Global variables:
 242:.\Generated_Source\PSoC5/PWM_BUCK_PM.c **** *  PWM_BUCK_backup.pwmEnable:  Is used to restore the enable state of 
 243:.\Generated_Source\PSoC5/PWM_BUCK_PM.c **** *  block on wakeup from sleep mode.
 244:.\Generated_Source\PSoC5/PWM_BUCK_PM.c **** *
 245:.\Generated_Source\PSoC5/PWM_BUCK_PM.c **** *******************************************************************************/
 246:.\Generated_Source\PSoC5/PWM_BUCK_PM.c **** void PWM_BUCK_Wakeup(void) 
 247:.\Generated_Source\PSoC5/PWM_BUCK_PM.c **** {
 259              		.loc 1 247 0
 260              		.cfi_startproc
ARM GAS  C:\Users\hoangp\AppData\Local\Temp\cclzLJue.s 			page 10


 261              		@ args = 0, pretend = 0, frame = 0
 262              		@ frame_needed = 1, uses_anonymous_args = 0
 263 0000 80B5     		push	{r7, lr}
 264              	.LCFI7:
 265              		.cfi_def_cfa_offset 8
 266 0002 00AF     		add	r7, sp, #0
 267              		.cfi_offset 14, -4
 268              		.cfi_offset 7, -8
 269              	.LCFI8:
 270              		.cfi_def_cfa_register 7
 248:.\Generated_Source\PSoC5/PWM_BUCK_PM.c ****      /* Restore registers values */
 249:.\Generated_Source\PSoC5/PWM_BUCK_PM.c ****     PWM_BUCK_RestoreConfig();
 271              		.loc 1 249 0
 272 0004 FFF7FEFF 		bl	PWM_BUCK_RestoreConfig
 250:.\Generated_Source\PSoC5/PWM_BUCK_PM.c ****     
 251:.\Generated_Source\PSoC5/PWM_BUCK_PM.c ****     if(PWM_BUCK_backup.PWMEnableState != 0u)
 273              		.loc 1 251 0
 274 0008 40F20003 		movw	r3, #:lower16:PWM_BUCK_backup
 275 000c C0F20003 		movt	r3, #:upper16:PWM_BUCK_backup
 276 0010 1B78     		ldrb	r3, [r3, #0]	@ zero_extendqisi2
 277 0012 002B     		cmp	r3, #0
 278 0014 01D0     		beq	.L11
 252:.\Generated_Source\PSoC5/PWM_BUCK_PM.c ****     {
 253:.\Generated_Source\PSoC5/PWM_BUCK_PM.c ****         /* Enable component's operation */
 254:.\Generated_Source\PSoC5/PWM_BUCK_PM.c ****         PWM_BUCK_Enable();
 279              		.loc 1 254 0
 280 0016 FFF7FEFF 		bl	PWM_BUCK_Enable
 281              	.L11:
 255:.\Generated_Source\PSoC5/PWM_BUCK_PM.c ****     } /* Do nothing if component's block was disabled before */
 256:.\Generated_Source\PSoC5/PWM_BUCK_PM.c ****     
 257:.\Generated_Source\PSoC5/PWM_BUCK_PM.c **** }
 282              		.loc 1 257 0
 283 001a 80BD     		pop	{r7, pc}
 284              		.cfi_endproc
 285              	.LFE3:
 286              		.size	PWM_BUCK_Wakeup, .-PWM_BUCK_Wakeup
 287              		.text
 288              	.Letext0: