ARM GAS  C:\Users\hoangp\AppData\Local\Temp\ccLc4sfl.s 			page 1


   1              		.syntax unified
   2              		.cpu cortex-m3
   3              		.fpu softvfp
   4              		.eabi_attribute 20, 1
   5              		.eabi_attribute 21, 1
   6              		.eabi_attribute 23, 3
   7              		.eabi_attribute 24, 1
   8              		.eabi_attribute 25, 1
   9              		.eabi_attribute 26, 1
  10              		.eabi_attribute 30, 6
  11              		.eabi_attribute 18, 4
  12              		.thumb
  13              		.file	"PWM_UNFOLD_A.c"
  20 0000 CF010000 		.text
  20      02006500 
  20      00000201 
  20      FB0E0D00 
  20      01010101 
  21              	.Ltext0:
  22              		.cfi_sections	.debug_frame
  23              		.global	PWM_UNFOLD_A_initVar
  24              		.bss
  25              		.type	PWM_UNFOLD_A_initVar, %object
  26              		.size	PWM_UNFOLD_A_initVar, 1
  27              	PWM_UNFOLD_A_initVar:
  28 0000 00       		.space	1
  29              		.section	.text.PWM_UNFOLD_A_Start,"ax",%progbits
  30              		.align	2
  31              		.global	PWM_UNFOLD_A_Start
  32              		.thumb
  33              		.thumb_func
  34              		.type	PWM_UNFOLD_A_Start, %function
  35              	PWM_UNFOLD_A_Start:
  36              	.LFB0:
  37              		.file 1 ".\\Generated_Source\\PSoC5\\PWM_UNFOLD_A.c"
   1:.\Generated_Source\PSoC5/PWM_UNFOLD_A.c **** /*******************************************************************************
   2:.\Generated_Source\PSoC5/PWM_UNFOLD_A.c **** * File Name: PWM_UNFOLD_A.c  
   3:.\Generated_Source\PSoC5/PWM_UNFOLD_A.c **** * Version 2.40
   4:.\Generated_Source\PSoC5/PWM_UNFOLD_A.c **** *
   5:.\Generated_Source\PSoC5/PWM_UNFOLD_A.c **** * Description:
   6:.\Generated_Source\PSoC5/PWM_UNFOLD_A.c **** *  The PWM User Module consist of an 8 or 16-bit counter with two 8 or 16-bit
   7:.\Generated_Source\PSoC5/PWM_UNFOLD_A.c **** *  comparitors. Each instance of this user module is capable of generating
   8:.\Generated_Source\PSoC5/PWM_UNFOLD_A.c **** *  two PWM outputs with the same period. The pulse width is selectable between
   9:.\Generated_Source\PSoC5/PWM_UNFOLD_A.c **** *  1 and 255/65535. The period is selectable between 2 and 255/65536 clocks. 
  10:.\Generated_Source\PSoC5/PWM_UNFOLD_A.c **** *  The compare value output may be configured to be active when the present 
  11:.\Generated_Source\PSoC5/PWM_UNFOLD_A.c **** *  counter is less than or less than/equal to the compare value.
  12:.\Generated_Source\PSoC5/PWM_UNFOLD_A.c **** *  A terminal count output is also provided. It generates a pulse one clock
  13:.\Generated_Source\PSoC5/PWM_UNFOLD_A.c **** *  width wide when the counter is equal to zero.
  14:.\Generated_Source\PSoC5/PWM_UNFOLD_A.c **** *
  15:.\Generated_Source\PSoC5/PWM_UNFOLD_A.c **** * Note:
  16:.\Generated_Source\PSoC5/PWM_UNFOLD_A.c **** *
ARM GAS  C:\Users\hoangp\AppData\Local\Temp\ccLc4sfl.s 			page 2


  17:.\Generated_Source\PSoC5/PWM_UNFOLD_A.c **** *******************************************************************************
  18:.\Generated_Source\PSoC5/PWM_UNFOLD_A.c **** * Copyright 2008-2012, Cypress Semiconductor Corporation.  All rights reserved.
  19:.\Generated_Source\PSoC5/PWM_UNFOLD_A.c **** * You may use this file only in accordance with the license, terms, conditions, 
  20:.\Generated_Source\PSoC5/PWM_UNFOLD_A.c **** * disclaimers, and limitations in the end user license agreement accompanying 
  21:.\Generated_Source\PSoC5/PWM_UNFOLD_A.c **** * the software package with which this file was provided.
  22:.\Generated_Source\PSoC5/PWM_UNFOLD_A.c **** ********************************************************************************/
  23:.\Generated_Source\PSoC5/PWM_UNFOLD_A.c **** 
  24:.\Generated_Source\PSoC5/PWM_UNFOLD_A.c **** #include "cytypes.h"
  25:.\Generated_Source\PSoC5/PWM_UNFOLD_A.c **** #include "PWM_UNFOLD_A.h"
  26:.\Generated_Source\PSoC5/PWM_UNFOLD_A.c **** 
  27:.\Generated_Source\PSoC5/PWM_UNFOLD_A.c **** uint8 PWM_UNFOLD_A_initVar = 0u;
  28:.\Generated_Source\PSoC5/PWM_UNFOLD_A.c **** 
  29:.\Generated_Source\PSoC5/PWM_UNFOLD_A.c **** 
  30:.\Generated_Source\PSoC5/PWM_UNFOLD_A.c **** /*******************************************************************************
  31:.\Generated_Source\PSoC5/PWM_UNFOLD_A.c **** * Function Name: PWM_UNFOLD_A_Start
  32:.\Generated_Source\PSoC5/PWM_UNFOLD_A.c **** ********************************************************************************
  33:.\Generated_Source\PSoC5/PWM_UNFOLD_A.c **** *
  34:.\Generated_Source\PSoC5/PWM_UNFOLD_A.c **** * Summary:
  35:.\Generated_Source\PSoC5/PWM_UNFOLD_A.c **** *  The start function initializes the pwm with the default values, the 
  36:.\Generated_Source\PSoC5/PWM_UNFOLD_A.c **** *  enables the counter to begin counting.  It does not enable interrupts,
  37:.\Generated_Source\PSoC5/PWM_UNFOLD_A.c **** *  the EnableInt command should be called if interrupt generation is required.
  38:.\Generated_Source\PSoC5/PWM_UNFOLD_A.c **** *
  39:.\Generated_Source\PSoC5/PWM_UNFOLD_A.c **** * Parameters:  
  40:.\Generated_Source\PSoC5/PWM_UNFOLD_A.c **** *  None  
  41:.\Generated_Source\PSoC5/PWM_UNFOLD_A.c **** *
  42:.\Generated_Source\PSoC5/PWM_UNFOLD_A.c **** * Return: 
  43:.\Generated_Source\PSoC5/PWM_UNFOLD_A.c **** *  None
  44:.\Generated_Source\PSoC5/PWM_UNFOLD_A.c **** *
  45:.\Generated_Source\PSoC5/PWM_UNFOLD_A.c **** * Global variables:
  46:.\Generated_Source\PSoC5/PWM_UNFOLD_A.c **** *  PWM_UNFOLD_A_initVar: Is modified when this function is called for the 
  47:.\Generated_Source\PSoC5/PWM_UNFOLD_A.c **** *   first time. Is used to ensure that initialization happens only once.
  48:.\Generated_Source\PSoC5/PWM_UNFOLD_A.c **** *
  49:.\Generated_Source\PSoC5/PWM_UNFOLD_A.c **** *******************************************************************************/
  50:.\Generated_Source\PSoC5/PWM_UNFOLD_A.c **** void PWM_UNFOLD_A_Start(void) 
  51:.\Generated_Source\PSoC5/PWM_UNFOLD_A.c **** {
  38              		.loc 1 51 0
  39              		.cfi_startproc
  40              		@ args = 0, pretend = 0, frame = 0
  41              		@ frame_needed = 1, uses_anonymous_args = 0
  42 0000 80B5     		push	{r7, lr}
  43              	.LCFI0:
  44              		.cfi_def_cfa_offset 8
  45 0002 00AF     		add	r7, sp, #0
  46              		.cfi_offset 14, -4
  47              		.cfi_offset 7, -8
  48              	.LCFI1:
  49              		.cfi_def_cfa_register 7
  52:.\Generated_Source\PSoC5/PWM_UNFOLD_A.c ****     /* If not Initialized then initialize all required hardware and software */
  53:.\Generated_Source\PSoC5/PWM_UNFOLD_A.c ****     if(PWM_UNFOLD_A_initVar == 0u)
  50              		.loc 1 53 0
  51 0004 40F20003 		movw	r3, #:lower16:PWM_UNFOLD_A_initVar
  52 0008 C0F20003 		movt	r3, #:upper16:PWM_UNFOLD_A_initVar
  53 000c 1B78     		ldrb	r3, [r3, #0]	@ zero_extendqisi2
  54 000e 002B     		cmp	r3, #0
  55 0010 08D1     		bne	.L2
  54:.\Generated_Source\PSoC5/PWM_UNFOLD_A.c ****     {
  55:.\Generated_Source\PSoC5/PWM_UNFOLD_A.c ****         PWM_UNFOLD_A_Init();
ARM GAS  C:\Users\hoangp\AppData\Local\Temp\ccLc4sfl.s 			page 3


  56              		.loc 1 55 0
  57 0012 FFF7FEFF 		bl	PWM_UNFOLD_A_Init
  56:.\Generated_Source\PSoC5/PWM_UNFOLD_A.c ****         PWM_UNFOLD_A_initVar = 1u;
  58              		.loc 1 56 0
  59 0016 40F20003 		movw	r3, #:lower16:PWM_UNFOLD_A_initVar
  60 001a C0F20003 		movt	r3, #:upper16:PWM_UNFOLD_A_initVar
  61 001e 4FF00102 		mov	r2, #1
  62 0022 1A70     		strb	r2, [r3, #0]
  63              	.L2:
  57:.\Generated_Source\PSoC5/PWM_UNFOLD_A.c ****     }
  58:.\Generated_Source\PSoC5/PWM_UNFOLD_A.c ****     PWM_UNFOLD_A_Enable();
  64              		.loc 1 58 0
  65 0024 FFF7FEFF 		bl	PWM_UNFOLD_A_Enable
  59:.\Generated_Source\PSoC5/PWM_UNFOLD_A.c **** 
  60:.\Generated_Source\PSoC5/PWM_UNFOLD_A.c **** }
  66              		.loc 1 60 0
  67 0028 80BD     		pop	{r7, pc}
  68              		.cfi_endproc
  69              	.LFE0:
  70              		.size	PWM_UNFOLD_A_Start, .-PWM_UNFOLD_A_Start
  71 002a 00BF     		.section	.text.PWM_UNFOLD_A_Init,"ax",%progbits
  72              		.align	2
  73              		.global	PWM_UNFOLD_A_Init
  74              		.thumb
  75              		.thumb_func
  76              		.type	PWM_UNFOLD_A_Init, %function
  77              	PWM_UNFOLD_A_Init:
  78              	.LFB1:
  61:.\Generated_Source\PSoC5/PWM_UNFOLD_A.c **** 
  62:.\Generated_Source\PSoC5/PWM_UNFOLD_A.c **** 
  63:.\Generated_Source\PSoC5/PWM_UNFOLD_A.c **** /*******************************************************************************
  64:.\Generated_Source\PSoC5/PWM_UNFOLD_A.c **** * Function Name: PWM_UNFOLD_A_Init
  65:.\Generated_Source\PSoC5/PWM_UNFOLD_A.c **** ********************************************************************************
  66:.\Generated_Source\PSoC5/PWM_UNFOLD_A.c **** *
  67:.\Generated_Source\PSoC5/PWM_UNFOLD_A.c **** * Summary:
  68:.\Generated_Source\PSoC5/PWM_UNFOLD_A.c **** *  Initialize component's parameters to the parameters set by user in the 
  69:.\Generated_Source\PSoC5/PWM_UNFOLD_A.c **** *  customizer of the component placed onto schematic. Usually called in 
  70:.\Generated_Source\PSoC5/PWM_UNFOLD_A.c **** *  PWM_UNFOLD_A_Start().
  71:.\Generated_Source\PSoC5/PWM_UNFOLD_A.c **** *
  72:.\Generated_Source\PSoC5/PWM_UNFOLD_A.c **** * Parameters:  
  73:.\Generated_Source\PSoC5/PWM_UNFOLD_A.c **** *  None
  74:.\Generated_Source\PSoC5/PWM_UNFOLD_A.c **** *
  75:.\Generated_Source\PSoC5/PWM_UNFOLD_A.c **** * Return: 
  76:.\Generated_Source\PSoC5/PWM_UNFOLD_A.c **** *  None
  77:.\Generated_Source\PSoC5/PWM_UNFOLD_A.c **** *
  78:.\Generated_Source\PSoC5/PWM_UNFOLD_A.c **** *******************************************************************************/
  79:.\Generated_Source\PSoC5/PWM_UNFOLD_A.c **** void PWM_UNFOLD_A_Init(void) 
  80:.\Generated_Source\PSoC5/PWM_UNFOLD_A.c **** {
  79              		.loc 1 80 0
  80              		.cfi_startproc
  81              		@ args = 0, pretend = 0, frame = 8
  82              		@ frame_needed = 1, uses_anonymous_args = 0
  83 0000 80B5     		push	{r7, lr}
  84              	.LCFI2:
  85              		.cfi_def_cfa_offset 8
  86 0002 82B0     		sub	sp, sp, #8
  87              	.LCFI3:
ARM GAS  C:\Users\hoangp\AppData\Local\Temp\ccLc4sfl.s 			page 4


  88              		.cfi_def_cfa_offset 16
  89 0004 00AF     		add	r7, sp, #0
  90              		.cfi_offset 14, -4
  91              		.cfi_offset 7, -8
  92              	.LCFI4:
  93              		.cfi_def_cfa_register 7
  81:.\Generated_Source\PSoC5/PWM_UNFOLD_A.c ****     #if (PWM_UNFOLD_A_UsingFixedFunction || PWM_UNFOLD_A_UseControl)
  82:.\Generated_Source\PSoC5/PWM_UNFOLD_A.c ****         uint8 ctrl;
  83:.\Generated_Source\PSoC5/PWM_UNFOLD_A.c ****     #endif /* (PWM_UNFOLD_A_UsingFixedFunction || PWM_UNFOLD_A_UseControl) */
  84:.\Generated_Source\PSoC5/PWM_UNFOLD_A.c ****     
  85:.\Generated_Source\PSoC5/PWM_UNFOLD_A.c ****     #if(!PWM_UNFOLD_A_UsingFixedFunction) 
  86:.\Generated_Source\PSoC5/PWM_UNFOLD_A.c ****         #if(PWM_UNFOLD_A_UseStatus)
  87:.\Generated_Source\PSoC5/PWM_UNFOLD_A.c ****             /* Interrupt State Backup for Critical Region*/
  88:.\Generated_Source\PSoC5/PWM_UNFOLD_A.c ****             uint8 PWM_UNFOLD_A_interruptState;
  89:.\Generated_Source\PSoC5/PWM_UNFOLD_A.c ****         #endif /* (PWM_UNFOLD_A_UseStatus) */
  90:.\Generated_Source\PSoC5/PWM_UNFOLD_A.c ****     #endif /* (!PWM_UNFOLD_A_UsingFixedFunction) */
  91:.\Generated_Source\PSoC5/PWM_UNFOLD_A.c ****     
  92:.\Generated_Source\PSoC5/PWM_UNFOLD_A.c ****     #if (PWM_UNFOLD_A_UsingFixedFunction)
  93:.\Generated_Source\PSoC5/PWM_UNFOLD_A.c ****         /* You are allowed to write the compare value (FF only) */
  94:.\Generated_Source\PSoC5/PWM_UNFOLD_A.c ****         PWM_UNFOLD_A_CONTROL |= PWM_UNFOLD_A_CFG0_MODE;
  95:.\Generated_Source\PSoC5/PWM_UNFOLD_A.c ****         #if (PWM_UNFOLD_A_DeadBand2_4)
  96:.\Generated_Source\PSoC5/PWM_UNFOLD_A.c ****             PWM_UNFOLD_A_CONTROL |= PWM_UNFOLD_A_CFG0_DB;
  97:.\Generated_Source\PSoC5/PWM_UNFOLD_A.c ****         #endif /* (PWM_UNFOLD_A_DeadBand2_4) */
  98:.\Generated_Source\PSoC5/PWM_UNFOLD_A.c ****                 
  99:.\Generated_Source\PSoC5/PWM_UNFOLD_A.c ****         /* Set the default Compare Mode */
 100:.\Generated_Source\PSoC5/PWM_UNFOLD_A.c ****         #if(CY_PSOC5A)
 101:.\Generated_Source\PSoC5/PWM_UNFOLD_A.c ****                 ctrl = PWM_UNFOLD_A_CONTROL2 & ((uint8)(~PWM_UNFOLD_A_CTRL_CMPMODE1_MASK));
 102:.\Generated_Source\PSoC5/PWM_UNFOLD_A.c ****                 PWM_UNFOLD_A_CONTROL2 = ctrl | PWM_UNFOLD_A_DEFAULT_COMPARE1_MODE;
 103:.\Generated_Source\PSoC5/PWM_UNFOLD_A.c ****         #endif /* (CY_PSOC5A) */
 104:.\Generated_Source\PSoC5/PWM_UNFOLD_A.c ****         #if(CY_PSOC3 || CY_PSOC5LP)
 105:.\Generated_Source\PSoC5/PWM_UNFOLD_A.c ****                 ctrl = PWM_UNFOLD_A_CONTROL3 & ((uint8 )(~PWM_UNFOLD_A_CTRL_CMPMODE1_MASK));
 106:.\Generated_Source\PSoC5/PWM_UNFOLD_A.c ****                 PWM_UNFOLD_A_CONTROL3 = ctrl | PWM_UNFOLD_A_DEFAULT_COMPARE1_MODE;
 107:.\Generated_Source\PSoC5/PWM_UNFOLD_A.c ****         #endif /* (CY_PSOC3 || CY_PSOC5LP) */
 108:.\Generated_Source\PSoC5/PWM_UNFOLD_A.c ****         
 109:.\Generated_Source\PSoC5/PWM_UNFOLD_A.c ****          /* Clear and Set SYNCTC and SYNCCMP bits of RT1 register */
 110:.\Generated_Source\PSoC5/PWM_UNFOLD_A.c ****         PWM_UNFOLD_A_RT1 &= ((uint8)(~PWM_UNFOLD_A_RT1_MASK));
 111:.\Generated_Source\PSoC5/PWM_UNFOLD_A.c ****         PWM_UNFOLD_A_RT1 |= PWM_UNFOLD_A_SYNC;     
 112:.\Generated_Source\PSoC5/PWM_UNFOLD_A.c ****                 
 113:.\Generated_Source\PSoC5/PWM_UNFOLD_A.c ****         /*Enable DSI Sync all all inputs of the PWM*/
 114:.\Generated_Source\PSoC5/PWM_UNFOLD_A.c ****         PWM_UNFOLD_A_RT1 &= ((uint8)(~PWM_UNFOLD_A_SYNCDSI_MASK));
 115:.\Generated_Source\PSoC5/PWM_UNFOLD_A.c ****         PWM_UNFOLD_A_RT1 |= PWM_UNFOLD_A_SYNCDSI_EN;
 116:.\Generated_Source\PSoC5/PWM_UNFOLD_A.c ****        
 117:.\Generated_Source\PSoC5/PWM_UNFOLD_A.c ****     #elif (PWM_UNFOLD_A_UseControl)
 118:.\Generated_Source\PSoC5/PWM_UNFOLD_A.c ****         /* Set the default compare mode defined in the parameter */
 119:.\Generated_Source\PSoC5/PWM_UNFOLD_A.c ****         ctrl = PWM_UNFOLD_A_CONTROL & ((uint8)(~PWM_UNFOLD_A_CTRL_CMPMODE2_MASK)) & ((uint8)(~PWM_U
  94              		.loc 1 119 0
  95 0006 46F27843 		movw	r3, #:lower16:1073767544
  96 000a C4F20003 		movt	r3, #:upper16:1073767544
  97 000e 1B78     		ldrb	r3, [r3, #0]
  98 0010 DBB2     		uxtb	r3, r3
  99 0012 23F03F03 		bic	r3, r3, #63
 100 0016 BB71     		strb	r3, [r7, #6]
 120:.\Generated_Source\PSoC5/PWM_UNFOLD_A.c ****         PWM_UNFOLD_A_CONTROL = ctrl | PWM_UNFOLD_A_DEFAULT_COMPARE2_MODE | 
 101              		.loc 1 120 0
 102 0018 46F27843 		movw	r3, #:lower16:1073767544
 103 001c C4F20003 		movt	r3, #:upper16:1073767544
 104 0020 BA79     		ldrb	r2, [r7, #6]
ARM GAS  C:\Users\hoangp\AppData\Local\Temp\ccLc4sfl.s 			page 5


 105 0022 42F00902 		orr	r2, r2, #9
 106 0026 D2B2     		uxtb	r2, r2
 107 0028 1A70     		strb	r2, [r3, #0]
 121:.\Generated_Source\PSoC5/PWM_UNFOLD_A.c ****                                    PWM_UNFOLD_A_DEFAULT_COMPARE1_MODE;
 122:.\Generated_Source\PSoC5/PWM_UNFOLD_A.c ****     #endif /* (PWM_UNFOLD_A_UsingFixedFunction) */
 123:.\Generated_Source\PSoC5/PWM_UNFOLD_A.c ****         
 124:.\Generated_Source\PSoC5/PWM_UNFOLD_A.c ****     #if (!PWM_UNFOLD_A_UsingFixedFunction)
 125:.\Generated_Source\PSoC5/PWM_UNFOLD_A.c ****         #if (PWM_UNFOLD_A_Resolution == 8)
 126:.\Generated_Source\PSoC5/PWM_UNFOLD_A.c ****             /* Set FIFO 0 to 1 byte register for period*/
 127:.\Generated_Source\PSoC5/PWM_UNFOLD_A.c ****             PWM_UNFOLD_A_AUX_CONTROLDP0 |= (PWM_UNFOLD_A_AUX_CTRL_FIFO0_CLR);
 108              		.loc 1 127 0
 109 002a 46F29953 		movw	r3, #:lower16:1073767833
 110 002e C4F20003 		movt	r3, #:upper16:1073767833
 111 0032 46F29952 		movw	r2, #:lower16:1073767833
 112 0036 C4F20002 		movt	r2, #:upper16:1073767833
 113 003a 1278     		ldrb	r2, [r2, #0]
 114 003c D2B2     		uxtb	r2, r2
 115 003e 42F00102 		orr	r2, r2, #1
 116 0042 D2B2     		uxtb	r2, r2
 117 0044 1A70     		strb	r2, [r3, #0]
 128:.\Generated_Source\PSoC5/PWM_UNFOLD_A.c ****         #else /* (PWM_UNFOLD_A_Resolution == 16)*/
 129:.\Generated_Source\PSoC5/PWM_UNFOLD_A.c ****             /* Set FIFO 0 to 1 byte register for period */
 130:.\Generated_Source\PSoC5/PWM_UNFOLD_A.c ****             PWM_UNFOLD_A_AUX_CONTROLDP0 |= (PWM_UNFOLD_A_AUX_CTRL_FIFO0_CLR);
 131:.\Generated_Source\PSoC5/PWM_UNFOLD_A.c ****             PWM_UNFOLD_A_AUX_CONTROLDP1 |= (PWM_UNFOLD_A_AUX_CTRL_FIFO0_CLR);
 132:.\Generated_Source\PSoC5/PWM_UNFOLD_A.c ****         #endif /* (PWM_UNFOLD_A_Resolution == 8) */
 133:.\Generated_Source\PSoC5/PWM_UNFOLD_A.c **** 
 134:.\Generated_Source\PSoC5/PWM_UNFOLD_A.c ****         PWM_UNFOLD_A_WriteCounter(PWM_UNFOLD_A_INIT_PERIOD_VALUE);
 118              		.loc 1 134 0
 119 0046 4FF0FF00 		mov	r0, #255
 120 004a FFF7FEFF 		bl	PWM_UNFOLD_A_WriteCounter
 135:.\Generated_Source\PSoC5/PWM_UNFOLD_A.c ****     #endif /* (!PWM_UNFOLD_A_UsingFixedFunction) */
 136:.\Generated_Source\PSoC5/PWM_UNFOLD_A.c ****         
 137:.\Generated_Source\PSoC5/PWM_UNFOLD_A.c ****     PWM_UNFOLD_A_WritePeriod(PWM_UNFOLD_A_INIT_PERIOD_VALUE);
 121              		.loc 1 137 0
 122 004e 4FF0FF00 		mov	r0, #255
 123 0052 FFF7FEFF 		bl	PWM_UNFOLD_A_WritePeriod
 138:.\Generated_Source\PSoC5/PWM_UNFOLD_A.c **** 
 139:.\Generated_Source\PSoC5/PWM_UNFOLD_A.c ****         #if (PWM_UNFOLD_A_UseOneCompareMode)
 140:.\Generated_Source\PSoC5/PWM_UNFOLD_A.c ****             PWM_UNFOLD_A_WriteCompare(PWM_UNFOLD_A_INIT_COMPARE_VALUE1);
 124              		.loc 1 140 0
 125 0056 4FF08000 		mov	r0, #128
 126 005a FFF7FEFF 		bl	PWM_UNFOLD_A_WriteCompare
 141:.\Generated_Source\PSoC5/PWM_UNFOLD_A.c ****         #else
 142:.\Generated_Source\PSoC5/PWM_UNFOLD_A.c ****             PWM_UNFOLD_A_WriteCompare1(PWM_UNFOLD_A_INIT_COMPARE_VALUE1);
 143:.\Generated_Source\PSoC5/PWM_UNFOLD_A.c ****             PWM_UNFOLD_A_WriteCompare2(PWM_UNFOLD_A_INIT_COMPARE_VALUE2);
 144:.\Generated_Source\PSoC5/PWM_UNFOLD_A.c ****         #endif /* (PWM_UNFOLD_A_UseOneCompareMode) */
 145:.\Generated_Source\PSoC5/PWM_UNFOLD_A.c ****         
 146:.\Generated_Source\PSoC5/PWM_UNFOLD_A.c ****         #if (PWM_UNFOLD_A_KillModeMinTime)
 147:.\Generated_Source\PSoC5/PWM_UNFOLD_A.c ****             PWM_UNFOLD_A_WriteKillTime(PWM_UNFOLD_A_MinimumKillTime);
 148:.\Generated_Source\PSoC5/PWM_UNFOLD_A.c ****         #endif /* (PWM_UNFOLD_A_KillModeMinTime) */
 149:.\Generated_Source\PSoC5/PWM_UNFOLD_A.c ****         
 150:.\Generated_Source\PSoC5/PWM_UNFOLD_A.c ****         #if (PWM_UNFOLD_A_DeadBandUsed)
 151:.\Generated_Source\PSoC5/PWM_UNFOLD_A.c ****             PWM_UNFOLD_A_WriteDeadTime(PWM_UNFOLD_A_INIT_DEAD_TIME);
 127              		.loc 1 151 0
 128 005e 4FF00300 		mov	r0, #3
 129 0062 FFF7FEFF 		bl	PWM_UNFOLD_A_WriteDeadTime
 152:.\Generated_Source\PSoC5/PWM_UNFOLD_A.c ****         #endif /* (PWM_UNFOLD_A_DeadBandUsed) */
ARM GAS  C:\Users\hoangp\AppData\Local\Temp\ccLc4sfl.s 			page 6


 153:.\Generated_Source\PSoC5/PWM_UNFOLD_A.c **** 
 154:.\Generated_Source\PSoC5/PWM_UNFOLD_A.c ****     #if (PWM_UNFOLD_A_UseStatus || PWM_UNFOLD_A_UsingFixedFunction)
 155:.\Generated_Source\PSoC5/PWM_UNFOLD_A.c ****         PWM_UNFOLD_A_SetInterruptMode(PWM_UNFOLD_A_INIT_INTERRUPTS_MODE);
 130              		.loc 1 155 0
 131 0066 4FF00000 		mov	r0, #0
 132 006a FFF7FEFF 		bl	PWM_UNFOLD_A_SetInterruptMode
 156:.\Generated_Source\PSoC5/PWM_UNFOLD_A.c ****     #endif /* (PWM_UNFOLD_A_UseStatus || PWM_UNFOLD_A_UsingFixedFunction) */
 157:.\Generated_Source\PSoC5/PWM_UNFOLD_A.c ****         
 158:.\Generated_Source\PSoC5/PWM_UNFOLD_A.c ****     #if (PWM_UNFOLD_A_UsingFixedFunction)
 159:.\Generated_Source\PSoC5/PWM_UNFOLD_A.c ****         /* Globally Enable the Fixed Function Block chosen */
 160:.\Generated_Source\PSoC5/PWM_UNFOLD_A.c ****         PWM_UNFOLD_A_GLOBAL_ENABLE |= PWM_UNFOLD_A_BLOCK_EN_MASK;
 161:.\Generated_Source\PSoC5/PWM_UNFOLD_A.c ****         /* Set the Interrupt source to come from the status register */
 162:.\Generated_Source\PSoC5/PWM_UNFOLD_A.c ****         PWM_UNFOLD_A_CONTROL2 |= PWM_UNFOLD_A_CTRL2_IRQ_SEL;
 163:.\Generated_Source\PSoC5/PWM_UNFOLD_A.c ****     #else
 164:.\Generated_Source\PSoC5/PWM_UNFOLD_A.c ****         #if(PWM_UNFOLD_A_UseStatus)
 165:.\Generated_Source\PSoC5/PWM_UNFOLD_A.c ****             
 166:.\Generated_Source\PSoC5/PWM_UNFOLD_A.c ****             /* CyEnterCriticalRegion and CyExitCriticalRegion are used to mark following region cri
 167:.\Generated_Source\PSoC5/PWM_UNFOLD_A.c ****             /* Enter Critical Region*/
 168:.\Generated_Source\PSoC5/PWM_UNFOLD_A.c ****             PWM_UNFOLD_A_interruptState = CyEnterCriticalSection();
 133              		.loc 1 168 0
 134 006e FFF7FEFF 		bl	CyEnterCriticalSection
 135 0072 0346     		mov	r3, r0
 136 0074 FB71     		strb	r3, [r7, #7]
 169:.\Generated_Source\PSoC5/PWM_UNFOLD_A.c ****             /* Use the interrupt output of the status register for IRQ output */
 170:.\Generated_Source\PSoC5/PWM_UNFOLD_A.c ****             PWM_UNFOLD_A_STATUS_AUX_CTRL |= PWM_UNFOLD_A_STATUS_ACTL_INT_EN_MASK;
 137              		.loc 1 170 0
 138 0076 46F29843 		movw	r3, #:lower16:1073767576
 139 007a C4F20003 		movt	r3, #:upper16:1073767576
 140 007e 46F29842 		movw	r2, #:lower16:1073767576
 141 0082 C4F20002 		movt	r2, #:upper16:1073767576
 142 0086 1278     		ldrb	r2, [r2, #0]
 143 0088 D2B2     		uxtb	r2, r2
 144 008a 42F01002 		orr	r2, r2, #16
 145 008e D2B2     		uxtb	r2, r2
 146 0090 1A70     		strb	r2, [r3, #0]
 171:.\Generated_Source\PSoC5/PWM_UNFOLD_A.c ****             
 172:.\Generated_Source\PSoC5/PWM_UNFOLD_A.c ****              /* Exit Critical Region*/
 173:.\Generated_Source\PSoC5/PWM_UNFOLD_A.c ****             CyExitCriticalSection(PWM_UNFOLD_A_interruptState);
 147              		.loc 1 173 0
 148 0092 FB79     		ldrb	r3, [r7, #7]	@ zero_extendqisi2
 149 0094 1846     		mov	r0, r3
 150 0096 FFF7FEFF 		bl	CyExitCriticalSection
 174:.\Generated_Source\PSoC5/PWM_UNFOLD_A.c ****             
 175:.\Generated_Source\PSoC5/PWM_UNFOLD_A.c ****             /* Clear the FIFO to enable the PWM_UNFOLD_A_STATUS_FIFOFULL
 176:.\Generated_Source\PSoC5/PWM_UNFOLD_A.c ****                    bit to be set on FIFO full. */
 177:.\Generated_Source\PSoC5/PWM_UNFOLD_A.c ****             PWM_UNFOLD_A_ClearFIFO();
 151              		.loc 1 177 0
 152 009a FFF7FEFF 		bl	PWM_UNFOLD_A_ClearFIFO
 178:.\Generated_Source\PSoC5/PWM_UNFOLD_A.c ****         #endif /* (PWM_UNFOLD_A_UseStatus) */
 179:.\Generated_Source\PSoC5/PWM_UNFOLD_A.c ****     #endif /* (PWM_UNFOLD_A_UsingFixedFunction) */
 180:.\Generated_Source\PSoC5/PWM_UNFOLD_A.c **** }
 153              		.loc 1 180 0
 154 009e 07F10807 		add	r7, r7, #8
 155 00a2 BD46     		mov	sp, r7
 156 00a4 80BD     		pop	{r7, pc}
 157              		.cfi_endproc
 158              	.LFE1:
ARM GAS  C:\Users\hoangp\AppData\Local\Temp\ccLc4sfl.s 			page 7


 159              		.size	PWM_UNFOLD_A_Init, .-PWM_UNFOLD_A_Init
 160 00a6 00BF     		.section	.text.PWM_UNFOLD_A_Enable,"ax",%progbits
 161              		.align	2
 162              		.global	PWM_UNFOLD_A_Enable
 163              		.thumb
 164              		.thumb_func
 165              		.type	PWM_UNFOLD_A_Enable, %function
 166              	PWM_UNFOLD_A_Enable:
 167              	.LFB2:
 181:.\Generated_Source\PSoC5/PWM_UNFOLD_A.c **** 
 182:.\Generated_Source\PSoC5/PWM_UNFOLD_A.c **** 
 183:.\Generated_Source\PSoC5/PWM_UNFOLD_A.c **** /*******************************************************************************
 184:.\Generated_Source\PSoC5/PWM_UNFOLD_A.c **** * Function Name: PWM_UNFOLD_A_Enable
 185:.\Generated_Source\PSoC5/PWM_UNFOLD_A.c **** ********************************************************************************
 186:.\Generated_Source\PSoC5/PWM_UNFOLD_A.c **** *
 187:.\Generated_Source\PSoC5/PWM_UNFOLD_A.c **** * Summary: 
 188:.\Generated_Source\PSoC5/PWM_UNFOLD_A.c **** *  Enables the PWM block operation
 189:.\Generated_Source\PSoC5/PWM_UNFOLD_A.c **** *
 190:.\Generated_Source\PSoC5/PWM_UNFOLD_A.c **** * Parameters:  
 191:.\Generated_Source\PSoC5/PWM_UNFOLD_A.c **** *  None
 192:.\Generated_Source\PSoC5/PWM_UNFOLD_A.c **** *
 193:.\Generated_Source\PSoC5/PWM_UNFOLD_A.c **** * Return: 
 194:.\Generated_Source\PSoC5/PWM_UNFOLD_A.c **** *  None
 195:.\Generated_Source\PSoC5/PWM_UNFOLD_A.c **** *
 196:.\Generated_Source\PSoC5/PWM_UNFOLD_A.c **** * Side Effects: 
 197:.\Generated_Source\PSoC5/PWM_UNFOLD_A.c **** *  This works only if software enable mode is chosen
 198:.\Generated_Source\PSoC5/PWM_UNFOLD_A.c **** *
 199:.\Generated_Source\PSoC5/PWM_UNFOLD_A.c **** *******************************************************************************/
 200:.\Generated_Source\PSoC5/PWM_UNFOLD_A.c **** void PWM_UNFOLD_A_Enable(void) 
 201:.\Generated_Source\PSoC5/PWM_UNFOLD_A.c **** {
 168              		.loc 1 201 0
 169              		.cfi_startproc
 170              		@ args = 0, pretend = 0, frame = 0
 171              		@ frame_needed = 1, uses_anonymous_args = 0
 172              		@ link register save eliminated.
 173 0000 80B4     		push	{r7}
 174              	.LCFI5:
 175              		.cfi_def_cfa_offset 4
 176 0002 00AF     		add	r7, sp, #0
 177              		.cfi_offset 7, -4
 178              	.LCFI6:
 179              		.cfi_def_cfa_register 7
 202:.\Generated_Source\PSoC5/PWM_UNFOLD_A.c ****     /* Globally Enable the Fixed Function Block chosen */
 203:.\Generated_Source\PSoC5/PWM_UNFOLD_A.c ****     #if (PWM_UNFOLD_A_UsingFixedFunction)
 204:.\Generated_Source\PSoC5/PWM_UNFOLD_A.c ****         PWM_UNFOLD_A_GLOBAL_ENABLE |= PWM_UNFOLD_A_BLOCK_EN_MASK;
 205:.\Generated_Source\PSoC5/PWM_UNFOLD_A.c ****         PWM_UNFOLD_A_GLOBAL_STBY_ENABLE |= PWM_UNFOLD_A_BLOCK_STBY_EN_MASK;
 206:.\Generated_Source\PSoC5/PWM_UNFOLD_A.c ****     #endif /* (PWM_UNFOLD_A_UsingFixedFunction) */
 207:.\Generated_Source\PSoC5/PWM_UNFOLD_A.c ****     
 208:.\Generated_Source\PSoC5/PWM_UNFOLD_A.c ****     /* Enable the PWM from the control register  */
 209:.\Generated_Source\PSoC5/PWM_UNFOLD_A.c ****     #if (PWM_UNFOLD_A_UseControl || PWM_UNFOLD_A_UsingFixedFunction)
 210:.\Generated_Source\PSoC5/PWM_UNFOLD_A.c ****         PWM_UNFOLD_A_CONTROL |= PWM_UNFOLD_A_CTRL_ENABLE;
 180              		.loc 1 210 0
 181 0004 46F27843 		movw	r3, #:lower16:1073767544
 182 0008 C4F20003 		movt	r3, #:upper16:1073767544
 183 000c 46F27842 		movw	r2, #:lower16:1073767544
 184 0010 C4F20002 		movt	r2, #:upper16:1073767544
 185 0014 1278     		ldrb	r2, [r2, #0]
ARM GAS  C:\Users\hoangp\AppData\Local\Temp\ccLc4sfl.s 			page 8


 186 0016 D2B2     		uxtb	r2, r2
 187 0018 6FEA4262 		mvn	r2, r2, lsl #25
 188 001c 6FEA5262 		mvn	r2, r2, lsr #25
 189 0020 D2B2     		uxtb	r2, r2
 190 0022 1A70     		strb	r2, [r3, #0]
 211:.\Generated_Source\PSoC5/PWM_UNFOLD_A.c ****     #endif /* (PWM_UNFOLD_A_UseControl || PWM_UNFOLD_A_UsingFixedFunction) */
 212:.\Generated_Source\PSoC5/PWM_UNFOLD_A.c **** }
 191              		.loc 1 212 0
 192 0024 BD46     		mov	sp, r7
 193 0026 80BC     		pop	{r7}
 194 0028 7047     		bx	lr
 195              		.cfi_endproc
 196              	.LFE2:
 197              		.size	PWM_UNFOLD_A_Enable, .-PWM_UNFOLD_A_Enable
 198 002a 00BF     		.section	.text.PWM_UNFOLD_A_Stop,"ax",%progbits
 199              		.align	2
 200              		.global	PWM_UNFOLD_A_Stop
 201              		.thumb
 202              		.thumb_func
 203              		.type	PWM_UNFOLD_A_Stop, %function
 204              	PWM_UNFOLD_A_Stop:
 205              	.LFB3:
 213:.\Generated_Source\PSoC5/PWM_UNFOLD_A.c **** 
 214:.\Generated_Source\PSoC5/PWM_UNFOLD_A.c **** 
 215:.\Generated_Source\PSoC5/PWM_UNFOLD_A.c **** /*******************************************************************************
 216:.\Generated_Source\PSoC5/PWM_UNFOLD_A.c **** * Function Name: PWM_UNFOLD_A_Stop
 217:.\Generated_Source\PSoC5/PWM_UNFOLD_A.c **** ********************************************************************************
 218:.\Generated_Source\PSoC5/PWM_UNFOLD_A.c **** *
 219:.\Generated_Source\PSoC5/PWM_UNFOLD_A.c **** * Summary:
 220:.\Generated_Source\PSoC5/PWM_UNFOLD_A.c **** *  The stop function halts the PWM, but does not change any modes or disable
 221:.\Generated_Source\PSoC5/PWM_UNFOLD_A.c **** *  interrupts.
 222:.\Generated_Source\PSoC5/PWM_UNFOLD_A.c **** *
 223:.\Generated_Source\PSoC5/PWM_UNFOLD_A.c **** * Parameters:  
 224:.\Generated_Source\PSoC5/PWM_UNFOLD_A.c **** *  None  
 225:.\Generated_Source\PSoC5/PWM_UNFOLD_A.c **** *
 226:.\Generated_Source\PSoC5/PWM_UNFOLD_A.c **** * Return: 
 227:.\Generated_Source\PSoC5/PWM_UNFOLD_A.c **** *  None
 228:.\Generated_Source\PSoC5/PWM_UNFOLD_A.c **** *
 229:.\Generated_Source\PSoC5/PWM_UNFOLD_A.c **** * Side Effects:
 230:.\Generated_Source\PSoC5/PWM_UNFOLD_A.c **** *  If the Enable mode is set to Hardware only then this function
 231:.\Generated_Source\PSoC5/PWM_UNFOLD_A.c **** *  has no effect on the operation of the PWM
 232:.\Generated_Source\PSoC5/PWM_UNFOLD_A.c **** *
 233:.\Generated_Source\PSoC5/PWM_UNFOLD_A.c **** *******************************************************************************/
 234:.\Generated_Source\PSoC5/PWM_UNFOLD_A.c **** void PWM_UNFOLD_A_Stop(void) 
 235:.\Generated_Source\PSoC5/PWM_UNFOLD_A.c **** {
 206              		.loc 1 235 0
 207              		.cfi_startproc
 208              		@ args = 0, pretend = 0, frame = 0
 209              		@ frame_needed = 1, uses_anonymous_args = 0
 210              		@ link register save eliminated.
 211 0000 80B4     		push	{r7}
 212              	.LCFI7:
 213              		.cfi_def_cfa_offset 4
 214 0002 00AF     		add	r7, sp, #0
 215              		.cfi_offset 7, -4
 216              	.LCFI8:
 217              		.cfi_def_cfa_register 7
ARM GAS  C:\Users\hoangp\AppData\Local\Temp\ccLc4sfl.s 			page 9


 236:.\Generated_Source\PSoC5/PWM_UNFOLD_A.c ****     #if (PWM_UNFOLD_A_UseControl || PWM_UNFOLD_A_UsingFixedFunction)
 237:.\Generated_Source\PSoC5/PWM_UNFOLD_A.c ****         PWM_UNFOLD_A_CONTROL &= ((uint8)(~PWM_UNFOLD_A_CTRL_ENABLE));
 218              		.loc 1 237 0
 219 0004 46F27843 		movw	r3, #:lower16:1073767544
 220 0008 C4F20003 		movt	r3, #:upper16:1073767544
 221 000c 46F27842 		movw	r2, #:lower16:1073767544
 222 0010 C4F20002 		movt	r2, #:upper16:1073767544
 223 0014 1278     		ldrb	r2, [r2, #0]
 224 0016 D2B2     		uxtb	r2, r2
 225 0018 02F07F02 		and	r2, r2, #127
 226 001c 1A70     		strb	r2, [r3, #0]
 238:.\Generated_Source\PSoC5/PWM_UNFOLD_A.c ****     #endif /* (PWM_UNFOLD_A_UseControl || PWM_UNFOLD_A_UsingFixedFunction) */
 239:.\Generated_Source\PSoC5/PWM_UNFOLD_A.c ****     
 240:.\Generated_Source\PSoC5/PWM_UNFOLD_A.c ****     /* Globally disable the Fixed Function Block chosen */
 241:.\Generated_Source\PSoC5/PWM_UNFOLD_A.c ****     #if (PWM_UNFOLD_A_UsingFixedFunction)
 242:.\Generated_Source\PSoC5/PWM_UNFOLD_A.c ****         PWM_UNFOLD_A_GLOBAL_ENABLE &= ((uint8)(~PWM_UNFOLD_A_BLOCK_EN_MASK));
 243:.\Generated_Source\PSoC5/PWM_UNFOLD_A.c ****         PWM_UNFOLD_A_GLOBAL_STBY_ENABLE &= ((uint8)(~PWM_UNFOLD_A_BLOCK_STBY_EN_MASK));
 244:.\Generated_Source\PSoC5/PWM_UNFOLD_A.c ****     #endif /* (PWM_UNFOLD_A_UsingFixedFunction) */
 245:.\Generated_Source\PSoC5/PWM_UNFOLD_A.c **** }
 227              		.loc 1 245 0
 228 001e BD46     		mov	sp, r7
 229 0020 80BC     		pop	{r7}
 230 0022 7047     		bx	lr
 231              		.cfi_endproc
 232              	.LFE3:
 233              		.size	PWM_UNFOLD_A_Stop, .-PWM_UNFOLD_A_Stop
 234              		.section	.text.PWM_UNFOLD_A_WriteCounter,"ax",%progbits
 235              		.align	2
 236              		.global	PWM_UNFOLD_A_WriteCounter
 237              		.thumb
 238              		.thumb_func
 239              		.type	PWM_UNFOLD_A_WriteCounter, %function
 240              	PWM_UNFOLD_A_WriteCounter:
 241              	.LFB4:
 246:.\Generated_Source\PSoC5/PWM_UNFOLD_A.c **** 
 247:.\Generated_Source\PSoC5/PWM_UNFOLD_A.c **** 
 248:.\Generated_Source\PSoC5/PWM_UNFOLD_A.c **** #if (PWM_UNFOLD_A_UseOneCompareMode)
 249:.\Generated_Source\PSoC5/PWM_UNFOLD_A.c **** 	#if (PWM_UNFOLD_A_CompareMode1SW)
 250:.\Generated_Source\PSoC5/PWM_UNFOLD_A.c **** 
 251:.\Generated_Source\PSoC5/PWM_UNFOLD_A.c **** 
 252:.\Generated_Source\PSoC5/PWM_UNFOLD_A.c **** 		/*******************************************************************************
 253:.\Generated_Source\PSoC5/PWM_UNFOLD_A.c **** 		* Function Name: PWM_UNFOLD_A_SetCompareMode
 254:.\Generated_Source\PSoC5/PWM_UNFOLD_A.c **** 		********************************************************************************
 255:.\Generated_Source\PSoC5/PWM_UNFOLD_A.c **** 		* 
 256:.\Generated_Source\PSoC5/PWM_UNFOLD_A.c **** 		* Summary:
 257:.\Generated_Source\PSoC5/PWM_UNFOLD_A.c **** 		*  This function writes the Compare Mode for the pwm output when in Dither mode,
 258:.\Generated_Source\PSoC5/PWM_UNFOLD_A.c **** 		*  Center Align Mode or One Output Mode.
 259:.\Generated_Source\PSoC5/PWM_UNFOLD_A.c **** 		*
 260:.\Generated_Source\PSoC5/PWM_UNFOLD_A.c **** 		* Parameters:
 261:.\Generated_Source\PSoC5/PWM_UNFOLD_A.c **** 		*  comparemode:  The new compare mode for the PWM output. Use the compare types
 262:.\Generated_Source\PSoC5/PWM_UNFOLD_A.c **** 		*                defined in the H file as input arguments.
 263:.\Generated_Source\PSoC5/PWM_UNFOLD_A.c **** 		*
 264:.\Generated_Source\PSoC5/PWM_UNFOLD_A.c **** 		* Return:
 265:.\Generated_Source\PSoC5/PWM_UNFOLD_A.c **** 		*  None
 266:.\Generated_Source\PSoC5/PWM_UNFOLD_A.c **** 		*
 267:.\Generated_Source\PSoC5/PWM_UNFOLD_A.c **** 		*******************************************************************************/
 268:.\Generated_Source\PSoC5/PWM_UNFOLD_A.c **** 		void PWM_UNFOLD_A_SetCompareMode(uint8 comparemode) 
ARM GAS  C:\Users\hoangp\AppData\Local\Temp\ccLc4sfl.s 			page 10


 269:.\Generated_Source\PSoC5/PWM_UNFOLD_A.c **** 		{
 270:.\Generated_Source\PSoC5/PWM_UNFOLD_A.c **** 		    #if(PWM_UNFOLD_A_UsingFixedFunction)
 271:.\Generated_Source\PSoC5/PWM_UNFOLD_A.c ****             
 272:.\Generated_Source\PSoC5/PWM_UNFOLD_A.c ****                 #if(0 != PWM_UNFOLD_A_CTRL_CMPMODE1_SHIFT)
 273:.\Generated_Source\PSoC5/PWM_UNFOLD_A.c ****                     uint8 comparemodemasked = ((uint8)((uint8)comparemode << PWM_UNFOLD_A_CTRL_CMPM
 274:.\Generated_Source\PSoC5/PWM_UNFOLD_A.c ****                 #else
 275:.\Generated_Source\PSoC5/PWM_UNFOLD_A.c ****                     uint8 comparemodemasked = comparemode;
 276:.\Generated_Source\PSoC5/PWM_UNFOLD_A.c ****                 #endif /* (0 != PWM_UNFOLD_A_CTRL_CMPMODE1_SHIFT) */
 277:.\Generated_Source\PSoC5/PWM_UNFOLD_A.c ****             
 278:.\Generated_Source\PSoC5/PWM_UNFOLD_A.c **** 		        #if(CY_PSOC5A)
 279:.\Generated_Source\PSoC5/PWM_UNFOLD_A.c **** 		            PWM_UNFOLD_A_CONTROL2 &= ((uint8)(~PWM_UNFOLD_A_CTRL_CMPMODE1_MASK)); /*Clear Existin
 280:.\Generated_Source\PSoC5/PWM_UNFOLD_A.c **** 		            PWM_UNFOLD_A_CONTROL2 |= comparemodemasked;  
 281:.\Generated_Source\PSoC5/PWM_UNFOLD_A.c **** 		        #endif /* (CY_PSOC5A) */
 282:.\Generated_Source\PSoC5/PWM_UNFOLD_A.c **** 		                
 283:.\Generated_Source\PSoC5/PWM_UNFOLD_A.c **** 		        #if(CY_PSOC3 || CY_PSOC5LP)
 284:.\Generated_Source\PSoC5/PWM_UNFOLD_A.c **** 		            PWM_UNFOLD_A_CONTROL3 &= ((uint8)(~PWM_UNFOLD_A_CTRL_CMPMODE1_MASK)); /*Clear Existin
 285:.\Generated_Source\PSoC5/PWM_UNFOLD_A.c **** 		            PWM_UNFOLD_A_CONTROL3 |= comparemodemasked;     
 286:.\Generated_Source\PSoC5/PWM_UNFOLD_A.c **** 		        #endif /* (CY_PSOC3 || CY_PSOC5LP) */
 287:.\Generated_Source\PSoC5/PWM_UNFOLD_A.c **** 		                
 288:.\Generated_Source\PSoC5/PWM_UNFOLD_A.c **** 		    #elif (PWM_UNFOLD_A_UseControl)
 289:.\Generated_Source\PSoC5/PWM_UNFOLD_A.c **** 		        
 290:.\Generated_Source\PSoC5/PWM_UNFOLD_A.c ****                 #if(0 != PWM_UNFOLD_A_CTRL_CMPMODE1_SHIFT)
 291:.\Generated_Source\PSoC5/PWM_UNFOLD_A.c ****                     uint8 comparemode1masked = ((uint8)((uint8)comparemode << PWM_UNFOLD_A_CTRL_CMP
 292:.\Generated_Source\PSoC5/PWM_UNFOLD_A.c ****     		                                    PWM_UNFOLD_A_CTRL_CMPMODE1_MASK;
 293:.\Generated_Source\PSoC5/PWM_UNFOLD_A.c ****                 #else
 294:.\Generated_Source\PSoC5/PWM_UNFOLD_A.c ****                     uint8 comparemode1masked = comparemode & PWM_UNFOLD_A_CTRL_CMPMODE1_MASK;      
 295:.\Generated_Source\PSoC5/PWM_UNFOLD_A.c ****                 #endif /* (0 != PWM_UNFOLD_A_CTRL_CMPMODE1_SHIFT) */
 296:.\Generated_Source\PSoC5/PWM_UNFOLD_A.c ****                 
 297:.\Generated_Source\PSoC5/PWM_UNFOLD_A.c ****                 #if(0 != PWM_UNFOLD_A_CTRL_CMPMODE2_SHIFT)                            
 298:.\Generated_Source\PSoC5/PWM_UNFOLD_A.c ****     		        uint8 comparemode2masked = ((uint8)((uint8)comparemode << PWM_UNFOLD_A_CTRL_CMPMODE2_
 299:.\Generated_Source\PSoC5/PWM_UNFOLD_A.c ****     		                                   PWM_UNFOLD_A_CTRL_CMPMODE2_MASK;
 300:.\Generated_Source\PSoC5/PWM_UNFOLD_A.c ****                 #else
 301:.\Generated_Source\PSoC5/PWM_UNFOLD_A.c ****     		        uint8 comparemode2masked = comparemode & PWM_UNFOLD_A_CTRL_CMPMODE2_MASK;            
 302:.\Generated_Source\PSoC5/PWM_UNFOLD_A.c ****                 #endif /* (0 != PWM_UNFOLD_A_CTRL_CMPMODE2_SHIFT) */
 303:.\Generated_Source\PSoC5/PWM_UNFOLD_A.c ****                 
 304:.\Generated_Source\PSoC5/PWM_UNFOLD_A.c **** 		        /*Clear existing mode */
 305:.\Generated_Source\PSoC5/PWM_UNFOLD_A.c **** 		        PWM_UNFOLD_A_CONTROL &= ((uint8)(~(PWM_UNFOLD_A_CTRL_CMPMODE1_MASK | PWM_UNFOLD_A_CTRL_CM
 306:.\Generated_Source\PSoC5/PWM_UNFOLD_A.c **** 		        PWM_UNFOLD_A_CONTROL |= (comparemode1masked | comparemode2masked);
 307:.\Generated_Source\PSoC5/PWM_UNFOLD_A.c **** 		        
 308:.\Generated_Source\PSoC5/PWM_UNFOLD_A.c **** 		    #else
 309:.\Generated_Source\PSoC5/PWM_UNFOLD_A.c **** 		        uint8 temp = comparemode;
 310:.\Generated_Source\PSoC5/PWM_UNFOLD_A.c **** 		    #endif /* (PWM_UNFOLD_A_UsingFixedFunction) */
 311:.\Generated_Source\PSoC5/PWM_UNFOLD_A.c **** 		}
 312:.\Generated_Source\PSoC5/PWM_UNFOLD_A.c **** 	#endif /* PWM_UNFOLD_A_CompareMode1SW */
 313:.\Generated_Source\PSoC5/PWM_UNFOLD_A.c **** 
 314:.\Generated_Source\PSoC5/PWM_UNFOLD_A.c **** #else /* UseOneCompareMode */
 315:.\Generated_Source\PSoC5/PWM_UNFOLD_A.c **** 
 316:.\Generated_Source\PSoC5/PWM_UNFOLD_A.c **** 	#if (PWM_UNFOLD_A_CompareMode1SW)
 317:.\Generated_Source\PSoC5/PWM_UNFOLD_A.c **** 
 318:.\Generated_Source\PSoC5/PWM_UNFOLD_A.c **** 
 319:.\Generated_Source\PSoC5/PWM_UNFOLD_A.c **** 		/*******************************************************************************
 320:.\Generated_Source\PSoC5/PWM_UNFOLD_A.c **** 		* Function Name: PWM_UNFOLD_A_SetCompareMode1
 321:.\Generated_Source\PSoC5/PWM_UNFOLD_A.c **** 		********************************************************************************
 322:.\Generated_Source\PSoC5/PWM_UNFOLD_A.c **** 		* 
 323:.\Generated_Source\PSoC5/PWM_UNFOLD_A.c **** 		* Summary:
 324:.\Generated_Source\PSoC5/PWM_UNFOLD_A.c **** 		*  This function writes the Compare Mode for the pwm or pwm1 output
 325:.\Generated_Source\PSoC5/PWM_UNFOLD_A.c **** 		*
ARM GAS  C:\Users\hoangp\AppData\Local\Temp\ccLc4sfl.s 			page 11


 326:.\Generated_Source\PSoC5/PWM_UNFOLD_A.c **** 		* Parameters:  
 327:.\Generated_Source\PSoC5/PWM_UNFOLD_A.c **** 		*  comparemode:  The new compare mode for the PWM output. Use the compare types
 328:.\Generated_Source\PSoC5/PWM_UNFOLD_A.c **** 		*                defined in the H file as input arguments.
 329:.\Generated_Source\PSoC5/PWM_UNFOLD_A.c **** 		*
 330:.\Generated_Source\PSoC5/PWM_UNFOLD_A.c **** 		* Return: 
 331:.\Generated_Source\PSoC5/PWM_UNFOLD_A.c **** 		*  None
 332:.\Generated_Source\PSoC5/PWM_UNFOLD_A.c **** 		*
 333:.\Generated_Source\PSoC5/PWM_UNFOLD_A.c **** 		*******************************************************************************/
 334:.\Generated_Source\PSoC5/PWM_UNFOLD_A.c **** 		void PWM_UNFOLD_A_SetCompareMode1(uint8 comparemode) 
 335:.\Generated_Source\PSoC5/PWM_UNFOLD_A.c **** 		{
 336:.\Generated_Source\PSoC5/PWM_UNFOLD_A.c **** 		    #if(0 != PWM_UNFOLD_A_CTRL_CMPMODE1_SHIFT)
 337:.\Generated_Source\PSoC5/PWM_UNFOLD_A.c ****                 uint8 comparemodemasked = ((uint8)((uint8)comparemode << PWM_UNFOLD_A_CTRL_CMPMODE1
 338:.\Generated_Source\PSoC5/PWM_UNFOLD_A.c ****     		                               PWM_UNFOLD_A_CTRL_CMPMODE1_MASK;
 339:.\Generated_Source\PSoC5/PWM_UNFOLD_A.c **** 		    #else
 340:.\Generated_Source\PSoC5/PWM_UNFOLD_A.c ****                 uint8 comparemodemasked = comparemode & PWM_UNFOLD_A_CTRL_CMPMODE1_MASK;           
 341:.\Generated_Source\PSoC5/PWM_UNFOLD_A.c ****             #endif /* (0 != PWM_UNFOLD_A_CTRL_CMPMODE1_SHIFT) */
 342:.\Generated_Source\PSoC5/PWM_UNFOLD_A.c ****                    
 343:.\Generated_Source\PSoC5/PWM_UNFOLD_A.c **** 		    #if (PWM_UNFOLD_A_UseControl)
 344:.\Generated_Source\PSoC5/PWM_UNFOLD_A.c **** 		        PWM_UNFOLD_A_CONTROL &= ((uint8)(~PWM_UNFOLD_A_CTRL_CMPMODE1_MASK)); /*Clear existing mod
 345:.\Generated_Source\PSoC5/PWM_UNFOLD_A.c **** 		        PWM_UNFOLD_A_CONTROL |= comparemodemasked;
 346:.\Generated_Source\PSoC5/PWM_UNFOLD_A.c **** 		    #endif /* (PWM_UNFOLD_A_UseControl) */
 347:.\Generated_Source\PSoC5/PWM_UNFOLD_A.c **** 		}
 348:.\Generated_Source\PSoC5/PWM_UNFOLD_A.c **** 	#endif /* PWM_UNFOLD_A_CompareMode1SW */
 349:.\Generated_Source\PSoC5/PWM_UNFOLD_A.c **** 
 350:.\Generated_Source\PSoC5/PWM_UNFOLD_A.c **** #if (PWM_UNFOLD_A_CompareMode2SW)
 351:.\Generated_Source\PSoC5/PWM_UNFOLD_A.c **** 
 352:.\Generated_Source\PSoC5/PWM_UNFOLD_A.c **** 
 353:.\Generated_Source\PSoC5/PWM_UNFOLD_A.c ****     /*******************************************************************************
 354:.\Generated_Source\PSoC5/PWM_UNFOLD_A.c ****     * Function Name: PWM_UNFOLD_A_SetCompareMode2
 355:.\Generated_Source\PSoC5/PWM_UNFOLD_A.c ****     ********************************************************************************
 356:.\Generated_Source\PSoC5/PWM_UNFOLD_A.c ****     * 
 357:.\Generated_Source\PSoC5/PWM_UNFOLD_A.c ****     * Summary:
 358:.\Generated_Source\PSoC5/PWM_UNFOLD_A.c ****     *  This function writes the Compare Mode for the pwm or pwm2 output
 359:.\Generated_Source\PSoC5/PWM_UNFOLD_A.c ****     *
 360:.\Generated_Source\PSoC5/PWM_UNFOLD_A.c ****     * Parameters:  
 361:.\Generated_Source\PSoC5/PWM_UNFOLD_A.c ****     *  comparemode:  The new compare mode for the PWM output. Use the compare types
 362:.\Generated_Source\PSoC5/PWM_UNFOLD_A.c ****     *                defined in the H file as input arguments.
 363:.\Generated_Source\PSoC5/PWM_UNFOLD_A.c ****     *
 364:.\Generated_Source\PSoC5/PWM_UNFOLD_A.c ****     * Return: 
 365:.\Generated_Source\PSoC5/PWM_UNFOLD_A.c ****     *  None
 366:.\Generated_Source\PSoC5/PWM_UNFOLD_A.c ****     *
 367:.\Generated_Source\PSoC5/PWM_UNFOLD_A.c ****     *******************************************************************************/
 368:.\Generated_Source\PSoC5/PWM_UNFOLD_A.c ****     void PWM_UNFOLD_A_SetCompareMode2(uint8 comparemode) 
 369:.\Generated_Source\PSoC5/PWM_UNFOLD_A.c ****     {
 370:.\Generated_Source\PSoC5/PWM_UNFOLD_A.c **** 
 371:.\Generated_Source\PSoC5/PWM_UNFOLD_A.c ****         #if(0 != PWM_UNFOLD_A_CTRL_CMPMODE2_SHIFT)
 372:.\Generated_Source\PSoC5/PWM_UNFOLD_A.c ****             uint8 comparemodemasked = ((uint8)((uint8)comparemode << PWM_UNFOLD_A_CTRL_CMPMODE2_SHI
 373:.\Generated_Source\PSoC5/PWM_UNFOLD_A.c ****                                                  PWM_UNFOLD_A_CTRL_CMPMODE2_MASK;
 374:.\Generated_Source\PSoC5/PWM_UNFOLD_A.c ****         #else
 375:.\Generated_Source\PSoC5/PWM_UNFOLD_A.c ****             uint8 comparemodemasked = comparemode & PWM_UNFOLD_A_CTRL_CMPMODE2_MASK;            
 376:.\Generated_Source\PSoC5/PWM_UNFOLD_A.c ****         #endif /* (0 != PWM_UNFOLD_A_CTRL_CMPMODE2_SHIFT) */
 377:.\Generated_Source\PSoC5/PWM_UNFOLD_A.c ****         
 378:.\Generated_Source\PSoC5/PWM_UNFOLD_A.c ****         #if (PWM_UNFOLD_A_UseControl)
 379:.\Generated_Source\PSoC5/PWM_UNFOLD_A.c ****             PWM_UNFOLD_A_CONTROL &= ((uint8)(~PWM_UNFOLD_A_CTRL_CMPMODE2_MASK)); /*Clear existing m
 380:.\Generated_Source\PSoC5/PWM_UNFOLD_A.c ****             PWM_UNFOLD_A_CONTROL |= comparemodemasked;
 381:.\Generated_Source\PSoC5/PWM_UNFOLD_A.c ****         #endif /* (PWM_UNFOLD_A_UseControl) */
 382:.\Generated_Source\PSoC5/PWM_UNFOLD_A.c ****     }
ARM GAS  C:\Users\hoangp\AppData\Local\Temp\ccLc4sfl.s 			page 12


 383:.\Generated_Source\PSoC5/PWM_UNFOLD_A.c ****     #endif /*PWM_UNFOLD_A_CompareMode2SW */
 384:.\Generated_Source\PSoC5/PWM_UNFOLD_A.c **** 
 385:.\Generated_Source\PSoC5/PWM_UNFOLD_A.c **** #endif /* UseOneCompareMode */
 386:.\Generated_Source\PSoC5/PWM_UNFOLD_A.c **** 
 387:.\Generated_Source\PSoC5/PWM_UNFOLD_A.c **** 
 388:.\Generated_Source\PSoC5/PWM_UNFOLD_A.c **** #if (!PWM_UNFOLD_A_UsingFixedFunction)
 389:.\Generated_Source\PSoC5/PWM_UNFOLD_A.c **** 
 390:.\Generated_Source\PSoC5/PWM_UNFOLD_A.c **** 
 391:.\Generated_Source\PSoC5/PWM_UNFOLD_A.c ****     /*******************************************************************************
 392:.\Generated_Source\PSoC5/PWM_UNFOLD_A.c ****     * Function Name: PWM_UNFOLD_A_WriteCounter
 393:.\Generated_Source\PSoC5/PWM_UNFOLD_A.c ****     ********************************************************************************
 394:.\Generated_Source\PSoC5/PWM_UNFOLD_A.c ****     * 
 395:.\Generated_Source\PSoC5/PWM_UNFOLD_A.c ****     * Summary:
 396:.\Generated_Source\PSoC5/PWM_UNFOLD_A.c ****     *  This function is used to change the counter value.
 397:.\Generated_Source\PSoC5/PWM_UNFOLD_A.c ****     *
 398:.\Generated_Source\PSoC5/PWM_UNFOLD_A.c ****     * Parameters:  
 399:.\Generated_Source\PSoC5/PWM_UNFOLD_A.c ****     *  counter:  This value may be between 1 and (2^Resolution)-1.   
 400:.\Generated_Source\PSoC5/PWM_UNFOLD_A.c ****     *
 401:.\Generated_Source\PSoC5/PWM_UNFOLD_A.c ****     * Return: 
 402:.\Generated_Source\PSoC5/PWM_UNFOLD_A.c ****     *  None
 403:.\Generated_Source\PSoC5/PWM_UNFOLD_A.c ****     *
 404:.\Generated_Source\PSoC5/PWM_UNFOLD_A.c ****     *******************************************************************************/
 405:.\Generated_Source\PSoC5/PWM_UNFOLD_A.c ****     void PWM_UNFOLD_A_WriteCounter(uint8 counter) \
 406:.\Generated_Source\PSoC5/PWM_UNFOLD_A.c ****                                        
 407:.\Generated_Source\PSoC5/PWM_UNFOLD_A.c ****     {
 242              		.loc 1 407 0
 243              		.cfi_startproc
 244              		@ args = 0, pretend = 0, frame = 8
 245              		@ frame_needed = 1, uses_anonymous_args = 0
 246              		@ link register save eliminated.
 247 0000 80B4     		push	{r7}
 248              	.LCFI9:
 249              		.cfi_def_cfa_offset 4
 250 0002 83B0     		sub	sp, sp, #12
 251              	.LCFI10:
 252              		.cfi_def_cfa_offset 16
 253 0004 00AF     		add	r7, sp, #0
 254              		.cfi_offset 7, -4
 255              	.LCFI11:
 256              		.cfi_def_cfa_register 7
 257 0006 0346     		mov	r3, r0
 258 0008 FB71     		strb	r3, [r7, #7]
 408:.\Generated_Source\PSoC5/PWM_UNFOLD_A.c ****         CY_SET_REG8(PWM_UNFOLD_A_COUNTER_LSB_PTR, counter);
 259              		.loc 1 408 0
 260 000a 46F20953 		movw	r3, #:lower16:1073767689
 261 000e C4F20003 		movt	r3, #:upper16:1073767689
 262 0012 FA79     		ldrb	r2, [r7, #7]
 263 0014 1A70     		strb	r2, [r3, #0]
 409:.\Generated_Source\PSoC5/PWM_UNFOLD_A.c ****     }
 264              		.loc 1 409 0
 265 0016 07F10C07 		add	r7, r7, #12
 266 001a BD46     		mov	sp, r7
 267 001c 80BC     		pop	{r7}
 268 001e 7047     		bx	lr
 269              		.cfi_endproc
 270              	.LFE4:
 271              		.size	PWM_UNFOLD_A_WriteCounter, .-PWM_UNFOLD_A_WriteCounter
ARM GAS  C:\Users\hoangp\AppData\Local\Temp\ccLc4sfl.s 			page 13


 272              		.section	.text.PWM_UNFOLD_A_ReadCounter,"ax",%progbits
 273              		.align	2
 274              		.global	PWM_UNFOLD_A_ReadCounter
 275              		.thumb
 276              		.thumb_func
 277              		.type	PWM_UNFOLD_A_ReadCounter, %function
 278              	PWM_UNFOLD_A_ReadCounter:
 279              	.LFB5:
 410:.\Generated_Source\PSoC5/PWM_UNFOLD_A.c **** 
 411:.\Generated_Source\PSoC5/PWM_UNFOLD_A.c **** 
 412:.\Generated_Source\PSoC5/PWM_UNFOLD_A.c ****     /*******************************************************************************
 413:.\Generated_Source\PSoC5/PWM_UNFOLD_A.c ****     * Function Name: PWM_UNFOLD_A_ReadCounter
 414:.\Generated_Source\PSoC5/PWM_UNFOLD_A.c ****     ********************************************************************************
 415:.\Generated_Source\PSoC5/PWM_UNFOLD_A.c ****     * 
 416:.\Generated_Source\PSoC5/PWM_UNFOLD_A.c ****     * Summary:
 417:.\Generated_Source\PSoC5/PWM_UNFOLD_A.c ****     *  This function returns the current value of the counter.  It doesn't matter
 418:.\Generated_Source\PSoC5/PWM_UNFOLD_A.c ****     *  if the counter is enabled or running.
 419:.\Generated_Source\PSoC5/PWM_UNFOLD_A.c ****     *
 420:.\Generated_Source\PSoC5/PWM_UNFOLD_A.c ****     * Parameters:  
 421:.\Generated_Source\PSoC5/PWM_UNFOLD_A.c ****     *  None  
 422:.\Generated_Source\PSoC5/PWM_UNFOLD_A.c ****     *
 423:.\Generated_Source\PSoC5/PWM_UNFOLD_A.c ****     * Return: 
 424:.\Generated_Source\PSoC5/PWM_UNFOLD_A.c ****     *  The current value of the counter.
 425:.\Generated_Source\PSoC5/PWM_UNFOLD_A.c ****     *
 426:.\Generated_Source\PSoC5/PWM_UNFOLD_A.c ****     *******************************************************************************/
 427:.\Generated_Source\PSoC5/PWM_UNFOLD_A.c ****     uint8 PWM_UNFOLD_A_ReadCounter(void) 
 428:.\Generated_Source\PSoC5/PWM_UNFOLD_A.c ****     {
 280              		.loc 1 428 0
 281              		.cfi_startproc
 282              		@ args = 0, pretend = 0, frame = 0
 283              		@ frame_needed = 1, uses_anonymous_args = 0
 284              		@ link register save eliminated.
 285 0000 80B4     		push	{r7}
 286              	.LCFI12:
 287              		.cfi_def_cfa_offset 4
 288 0002 00AF     		add	r7, sp, #0
 289              		.cfi_offset 7, -4
 290              	.LCFI13:
 291              		.cfi_def_cfa_register 7
 429:.\Generated_Source\PSoC5/PWM_UNFOLD_A.c ****         /* Force capture by reading Accumulator */
 430:.\Generated_Source\PSoC5/PWM_UNFOLD_A.c ****         /* Must first do a software capture to be able to read the counter */
 431:.\Generated_Source\PSoC5/PWM_UNFOLD_A.c ****         /* It is up to the user code to make sure there isn't already captured data in the FIFO */
 432:.\Generated_Source\PSoC5/PWM_UNFOLD_A.c ****         (void)PWM_UNFOLD_A_COUNTERCAP_LSB;
 292              		.loc 1 432 0
 293 0004 46F21953 		movw	r3, #:lower16:1073767705
 294 0008 C4F20003 		movt	r3, #:upper16:1073767705
 295 000c 1B78     		ldrb	r3, [r3, #0]
 433:.\Generated_Source\PSoC5/PWM_UNFOLD_A.c ****         
 434:.\Generated_Source\PSoC5/PWM_UNFOLD_A.c ****         /* Read the data from the FIFO (or capture register for Fixed Function)*/
 435:.\Generated_Source\PSoC5/PWM_UNFOLD_A.c ****         return (CY_GET_REG8(PWM_UNFOLD_A_CAPTURE_LSB_PTR));
 296              		.loc 1 435 0
 297 000e 46F25953 		movw	r3, #:lower16:1073767769
 298 0012 C4F20003 		movt	r3, #:upper16:1073767769
 299 0016 1B78     		ldrb	r3, [r3, #0]
 300 0018 DBB2     		uxtb	r3, r3
 436:.\Generated_Source\PSoC5/PWM_UNFOLD_A.c ****     }
 301              		.loc 1 436 0
ARM GAS  C:\Users\hoangp\AppData\Local\Temp\ccLc4sfl.s 			page 14


 302 001a 1846     		mov	r0, r3
 303 001c BD46     		mov	sp, r7
 304 001e 80BC     		pop	{r7}
 305 0020 7047     		bx	lr
 306              		.cfi_endproc
 307              	.LFE5:
 308              		.size	PWM_UNFOLD_A_ReadCounter, .-PWM_UNFOLD_A_ReadCounter
 309 0022 00BF     		.section	.text.PWM_UNFOLD_A_ClearFIFO,"ax",%progbits
 310              		.align	2
 311              		.global	PWM_UNFOLD_A_ClearFIFO
 312              		.thumb
 313              		.thumb_func
 314              		.type	PWM_UNFOLD_A_ClearFIFO, %function
 315              	PWM_UNFOLD_A_ClearFIFO:
 316              	.LFB6:
 437:.\Generated_Source\PSoC5/PWM_UNFOLD_A.c **** 
 438:.\Generated_Source\PSoC5/PWM_UNFOLD_A.c ****         #if (PWM_UNFOLD_A_UseStatus)
 439:.\Generated_Source\PSoC5/PWM_UNFOLD_A.c **** 
 440:.\Generated_Source\PSoC5/PWM_UNFOLD_A.c **** 
 441:.\Generated_Source\PSoC5/PWM_UNFOLD_A.c ****             /*******************************************************************************
 442:.\Generated_Source\PSoC5/PWM_UNFOLD_A.c ****             * Function Name: PWM_UNFOLD_A_ClearFIFO
 443:.\Generated_Source\PSoC5/PWM_UNFOLD_A.c ****             ********************************************************************************
 444:.\Generated_Source\PSoC5/PWM_UNFOLD_A.c ****             * 
 445:.\Generated_Source\PSoC5/PWM_UNFOLD_A.c ****             * Summary:
 446:.\Generated_Source\PSoC5/PWM_UNFOLD_A.c ****             *  This function clears all capture data from the capture FIFO
 447:.\Generated_Source\PSoC5/PWM_UNFOLD_A.c ****             *
 448:.\Generated_Source\PSoC5/PWM_UNFOLD_A.c ****             * Parameters:  
 449:.\Generated_Source\PSoC5/PWM_UNFOLD_A.c ****             *  None
 450:.\Generated_Source\PSoC5/PWM_UNFOLD_A.c ****             *
 451:.\Generated_Source\PSoC5/PWM_UNFOLD_A.c ****             * Return: 
 452:.\Generated_Source\PSoC5/PWM_UNFOLD_A.c ****             *  None
 453:.\Generated_Source\PSoC5/PWM_UNFOLD_A.c ****             *
 454:.\Generated_Source\PSoC5/PWM_UNFOLD_A.c ****             *******************************************************************************/
 455:.\Generated_Source\PSoC5/PWM_UNFOLD_A.c ****             void PWM_UNFOLD_A_ClearFIFO(void) 
 456:.\Generated_Source\PSoC5/PWM_UNFOLD_A.c ****             {
 317              		.loc 1 456 0
 318              		.cfi_startproc
 319              		@ args = 0, pretend = 0, frame = 0
 320              		@ frame_needed = 1, uses_anonymous_args = 0
 321 0000 80B5     		push	{r7, lr}
 322              	.LCFI14:
 323              		.cfi_def_cfa_offset 8
 324 0002 00AF     		add	r7, sp, #0
 325              		.cfi_offset 14, -4
 326              		.cfi_offset 7, -8
 327              	.LCFI15:
 328              		.cfi_def_cfa_register 7
 457:.\Generated_Source\PSoC5/PWM_UNFOLD_A.c ****                 while(0u != (PWM_UNFOLD_A_ReadStatusRegister() & PWM_UNFOLD_A_STATUS_FIFONEMPTY))
 329              		.loc 1 457 0
 330 0004 01E0     		b	.L15
 331              	.L16:
 458:.\Generated_Source\PSoC5/PWM_UNFOLD_A.c ****                 {
 459:.\Generated_Source\PSoC5/PWM_UNFOLD_A.c ****                     (void)PWM_UNFOLD_A_ReadCapture();
 332              		.loc 1 459 0
 333 0006 FFF7FEFF 		bl	PWM_UNFOLD_A_ReadCapture
 334              	.L15:
 335              		.loc 1 457 0
ARM GAS  C:\Users\hoangp\AppData\Local\Temp\ccLc4sfl.s 			page 15


 336 000a FFF7FEFF 		bl	PWM_UNFOLD_A_ReadStatusRegister
 337 000e 0346     		mov	r3, r0
 338 0010 03F01003 		and	r3, r3, #16
 339 0014 002B     		cmp	r3, #0
 340 0016 F6D1     		bne	.L16
 460:.\Generated_Source\PSoC5/PWM_UNFOLD_A.c ****                 }
 461:.\Generated_Source\PSoC5/PWM_UNFOLD_A.c ****             }
 341              		.loc 1 461 0
 342 0018 80BD     		pop	{r7, pc}
 343              		.cfi_endproc
 344              	.LFE6:
 345              		.size	PWM_UNFOLD_A_ClearFIFO, .-PWM_UNFOLD_A_ClearFIFO
 346 001a 00BF     		.section	.text.PWM_UNFOLD_A_WritePeriod,"ax",%progbits
 347              		.align	2
 348              		.global	PWM_UNFOLD_A_WritePeriod
 349              		.thumb
 350              		.thumb_func
 351              		.type	PWM_UNFOLD_A_WritePeriod, %function
 352              	PWM_UNFOLD_A_WritePeriod:
 353              	.LFB7:
 462:.\Generated_Source\PSoC5/PWM_UNFOLD_A.c **** 
 463:.\Generated_Source\PSoC5/PWM_UNFOLD_A.c ****         #endif /* PWM_UNFOLD_A_UseStatus */
 464:.\Generated_Source\PSoC5/PWM_UNFOLD_A.c **** 
 465:.\Generated_Source\PSoC5/PWM_UNFOLD_A.c **** #endif /* !PWM_UNFOLD_A_UsingFixedFunction */
 466:.\Generated_Source\PSoC5/PWM_UNFOLD_A.c **** 
 467:.\Generated_Source\PSoC5/PWM_UNFOLD_A.c **** 
 468:.\Generated_Source\PSoC5/PWM_UNFOLD_A.c **** /*******************************************************************************
 469:.\Generated_Source\PSoC5/PWM_UNFOLD_A.c **** * Function Name: PWM_UNFOLD_A_WritePeriod
 470:.\Generated_Source\PSoC5/PWM_UNFOLD_A.c **** ********************************************************************************
 471:.\Generated_Source\PSoC5/PWM_UNFOLD_A.c **** * 
 472:.\Generated_Source\PSoC5/PWM_UNFOLD_A.c **** * Summary:
 473:.\Generated_Source\PSoC5/PWM_UNFOLD_A.c **** *  This function is used to change the period of the counter.  The new period 
 474:.\Generated_Source\PSoC5/PWM_UNFOLD_A.c **** *  will be loaded the next time terminal count is detected.
 475:.\Generated_Source\PSoC5/PWM_UNFOLD_A.c **** *
 476:.\Generated_Source\PSoC5/PWM_UNFOLD_A.c **** * Parameters:  
 477:.\Generated_Source\PSoC5/PWM_UNFOLD_A.c **** *  period:  Period value. May be between 1 and (2^Resolution)-1.  A value of 0 
 478:.\Generated_Source\PSoC5/PWM_UNFOLD_A.c **** *           will result in the counter remaining at zero.
 479:.\Generated_Source\PSoC5/PWM_UNFOLD_A.c **** *
 480:.\Generated_Source\PSoC5/PWM_UNFOLD_A.c **** * Return: 
 481:.\Generated_Source\PSoC5/PWM_UNFOLD_A.c **** *  None
 482:.\Generated_Source\PSoC5/PWM_UNFOLD_A.c **** *
 483:.\Generated_Source\PSoC5/PWM_UNFOLD_A.c **** *******************************************************************************/
 484:.\Generated_Source\PSoC5/PWM_UNFOLD_A.c **** void PWM_UNFOLD_A_WritePeriod(uint8 period) 
 485:.\Generated_Source\PSoC5/PWM_UNFOLD_A.c **** {
 354              		.loc 1 485 0
 355              		.cfi_startproc
 356              		@ args = 0, pretend = 0, frame = 8
 357              		@ frame_needed = 1, uses_anonymous_args = 0
 358              		@ link register save eliminated.
 359 0000 80B4     		push	{r7}
 360              	.LCFI16:
 361              		.cfi_def_cfa_offset 4
 362 0002 83B0     		sub	sp, sp, #12
 363              	.LCFI17:
 364              		.cfi_def_cfa_offset 16
 365 0004 00AF     		add	r7, sp, #0
 366              		.cfi_offset 7, -4
ARM GAS  C:\Users\hoangp\AppData\Local\Temp\ccLc4sfl.s 			page 16


 367              	.LCFI18:
 368              		.cfi_def_cfa_register 7
 369 0006 0346     		mov	r3, r0
 370 0008 FB71     		strb	r3, [r7, #7]
 486:.\Generated_Source\PSoC5/PWM_UNFOLD_A.c ****     #if(PWM_UNFOLD_A_UsingFixedFunction)
 487:.\Generated_Source\PSoC5/PWM_UNFOLD_A.c ****         CY_SET_REG16(PWM_UNFOLD_A_PERIOD_LSB_PTR, (uint16)period);
 488:.\Generated_Source\PSoC5/PWM_UNFOLD_A.c ****     #else
 489:.\Generated_Source\PSoC5/PWM_UNFOLD_A.c ****         CY_SET_REG8(PWM_UNFOLD_A_PERIOD_LSB_PTR, period);
 371              		.loc 1 489 0
 372 000a 46F24953 		movw	r3, #:lower16:1073767753
 373 000e C4F20003 		movt	r3, #:upper16:1073767753
 374 0012 FA79     		ldrb	r2, [r7, #7]
 375 0014 1A70     		strb	r2, [r3, #0]
 490:.\Generated_Source\PSoC5/PWM_UNFOLD_A.c ****     #endif /* (PWM_UNFOLD_A_UsingFixedFunction) */
 491:.\Generated_Source\PSoC5/PWM_UNFOLD_A.c **** }
 376              		.loc 1 491 0
 377 0016 07F10C07 		add	r7, r7, #12
 378 001a BD46     		mov	sp, r7
 379 001c 80BC     		pop	{r7}
 380 001e 7047     		bx	lr
 381              		.cfi_endproc
 382              	.LFE7:
 383              		.size	PWM_UNFOLD_A_WritePeriod, .-PWM_UNFOLD_A_WritePeriod
 384              		.section	.text.PWM_UNFOLD_A_WriteCompare,"ax",%progbits
 385              		.align	2
 386              		.global	PWM_UNFOLD_A_WriteCompare
 387              		.thumb
 388              		.thumb_func
 389              		.type	PWM_UNFOLD_A_WriteCompare, %function
 390              	PWM_UNFOLD_A_WriteCompare:
 391              	.LFB8:
 492:.\Generated_Source\PSoC5/PWM_UNFOLD_A.c **** 
 493:.\Generated_Source\PSoC5/PWM_UNFOLD_A.c **** #if (PWM_UNFOLD_A_UseOneCompareMode)
 494:.\Generated_Source\PSoC5/PWM_UNFOLD_A.c **** 
 495:.\Generated_Source\PSoC5/PWM_UNFOLD_A.c **** 
 496:.\Generated_Source\PSoC5/PWM_UNFOLD_A.c ****     /*******************************************************************************
 497:.\Generated_Source\PSoC5/PWM_UNFOLD_A.c ****     * Function Name: PWM_UNFOLD_A_WriteCompare
 498:.\Generated_Source\PSoC5/PWM_UNFOLD_A.c ****     ********************************************************************************
 499:.\Generated_Source\PSoC5/PWM_UNFOLD_A.c ****     * 
 500:.\Generated_Source\PSoC5/PWM_UNFOLD_A.c ****     * Summary:
 501:.\Generated_Source\PSoC5/PWM_UNFOLD_A.c ****     *  This funtion is used to change the compare1 value when the PWM is in Dither
 502:.\Generated_Source\PSoC5/PWM_UNFOLD_A.c ****     *  mode. The compare output will reflect the new value on the next UDB clock. 
 503:.\Generated_Source\PSoC5/PWM_UNFOLD_A.c ****     *  The compare output will be driven high when the present counter value is 
 504:.\Generated_Source\PSoC5/PWM_UNFOLD_A.c ****     *  compared to the compare value based on the compare mode defined in 
 505:.\Generated_Source\PSoC5/PWM_UNFOLD_A.c ****     *  Dither Mode.
 506:.\Generated_Source\PSoC5/PWM_UNFOLD_A.c ****     *
 507:.\Generated_Source\PSoC5/PWM_UNFOLD_A.c ****     * Parameters:  
 508:.\Generated_Source\PSoC5/PWM_UNFOLD_A.c ****     *  compare:  New compare value.  
 509:.\Generated_Source\PSoC5/PWM_UNFOLD_A.c ****     *
 510:.\Generated_Source\PSoC5/PWM_UNFOLD_A.c ****     * Return: 
 511:.\Generated_Source\PSoC5/PWM_UNFOLD_A.c ****     *  None
 512:.\Generated_Source\PSoC5/PWM_UNFOLD_A.c ****     *
 513:.\Generated_Source\PSoC5/PWM_UNFOLD_A.c ****     * Side Effects:
 514:.\Generated_Source\PSoC5/PWM_UNFOLD_A.c ****     *  This function is only available if the PWM mode parameter is set to
 515:.\Generated_Source\PSoC5/PWM_UNFOLD_A.c ****     *  Dither Mode, Center Aligned Mode or One Output Mode
 516:.\Generated_Source\PSoC5/PWM_UNFOLD_A.c ****     *
 517:.\Generated_Source\PSoC5/PWM_UNFOLD_A.c ****     *******************************************************************************/
ARM GAS  C:\Users\hoangp\AppData\Local\Temp\ccLc4sfl.s 			page 17


 518:.\Generated_Source\PSoC5/PWM_UNFOLD_A.c ****     void PWM_UNFOLD_A_WriteCompare(uint8 compare) \
 519:.\Generated_Source\PSoC5/PWM_UNFOLD_A.c ****                                        
 520:.\Generated_Source\PSoC5/PWM_UNFOLD_A.c ****     {	
 392              		.loc 1 520 0
 393              		.cfi_startproc
 394              		@ args = 0, pretend = 0, frame = 8
 395              		@ frame_needed = 1, uses_anonymous_args = 0
 396              		@ link register save eliminated.
 397 0000 80B4     		push	{r7}
 398              	.LCFI19:
 399              		.cfi_def_cfa_offset 4
 400 0002 83B0     		sub	sp, sp, #12
 401              	.LCFI20:
 402              		.cfi_def_cfa_offset 16
 403 0004 00AF     		add	r7, sp, #0
 404              		.cfi_offset 7, -4
 405              	.LCFI21:
 406              		.cfi_def_cfa_register 7
 407 0006 0346     		mov	r3, r0
 408 0008 FB71     		strb	r3, [r7, #7]
 521:.\Generated_Source\PSoC5/PWM_UNFOLD_A.c **** 		#if(PWM_UNFOLD_A_UsingFixedFunction)
 522:.\Generated_Source\PSoC5/PWM_UNFOLD_A.c **** 			CY_SET_REG16(PWM_UNFOLD_A_COMPARE1_LSB_PTR, (uint16)compare);
 523:.\Generated_Source\PSoC5/PWM_UNFOLD_A.c **** 		#else
 524:.\Generated_Source\PSoC5/PWM_UNFOLD_A.c **** 	        CY_SET_REG8(PWM_UNFOLD_A_COMPARE1_LSB_PTR, compare);	
 409              		.loc 1 524 0
 410 000a 46F22953 		movw	r3, #:lower16:1073767721
 411 000e C4F20003 		movt	r3, #:upper16:1073767721
 412 0012 FA79     		ldrb	r2, [r7, #7]
 413 0014 1A70     		strb	r2, [r3, #0]
 525:.\Generated_Source\PSoC5/PWM_UNFOLD_A.c **** 		#endif /* (PWM_UNFOLD_A_UsingFixedFunction) */
 526:.\Generated_Source\PSoC5/PWM_UNFOLD_A.c ****         
 527:.\Generated_Source\PSoC5/PWM_UNFOLD_A.c ****         #if (PWM_UNFOLD_A_PWMMode == PWM_UNFOLD_A__B_PWM__DITHER)
 528:.\Generated_Source\PSoC5/PWM_UNFOLD_A.c ****             #if(PWM_UNFOLD_A_UsingFixedFunction)
 529:.\Generated_Source\PSoC5/PWM_UNFOLD_A.c ****     			CY_SET_REG16(PWM_UNFOLD_A_COMPARE2_LSB_PTR, (uint16)(compare + 1u));
 530:.\Generated_Source\PSoC5/PWM_UNFOLD_A.c ****     		#else
 531:.\Generated_Source\PSoC5/PWM_UNFOLD_A.c ****     	        CY_SET_REG8(PWM_UNFOLD_A_COMPARE2_LSB_PTR, (compare + 1u));	
 532:.\Generated_Source\PSoC5/PWM_UNFOLD_A.c ****     		#endif /* (PWM_UNFOLD_A_UsingFixedFunction) */
 533:.\Generated_Source\PSoC5/PWM_UNFOLD_A.c ****         #endif /* (PWM_UNFOLD_A_PWMMode == PWM_UNFOLD_A__B_PWM__DITHER) */
 534:.\Generated_Source\PSoC5/PWM_UNFOLD_A.c ****     }
 414              		.loc 1 534 0
 415 0016 07F10C07 		add	r7, r7, #12
 416 001a BD46     		mov	sp, r7
 417 001c 80BC     		pop	{r7}
 418 001e 7047     		bx	lr
 419              		.cfi_endproc
 420              	.LFE8:
 421              		.size	PWM_UNFOLD_A_WriteCompare, .-PWM_UNFOLD_A_WriteCompare
 422              		.section	.text.PWM_UNFOLD_A_WriteDeadTime,"ax",%progbits
 423              		.align	2
 424              		.global	PWM_UNFOLD_A_WriteDeadTime
 425              		.thumb
 426              		.thumb_func
 427              		.type	PWM_UNFOLD_A_WriteDeadTime, %function
 428              	PWM_UNFOLD_A_WriteDeadTime:
 429              	.LFB9:
 535:.\Generated_Source\PSoC5/PWM_UNFOLD_A.c **** 
 536:.\Generated_Source\PSoC5/PWM_UNFOLD_A.c **** 
ARM GAS  C:\Users\hoangp\AppData\Local\Temp\ccLc4sfl.s 			page 18


 537:.\Generated_Source\PSoC5/PWM_UNFOLD_A.c **** #else
 538:.\Generated_Source\PSoC5/PWM_UNFOLD_A.c **** 
 539:.\Generated_Source\PSoC5/PWM_UNFOLD_A.c **** 
 540:.\Generated_Source\PSoC5/PWM_UNFOLD_A.c ****     /*******************************************************************************
 541:.\Generated_Source\PSoC5/PWM_UNFOLD_A.c ****     * Function Name: PWM_UNFOLD_A_WriteCompare1
 542:.\Generated_Source\PSoC5/PWM_UNFOLD_A.c ****     ********************************************************************************
 543:.\Generated_Source\PSoC5/PWM_UNFOLD_A.c ****     * 
 544:.\Generated_Source\PSoC5/PWM_UNFOLD_A.c ****     * Summary:
 545:.\Generated_Source\PSoC5/PWM_UNFOLD_A.c ****     *  This funtion is used to change the compare1 value.  The compare output will 
 546:.\Generated_Source\PSoC5/PWM_UNFOLD_A.c ****     *  reflect the new value on the next UDB clock.  The compare output will be 
 547:.\Generated_Source\PSoC5/PWM_UNFOLD_A.c ****     *  driven high when the present counter value is less than or less than or 
 548:.\Generated_Source\PSoC5/PWM_UNFOLD_A.c ****     *  equal to the compare register, depending on the mode.
 549:.\Generated_Source\PSoC5/PWM_UNFOLD_A.c ****     *
 550:.\Generated_Source\PSoC5/PWM_UNFOLD_A.c ****     * Parameters:  
 551:.\Generated_Source\PSoC5/PWM_UNFOLD_A.c ****     *  compare:  New compare value.  
 552:.\Generated_Source\PSoC5/PWM_UNFOLD_A.c ****     *
 553:.\Generated_Source\PSoC5/PWM_UNFOLD_A.c ****     * Return: 
 554:.\Generated_Source\PSoC5/PWM_UNFOLD_A.c ****     *  None
 555:.\Generated_Source\PSoC5/PWM_UNFOLD_A.c ****     *
 556:.\Generated_Source\PSoC5/PWM_UNFOLD_A.c ****     *******************************************************************************/
 557:.\Generated_Source\PSoC5/PWM_UNFOLD_A.c ****     void PWM_UNFOLD_A_WriteCompare1(uint8 compare) \
 558:.\Generated_Source\PSoC5/PWM_UNFOLD_A.c ****                                         
 559:.\Generated_Source\PSoC5/PWM_UNFOLD_A.c ****     {
 560:.\Generated_Source\PSoC5/PWM_UNFOLD_A.c ****         #if(PWM_UNFOLD_A_UsingFixedFunction)
 561:.\Generated_Source\PSoC5/PWM_UNFOLD_A.c ****             CY_SET_REG16(PWM_UNFOLD_A_COMPARE1_LSB_PTR, (uint16)compare);
 562:.\Generated_Source\PSoC5/PWM_UNFOLD_A.c ****         #else
 563:.\Generated_Source\PSoC5/PWM_UNFOLD_A.c ****             CY_SET_REG8(PWM_UNFOLD_A_COMPARE1_LSB_PTR, compare);
 564:.\Generated_Source\PSoC5/PWM_UNFOLD_A.c ****         #endif /* (PWM_UNFOLD_A_UsingFixedFunction) */
 565:.\Generated_Source\PSoC5/PWM_UNFOLD_A.c ****     }
 566:.\Generated_Source\PSoC5/PWM_UNFOLD_A.c **** 
 567:.\Generated_Source\PSoC5/PWM_UNFOLD_A.c **** 
 568:.\Generated_Source\PSoC5/PWM_UNFOLD_A.c ****     /*******************************************************************************
 569:.\Generated_Source\PSoC5/PWM_UNFOLD_A.c ****     * Function Name: PWM_UNFOLD_A_WriteCompare2
 570:.\Generated_Source\PSoC5/PWM_UNFOLD_A.c ****     ********************************************************************************
 571:.\Generated_Source\PSoC5/PWM_UNFOLD_A.c ****     * 
 572:.\Generated_Source\PSoC5/PWM_UNFOLD_A.c ****     * Summary:
 573:.\Generated_Source\PSoC5/PWM_UNFOLD_A.c ****     *  This funtion is used to change the compare value, for compare1 output.  
 574:.\Generated_Source\PSoC5/PWM_UNFOLD_A.c ****     *  The compare output will reflect the new value on the next UDB clock.  
 575:.\Generated_Source\PSoC5/PWM_UNFOLD_A.c ****     *  The compare output will be driven high when the present counter value is 
 576:.\Generated_Source\PSoC5/PWM_UNFOLD_A.c ****     *  less than or less than or equal to the compare register, depending on the 
 577:.\Generated_Source\PSoC5/PWM_UNFOLD_A.c ****     *  mode.
 578:.\Generated_Source\PSoC5/PWM_UNFOLD_A.c ****     *
 579:.\Generated_Source\PSoC5/PWM_UNFOLD_A.c ****     * Parameters:  
 580:.\Generated_Source\PSoC5/PWM_UNFOLD_A.c ****     *  compare:  New compare value.  
 581:.\Generated_Source\PSoC5/PWM_UNFOLD_A.c ****     *
 582:.\Generated_Source\PSoC5/PWM_UNFOLD_A.c ****     * Return: 
 583:.\Generated_Source\PSoC5/PWM_UNFOLD_A.c ****     *  None
 584:.\Generated_Source\PSoC5/PWM_UNFOLD_A.c ****     *
 585:.\Generated_Source\PSoC5/PWM_UNFOLD_A.c ****     *******************************************************************************/
 586:.\Generated_Source\PSoC5/PWM_UNFOLD_A.c ****     void PWM_UNFOLD_A_WriteCompare2(uint8 compare) \
 587:.\Generated_Source\PSoC5/PWM_UNFOLD_A.c ****                                         
 588:.\Generated_Source\PSoC5/PWM_UNFOLD_A.c ****     {
 589:.\Generated_Source\PSoC5/PWM_UNFOLD_A.c ****         #if(PWM_UNFOLD_A_UsingFixedFunction)
 590:.\Generated_Source\PSoC5/PWM_UNFOLD_A.c ****             CY_SET_REG16(PWM_UNFOLD_A_COMPARE2_LSB_PTR, compare);
 591:.\Generated_Source\PSoC5/PWM_UNFOLD_A.c ****         #else
 592:.\Generated_Source\PSoC5/PWM_UNFOLD_A.c ****             CY_SET_REG8(PWM_UNFOLD_A_COMPARE2_LSB_PTR, compare);
 593:.\Generated_Source\PSoC5/PWM_UNFOLD_A.c ****         #endif /* (PWM_UNFOLD_A_UsingFixedFunction) */
ARM GAS  C:\Users\hoangp\AppData\Local\Temp\ccLc4sfl.s 			page 19


 594:.\Generated_Source\PSoC5/PWM_UNFOLD_A.c ****     }
 595:.\Generated_Source\PSoC5/PWM_UNFOLD_A.c **** #endif /* UseOneCompareMode */
 596:.\Generated_Source\PSoC5/PWM_UNFOLD_A.c **** 
 597:.\Generated_Source\PSoC5/PWM_UNFOLD_A.c **** #if (PWM_UNFOLD_A_DeadBandUsed)
 598:.\Generated_Source\PSoC5/PWM_UNFOLD_A.c **** 
 599:.\Generated_Source\PSoC5/PWM_UNFOLD_A.c **** 
 600:.\Generated_Source\PSoC5/PWM_UNFOLD_A.c ****     /*******************************************************************************
 601:.\Generated_Source\PSoC5/PWM_UNFOLD_A.c ****     * Function Name: PWM_UNFOLD_A_WriteDeadTime
 602:.\Generated_Source\PSoC5/PWM_UNFOLD_A.c ****     ********************************************************************************
 603:.\Generated_Source\PSoC5/PWM_UNFOLD_A.c ****     * 
 604:.\Generated_Source\PSoC5/PWM_UNFOLD_A.c ****     * Summary:
 605:.\Generated_Source\PSoC5/PWM_UNFOLD_A.c ****     *  This function writes the dead-band counts to the corresponding register
 606:.\Generated_Source\PSoC5/PWM_UNFOLD_A.c ****     *
 607:.\Generated_Source\PSoC5/PWM_UNFOLD_A.c ****     * Parameters:  
 608:.\Generated_Source\PSoC5/PWM_UNFOLD_A.c ****     *  deadtime:  Number of counts for dead time 
 609:.\Generated_Source\PSoC5/PWM_UNFOLD_A.c ****     *
 610:.\Generated_Source\PSoC5/PWM_UNFOLD_A.c ****     * Return: 
 611:.\Generated_Source\PSoC5/PWM_UNFOLD_A.c ****     *  None
 612:.\Generated_Source\PSoC5/PWM_UNFOLD_A.c ****     *
 613:.\Generated_Source\PSoC5/PWM_UNFOLD_A.c ****     *******************************************************************************/
 614:.\Generated_Source\PSoC5/PWM_UNFOLD_A.c ****     void PWM_UNFOLD_A_WriteDeadTime(uint8 deadtime) 
 615:.\Generated_Source\PSoC5/PWM_UNFOLD_A.c ****     {
 430              		.loc 1 615 0
 431              		.cfi_startproc
 432              		@ args = 0, pretend = 0, frame = 8
 433              		@ frame_needed = 1, uses_anonymous_args = 0
 434              		@ link register save eliminated.
 435 0000 80B4     		push	{r7}
 436              	.LCFI22:
 437              		.cfi_def_cfa_offset 4
 438 0002 83B0     		sub	sp, sp, #12
 439              	.LCFI23:
 440              		.cfi_def_cfa_offset 16
 441 0004 00AF     		add	r7, sp, #0
 442              		.cfi_offset 7, -4
 443              	.LCFI24:
 444              		.cfi_def_cfa_register 7
 445 0006 0346     		mov	r3, r0
 446 0008 FB71     		strb	r3, [r7, #7]
 616:.\Generated_Source\PSoC5/PWM_UNFOLD_A.c ****         /* If using the Dead Band 1-255 mode then just write the register */
 617:.\Generated_Source\PSoC5/PWM_UNFOLD_A.c ****         #if(!PWM_UNFOLD_A_DeadBand2_4)
 618:.\Generated_Source\PSoC5/PWM_UNFOLD_A.c ****             CY_SET_REG8(PWM_UNFOLD_A_DEADBAND_COUNT_PTR, deadtime);
 619:.\Generated_Source\PSoC5/PWM_UNFOLD_A.c ****         #else
 620:.\Generated_Source\PSoC5/PWM_UNFOLD_A.c ****             /* Otherwise the data has to be masked and offset */        
 621:.\Generated_Source\PSoC5/PWM_UNFOLD_A.c ****             /* Clear existing data */
 622:.\Generated_Source\PSoC5/PWM_UNFOLD_A.c ****             PWM_UNFOLD_A_DEADBAND_COUNT &= ((uint8)(~PWM_UNFOLD_A_DEADBAND_COUNT_MASK));
 447              		.loc 1 622 0
 448 000a 46F27853 		movw	r3, #:lower16:1073767800
 449 000e C4F20003 		movt	r3, #:upper16:1073767800
 450 0012 46F27852 		movw	r2, #:lower16:1073767800
 451 0016 C4F20002 		movt	r2, #:upper16:1073767800
 452 001a 1278     		ldrb	r2, [r2, #0]
 453 001c D2B2     		uxtb	r2, r2
 454 001e 02F0FC02 		and	r2, r2, #252
 455 0022 1A70     		strb	r2, [r3, #0]
 623:.\Generated_Source\PSoC5/PWM_UNFOLD_A.c ****             
 624:.\Generated_Source\PSoC5/PWM_UNFOLD_A.c ****             /* Set new dead time */
ARM GAS  C:\Users\hoangp\AppData\Local\Temp\ccLc4sfl.s 			page 20


 625:.\Generated_Source\PSoC5/PWM_UNFOLD_A.c ****             #if(PWM_UNFOLD_A_DEADBAND_COUNT_SHIFT)        
 626:.\Generated_Source\PSoC5/PWM_UNFOLD_A.c ****                 PWM_UNFOLD_A_DEADBAND_COUNT |= ((uint8)((uint8)deadtime << PWM_UNFOLD_A_DEADBAND_CO
 627:.\Generated_Source\PSoC5/PWM_UNFOLD_A.c ****                                                     PWM_UNFOLD_A_DEADBAND_COUNT_MASK;
 628:.\Generated_Source\PSoC5/PWM_UNFOLD_A.c ****             #else
 629:.\Generated_Source\PSoC5/PWM_UNFOLD_A.c ****                 PWM_UNFOLD_A_DEADBAND_COUNT |= deadtime & PWM_UNFOLD_A_DEADBAND_COUNT_MASK;        
 456              		.loc 1 629 0
 457 0024 46F27853 		movw	r3, #:lower16:1073767800
 458 0028 C4F20003 		movt	r3, #:upper16:1073767800
 459 002c 46F27852 		movw	r2, #:lower16:1073767800
 460 0030 C4F20002 		movt	r2, #:upper16:1073767800
 461 0034 1278     		ldrb	r2, [r2, #0]
 462 0036 D2B2     		uxtb	r2, r2
 463 0038 1146     		mov	r1, r2
 464 003a FA79     		ldrb	r2, [r7, #7]	@ zero_extendqisi2
 465 003c D2B2     		uxtb	r2, r2
 466 003e 02F00302 		and	r2, r2, #3
 467 0042 41EA0202 		orr	r2, r1, r2
 468 0046 D2B2     		uxtb	r2, r2
 469 0048 D2B2     		uxtb	r2, r2
 470 004a 1A70     		strb	r2, [r3, #0]
 630:.\Generated_Source\PSoC5/PWM_UNFOLD_A.c ****             #endif /* (PWM_UNFOLD_A_DEADBAND_COUNT_SHIFT) */
 631:.\Generated_Source\PSoC5/PWM_UNFOLD_A.c ****         
 632:.\Generated_Source\PSoC5/PWM_UNFOLD_A.c ****         #endif /* (!PWM_UNFOLD_A_DeadBand2_4) */
 633:.\Generated_Source\PSoC5/PWM_UNFOLD_A.c ****     }
 471              		.loc 1 633 0
 472 004c 07F10C07 		add	r7, r7, #12
 473 0050 BD46     		mov	sp, r7
 474 0052 80BC     		pop	{r7}
 475 0054 7047     		bx	lr
 476              		.cfi_endproc
 477              	.LFE9:
 478              		.size	PWM_UNFOLD_A_WriteDeadTime, .-PWM_UNFOLD_A_WriteDeadTime
 479 0056 00BF     		.section	.text.PWM_UNFOLD_A_ReadDeadTime,"ax",%progbits
 480              		.align	2
 481              		.global	PWM_UNFOLD_A_ReadDeadTime
 482              		.thumb
 483              		.thumb_func
 484              		.type	PWM_UNFOLD_A_ReadDeadTime, %function
 485              	PWM_UNFOLD_A_ReadDeadTime:
 486              	.LFB10:
 634:.\Generated_Source\PSoC5/PWM_UNFOLD_A.c **** 
 635:.\Generated_Source\PSoC5/PWM_UNFOLD_A.c **** 
 636:.\Generated_Source\PSoC5/PWM_UNFOLD_A.c ****     /*******************************************************************************
 637:.\Generated_Source\PSoC5/PWM_UNFOLD_A.c ****     * Function Name: PWM_UNFOLD_A_ReadDeadTime
 638:.\Generated_Source\PSoC5/PWM_UNFOLD_A.c ****     ********************************************************************************
 639:.\Generated_Source\PSoC5/PWM_UNFOLD_A.c ****     * 
 640:.\Generated_Source\PSoC5/PWM_UNFOLD_A.c ****     * Summary:
 641:.\Generated_Source\PSoC5/PWM_UNFOLD_A.c ****     *  This function reads the dead-band counts from the corresponding register
 642:.\Generated_Source\PSoC5/PWM_UNFOLD_A.c ****     *
 643:.\Generated_Source\PSoC5/PWM_UNFOLD_A.c ****     * Parameters:  
 644:.\Generated_Source\PSoC5/PWM_UNFOLD_A.c ****     *  None
 645:.\Generated_Source\PSoC5/PWM_UNFOLD_A.c ****     *
 646:.\Generated_Source\PSoC5/PWM_UNFOLD_A.c ****     * Return: 
 647:.\Generated_Source\PSoC5/PWM_UNFOLD_A.c ****     *  Dead Band Counts
 648:.\Generated_Source\PSoC5/PWM_UNFOLD_A.c ****     *
 649:.\Generated_Source\PSoC5/PWM_UNFOLD_A.c ****     *******************************************************************************/
 650:.\Generated_Source\PSoC5/PWM_UNFOLD_A.c ****     uint8 PWM_UNFOLD_A_ReadDeadTime(void) 
ARM GAS  C:\Users\hoangp\AppData\Local\Temp\ccLc4sfl.s 			page 21


 651:.\Generated_Source\PSoC5/PWM_UNFOLD_A.c ****     {
 487              		.loc 1 651 0
 488              		.cfi_startproc
 489              		@ args = 0, pretend = 0, frame = 0
 490              		@ frame_needed = 1, uses_anonymous_args = 0
 491              		@ link register save eliminated.
 492 0000 80B4     		push	{r7}
 493              	.LCFI25:
 494              		.cfi_def_cfa_offset 4
 495 0002 00AF     		add	r7, sp, #0
 496              		.cfi_offset 7, -4
 497              	.LCFI26:
 498              		.cfi_def_cfa_register 7
 652:.\Generated_Source\PSoC5/PWM_UNFOLD_A.c ****         /* If using the Dead Band 1-255 mode then just read the register */
 653:.\Generated_Source\PSoC5/PWM_UNFOLD_A.c ****         #if(!PWM_UNFOLD_A_DeadBand2_4)
 654:.\Generated_Source\PSoC5/PWM_UNFOLD_A.c ****             return (CY_GET_REG8(PWM_UNFOLD_A_DEADBAND_COUNT_PTR));
 655:.\Generated_Source\PSoC5/PWM_UNFOLD_A.c ****         #else
 656:.\Generated_Source\PSoC5/PWM_UNFOLD_A.c ****         
 657:.\Generated_Source\PSoC5/PWM_UNFOLD_A.c ****             /* Otherwise the data has to be masked and offset */
 658:.\Generated_Source\PSoC5/PWM_UNFOLD_A.c ****             #if(PWM_UNFOLD_A_DEADBAND_COUNT_SHIFT)      
 659:.\Generated_Source\PSoC5/PWM_UNFOLD_A.c ****                 return ((uint8)(((uint8)(PWM_UNFOLD_A_DEADBAND_COUNT & PWM_UNFOLD_A_DEADBAND_COUNT_
 660:.\Generated_Source\PSoC5/PWM_UNFOLD_A.c ****                                                                            PWM_UNFOLD_A_DEADBAND_CO
 661:.\Generated_Source\PSoC5/PWM_UNFOLD_A.c ****             #else
 662:.\Generated_Source\PSoC5/PWM_UNFOLD_A.c ****                 return (PWM_UNFOLD_A_DEADBAND_COUNT & PWM_UNFOLD_A_DEADBAND_COUNT_MASK);
 499              		.loc 1 662 0
 500 0004 46F27853 		movw	r3, #:lower16:1073767800
 501 0008 C4F20003 		movt	r3, #:upper16:1073767800
 502 000c 1B78     		ldrb	r3, [r3, #0]
 503 000e DBB2     		uxtb	r3, r3
 504 0010 03F00303 		and	r3, r3, #3
 663:.\Generated_Source\PSoC5/PWM_UNFOLD_A.c ****             #endif /* (PWM_UNFOLD_A_DEADBAND_COUNT_SHIFT) */
 664:.\Generated_Source\PSoC5/PWM_UNFOLD_A.c ****         #endif /* (!PWM_UNFOLD_A_DeadBand2_4) */
 665:.\Generated_Source\PSoC5/PWM_UNFOLD_A.c ****     }
 505              		.loc 1 665 0
 506 0014 1846     		mov	r0, r3
 507 0016 BD46     		mov	sp, r7
 508 0018 80BC     		pop	{r7}
 509 001a 7047     		bx	lr
 510              		.cfi_endproc
 511              	.LFE10:
 512              		.size	PWM_UNFOLD_A_ReadDeadTime, .-PWM_UNFOLD_A_ReadDeadTime
 513              		.section	.text.PWM_UNFOLD_A_SetInterruptMode,"ax",%progbits
 514              		.align	2
 515              		.global	PWM_UNFOLD_A_SetInterruptMode
 516              		.thumb
 517              		.thumb_func
 518              		.type	PWM_UNFOLD_A_SetInterruptMode, %function
 519              	PWM_UNFOLD_A_SetInterruptMode:
 520              	.LFB11:
 666:.\Generated_Source\PSoC5/PWM_UNFOLD_A.c **** #endif /* DeadBandUsed */
 667:.\Generated_Source\PSoC5/PWM_UNFOLD_A.c **** 
 668:.\Generated_Source\PSoC5/PWM_UNFOLD_A.c **** #if (PWM_UNFOLD_A_UseStatus || PWM_UNFOLD_A_UsingFixedFunction)
 669:.\Generated_Source\PSoC5/PWM_UNFOLD_A.c **** 
 670:.\Generated_Source\PSoC5/PWM_UNFOLD_A.c **** 
 671:.\Generated_Source\PSoC5/PWM_UNFOLD_A.c ****     /*******************************************************************************
 672:.\Generated_Source\PSoC5/PWM_UNFOLD_A.c ****     * Function Name: PWM_UNFOLD_A_SetInterruptMode
 673:.\Generated_Source\PSoC5/PWM_UNFOLD_A.c ****     ********************************************************************************
ARM GAS  C:\Users\hoangp\AppData\Local\Temp\ccLc4sfl.s 			page 22


 674:.\Generated_Source\PSoC5/PWM_UNFOLD_A.c ****     * 
 675:.\Generated_Source\PSoC5/PWM_UNFOLD_A.c ****     * Summary:
 676:.\Generated_Source\PSoC5/PWM_UNFOLD_A.c ****     *  This function configures the interrupts mask control of theinterrupt 
 677:.\Generated_Source\PSoC5/PWM_UNFOLD_A.c ****     *  source status register.
 678:.\Generated_Source\PSoC5/PWM_UNFOLD_A.c ****     *
 679:.\Generated_Source\PSoC5/PWM_UNFOLD_A.c ****     * Parameters:  
 680:.\Generated_Source\PSoC5/PWM_UNFOLD_A.c ****     *  uint8 interruptMode: Bit field containing the interrupt sources enabled 
 681:.\Generated_Source\PSoC5/PWM_UNFOLD_A.c ****     *
 682:.\Generated_Source\PSoC5/PWM_UNFOLD_A.c ****     * Return: 
 683:.\Generated_Source\PSoC5/PWM_UNFOLD_A.c ****     *  None
 684:.\Generated_Source\PSoC5/PWM_UNFOLD_A.c ****     *
 685:.\Generated_Source\PSoC5/PWM_UNFOLD_A.c ****     *******************************************************************************/
 686:.\Generated_Source\PSoC5/PWM_UNFOLD_A.c ****     void PWM_UNFOLD_A_SetInterruptMode(uint8 interruptMode)  
 687:.\Generated_Source\PSoC5/PWM_UNFOLD_A.c ****     {
 521              		.loc 1 687 0
 522              		.cfi_startproc
 523              		@ args = 0, pretend = 0, frame = 8
 524              		@ frame_needed = 1, uses_anonymous_args = 0
 525              		@ link register save eliminated.
 526 0000 80B4     		push	{r7}
 527              	.LCFI27:
 528              		.cfi_def_cfa_offset 4
 529 0002 83B0     		sub	sp, sp, #12
 530              	.LCFI28:
 531              		.cfi_def_cfa_offset 16
 532 0004 00AF     		add	r7, sp, #0
 533              		.cfi_offset 7, -4
 534              	.LCFI29:
 535              		.cfi_def_cfa_register 7
 536 0006 0346     		mov	r3, r0
 537 0008 FB71     		strb	r3, [r7, #7]
 688:.\Generated_Source\PSoC5/PWM_UNFOLD_A.c ****     	CY_SET_REG8(PWM_UNFOLD_A_STATUS_MASK_PTR, interruptMode);
 538              		.loc 1 688 0
 539 000a 46F28843 		movw	r3, #:lower16:1073767560
 540 000e C4F20003 		movt	r3, #:upper16:1073767560
 541 0012 FA79     		ldrb	r2, [r7, #7]
 542 0014 1A70     		strb	r2, [r3, #0]
 689:.\Generated_Source\PSoC5/PWM_UNFOLD_A.c ****     }
 543              		.loc 1 689 0
 544 0016 07F10C07 		add	r7, r7, #12
 545 001a BD46     		mov	sp, r7
 546 001c 80BC     		pop	{r7}
 547 001e 7047     		bx	lr
 548              		.cfi_endproc
 549              	.LFE11:
 550              		.size	PWM_UNFOLD_A_SetInterruptMode, .-PWM_UNFOLD_A_SetInterruptMode
 551              		.section	.text.PWM_UNFOLD_A_ReadStatusRegister,"ax",%progbits
 552              		.align	2
 553              		.global	PWM_UNFOLD_A_ReadStatusRegister
 554              		.thumb
 555              		.thumb_func
 556              		.type	PWM_UNFOLD_A_ReadStatusRegister, %function
 557              	PWM_UNFOLD_A_ReadStatusRegister:
 558              	.LFB12:
 690:.\Generated_Source\PSoC5/PWM_UNFOLD_A.c **** 
 691:.\Generated_Source\PSoC5/PWM_UNFOLD_A.c **** 
 692:.\Generated_Source\PSoC5/PWM_UNFOLD_A.c ****     /*******************************************************************************
ARM GAS  C:\Users\hoangp\AppData\Local\Temp\ccLc4sfl.s 			page 23


 693:.\Generated_Source\PSoC5/PWM_UNFOLD_A.c ****     * Function Name: PWM_UNFOLD_A_ReadStatusRegister
 694:.\Generated_Source\PSoC5/PWM_UNFOLD_A.c ****     ********************************************************************************
 695:.\Generated_Source\PSoC5/PWM_UNFOLD_A.c ****     * 
 696:.\Generated_Source\PSoC5/PWM_UNFOLD_A.c ****     * Summary:
 697:.\Generated_Source\PSoC5/PWM_UNFOLD_A.c ****     *  This function returns the current state of the status register. 
 698:.\Generated_Source\PSoC5/PWM_UNFOLD_A.c ****     *
 699:.\Generated_Source\PSoC5/PWM_UNFOLD_A.c ****     * Parameters:  
 700:.\Generated_Source\PSoC5/PWM_UNFOLD_A.c ****     *  None
 701:.\Generated_Source\PSoC5/PWM_UNFOLD_A.c ****     *
 702:.\Generated_Source\PSoC5/PWM_UNFOLD_A.c ****     * Return: 
 703:.\Generated_Source\PSoC5/PWM_UNFOLD_A.c ****     *  uint8 : Current status register value. The status register bits are:
 704:.\Generated_Source\PSoC5/PWM_UNFOLD_A.c ****     *  [7:6] : Unused(0)
 705:.\Generated_Source\PSoC5/PWM_UNFOLD_A.c ****     *  [5]   : Kill event output
 706:.\Generated_Source\PSoC5/PWM_UNFOLD_A.c ****     *  [4]   : FIFO not empty
 707:.\Generated_Source\PSoC5/PWM_UNFOLD_A.c ****     *  [3]   : FIFO full
 708:.\Generated_Source\PSoC5/PWM_UNFOLD_A.c ****     *  [2]   : Terminal count
 709:.\Generated_Source\PSoC5/PWM_UNFOLD_A.c ****     *  [1]   : Compare output 2
 710:.\Generated_Source\PSoC5/PWM_UNFOLD_A.c ****     *  [0]   : Compare output 1
 711:.\Generated_Source\PSoC5/PWM_UNFOLD_A.c ****     *
 712:.\Generated_Source\PSoC5/PWM_UNFOLD_A.c ****     *******************************************************************************/
 713:.\Generated_Source\PSoC5/PWM_UNFOLD_A.c ****     uint8 PWM_UNFOLD_A_ReadStatusRegister(void)   
 714:.\Generated_Source\PSoC5/PWM_UNFOLD_A.c ****     {
 559              		.loc 1 714 0
 560              		.cfi_startproc
 561              		@ args = 0, pretend = 0, frame = 8
 562              		@ frame_needed = 1, uses_anonymous_args = 0
 563              		@ link register save eliminated.
 564 0000 80B4     		push	{r7}
 565              	.LCFI30:
 566              		.cfi_def_cfa_offset 4
 567 0002 83B0     		sub	sp, sp, #12
 568              	.LCFI31:
 569              		.cfi_def_cfa_offset 16
 570 0004 00AF     		add	r7, sp, #0
 571              		.cfi_offset 7, -4
 572              	.LCFI32:
 573              		.cfi_def_cfa_register 7
 715:.\Generated_Source\PSoC5/PWM_UNFOLD_A.c ****     	uint8 result;
 716:.\Generated_Source\PSoC5/PWM_UNFOLD_A.c ****     	
 717:.\Generated_Source\PSoC5/PWM_UNFOLD_A.c ****     	result = CY_GET_REG8(PWM_UNFOLD_A_STATUS_PTR);
 574              		.loc 1 717 0
 575 0006 46F26843 		movw	r3, #:lower16:1073767528
 576 000a C4F20003 		movt	r3, #:upper16:1073767528
 577 000e 1B78     		ldrb	r3, [r3, #0]
 578 0010 FB71     		strb	r3, [r7, #7]
 718:.\Generated_Source\PSoC5/PWM_UNFOLD_A.c ****     	return (result);
 579              		.loc 1 718 0
 580 0012 FB79     		ldrb	r3, [r7, #7]	@ zero_extendqisi2
 719:.\Generated_Source\PSoC5/PWM_UNFOLD_A.c ****     }
 581              		.loc 1 719 0
 582 0014 1846     		mov	r0, r3
 583 0016 07F10C07 		add	r7, r7, #12
 584 001a BD46     		mov	sp, r7
 585 001c 80BC     		pop	{r7}
 586 001e 7047     		bx	lr
 587              		.cfi_endproc
 588              	.LFE12:
ARM GAS  C:\Users\hoangp\AppData\Local\Temp\ccLc4sfl.s 			page 24


 589              		.size	PWM_UNFOLD_A_ReadStatusRegister, .-PWM_UNFOLD_A_ReadStatusRegister
 590              		.section	.text.PWM_UNFOLD_A_ReadControlRegister,"ax",%progbits
 591              		.align	2
 592              		.global	PWM_UNFOLD_A_ReadControlRegister
 593              		.thumb
 594              		.thumb_func
 595              		.type	PWM_UNFOLD_A_ReadControlRegister, %function
 596              	PWM_UNFOLD_A_ReadControlRegister:
 597              	.LFB13:
 720:.\Generated_Source\PSoC5/PWM_UNFOLD_A.c **** 
 721:.\Generated_Source\PSoC5/PWM_UNFOLD_A.c **** #endif /* (PWM_UNFOLD_A_UseStatus || PWM_UNFOLD_A_UsingFixedFunction) */
 722:.\Generated_Source\PSoC5/PWM_UNFOLD_A.c **** 
 723:.\Generated_Source\PSoC5/PWM_UNFOLD_A.c **** 
 724:.\Generated_Source\PSoC5/PWM_UNFOLD_A.c **** #if (PWM_UNFOLD_A_UseControl)
 725:.\Generated_Source\PSoC5/PWM_UNFOLD_A.c **** 
 726:.\Generated_Source\PSoC5/PWM_UNFOLD_A.c **** 
 727:.\Generated_Source\PSoC5/PWM_UNFOLD_A.c ****     /*******************************************************************************
 728:.\Generated_Source\PSoC5/PWM_UNFOLD_A.c ****     * Function Name: PWM_UNFOLD_A_ReadControlRegister
 729:.\Generated_Source\PSoC5/PWM_UNFOLD_A.c ****     ********************************************************************************
 730:.\Generated_Source\PSoC5/PWM_UNFOLD_A.c ****     * 
 731:.\Generated_Source\PSoC5/PWM_UNFOLD_A.c ****     * Summary:
 732:.\Generated_Source\PSoC5/PWM_UNFOLD_A.c ****     *  Returns the current state of the control register. This API is available 
 733:.\Generated_Source\PSoC5/PWM_UNFOLD_A.c ****     *  only if the control register is not removed.
 734:.\Generated_Source\PSoC5/PWM_UNFOLD_A.c ****     *
 735:.\Generated_Source\PSoC5/PWM_UNFOLD_A.c ****     * Parameters:  
 736:.\Generated_Source\PSoC5/PWM_UNFOLD_A.c ****     *  None 
 737:.\Generated_Source\PSoC5/PWM_UNFOLD_A.c ****     *
 738:.\Generated_Source\PSoC5/PWM_UNFOLD_A.c ****     * Return: 
 739:.\Generated_Source\PSoC5/PWM_UNFOLD_A.c ****     *  uint8 : Current control register value
 740:.\Generated_Source\PSoC5/PWM_UNFOLD_A.c ****     *
 741:.\Generated_Source\PSoC5/PWM_UNFOLD_A.c ****     *******************************************************************************/    
 742:.\Generated_Source\PSoC5/PWM_UNFOLD_A.c ****     uint8 PWM_UNFOLD_A_ReadControlRegister(void) 
 743:.\Generated_Source\PSoC5/PWM_UNFOLD_A.c ****     {
 598              		.loc 1 743 0
 599              		.cfi_startproc
 600              		@ args = 0, pretend = 0, frame = 8
 601              		@ frame_needed = 1, uses_anonymous_args = 0
 602              		@ link register save eliminated.
 603 0000 80B4     		push	{r7}
 604              	.LCFI33:
 605              		.cfi_def_cfa_offset 4
 606 0002 83B0     		sub	sp, sp, #12
 607              	.LCFI34:
 608              		.cfi_def_cfa_offset 16
 609 0004 00AF     		add	r7, sp, #0
 610              		.cfi_offset 7, -4
 611              	.LCFI35:
 612              		.cfi_def_cfa_register 7
 744:.\Generated_Source\PSoC5/PWM_UNFOLD_A.c ****     	uint8 result;
 745:.\Generated_Source\PSoC5/PWM_UNFOLD_A.c ****     	
 746:.\Generated_Source\PSoC5/PWM_UNFOLD_A.c ****     	result = CY_GET_REG8(PWM_UNFOLD_A_CONTROL_PTR);
 613              		.loc 1 746 0
 614 0006 46F27843 		movw	r3, #:lower16:1073767544
 615 000a C4F20003 		movt	r3, #:upper16:1073767544
 616 000e 1B78     		ldrb	r3, [r3, #0]
 617 0010 FB71     		strb	r3, [r7, #7]
 747:.\Generated_Source\PSoC5/PWM_UNFOLD_A.c ****     	return (result);
ARM GAS  C:\Users\hoangp\AppData\Local\Temp\ccLc4sfl.s 			page 25


 618              		.loc 1 747 0
 619 0012 FB79     		ldrb	r3, [r7, #7]	@ zero_extendqisi2
 748:.\Generated_Source\PSoC5/PWM_UNFOLD_A.c ****     }
 620              		.loc 1 748 0
 621 0014 1846     		mov	r0, r3
 622 0016 07F10C07 		add	r7, r7, #12
 623 001a BD46     		mov	sp, r7
 624 001c 80BC     		pop	{r7}
 625 001e 7047     		bx	lr
 626              		.cfi_endproc
 627              	.LFE13:
 628              		.size	PWM_UNFOLD_A_ReadControlRegister, .-PWM_UNFOLD_A_ReadControlRegister
 629              		.section	.text.PWM_UNFOLD_A_WriteControlRegister,"ax",%progbits
 630              		.align	2
 631              		.global	PWM_UNFOLD_A_WriteControlRegister
 632              		.thumb
 633              		.thumb_func
 634              		.type	PWM_UNFOLD_A_WriteControlRegister, %function
 635              	PWM_UNFOLD_A_WriteControlRegister:
 636              	.LFB14:
 749:.\Generated_Source\PSoC5/PWM_UNFOLD_A.c **** 
 750:.\Generated_Source\PSoC5/PWM_UNFOLD_A.c **** 
 751:.\Generated_Source\PSoC5/PWM_UNFOLD_A.c ****     /*******************************************************************************
 752:.\Generated_Source\PSoC5/PWM_UNFOLD_A.c ****     * Function Name: PWM_UNFOLD_A_WriteControlRegister
 753:.\Generated_Source\PSoC5/PWM_UNFOLD_A.c ****     ********************************************************************************
 754:.\Generated_Source\PSoC5/PWM_UNFOLD_A.c ****     * 
 755:.\Generated_Source\PSoC5/PWM_UNFOLD_A.c ****     * Summary:
 756:.\Generated_Source\PSoC5/PWM_UNFOLD_A.c ****     *  Sets the bit field of the control register. This API is available only if 
 757:.\Generated_Source\PSoC5/PWM_UNFOLD_A.c ****     *  the control register is not removed.
 758:.\Generated_Source\PSoC5/PWM_UNFOLD_A.c ****     *
 759:.\Generated_Source\PSoC5/PWM_UNFOLD_A.c ****     * Parameters:  
 760:.\Generated_Source\PSoC5/PWM_UNFOLD_A.c ****     *  uint8 control: Control register bit field, The status register bits are:
 761:.\Generated_Source\PSoC5/PWM_UNFOLD_A.c ****     *  [7]   : PWM Enable
 762:.\Generated_Source\PSoC5/PWM_UNFOLD_A.c ****     *  [6]   : Reset
 763:.\Generated_Source\PSoC5/PWM_UNFOLD_A.c ****     *  [5:3] : Compare Mode2
 764:.\Generated_Source\PSoC5/PWM_UNFOLD_A.c ****     *  [2:0] : Compare Mode2
 765:.\Generated_Source\PSoC5/PWM_UNFOLD_A.c ****     *
 766:.\Generated_Source\PSoC5/PWM_UNFOLD_A.c ****     * Return: 
 767:.\Generated_Source\PSoC5/PWM_UNFOLD_A.c ****     *  None
 768:.\Generated_Source\PSoC5/PWM_UNFOLD_A.c ****     *
 769:.\Generated_Source\PSoC5/PWM_UNFOLD_A.c ****     *******************************************************************************/  
 770:.\Generated_Source\PSoC5/PWM_UNFOLD_A.c ****     void PWM_UNFOLD_A_WriteControlRegister(uint8 control) 
 771:.\Generated_Source\PSoC5/PWM_UNFOLD_A.c ****     {
 637              		.loc 1 771 0
 638              		.cfi_startproc
 639              		@ args = 0, pretend = 0, frame = 8
 640              		@ frame_needed = 1, uses_anonymous_args = 0
 641              		@ link register save eliminated.
 642 0000 80B4     		push	{r7}
 643              	.LCFI36:
 644              		.cfi_def_cfa_offset 4
 645 0002 83B0     		sub	sp, sp, #12
 646              	.LCFI37:
 647              		.cfi_def_cfa_offset 16
 648 0004 00AF     		add	r7, sp, #0
 649              		.cfi_offset 7, -4
 650              	.LCFI38:
ARM GAS  C:\Users\hoangp\AppData\Local\Temp\ccLc4sfl.s 			page 26


 651              		.cfi_def_cfa_register 7
 652 0006 0346     		mov	r3, r0
 653 0008 FB71     		strb	r3, [r7, #7]
 772:.\Generated_Source\PSoC5/PWM_UNFOLD_A.c ****     	CY_SET_REG8(PWM_UNFOLD_A_CONTROL_PTR, control);
 654              		.loc 1 772 0
 655 000a 46F27843 		movw	r3, #:lower16:1073767544
 656 000e C4F20003 		movt	r3, #:upper16:1073767544
 657 0012 FA79     		ldrb	r2, [r7, #7]
 658 0014 1A70     		strb	r2, [r3, #0]
 773:.\Generated_Source\PSoC5/PWM_UNFOLD_A.c ****     }
 659              		.loc 1 773 0
 660 0016 07F10C07 		add	r7, r7, #12
 661 001a BD46     		mov	sp, r7
 662 001c 80BC     		pop	{r7}
 663 001e 7047     		bx	lr
 664              		.cfi_endproc
 665              	.LFE14:
 666              		.size	PWM_UNFOLD_A_WriteControlRegister, .-PWM_UNFOLD_A_WriteControlRegister
 667              		.section	.text.PWM_UNFOLD_A_ReadCapture,"ax",%progbits
 668              		.align	2
 669              		.global	PWM_UNFOLD_A_ReadCapture
 670              		.thumb
 671              		.thumb_func
 672              		.type	PWM_UNFOLD_A_ReadCapture, %function
 673              	PWM_UNFOLD_A_ReadCapture:
 674              	.LFB15:
 774:.\Generated_Source\PSoC5/PWM_UNFOLD_A.c **** 	
 775:.\Generated_Source\PSoC5/PWM_UNFOLD_A.c **** #endif /* (PWM_UNFOLD_A_UseControl) */
 776:.\Generated_Source\PSoC5/PWM_UNFOLD_A.c **** 
 777:.\Generated_Source\PSoC5/PWM_UNFOLD_A.c **** 
 778:.\Generated_Source\PSoC5/PWM_UNFOLD_A.c **** #if (!PWM_UNFOLD_A_UsingFixedFunction)
 779:.\Generated_Source\PSoC5/PWM_UNFOLD_A.c **** 
 780:.\Generated_Source\PSoC5/PWM_UNFOLD_A.c **** 
 781:.\Generated_Source\PSoC5/PWM_UNFOLD_A.c ****     /*******************************************************************************
 782:.\Generated_Source\PSoC5/PWM_UNFOLD_A.c ****     * Function Name: PWM_UNFOLD_A_ReadCapture
 783:.\Generated_Source\PSoC5/PWM_UNFOLD_A.c ****     ********************************************************************************
 784:.\Generated_Source\PSoC5/PWM_UNFOLD_A.c ****     * 
 785:.\Generated_Source\PSoC5/PWM_UNFOLD_A.c ****     * Summary:
 786:.\Generated_Source\PSoC5/PWM_UNFOLD_A.c ****     *  Reads the capture value from the capture FIFO.
 787:.\Generated_Source\PSoC5/PWM_UNFOLD_A.c ****     *
 788:.\Generated_Source\PSoC5/PWM_UNFOLD_A.c ****     * Parameters:  
 789:.\Generated_Source\PSoC5/PWM_UNFOLD_A.c ****     *  None
 790:.\Generated_Source\PSoC5/PWM_UNFOLD_A.c ****     *
 791:.\Generated_Source\PSoC5/PWM_UNFOLD_A.c ****     * Return: 
 792:.\Generated_Source\PSoC5/PWM_UNFOLD_A.c ****     *  uint8/uint16: The current capture value
 793:.\Generated_Source\PSoC5/PWM_UNFOLD_A.c ****     *
 794:.\Generated_Source\PSoC5/PWM_UNFOLD_A.c ****     *******************************************************************************/  
 795:.\Generated_Source\PSoC5/PWM_UNFOLD_A.c ****     uint8 PWM_UNFOLD_A_ReadCapture(void)  
 796:.\Generated_Source\PSoC5/PWM_UNFOLD_A.c ****     {
 675              		.loc 1 796 0
 676              		.cfi_startproc
 677              		@ args = 0, pretend = 0, frame = 0
 678              		@ frame_needed = 1, uses_anonymous_args = 0
 679              		@ link register save eliminated.
 680 0000 80B4     		push	{r7}
 681              	.LCFI39:
 682              		.cfi_def_cfa_offset 4
ARM GAS  C:\Users\hoangp\AppData\Local\Temp\ccLc4sfl.s 			page 27


 683 0002 00AF     		add	r7, sp, #0
 684              		.cfi_offset 7, -4
 685              	.LCFI40:
 686              		.cfi_def_cfa_register 7
 797:.\Generated_Source\PSoC5/PWM_UNFOLD_A.c ****     	return (CY_GET_REG8(PWM_UNFOLD_A_CAPTURE_LSB_PTR));
 687              		.loc 1 797 0
 688 0004 46F25953 		movw	r3, #:lower16:1073767769
 689 0008 C4F20003 		movt	r3, #:upper16:1073767769
 690 000c 1B78     		ldrb	r3, [r3, #0]
 691 000e DBB2     		uxtb	r3, r3
 798:.\Generated_Source\PSoC5/PWM_UNFOLD_A.c ****     }
 692              		.loc 1 798 0
 693 0010 1846     		mov	r0, r3
 694 0012 BD46     		mov	sp, r7
 695 0014 80BC     		pop	{r7}
 696 0016 7047     		bx	lr
 697              		.cfi_endproc
 698              	.LFE15:
 699              		.size	PWM_UNFOLD_A_ReadCapture, .-PWM_UNFOLD_A_ReadCapture
 700              		.section	.text.PWM_UNFOLD_A_ReadCompare,"ax",%progbits
 701              		.align	2
 702              		.global	PWM_UNFOLD_A_ReadCompare
 703              		.thumb
 704              		.thumb_func
 705              		.type	PWM_UNFOLD_A_ReadCompare, %function
 706              	PWM_UNFOLD_A_ReadCompare:
 707              	.LFB16:
 799:.\Generated_Source\PSoC5/PWM_UNFOLD_A.c **** 	
 800:.\Generated_Source\PSoC5/PWM_UNFOLD_A.c **** #endif /* (!PWM_UNFOLD_A_UsingFixedFunction) */
 801:.\Generated_Source\PSoC5/PWM_UNFOLD_A.c **** 
 802:.\Generated_Source\PSoC5/PWM_UNFOLD_A.c **** 
 803:.\Generated_Source\PSoC5/PWM_UNFOLD_A.c **** #if (PWM_UNFOLD_A_UseOneCompareMode)
 804:.\Generated_Source\PSoC5/PWM_UNFOLD_A.c **** 
 805:.\Generated_Source\PSoC5/PWM_UNFOLD_A.c **** 
 806:.\Generated_Source\PSoC5/PWM_UNFOLD_A.c ****     /*******************************************************************************
 807:.\Generated_Source\PSoC5/PWM_UNFOLD_A.c ****     * Function Name: PWM_UNFOLD_A_ReadCompare
 808:.\Generated_Source\PSoC5/PWM_UNFOLD_A.c ****     ********************************************************************************
 809:.\Generated_Source\PSoC5/PWM_UNFOLD_A.c ****     * 
 810:.\Generated_Source\PSoC5/PWM_UNFOLD_A.c ****     * Summary:
 811:.\Generated_Source\PSoC5/PWM_UNFOLD_A.c ****     *  Reads the compare value for the compare output when the PWM Mode parameter is 
 812:.\Generated_Source\PSoC5/PWM_UNFOLD_A.c ****     *  set to Dither mode, Center Aligned mode, or One Output mode.
 813:.\Generated_Source\PSoC5/PWM_UNFOLD_A.c ****     *
 814:.\Generated_Source\PSoC5/PWM_UNFOLD_A.c ****     * Parameters:  
 815:.\Generated_Source\PSoC5/PWM_UNFOLD_A.c ****     *  None
 816:.\Generated_Source\PSoC5/PWM_UNFOLD_A.c ****     *
 817:.\Generated_Source\PSoC5/PWM_UNFOLD_A.c ****     * Return: 
 818:.\Generated_Source\PSoC5/PWM_UNFOLD_A.c ****     *  uint8/uint16: Current compare value
 819:.\Generated_Source\PSoC5/PWM_UNFOLD_A.c ****     *
 820:.\Generated_Source\PSoC5/PWM_UNFOLD_A.c ****     *******************************************************************************/  
 821:.\Generated_Source\PSoC5/PWM_UNFOLD_A.c ****     uint8 PWM_UNFOLD_A_ReadCompare(void)  
 822:.\Generated_Source\PSoC5/PWM_UNFOLD_A.c ****     {
 708              		.loc 1 822 0
 709              		.cfi_startproc
 710              		@ args = 0, pretend = 0, frame = 0
 711              		@ frame_needed = 1, uses_anonymous_args = 0
 712              		@ link register save eliminated.
 713 0000 80B4     		push	{r7}
ARM GAS  C:\Users\hoangp\AppData\Local\Temp\ccLc4sfl.s 			page 28


 714              	.LCFI41:
 715              		.cfi_def_cfa_offset 4
 716 0002 00AF     		add	r7, sp, #0
 717              		.cfi_offset 7, -4
 718              	.LCFI42:
 719              		.cfi_def_cfa_register 7
 823:.\Generated_Source\PSoC5/PWM_UNFOLD_A.c **** 		#if(PWM_UNFOLD_A_UsingFixedFunction)
 824:.\Generated_Source\PSoC5/PWM_UNFOLD_A.c ****             return ((uint8)CY_GET_REG16(PWM_UNFOLD_A_COMPARE1_LSB_PTR));
 825:.\Generated_Source\PSoC5/PWM_UNFOLD_A.c ****         #else
 826:.\Generated_Source\PSoC5/PWM_UNFOLD_A.c ****             return (CY_GET_REG8(PWM_UNFOLD_A_COMPARE1_LSB_PTR));
 720              		.loc 1 826 0
 721 0004 46F22953 		movw	r3, #:lower16:1073767721
 722 0008 C4F20003 		movt	r3, #:upper16:1073767721
 723 000c 1B78     		ldrb	r3, [r3, #0]
 724 000e DBB2     		uxtb	r3, r3
 827:.\Generated_Source\PSoC5/PWM_UNFOLD_A.c ****         #endif /* (PWM_UNFOLD_A_UsingFixedFunction) */
 828:.\Generated_Source\PSoC5/PWM_UNFOLD_A.c ****     }
 725              		.loc 1 828 0
 726 0010 1846     		mov	r0, r3
 727 0012 BD46     		mov	sp, r7
 728 0014 80BC     		pop	{r7}
 729 0016 7047     		bx	lr
 730              		.cfi_endproc
 731              	.LFE16:
 732              		.size	PWM_UNFOLD_A_ReadCompare, .-PWM_UNFOLD_A_ReadCompare
 733              		.section	.text.PWM_UNFOLD_A_ReadPeriod,"ax",%progbits
 734              		.align	2
 735              		.global	PWM_UNFOLD_A_ReadPeriod
 736              		.thumb
 737              		.thumb_func
 738              		.type	PWM_UNFOLD_A_ReadPeriod, %function
 739              	PWM_UNFOLD_A_ReadPeriod:
 740              	.LFB17:
 829:.\Generated_Source\PSoC5/PWM_UNFOLD_A.c **** 
 830:.\Generated_Source\PSoC5/PWM_UNFOLD_A.c **** #else
 831:.\Generated_Source\PSoC5/PWM_UNFOLD_A.c **** 
 832:.\Generated_Source\PSoC5/PWM_UNFOLD_A.c **** 
 833:.\Generated_Source\PSoC5/PWM_UNFOLD_A.c ****     /*******************************************************************************
 834:.\Generated_Source\PSoC5/PWM_UNFOLD_A.c ****     * Function Name: PWM_UNFOLD_A_ReadCompare1
 835:.\Generated_Source\PSoC5/PWM_UNFOLD_A.c ****     ********************************************************************************
 836:.\Generated_Source\PSoC5/PWM_UNFOLD_A.c ****     * 
 837:.\Generated_Source\PSoC5/PWM_UNFOLD_A.c ****     * Summary:
 838:.\Generated_Source\PSoC5/PWM_UNFOLD_A.c ****     *  Reads the compare value for the compare1 output.
 839:.\Generated_Source\PSoC5/PWM_UNFOLD_A.c ****     *
 840:.\Generated_Source\PSoC5/PWM_UNFOLD_A.c ****     * Parameters:  
 841:.\Generated_Source\PSoC5/PWM_UNFOLD_A.c ****     *  None
 842:.\Generated_Source\PSoC5/PWM_UNFOLD_A.c ****     *
 843:.\Generated_Source\PSoC5/PWM_UNFOLD_A.c ****     * Return: 
 844:.\Generated_Source\PSoC5/PWM_UNFOLD_A.c ****     *  uint8/uint16: Current compare value.
 845:.\Generated_Source\PSoC5/PWM_UNFOLD_A.c ****     *
 846:.\Generated_Source\PSoC5/PWM_UNFOLD_A.c ****     *******************************************************************************/  
 847:.\Generated_Source\PSoC5/PWM_UNFOLD_A.c ****     uint8 PWM_UNFOLD_A_ReadCompare1(void) 
 848:.\Generated_Source\PSoC5/PWM_UNFOLD_A.c ****     {
 849:.\Generated_Source\PSoC5/PWM_UNFOLD_A.c **** 		return (CY_GET_REG8(PWM_UNFOLD_A_COMPARE1_LSB_PTR));
 850:.\Generated_Source\PSoC5/PWM_UNFOLD_A.c ****     }
 851:.\Generated_Source\PSoC5/PWM_UNFOLD_A.c **** 
 852:.\Generated_Source\PSoC5/PWM_UNFOLD_A.c **** 
ARM GAS  C:\Users\hoangp\AppData\Local\Temp\ccLc4sfl.s 			page 29


 853:.\Generated_Source\PSoC5/PWM_UNFOLD_A.c ****     /*******************************************************************************
 854:.\Generated_Source\PSoC5/PWM_UNFOLD_A.c ****     * Function Name: PWM_UNFOLD_A_ReadCompare2
 855:.\Generated_Source\PSoC5/PWM_UNFOLD_A.c ****     ********************************************************************************
 856:.\Generated_Source\PSoC5/PWM_UNFOLD_A.c ****     * 
 857:.\Generated_Source\PSoC5/PWM_UNFOLD_A.c ****     * Summary:
 858:.\Generated_Source\PSoC5/PWM_UNFOLD_A.c ****     *  Reads the compare value for the compare2 output.
 859:.\Generated_Source\PSoC5/PWM_UNFOLD_A.c ****     *
 860:.\Generated_Source\PSoC5/PWM_UNFOLD_A.c ****     * Parameters:  
 861:.\Generated_Source\PSoC5/PWM_UNFOLD_A.c ****     *  None
 862:.\Generated_Source\PSoC5/PWM_UNFOLD_A.c ****     *
 863:.\Generated_Source\PSoC5/PWM_UNFOLD_A.c ****     * Return: 
 864:.\Generated_Source\PSoC5/PWM_UNFOLD_A.c ****     *  uint8/uint16: Current compare value.
 865:.\Generated_Source\PSoC5/PWM_UNFOLD_A.c ****     *
 866:.\Generated_Source\PSoC5/PWM_UNFOLD_A.c ****     *******************************************************************************/  
 867:.\Generated_Source\PSoC5/PWM_UNFOLD_A.c ****     uint8 PWM_UNFOLD_A_ReadCompare2(void)  
 868:.\Generated_Source\PSoC5/PWM_UNFOLD_A.c ****     {
 869:.\Generated_Source\PSoC5/PWM_UNFOLD_A.c **** 		return (CY_GET_REG8(PWM_UNFOLD_A_COMPARE2_LSB_PTR));
 870:.\Generated_Source\PSoC5/PWM_UNFOLD_A.c ****     }
 871:.\Generated_Source\PSoC5/PWM_UNFOLD_A.c **** 
 872:.\Generated_Source\PSoC5/PWM_UNFOLD_A.c **** #endif /* (PWM_UNFOLD_A_UseOneCompareMode) */
 873:.\Generated_Source\PSoC5/PWM_UNFOLD_A.c **** 
 874:.\Generated_Source\PSoC5/PWM_UNFOLD_A.c **** 
 875:.\Generated_Source\PSoC5/PWM_UNFOLD_A.c **** /*******************************************************************************
 876:.\Generated_Source\PSoC5/PWM_UNFOLD_A.c **** * Function Name: PWM_UNFOLD_A_ReadPeriod
 877:.\Generated_Source\PSoC5/PWM_UNFOLD_A.c **** ********************************************************************************
 878:.\Generated_Source\PSoC5/PWM_UNFOLD_A.c **** * 
 879:.\Generated_Source\PSoC5/PWM_UNFOLD_A.c **** * Summary:
 880:.\Generated_Source\PSoC5/PWM_UNFOLD_A.c **** *  Reads the period value used by the PWM hardware.
 881:.\Generated_Source\PSoC5/PWM_UNFOLD_A.c **** *
 882:.\Generated_Source\PSoC5/PWM_UNFOLD_A.c **** * Parameters:  
 883:.\Generated_Source\PSoC5/PWM_UNFOLD_A.c **** *  None
 884:.\Generated_Source\PSoC5/PWM_UNFOLD_A.c **** *
 885:.\Generated_Source\PSoC5/PWM_UNFOLD_A.c **** * Return: 
 886:.\Generated_Source\PSoC5/PWM_UNFOLD_A.c **** *  uint8/16: Period value
 887:.\Generated_Source\PSoC5/PWM_UNFOLD_A.c **** *
 888:.\Generated_Source\PSoC5/PWM_UNFOLD_A.c **** *******************************************************************************/ 
 889:.\Generated_Source\PSoC5/PWM_UNFOLD_A.c **** uint8 PWM_UNFOLD_A_ReadPeriod(void) 
 890:.\Generated_Source\PSoC5/PWM_UNFOLD_A.c **** {
 741              		.loc 1 890 0
 742              		.cfi_startproc
 743              		@ args = 0, pretend = 0, frame = 0
 744              		@ frame_needed = 1, uses_anonymous_args = 0
 745              		@ link register save eliminated.
 746 0000 80B4     		push	{r7}
 747              	.LCFI43:
 748              		.cfi_def_cfa_offset 4
 749 0002 00AF     		add	r7, sp, #0
 750              		.cfi_offset 7, -4
 751              	.LCFI44:
 752              		.cfi_def_cfa_register 7
 891:.\Generated_Source\PSoC5/PWM_UNFOLD_A.c **** 	#if(PWM_UNFOLD_A_UsingFixedFunction)
 892:.\Generated_Source\PSoC5/PWM_UNFOLD_A.c ****         return ((uint8)CY_GET_REG16(PWM_UNFOLD_A_PERIOD_LSB_PTR));
 893:.\Generated_Source\PSoC5/PWM_UNFOLD_A.c ****     #else
 894:.\Generated_Source\PSoC5/PWM_UNFOLD_A.c ****         return (CY_GET_REG8(PWM_UNFOLD_A_PERIOD_LSB_PTR));
 753              		.loc 1 894 0
 754 0004 46F24953 		movw	r3, #:lower16:1073767753
 755 0008 C4F20003 		movt	r3, #:upper16:1073767753
ARM GAS  C:\Users\hoangp\AppData\Local\Temp\ccLc4sfl.s 			page 30


 756 000c 1B78     		ldrb	r3, [r3, #0]
 757 000e DBB2     		uxtb	r3, r3
 895:.\Generated_Source\PSoC5/PWM_UNFOLD_A.c ****     #endif /* (PWM_UNFOLD_A_UsingFixedFunction) */
 896:.\Generated_Source\PSoC5/PWM_UNFOLD_A.c **** }
 758              		.loc 1 896 0
 759 0010 1846     		mov	r0, r3
 760 0012 BD46     		mov	sp, r7
 761 0014 80BC     		pop	{r7}
 762 0016 7047     		bx	lr
 763              		.cfi_endproc
 764              	.LFE17:
 765              		.size	PWM_UNFOLD_A_ReadPeriod, .-PWM_UNFOLD_A_ReadPeriod
 766              		.text
 767              	.Letext0: