ARM GAS  C:\Users\hoangp\AppData\Local\Temp\ccnWRgig.s 			page 1


   1              		.syntax unified
   2              		.cpu cortex-m3
   3              		.fpu softvfp
   4              		.eabi_attribute 20, 1
   5              		.eabi_attribute 21, 1
   6              		.eabi_attribute 23, 3
   7              		.eabi_attribute 24, 1
   8              		.eabi_attribute 25, 1
   9              		.eabi_attribute 26, 1
  10              		.eabi_attribute 30, 6
  11              		.eabi_attribute 18, 4
  12              		.thumb
  13              		.file	"SPIS_1.c"
  20 0000 73020000 		.text
  20      02005F00 
  20      00000201 
  20      FB0E0D00 
  20      01010101 
  21              	.Ltext0:
  22              		.cfi_sections	.debug_frame
  23              		.global	SPIS_1_initVar
  24              		.bss
  25              		.type	SPIS_1_initVar, %object
  26              		.size	SPIS_1_initVar, 1
  27              	SPIS_1_initVar:
  28 0000 00       		.space	1
  29              		.section	.text.SPIS_1_Init,"ax",%progbits
  30              		.align	2
  31              		.global	SPIS_1_Init
  32              		.thumb
  33              		.thumb_func
  34              		.type	SPIS_1_Init, %function
  35              	SPIS_1_Init:
  36              	.LFB0:
  37              		.file 1 ".\\Generated_Source\\PSoC5\\SPIS_1.c"
   1:.\Generated_Source\PSoC5/SPIS_1.c **** /*******************************************************************************
   2:.\Generated_Source\PSoC5/SPIS_1.c **** * File Name: SPIS_1.c
   3:.\Generated_Source\PSoC5/SPIS_1.c **** * Version 2.50
   4:.\Generated_Source\PSoC5/SPIS_1.c **** *
   5:.\Generated_Source\PSoC5/SPIS_1.c **** * Description:
   6:.\Generated_Source\PSoC5/SPIS_1.c **** *  This file provides all API functionality of the SPI Slave component.
   7:.\Generated_Source\PSoC5/SPIS_1.c **** *
   8:.\Generated_Source\PSoC5/SPIS_1.c **** * Note:
   9:.\Generated_Source\PSoC5/SPIS_1.c **** *  None.
  10:.\Generated_Source\PSoC5/SPIS_1.c **** *
  11:.\Generated_Source\PSoC5/SPIS_1.c **** ********************************************************************************
  12:.\Generated_Source\PSoC5/SPIS_1.c **** * Copyright 2008-2012, Cypress Semiconductor Corporation.  All rights reserved.
  13:.\Generated_Source\PSoC5/SPIS_1.c **** * You may use this file only in accordance with the license, terms, conditions,
  14:.\Generated_Source\PSoC5/SPIS_1.c **** * disclaimers, and limitations in the end user license agreement accompanying
  15:.\Generated_Source\PSoC5/SPIS_1.c **** * the software package with which this file was provided.
  16:.\Generated_Source\PSoC5/SPIS_1.c **** *******************************************************************************/
ARM GAS  C:\Users\hoangp\AppData\Local\Temp\ccnWRgig.s 			page 2


  17:.\Generated_Source\PSoC5/SPIS_1.c **** 
  18:.\Generated_Source\PSoC5/SPIS_1.c **** #include "CyLib.h"
  19:.\Generated_Source\PSoC5/SPIS_1.c **** #include "SPIS_1.h"
  20:.\Generated_Source\PSoC5/SPIS_1.c **** 
  21:.\Generated_Source\PSoC5/SPIS_1.c **** #if (SPIS_1_TXBUFFERSIZE > 4u)
  22:.\Generated_Source\PSoC5/SPIS_1.c **** 
  23:.\Generated_Source\PSoC5/SPIS_1.c ****     volatile uint8 SPIS_1_TXBUFFER[SPIS_1_TXBUFFERSIZE] = {0u};
  24:.\Generated_Source\PSoC5/SPIS_1.c ****     volatile uint8 SPIS_1_txBufferRead = 0u;
  25:.\Generated_Source\PSoC5/SPIS_1.c ****     volatile uint8 SPIS_1_txBufferWrite = 0u;
  26:.\Generated_Source\PSoC5/SPIS_1.c ****     volatile uint8 SPIS_1_txBufferFull = 0u;
  27:.\Generated_Source\PSoC5/SPIS_1.c **** 
  28:.\Generated_Source\PSoC5/SPIS_1.c **** #endif /* SPIS_1_TXBUFFERSIZE > 4u */
  29:.\Generated_Source\PSoC5/SPIS_1.c **** 
  30:.\Generated_Source\PSoC5/SPIS_1.c **** #if (SPIS_1_RXBUFFERSIZE > 4u)
  31:.\Generated_Source\PSoC5/SPIS_1.c **** 
  32:.\Generated_Source\PSoC5/SPIS_1.c ****     volatile uint8 SPIS_1_RXBUFFER[SPIS_1_RXBUFFERSIZE] = {0u};
  33:.\Generated_Source\PSoC5/SPIS_1.c ****     volatile uint8 SPIS_1_rxBufferRead = 0u;
  34:.\Generated_Source\PSoC5/SPIS_1.c ****     volatile uint8 SPIS_1_rxBufferWrite = 0u;
  35:.\Generated_Source\PSoC5/SPIS_1.c ****     volatile uint8 SPIS_1_rxBufferFull = 0u;
  36:.\Generated_Source\PSoC5/SPIS_1.c **** 
  37:.\Generated_Source\PSoC5/SPIS_1.c **** #endif /* SPIS_1_RXBUFFERSIZE > 4u */
  38:.\Generated_Source\PSoC5/SPIS_1.c **** 
  39:.\Generated_Source\PSoC5/SPIS_1.c **** uint8 SPIS_1_initVar = 0u;
  40:.\Generated_Source\PSoC5/SPIS_1.c **** 
  41:.\Generated_Source\PSoC5/SPIS_1.c **** extern volatile uint8 SPIS_1_swStatusTx;
  42:.\Generated_Source\PSoC5/SPIS_1.c **** extern volatile uint8 SPIS_1_swStatusRx;
  43:.\Generated_Source\PSoC5/SPIS_1.c **** 
  44:.\Generated_Source\PSoC5/SPIS_1.c **** 
  45:.\Generated_Source\PSoC5/SPIS_1.c **** /*******************************************************************************
  46:.\Generated_Source\PSoC5/SPIS_1.c **** * Function Name: SPIS_1_Init
  47:.\Generated_Source\PSoC5/SPIS_1.c **** ********************************************************************************
  48:.\Generated_Source\PSoC5/SPIS_1.c **** *
  49:.\Generated_Source\PSoC5/SPIS_1.c **** * Summary:
  50:.\Generated_Source\PSoC5/SPIS_1.c **** *  Inits/Restores default SPIS configuration provided with customizer.
  51:.\Generated_Source\PSoC5/SPIS_1.c **** *
  52:.\Generated_Source\PSoC5/SPIS_1.c **** * Parameters:
  53:.\Generated_Source\PSoC5/SPIS_1.c **** *  None.
  54:.\Generated_Source\PSoC5/SPIS_1.c **** *
  55:.\Generated_Source\PSoC5/SPIS_1.c **** * Return:
  56:.\Generated_Source\PSoC5/SPIS_1.c **** *  None.
  57:.\Generated_Source\PSoC5/SPIS_1.c **** *
  58:.\Generated_Source\PSoC5/SPIS_1.c **** * Side Effects:
  59:.\Generated_Source\PSoC5/SPIS_1.c **** *  When this function is called it initializes all of the necessary parameters
  60:.\Generated_Source\PSoC5/SPIS_1.c **** *  for execution. i.e. setting the initial interrupt mask, configuring the
  61:.\Generated_Source\PSoC5/SPIS_1.c **** *  interrupt service routine, configuring the bit-counter parameters and
  62:.\Generated_Source\PSoC5/SPIS_1.c **** *  clearing the FIFO and Status Register.
  63:.\Generated_Source\PSoC5/SPIS_1.c **** *
  64:.\Generated_Source\PSoC5/SPIS_1.c **** * Reentrant:
  65:.\Generated_Source\PSoC5/SPIS_1.c **** *  No.
  66:.\Generated_Source\PSoC5/SPIS_1.c **** *
  67:.\Generated_Source\PSoC5/SPIS_1.c **** *******************************************************************************/
  68:.\Generated_Source\PSoC5/SPIS_1.c **** void SPIS_1_Init(void) 
  69:.\Generated_Source\PSoC5/SPIS_1.c **** {
  38              		.loc 1 69 0
  39              		.cfi_startproc
  40              		@ args = 0, pretend = 0, frame = 0
  41              		@ frame_needed = 1, uses_anonymous_args = 0
ARM GAS  C:\Users\hoangp\AppData\Local\Temp\ccnWRgig.s 			page 3


  42 0000 80B5     		push	{r7, lr}
  43              	.LCFI0:
  44              		.cfi_def_cfa_offset 8
  45 0002 00AF     		add	r7, sp, #0
  46              		.cfi_offset 14, -4
  47              		.cfi_offset 7, -8
  48              	.LCFI1:
  49              		.cfi_def_cfa_register 7
  70:.\Generated_Source\PSoC5/SPIS_1.c ****     /*Initialize the Bit counter */
  71:.\Generated_Source\PSoC5/SPIS_1.c ****     SPIS_1_COUNTER_PERIOD_REG = SPIS_1_BITCTR_INIT;
  50              		.loc 1 71 0
  51 0004 46F28743 		movw	r3, #:lower16:1073767559
  52 0008 C4F20003 		movt	r3, #:upper16:1073767559
  53 000c 4FF00702 		mov	r2, #7
  54 0010 1A70     		strb	r2, [r3, #0]
  72:.\Generated_Source\PSoC5/SPIS_1.c **** 
  73:.\Generated_Source\PSoC5/SPIS_1.c ****     /* ISR initialization */
  74:.\Generated_Source\PSoC5/SPIS_1.c ****     #if(SPIS_1_InternalTxInterruptEnabled)
  75:.\Generated_Source\PSoC5/SPIS_1.c **** 
  76:.\Generated_Source\PSoC5/SPIS_1.c ****         CyIntDisable(SPIS_1_TX_ISR_NUMBER);
  77:.\Generated_Source\PSoC5/SPIS_1.c **** 
  78:.\Generated_Source\PSoC5/SPIS_1.c ****         /* Set the ISR to point to the SPIS_1_isr Interrupt. */
  79:.\Generated_Source\PSoC5/SPIS_1.c ****         CyIntSetVector(SPIS_1_TX_ISR_NUMBER, SPIS_1_TX_ISR);
  80:.\Generated_Source\PSoC5/SPIS_1.c **** 
  81:.\Generated_Source\PSoC5/SPIS_1.c ****         /* Set the priority. */
  82:.\Generated_Source\PSoC5/SPIS_1.c ****         CyIntSetPriority(SPIS_1_TX_ISR_NUMBER, SPIS_1_TX_ISR_PRIORITY);
  83:.\Generated_Source\PSoC5/SPIS_1.c **** 
  84:.\Generated_Source\PSoC5/SPIS_1.c ****     #endif /* SPIS_1_InternalTxInterruptEnabled */
  85:.\Generated_Source\PSoC5/SPIS_1.c **** 
  86:.\Generated_Source\PSoC5/SPIS_1.c ****     #if(SPIS_1_InternalRxInterruptEnabled)
  87:.\Generated_Source\PSoC5/SPIS_1.c **** 
  88:.\Generated_Source\PSoC5/SPIS_1.c ****         CyIntDisable(SPIS_1_RX_ISR_NUMBER);
  89:.\Generated_Source\PSoC5/SPIS_1.c **** 
  90:.\Generated_Source\PSoC5/SPIS_1.c ****         /* Set the ISR to point to the SPIS_1_isr Interrupt. */
  91:.\Generated_Source\PSoC5/SPIS_1.c ****         CyIntSetVector(SPIS_1_RX_ISR_NUMBER, SPIS_1_RX_ISR);
  92:.\Generated_Source\PSoC5/SPIS_1.c **** 
  93:.\Generated_Source\PSoC5/SPIS_1.c ****         /* Set the priority. */
  94:.\Generated_Source\PSoC5/SPIS_1.c ****         CyIntSetPriority(SPIS_1_RX_ISR_NUMBER, SPIS_1_RX_ISR_PRIORITY);
  95:.\Generated_Source\PSoC5/SPIS_1.c **** 
  96:.\Generated_Source\PSoC5/SPIS_1.c ****     #endif /* SPIS_1_InternalRxInterruptEnabled */
  97:.\Generated_Source\PSoC5/SPIS_1.c **** 
  98:.\Generated_Source\PSoC5/SPIS_1.c ****     /* Clear any stray data from the RX and TX FIFO */
  99:.\Generated_Source\PSoC5/SPIS_1.c ****     SPIS_1_ClearFIFO();
  55              		.loc 1 99 0
  56 0012 FFF7FEFF 		bl	SPIS_1_ClearFIFO
 100:.\Generated_Source\PSoC5/SPIS_1.c **** 
 101:.\Generated_Source\PSoC5/SPIS_1.c ****     #if(SPIS_1_RXBUFFERSIZE > 4u)
 102:.\Generated_Source\PSoC5/SPIS_1.c **** 
 103:.\Generated_Source\PSoC5/SPIS_1.c ****         SPIS_1_rxBufferRead = 0u;
 104:.\Generated_Source\PSoC5/SPIS_1.c ****         SPIS_1_rxBufferWrite = 0u;
 105:.\Generated_Source\PSoC5/SPIS_1.c **** 
 106:.\Generated_Source\PSoC5/SPIS_1.c ****     #endif /* SPIS_1_RXBUFFERSIZE > 4u */
 107:.\Generated_Source\PSoC5/SPIS_1.c **** 
 108:.\Generated_Source\PSoC5/SPIS_1.c ****     #if(SPIS_1_TXBUFFERSIZE > 4u)
 109:.\Generated_Source\PSoC5/SPIS_1.c **** 
 110:.\Generated_Source\PSoC5/SPIS_1.c ****         SPIS_1_txBufferRead = 0u;
 111:.\Generated_Source\PSoC5/SPIS_1.c ****         SPIS_1_txBufferWrite = 0u;
ARM GAS  C:\Users\hoangp\AppData\Local\Temp\ccnWRgig.s 			page 4


 112:.\Generated_Source\PSoC5/SPIS_1.c **** 
 113:.\Generated_Source\PSoC5/SPIS_1.c ****     #endif /* SPIS_1_TXBUFFERSIZE > 4u */
 114:.\Generated_Source\PSoC5/SPIS_1.c **** 
 115:.\Generated_Source\PSoC5/SPIS_1.c ****     (void) SPIS_1_ReadTxStatus(); /* Clear any pending status bits */
  57              		.loc 1 115 0
  58 0016 FFF7FEFF 		bl	SPIS_1_ReadTxStatus
 116:.\Generated_Source\PSoC5/SPIS_1.c ****     (void) SPIS_1_ReadRxStatus(); /* Clear any pending status bits */
  59              		.loc 1 116 0
  60 001a FFF7FEFF 		bl	SPIS_1_ReadRxStatus
 117:.\Generated_Source\PSoC5/SPIS_1.c **** 
 118:.\Generated_Source\PSoC5/SPIS_1.c **** 
 119:.\Generated_Source\PSoC5/SPIS_1.c ****     /* Configure the Initial interrupt mask */
 120:.\Generated_Source\PSoC5/SPIS_1.c ****     #if (SPIS_1_TXBUFFERSIZE > 4u)
 121:.\Generated_Source\PSoC5/SPIS_1.c ****         SPIS_1_TX_STATUS_MASK_REG  = SPIS_1_TX_INIT_INTERRUPTS_MASK &
 122:.\Generated_Source\PSoC5/SPIS_1.c ****                                                 ~SPIS_1_STS_TX_FIFO_NOT_FULL;
 123:.\Generated_Source\PSoC5/SPIS_1.c ****     #else /* SPIS_1_TXBUFFERSIZE < 4u */
 124:.\Generated_Source\PSoC5/SPIS_1.c ****         SPIS_1_TX_STATUS_MASK_REG  = SPIS_1_TX_INIT_INTERRUPTS_MASK;
  61              		.loc 1 124 0
  62 001e 46F28B43 		movw	r3, #:lower16:1073767563
  63 0022 C4F20003 		movt	r3, #:upper16:1073767563
  64 0026 4FF00002 		mov	r2, #0
  65 002a 1A70     		strb	r2, [r3, #0]
 125:.\Generated_Source\PSoC5/SPIS_1.c ****     #endif /* SPIS_1_TXBUFFERSIZE > 4u */
 126:.\Generated_Source\PSoC5/SPIS_1.c **** 
 127:.\Generated_Source\PSoC5/SPIS_1.c ****     SPIS_1_RX_STATUS_MASK_REG  = SPIS_1_RX_INIT_INTERRUPTS_MASK;
  66              		.loc 1 127 0
  67 002c 46F28C43 		movw	r3, #:lower16:1073767564
  68 0030 C4F20003 		movt	r3, #:upper16:1073767564
  69 0034 4FF00002 		mov	r2, #0
  70 0038 1A70     		strb	r2, [r3, #0]
 128:.\Generated_Source\PSoC5/SPIS_1.c **** 
 129:.\Generated_Source\PSoC5/SPIS_1.c **** }
  71              		.loc 1 129 0
  72 003a 80BD     		pop	{r7, pc}
  73              		.cfi_endproc
  74              	.LFE0:
  75              		.size	SPIS_1_Init, .-SPIS_1_Init
  76              		.section	.text.SPIS_1_Enable,"ax",%progbits
  77              		.align	2
  78              		.global	SPIS_1_Enable
  79              		.thumb
  80              		.thumb_func
  81              		.type	SPIS_1_Enable, %function
  82              	SPIS_1_Enable:
  83              	.LFB1:
 130:.\Generated_Source\PSoC5/SPIS_1.c **** 
 131:.\Generated_Source\PSoC5/SPIS_1.c **** 
 132:.\Generated_Source\PSoC5/SPIS_1.c **** /*******************************************************************************
 133:.\Generated_Source\PSoC5/SPIS_1.c **** * Function Name: SPIS_1_Enable
 134:.\Generated_Source\PSoC5/SPIS_1.c **** ********************************************************************************
 135:.\Generated_Source\PSoC5/SPIS_1.c **** *
 136:.\Generated_Source\PSoC5/SPIS_1.c **** * Summary:
 137:.\Generated_Source\PSoC5/SPIS_1.c **** *  Enable SPIS component.
 138:.\Generated_Source\PSoC5/SPIS_1.c **** *
 139:.\Generated_Source\PSoC5/SPIS_1.c **** * Parameters:
 140:.\Generated_Source\PSoC5/SPIS_1.c **** *  None.
 141:.\Generated_Source\PSoC5/SPIS_1.c **** *
ARM GAS  C:\Users\hoangp\AppData\Local\Temp\ccnWRgig.s 			page 5


 142:.\Generated_Source\PSoC5/SPIS_1.c **** * Return:
 143:.\Generated_Source\PSoC5/SPIS_1.c **** *  None.
 144:.\Generated_Source\PSoC5/SPIS_1.c **** *
 145:.\Generated_Source\PSoC5/SPIS_1.c **** *******************************************************************************/
 146:.\Generated_Source\PSoC5/SPIS_1.c **** void SPIS_1_Enable(void) 
 147:.\Generated_Source\PSoC5/SPIS_1.c **** {
  84              		.loc 1 147 0
  85              		.cfi_startproc
  86              		@ args = 0, pretend = 0, frame = 8
  87              		@ frame_needed = 1, uses_anonymous_args = 0
  88 0000 80B5     		push	{r7, lr}
  89              	.LCFI2:
  90              		.cfi_def_cfa_offset 8
  91 0002 82B0     		sub	sp, sp, #8
  92              	.LCFI3:
  93              		.cfi_def_cfa_offset 16
  94 0004 00AF     		add	r7, sp, #0
  95              		.cfi_offset 14, -4
  96              		.cfi_offset 7, -8
  97              	.LCFI4:
  98              		.cfi_def_cfa_register 7
 148:.\Generated_Source\PSoC5/SPIS_1.c ****     uint8 enableInterrupts = 0u;
  99              		.loc 1 148 0
 100 0006 4FF00003 		mov	r3, #0
 101 000a FB71     		strb	r3, [r7, #7]
 149:.\Generated_Source\PSoC5/SPIS_1.c **** 
 150:.\Generated_Source\PSoC5/SPIS_1.c ****     enableInterrupts = CyEnterCriticalSection();
 102              		.loc 1 150 0
 103 000c FFF7FEFF 		bl	CyEnterCriticalSection
 104 0010 0346     		mov	r3, r0
 105 0012 FB71     		strb	r3, [r7, #7]
 151:.\Generated_Source\PSoC5/SPIS_1.c **** 
 152:.\Generated_Source\PSoC5/SPIS_1.c ****     SPIS_1_COUNTER_CONTROL_REG |= SPIS_1_CNTR_ENABLE;
 106              		.loc 1 152 0
 107 0014 46F29743 		movw	r3, #:lower16:1073767575
 108 0018 C4F20003 		movt	r3, #:upper16:1073767575
 109 001c 46F29742 		movw	r2, #:lower16:1073767575
 110 0020 C4F20002 		movt	r2, #:upper16:1073767575
 111 0024 1278     		ldrb	r2, [r2, #0]
 112 0026 D2B2     		uxtb	r2, r2
 113 0028 42F02002 		orr	r2, r2, #32
 114 002c D2B2     		uxtb	r2, r2
 115 002e 1A70     		strb	r2, [r3, #0]
 153:.\Generated_Source\PSoC5/SPIS_1.c ****     SPIS_1_TX_STATUS_ACTL_REG |= SPIS_1_INT_ENABLE;
 116              		.loc 1 153 0
 117 0030 46F29B43 		movw	r3, #:lower16:1073767579
 118 0034 C4F20003 		movt	r3, #:upper16:1073767579
 119 0038 46F29B42 		movw	r2, #:lower16:1073767579
 120 003c C4F20002 		movt	r2, #:upper16:1073767579
 121 0040 1278     		ldrb	r2, [r2, #0]
 122 0042 D2B2     		uxtb	r2, r2
 123 0044 42F01002 		orr	r2, r2, #16
 124 0048 D2B2     		uxtb	r2, r2
 125 004a 1A70     		strb	r2, [r3, #0]
 154:.\Generated_Source\PSoC5/SPIS_1.c ****     SPIS_1_RX_STATUS_ACTL_REG |= SPIS_1_INT_ENABLE;
 126              		.loc 1 154 0
 127 004c 46F29C43 		movw	r3, #:lower16:1073767580
ARM GAS  C:\Users\hoangp\AppData\Local\Temp\ccnWRgig.s 			page 6


 128 0050 C4F20003 		movt	r3, #:upper16:1073767580
 129 0054 46F29C42 		movw	r2, #:lower16:1073767580
 130 0058 C4F20002 		movt	r2, #:upper16:1073767580
 131 005c 1278     		ldrb	r2, [r2, #0]
 132 005e D2B2     		uxtb	r2, r2
 133 0060 42F01002 		orr	r2, r2, #16
 134 0064 D2B2     		uxtb	r2, r2
 135 0066 1A70     		strb	r2, [r3, #0]
 155:.\Generated_Source\PSoC5/SPIS_1.c **** 
 156:.\Generated_Source\PSoC5/SPIS_1.c ****     CyExitCriticalSection(enableInterrupts);
 136              		.loc 1 156 0
 137 0068 FB79     		ldrb	r3, [r7, #7]	@ zero_extendqisi2
 138 006a 1846     		mov	r0, r3
 139 006c FFF7FEFF 		bl	CyExitCriticalSection
 157:.\Generated_Source\PSoC5/SPIS_1.c **** 
 158:.\Generated_Source\PSoC5/SPIS_1.c ****     #if(SPIS_1_InternalTxInterruptEnabled)
 159:.\Generated_Source\PSoC5/SPIS_1.c ****         CyIntEnable(SPIS_1_TX_ISR_NUMBER);
 160:.\Generated_Source\PSoC5/SPIS_1.c ****     #endif /* SPIS_1_InternalTxInterruptEnabled */
 161:.\Generated_Source\PSoC5/SPIS_1.c **** 
 162:.\Generated_Source\PSoC5/SPIS_1.c ****     #if(SPIS_1_InternalRxInterruptEnabled)
 163:.\Generated_Source\PSoC5/SPIS_1.c ****         CyIntEnable(SPIS_1_RX_ISR_NUMBER);
 164:.\Generated_Source\PSoC5/SPIS_1.c ****     #endif /* SPIS_1_InternalRxInterruptEnabled */
 165:.\Generated_Source\PSoC5/SPIS_1.c **** }
 140              		.loc 1 165 0
 141 0070 07F10807 		add	r7, r7, #8
 142 0074 BD46     		mov	sp, r7
 143 0076 80BD     		pop	{r7, pc}
 144              		.cfi_endproc
 145              	.LFE1:
 146              		.size	SPIS_1_Enable, .-SPIS_1_Enable
 147              		.section	.text.SPIS_1_Start,"ax",%progbits
 148              		.align	2
 149              		.global	SPIS_1_Start
 150              		.thumb
 151              		.thumb_func
 152              		.type	SPIS_1_Start, %function
 153              	SPIS_1_Start:
 154              	.LFB2:
 166:.\Generated_Source\PSoC5/SPIS_1.c **** 
 167:.\Generated_Source\PSoC5/SPIS_1.c **** 
 168:.\Generated_Source\PSoC5/SPIS_1.c **** /*******************************************************************************
 169:.\Generated_Source\PSoC5/SPIS_1.c **** * Function Name: SPIS_1_Start
 170:.\Generated_Source\PSoC5/SPIS_1.c **** ********************************************************************************
 171:.\Generated_Source\PSoC5/SPIS_1.c **** *
 172:.\Generated_Source\PSoC5/SPIS_1.c **** * Summary:
 173:.\Generated_Source\PSoC5/SPIS_1.c **** *  Initialize and Enable the SPI Slave component.
 174:.\Generated_Source\PSoC5/SPIS_1.c **** *
 175:.\Generated_Source\PSoC5/SPIS_1.c **** * Parameters:
 176:.\Generated_Source\PSoC5/SPIS_1.c **** *  None.
 177:.\Generated_Source\PSoC5/SPIS_1.c **** *
 178:.\Generated_Source\PSoC5/SPIS_1.c **** * Return:
 179:.\Generated_Source\PSoC5/SPIS_1.c **** *  None.
 180:.\Generated_Source\PSoC5/SPIS_1.c **** *
 181:.\Generated_Source\PSoC5/SPIS_1.c **** * Global variables:
 182:.\Generated_Source\PSoC5/SPIS_1.c **** *  SPIS_1_initVar - used to check initial configuration, modified on
 183:.\Generated_Source\PSoC5/SPIS_1.c **** *  first function call.
 184:.\Generated_Source\PSoC5/SPIS_1.c **** *
ARM GAS  C:\Users\hoangp\AppData\Local\Temp\ccnWRgig.s 			page 7


 185:.\Generated_Source\PSoC5/SPIS_1.c **** * Theory:
 186:.\Generated_Source\PSoC5/SPIS_1.c **** *  Enable the clock input to enable operation.
 187:.\Generated_Source\PSoC5/SPIS_1.c **** *
 188:.\Generated_Source\PSoC5/SPIS_1.c **** * Reentrant:
 189:.\Generated_Source\PSoC5/SPIS_1.c **** *  No.
 190:.\Generated_Source\PSoC5/SPIS_1.c **** *
 191:.\Generated_Source\PSoC5/SPIS_1.c **** *******************************************************************************/
 192:.\Generated_Source\PSoC5/SPIS_1.c **** void SPIS_1_Start(void) 
 193:.\Generated_Source\PSoC5/SPIS_1.c **** {
 155              		.loc 1 193 0
 156              		.cfi_startproc
 157              		@ args = 0, pretend = 0, frame = 0
 158              		@ frame_needed = 1, uses_anonymous_args = 0
 159 0000 80B5     		push	{r7, lr}
 160              	.LCFI5:
 161              		.cfi_def_cfa_offset 8
 162 0002 00AF     		add	r7, sp, #0
 163              		.cfi_offset 14, -4
 164              		.cfi_offset 7, -8
 165              	.LCFI6:
 166              		.cfi_def_cfa_register 7
 194:.\Generated_Source\PSoC5/SPIS_1.c ****     if(SPIS_1_initVar == 0u)
 167              		.loc 1 194 0
 168 0004 40F20003 		movw	r3, #:lower16:SPIS_1_initVar
 169 0008 C0F20003 		movt	r3, #:upper16:SPIS_1_initVar
 170 000c 1B78     		ldrb	r3, [r3, #0]	@ zero_extendqisi2
 171 000e 002B     		cmp	r3, #0
 172 0010 08D1     		bne	.L6
 195:.\Generated_Source\PSoC5/SPIS_1.c ****     {
 196:.\Generated_Source\PSoC5/SPIS_1.c ****         SPIS_1_Init();
 173              		.loc 1 196 0
 174 0012 FFF7FEFF 		bl	SPIS_1_Init
 197:.\Generated_Source\PSoC5/SPIS_1.c ****         SPIS_1_initVar = 1u;
 175              		.loc 1 197 0
 176 0016 40F20003 		movw	r3, #:lower16:SPIS_1_initVar
 177 001a C0F20003 		movt	r3, #:upper16:SPIS_1_initVar
 178 001e 4FF00102 		mov	r2, #1
 179 0022 1A70     		strb	r2, [r3, #0]
 180              	.L6:
 198:.\Generated_Source\PSoC5/SPIS_1.c ****     }
 199:.\Generated_Source\PSoC5/SPIS_1.c **** 
 200:.\Generated_Source\PSoC5/SPIS_1.c ****     SPIS_1_Enable();
 181              		.loc 1 200 0
 182 0024 FFF7FEFF 		bl	SPIS_1_Enable
 201:.\Generated_Source\PSoC5/SPIS_1.c **** }
 183              		.loc 1 201 0
 184 0028 80BD     		pop	{r7, pc}
 185              		.cfi_endproc
 186              	.LFE2:
 187              		.size	SPIS_1_Start, .-SPIS_1_Start
 188 002a 00BF     		.section	.text.SPIS_1_Stop,"ax",%progbits
 189              		.align	2
 190              		.global	SPIS_1_Stop
 191              		.thumb
 192              		.thumb_func
 193              		.type	SPIS_1_Stop, %function
 194              	SPIS_1_Stop:
ARM GAS  C:\Users\hoangp\AppData\Local\Temp\ccnWRgig.s 			page 8


 195              	.LFB3:
 202:.\Generated_Source\PSoC5/SPIS_1.c **** 
 203:.\Generated_Source\PSoC5/SPIS_1.c **** 
 204:.\Generated_Source\PSoC5/SPIS_1.c **** /*******************************************************************************
 205:.\Generated_Source\PSoC5/SPIS_1.c **** * Function Name: SPIS_1_Stop
 206:.\Generated_Source\PSoC5/SPIS_1.c **** ********************************************************************************
 207:.\Generated_Source\PSoC5/SPIS_1.c **** *
 208:.\Generated_Source\PSoC5/SPIS_1.c **** * Summary:
 209:.\Generated_Source\PSoC5/SPIS_1.c **** *  Disable the SPI Slave component.
 210:.\Generated_Source\PSoC5/SPIS_1.c **** *
 211:.\Generated_Source\PSoC5/SPIS_1.c **** * Parameters:
 212:.\Generated_Source\PSoC5/SPIS_1.c **** *  None.
 213:.\Generated_Source\PSoC5/SPIS_1.c **** *
 214:.\Generated_Source\PSoC5/SPIS_1.c **** * Return:
 215:.\Generated_Source\PSoC5/SPIS_1.c **** *  None.
 216:.\Generated_Source\PSoC5/SPIS_1.c **** *
 217:.\Generated_Source\PSoC5/SPIS_1.c **** * Theory:
 218:.\Generated_Source\PSoC5/SPIS_1.c **** *  Disable the internal interrupt if one is used.
 219:.\Generated_Source\PSoC5/SPIS_1.c **** *
 220:.\Generated_Source\PSoC5/SPIS_1.c **** *******************************************************************************/
 221:.\Generated_Source\PSoC5/SPIS_1.c **** void SPIS_1_Stop(void) 
 222:.\Generated_Source\PSoC5/SPIS_1.c **** {
 196              		.loc 1 222 0
 197              		.cfi_startproc
 198              		@ args = 0, pretend = 0, frame = 8
 199              		@ frame_needed = 1, uses_anonymous_args = 0
 200 0000 80B5     		push	{r7, lr}
 201              	.LCFI7:
 202              		.cfi_def_cfa_offset 8
 203 0002 82B0     		sub	sp, sp, #8
 204              	.LCFI8:
 205              		.cfi_def_cfa_offset 16
 206 0004 00AF     		add	r7, sp, #0
 207              		.cfi_offset 14, -4
 208              		.cfi_offset 7, -8
 209              	.LCFI9:
 210              		.cfi_def_cfa_register 7
 223:.\Generated_Source\PSoC5/SPIS_1.c ****     uint8 enableInterrupts = 0u;
 211              		.loc 1 223 0
 212 0006 4FF00003 		mov	r3, #0
 213 000a FB71     		strb	r3, [r7, #7]
 224:.\Generated_Source\PSoC5/SPIS_1.c **** 
 225:.\Generated_Source\PSoC5/SPIS_1.c ****     enableInterrupts = CyEnterCriticalSection();
 214              		.loc 1 225 0
 215 000c FFF7FEFF 		bl	CyEnterCriticalSection
 216 0010 0346     		mov	r3, r0
 217 0012 FB71     		strb	r3, [r7, #7]
 226:.\Generated_Source\PSoC5/SPIS_1.c **** 
 227:.\Generated_Source\PSoC5/SPIS_1.c ****     SPIS_1_TX_STATUS_ACTL_REG &= ~SPIS_1_INT_ENABLE;
 218              		.loc 1 227 0
 219 0014 46F29B43 		movw	r3, #:lower16:1073767579
 220 0018 C4F20003 		movt	r3, #:upper16:1073767579
 221 001c 46F29B42 		movw	r2, #:lower16:1073767579
 222 0020 C4F20002 		movt	r2, #:upper16:1073767579
 223 0024 1278     		ldrb	r2, [r2, #0]
 224 0026 D2B2     		uxtb	r2, r2
 225 0028 02F0EF02 		and	r2, r2, #239
ARM GAS  C:\Users\hoangp\AppData\Local\Temp\ccnWRgig.s 			page 9


 226 002c 1A70     		strb	r2, [r3, #0]
 228:.\Generated_Source\PSoC5/SPIS_1.c ****     SPIS_1_RX_STATUS_ACTL_REG &= ~SPIS_1_INT_ENABLE;
 227              		.loc 1 228 0
 228 002e 46F29C43 		movw	r3, #:lower16:1073767580
 229 0032 C4F20003 		movt	r3, #:upper16:1073767580
 230 0036 46F29C42 		movw	r2, #:lower16:1073767580
 231 003a C4F20002 		movt	r2, #:upper16:1073767580
 232 003e 1278     		ldrb	r2, [r2, #0]
 233 0040 D2B2     		uxtb	r2, r2
 234 0042 02F0EF02 		and	r2, r2, #239
 235 0046 1A70     		strb	r2, [r3, #0]
 229:.\Generated_Source\PSoC5/SPIS_1.c **** 
 230:.\Generated_Source\PSoC5/SPIS_1.c ****     CyExitCriticalSection(enableInterrupts);
 236              		.loc 1 230 0
 237 0048 FB79     		ldrb	r3, [r7, #7]	@ zero_extendqisi2
 238 004a 1846     		mov	r0, r3
 239 004c FFF7FEFF 		bl	CyExitCriticalSection
 231:.\Generated_Source\PSoC5/SPIS_1.c **** 
 232:.\Generated_Source\PSoC5/SPIS_1.c ****     #if(SPIS_1_InternalTxInterruptEnabled)
 233:.\Generated_Source\PSoC5/SPIS_1.c ****         CyIntDisable(SPIS_1_TX_ISR_NUMBER);
 234:.\Generated_Source\PSoC5/SPIS_1.c ****     #endif /* SPIS_1_InternalTxInterruptEnabled */
 235:.\Generated_Source\PSoC5/SPIS_1.c **** 
 236:.\Generated_Source\PSoC5/SPIS_1.c ****     #if(SPIS_1_InternalRxInterruptEnabled)
 237:.\Generated_Source\PSoC5/SPIS_1.c ****         CyIntDisable(SPIS_1_RX_ISR_NUMBER);
 238:.\Generated_Source\PSoC5/SPIS_1.c ****     #endif /* SPIS_1_InternalRxInterruptEnabled */
 239:.\Generated_Source\PSoC5/SPIS_1.c **** }
 240              		.loc 1 239 0
 241 0050 07F10807 		add	r7, r7, #8
 242 0054 BD46     		mov	sp, r7
 243 0056 80BD     		pop	{r7, pc}
 244              		.cfi_endproc
 245              	.LFE3:
 246              		.size	SPIS_1_Stop, .-SPIS_1_Stop
 247              		.section	.text.SPIS_1_EnableTxInt,"ax",%progbits
 248              		.align	2
 249              		.global	SPIS_1_EnableTxInt
 250              		.thumb
 251              		.thumb_func
 252              		.type	SPIS_1_EnableTxInt, %function
 253              	SPIS_1_EnableTxInt:
 254              	.LFB4:
 240:.\Generated_Source\PSoC5/SPIS_1.c **** 
 241:.\Generated_Source\PSoC5/SPIS_1.c **** 
 242:.\Generated_Source\PSoC5/SPIS_1.c **** /*******************************************************************************
 243:.\Generated_Source\PSoC5/SPIS_1.c **** * Function Name: SPIS_1_EnableTxInt
 244:.\Generated_Source\PSoC5/SPIS_1.c **** ********************************************************************************
 245:.\Generated_Source\PSoC5/SPIS_1.c **** *
 246:.\Generated_Source\PSoC5/SPIS_1.c **** * Summary:
 247:.\Generated_Source\PSoC5/SPIS_1.c **** *  Enable internal Tx interrupt generation.
 248:.\Generated_Source\PSoC5/SPIS_1.c **** *
 249:.\Generated_Source\PSoC5/SPIS_1.c **** * Parameters:
 250:.\Generated_Source\PSoC5/SPIS_1.c **** *  None.
 251:.\Generated_Source\PSoC5/SPIS_1.c **** *
 252:.\Generated_Source\PSoC5/SPIS_1.c **** * Return:
 253:.\Generated_Source\PSoC5/SPIS_1.c **** *  None.
 254:.\Generated_Source\PSoC5/SPIS_1.c **** *
 255:.\Generated_Source\PSoC5/SPIS_1.c **** * Theory:
ARM GAS  C:\Users\hoangp\AppData\Local\Temp\ccnWRgig.s 			page 10


 256:.\Generated_Source\PSoC5/SPIS_1.c **** *  Enable the internal Tx interrupt output -or- the interrupt component itself.
 257:.\Generated_Source\PSoC5/SPIS_1.c **** *
 258:.\Generated_Source\PSoC5/SPIS_1.c **** *******************************************************************************/
 259:.\Generated_Source\PSoC5/SPIS_1.c **** void SPIS_1_EnableTxInt(void) 
 260:.\Generated_Source\PSoC5/SPIS_1.c **** {
 255              		.loc 1 260 0
 256              		.cfi_startproc
 257              		@ args = 0, pretend = 0, frame = 0
 258              		@ frame_needed = 1, uses_anonymous_args = 0
 259              		@ link register save eliminated.
 260 0000 80B4     		push	{r7}
 261              	.LCFI10:
 262              		.cfi_def_cfa_offset 4
 263 0002 00AF     		add	r7, sp, #0
 264              		.cfi_offset 7, -4
 265              	.LCFI11:
 266              		.cfi_def_cfa_register 7
 261:.\Generated_Source\PSoC5/SPIS_1.c ****     #if(SPIS_1_InternalTxInterruptEnabled)
 262:.\Generated_Source\PSoC5/SPIS_1.c ****         CyIntEnable(SPIS_1_TX_ISR_NUMBER);
 263:.\Generated_Source\PSoC5/SPIS_1.c ****     #endif /* SPIS_1_InternalTxInterruptEnabled */
 264:.\Generated_Source\PSoC5/SPIS_1.c **** }
 267              		.loc 1 264 0
 268 0004 BD46     		mov	sp, r7
 269 0006 80BC     		pop	{r7}
 270 0008 7047     		bx	lr
 271              		.cfi_endproc
 272              	.LFE4:
 273              		.size	SPIS_1_EnableTxInt, .-SPIS_1_EnableTxInt
 274 000a 00BF     		.section	.text.SPIS_1_EnableRxInt,"ax",%progbits
 275              		.align	2
 276              		.global	SPIS_1_EnableRxInt
 277              		.thumb
 278              		.thumb_func
 279              		.type	SPIS_1_EnableRxInt, %function
 280              	SPIS_1_EnableRxInt:
 281              	.LFB5:
 265:.\Generated_Source\PSoC5/SPIS_1.c **** 
 266:.\Generated_Source\PSoC5/SPIS_1.c **** 
 267:.\Generated_Source\PSoC5/SPIS_1.c **** /*******************************************************************************
 268:.\Generated_Source\PSoC5/SPIS_1.c **** * Function Name: SPIS_1_EnableRxInt
 269:.\Generated_Source\PSoC5/SPIS_1.c **** ********************************************************************************
 270:.\Generated_Source\PSoC5/SPIS_1.c **** *
 271:.\Generated_Source\PSoC5/SPIS_1.c **** * Summary:
 272:.\Generated_Source\PSoC5/SPIS_1.c **** *  Enable internal Rx interrupt generation.
 273:.\Generated_Source\PSoC5/SPIS_1.c **** *
 274:.\Generated_Source\PSoC5/SPIS_1.c **** * Parameters:
 275:.\Generated_Source\PSoC5/SPIS_1.c **** *  None.
 276:.\Generated_Source\PSoC5/SPIS_1.c **** *
 277:.\Generated_Source\PSoC5/SPIS_1.c **** * Return:
 278:.\Generated_Source\PSoC5/SPIS_1.c **** *  None.
 279:.\Generated_Source\PSoC5/SPIS_1.c **** *
 280:.\Generated_Source\PSoC5/SPIS_1.c **** * Theory:
 281:.\Generated_Source\PSoC5/SPIS_1.c **** *  Enable the internal Rx interrupt output -or- the interrupt component itself.
 282:.\Generated_Source\PSoC5/SPIS_1.c **** *
 283:.\Generated_Source\PSoC5/SPIS_1.c **** *******************************************************************************/
 284:.\Generated_Source\PSoC5/SPIS_1.c **** void SPIS_1_EnableRxInt(void) 
 285:.\Generated_Source\PSoC5/SPIS_1.c **** {
ARM GAS  C:\Users\hoangp\AppData\Local\Temp\ccnWRgig.s 			page 11


 282              		.loc 1 285 0
 283              		.cfi_startproc
 284              		@ args = 0, pretend = 0, frame = 0
 285              		@ frame_needed = 1, uses_anonymous_args = 0
 286              		@ link register save eliminated.
 287 0000 80B4     		push	{r7}
 288              	.LCFI12:
 289              		.cfi_def_cfa_offset 4
 290 0002 00AF     		add	r7, sp, #0
 291              		.cfi_offset 7, -4
 292              	.LCFI13:
 293              		.cfi_def_cfa_register 7
 286:.\Generated_Source\PSoC5/SPIS_1.c ****     #if(SPIS_1_InternalRxInterruptEnabled)
 287:.\Generated_Source\PSoC5/SPIS_1.c ****         CyIntEnable(SPIS_1_RX_ISR_NUMBER);
 288:.\Generated_Source\PSoC5/SPIS_1.c ****     #endif /* SPIS_1_InternalRxInterruptEnabled */
 289:.\Generated_Source\PSoC5/SPIS_1.c **** }
 294              		.loc 1 289 0
 295 0004 BD46     		mov	sp, r7
 296 0006 80BC     		pop	{r7}
 297 0008 7047     		bx	lr
 298              		.cfi_endproc
 299              	.LFE5:
 300              		.size	SPIS_1_EnableRxInt, .-SPIS_1_EnableRxInt
 301 000a 00BF     		.section	.text.SPIS_1_DisableTxInt,"ax",%progbits
 302              		.align	2
 303              		.global	SPIS_1_DisableTxInt
 304              		.thumb
 305              		.thumb_func
 306              		.type	SPIS_1_DisableTxInt, %function
 307              	SPIS_1_DisableTxInt:
 308              	.LFB6:
 290:.\Generated_Source\PSoC5/SPIS_1.c **** 
 291:.\Generated_Source\PSoC5/SPIS_1.c **** 
 292:.\Generated_Source\PSoC5/SPIS_1.c **** /*******************************************************************************
 293:.\Generated_Source\PSoC5/SPIS_1.c **** * Function Name: SPIS_1_DisableTxInt
 294:.\Generated_Source\PSoC5/SPIS_1.c **** ********************************************************************************
 295:.\Generated_Source\PSoC5/SPIS_1.c **** *
 296:.\Generated_Source\PSoC5/SPIS_1.c **** * Summary:
 297:.\Generated_Source\PSoC5/SPIS_1.c **** *  Disable internal Tx interrupt generation.
 298:.\Generated_Source\PSoC5/SPIS_1.c **** *
 299:.\Generated_Source\PSoC5/SPIS_1.c **** * Parameters:
 300:.\Generated_Source\PSoC5/SPIS_1.c **** *  None.
 301:.\Generated_Source\PSoC5/SPIS_1.c **** *
 302:.\Generated_Source\PSoC5/SPIS_1.c **** * Return:
 303:.\Generated_Source\PSoC5/SPIS_1.c **** *  None.
 304:.\Generated_Source\PSoC5/SPIS_1.c **** *
 305:.\Generated_Source\PSoC5/SPIS_1.c **** * Theory:
 306:.\Generated_Source\PSoC5/SPIS_1.c **** *  Disable the internal Tx interrupt output -or- the interrupt component itself.
 307:.\Generated_Source\PSoC5/SPIS_1.c **** *
 308:.\Generated_Source\PSoC5/SPIS_1.c **** *******************************************************************************/
 309:.\Generated_Source\PSoC5/SPIS_1.c **** void SPIS_1_DisableTxInt(void) 
 310:.\Generated_Source\PSoC5/SPIS_1.c **** {
 309              		.loc 1 310 0
 310              		.cfi_startproc
 311              		@ args = 0, pretend = 0, frame = 0
 312              		@ frame_needed = 1, uses_anonymous_args = 0
 313              		@ link register save eliminated.
ARM GAS  C:\Users\hoangp\AppData\Local\Temp\ccnWRgig.s 			page 12


 314 0000 80B4     		push	{r7}
 315              	.LCFI14:
 316              		.cfi_def_cfa_offset 4
 317 0002 00AF     		add	r7, sp, #0
 318              		.cfi_offset 7, -4
 319              	.LCFI15:
 320              		.cfi_def_cfa_register 7
 311:.\Generated_Source\PSoC5/SPIS_1.c ****     #if(SPIS_1_InternalTxInterruptEnabled)
 312:.\Generated_Source\PSoC5/SPIS_1.c ****         CyIntDisable(SPIS_1_TX_ISR_NUMBER);
 313:.\Generated_Source\PSoC5/SPIS_1.c ****     #endif /* SPIS_1_InternalTxInterruptEnabled */
 314:.\Generated_Source\PSoC5/SPIS_1.c **** }
 321              		.loc 1 314 0
 322 0004 BD46     		mov	sp, r7
 323 0006 80BC     		pop	{r7}
 324 0008 7047     		bx	lr
 325              		.cfi_endproc
 326              	.LFE6:
 327              		.size	SPIS_1_DisableTxInt, .-SPIS_1_DisableTxInt
 328 000a 00BF     		.section	.text.SPIS_1_DisableRxInt,"ax",%progbits
 329              		.align	2
 330              		.global	SPIS_1_DisableRxInt
 331              		.thumb
 332              		.thumb_func
 333              		.type	SPIS_1_DisableRxInt, %function
 334              	SPIS_1_DisableRxInt:
 335              	.LFB7:
 315:.\Generated_Source\PSoC5/SPIS_1.c **** 
 316:.\Generated_Source\PSoC5/SPIS_1.c **** 
 317:.\Generated_Source\PSoC5/SPIS_1.c **** /*******************************************************************************
 318:.\Generated_Source\PSoC5/SPIS_1.c **** * Function Name: SPIS_1_DisableRxInt
 319:.\Generated_Source\PSoC5/SPIS_1.c **** ********************************************************************************
 320:.\Generated_Source\PSoC5/SPIS_1.c **** *
 321:.\Generated_Source\PSoC5/SPIS_1.c **** * Summary:
 322:.\Generated_Source\PSoC5/SPIS_1.c **** *  Disable internal Rx interrupt generation.
 323:.\Generated_Source\PSoC5/SPIS_1.c **** *
 324:.\Generated_Source\PSoC5/SPIS_1.c **** * Parameters:
 325:.\Generated_Source\PSoC5/SPIS_1.c **** *  None.
 326:.\Generated_Source\PSoC5/SPIS_1.c **** *
 327:.\Generated_Source\PSoC5/SPIS_1.c **** * Return:
 328:.\Generated_Source\PSoC5/SPIS_1.c **** *  None.
 329:.\Generated_Source\PSoC5/SPIS_1.c **** *
 330:.\Generated_Source\PSoC5/SPIS_1.c **** * Theory:
 331:.\Generated_Source\PSoC5/SPIS_1.c **** *  Disable the internal Rx interrupt output -or- the interrupt component itself.
 332:.\Generated_Source\PSoC5/SPIS_1.c **** *
 333:.\Generated_Source\PSoC5/SPIS_1.c **** *******************************************************************************/
 334:.\Generated_Source\PSoC5/SPIS_1.c **** void SPIS_1_DisableRxInt(void) 
 335:.\Generated_Source\PSoC5/SPIS_1.c **** {
 336              		.loc 1 335 0
 337              		.cfi_startproc
 338              		@ args = 0, pretend = 0, frame = 0
 339              		@ frame_needed = 1, uses_anonymous_args = 0
 340              		@ link register save eliminated.
 341 0000 80B4     		push	{r7}
 342              	.LCFI16:
 343              		.cfi_def_cfa_offset 4
 344 0002 00AF     		add	r7, sp, #0
 345              		.cfi_offset 7, -4
ARM GAS  C:\Users\hoangp\AppData\Local\Temp\ccnWRgig.s 			page 13


 346              	.LCFI17:
 347              		.cfi_def_cfa_register 7
 336:.\Generated_Source\PSoC5/SPIS_1.c ****     #if(SPIS_1_InternalRxInterruptEnabled)
 337:.\Generated_Source\PSoC5/SPIS_1.c ****         CyIntDisable(SPIS_1_RX_ISR_NUMBER);
 338:.\Generated_Source\PSoC5/SPIS_1.c ****     #endif /* SPIS_1_InternalRxInterruptEnabled */
 339:.\Generated_Source\PSoC5/SPIS_1.c **** }
 348              		.loc 1 339 0
 349 0004 BD46     		mov	sp, r7
 350 0006 80BC     		pop	{r7}
 351 0008 7047     		bx	lr
 352              		.cfi_endproc
 353              	.LFE7:
 354              		.size	SPIS_1_DisableRxInt, .-SPIS_1_DisableRxInt
 355 000a 00BF     		.section	.text.SPIS_1_SetTxInterruptMode,"ax",%progbits
 356              		.align	2
 357              		.global	SPIS_1_SetTxInterruptMode
 358              		.thumb
 359              		.thumb_func
 360              		.type	SPIS_1_SetTxInterruptMode, %function
 361              	SPIS_1_SetTxInterruptMode:
 362              	.LFB8:
 340:.\Generated_Source\PSoC5/SPIS_1.c **** 
 341:.\Generated_Source\PSoC5/SPIS_1.c **** 
 342:.\Generated_Source\PSoC5/SPIS_1.c **** /*******************************************************************************
 343:.\Generated_Source\PSoC5/SPIS_1.c **** * Function Name: SPIS_1_SetTxInterruptMode
 344:.\Generated_Source\PSoC5/SPIS_1.c **** ********************************************************************************
 345:.\Generated_Source\PSoC5/SPIS_1.c **** *
 346:.\Generated_Source\PSoC5/SPIS_1.c **** * Summary:
 347:.\Generated_Source\PSoC5/SPIS_1.c **** *  Configure which status bits trigger an interrupt event.
 348:.\Generated_Source\PSoC5/SPIS_1.c **** *
 349:.\Generated_Source\PSoC5/SPIS_1.c **** * Parameters:
 350:.\Generated_Source\PSoC5/SPIS_1.c **** *  intSrc: An or'd combination of the desired status bit masks (defined in the
 351:.\Generated_Source\PSoC5/SPIS_1.c **** *  header file).
 352:.\Generated_Source\PSoC5/SPIS_1.c **** *
 353:.\Generated_Source\PSoC5/SPIS_1.c **** * Return:
 354:.\Generated_Source\PSoC5/SPIS_1.c **** *  None.
 355:.\Generated_Source\PSoC5/SPIS_1.c **** *
 356:.\Generated_Source\PSoC5/SPIS_1.c **** * Theory:
 357:.\Generated_Source\PSoC5/SPIS_1.c **** *  Enables the output of specific status bits to the interrupt controller.
 358:.\Generated_Source\PSoC5/SPIS_1.c **** *
 359:.\Generated_Source\PSoC5/SPIS_1.c **** *******************************************************************************/
 360:.\Generated_Source\PSoC5/SPIS_1.c **** void SPIS_1_SetTxInterruptMode(uint8 intSrc) 
 361:.\Generated_Source\PSoC5/SPIS_1.c **** {
 363              		.loc 1 361 0
 364              		.cfi_startproc
 365              		@ args = 0, pretend = 0, frame = 8
 366              		@ frame_needed = 1, uses_anonymous_args = 0
 367              		@ link register save eliminated.
 368 0000 80B4     		push	{r7}
 369              	.LCFI18:
 370              		.cfi_def_cfa_offset 4
 371 0002 83B0     		sub	sp, sp, #12
 372              	.LCFI19:
 373              		.cfi_def_cfa_offset 16
 374 0004 00AF     		add	r7, sp, #0
 375              		.cfi_offset 7, -4
 376              	.LCFI20:
ARM GAS  C:\Users\hoangp\AppData\Local\Temp\ccnWRgig.s 			page 14


 377              		.cfi_def_cfa_register 7
 378 0006 0346     		mov	r3, r0
 379 0008 FB71     		strb	r3, [r7, #7]
 362:.\Generated_Source\PSoC5/SPIS_1.c ****     SPIS_1_TX_STATUS_MASK_REG  = intSrc;
 380              		.loc 1 362 0
 381 000a 46F28B43 		movw	r3, #:lower16:1073767563
 382 000e C4F20003 		movt	r3, #:upper16:1073767563
 383 0012 FA79     		ldrb	r2, [r7, #7]
 384 0014 1A70     		strb	r2, [r3, #0]
 363:.\Generated_Source\PSoC5/SPIS_1.c **** }
 385              		.loc 1 363 0
 386 0016 07F10C07 		add	r7, r7, #12
 387 001a BD46     		mov	sp, r7
 388 001c 80BC     		pop	{r7}
 389 001e 7047     		bx	lr
 390              		.cfi_endproc
 391              	.LFE8:
 392              		.size	SPIS_1_SetTxInterruptMode, .-SPIS_1_SetTxInterruptMode
 393              		.section	.text.SPIS_1_SetRxInterruptMode,"ax",%progbits
 394              		.align	2
 395              		.global	SPIS_1_SetRxInterruptMode
 396              		.thumb
 397              		.thumb_func
 398              		.type	SPIS_1_SetRxInterruptMode, %function
 399              	SPIS_1_SetRxInterruptMode:
 400              	.LFB9:
 364:.\Generated_Source\PSoC5/SPIS_1.c **** 
 365:.\Generated_Source\PSoC5/SPIS_1.c **** 
 366:.\Generated_Source\PSoC5/SPIS_1.c **** /*******************************************************************************
 367:.\Generated_Source\PSoC5/SPIS_1.c **** * Function Name: SPIS_1_SetRxInterruptMode
 368:.\Generated_Source\PSoC5/SPIS_1.c **** ********************************************************************************
 369:.\Generated_Source\PSoC5/SPIS_1.c **** *
 370:.\Generated_Source\PSoC5/SPIS_1.c **** * Summary:
 371:.\Generated_Source\PSoC5/SPIS_1.c **** *  Configure which status bits trigger an interrupt event.
 372:.\Generated_Source\PSoC5/SPIS_1.c **** *
 373:.\Generated_Source\PSoC5/SPIS_1.c **** * Parameters:
 374:.\Generated_Source\PSoC5/SPIS_1.c **** *  intSrc: An or'd combination of the desired status bit masks (defined in the
 375:.\Generated_Source\PSoC5/SPIS_1.c **** *  header file).
 376:.\Generated_Source\PSoC5/SPIS_1.c **** *
 377:.\Generated_Source\PSoC5/SPIS_1.c **** * Return:
 378:.\Generated_Source\PSoC5/SPIS_1.c **** *  None.
 379:.\Generated_Source\PSoC5/SPIS_1.c **** *
 380:.\Generated_Source\PSoC5/SPIS_1.c **** * Theory:
 381:.\Generated_Source\PSoC5/SPIS_1.c **** *  Enables the output of specific status bits to the interrupt controller.
 382:.\Generated_Source\PSoC5/SPIS_1.c **** *
 383:.\Generated_Source\PSoC5/SPIS_1.c **** *******************************************************************************/
 384:.\Generated_Source\PSoC5/SPIS_1.c **** void SPIS_1_SetRxInterruptMode(uint8 intSrc) 
 385:.\Generated_Source\PSoC5/SPIS_1.c **** {
 401              		.loc 1 385 0
 402              		.cfi_startproc
 403              		@ args = 0, pretend = 0, frame = 8
 404              		@ frame_needed = 1, uses_anonymous_args = 0
 405              		@ link register save eliminated.
 406 0000 80B4     		push	{r7}
 407              	.LCFI21:
 408              		.cfi_def_cfa_offset 4
 409 0002 83B0     		sub	sp, sp, #12
ARM GAS  C:\Users\hoangp\AppData\Local\Temp\ccnWRgig.s 			page 15


 410              	.LCFI22:
 411              		.cfi_def_cfa_offset 16
 412 0004 00AF     		add	r7, sp, #0
 413              		.cfi_offset 7, -4
 414              	.LCFI23:
 415              		.cfi_def_cfa_register 7
 416 0006 0346     		mov	r3, r0
 417 0008 FB71     		strb	r3, [r7, #7]
 386:.\Generated_Source\PSoC5/SPIS_1.c ****     SPIS_1_RX_STATUS_MASK_REG  = intSrc;
 418              		.loc 1 386 0
 419 000a 46F28C43 		movw	r3, #:lower16:1073767564
 420 000e C4F20003 		movt	r3, #:upper16:1073767564
 421 0012 FA79     		ldrb	r2, [r7, #7]
 422 0014 1A70     		strb	r2, [r3, #0]
 387:.\Generated_Source\PSoC5/SPIS_1.c **** }
 423              		.loc 1 387 0
 424 0016 07F10C07 		add	r7, r7, #12
 425 001a BD46     		mov	sp, r7
 426 001c 80BC     		pop	{r7}
 427 001e 7047     		bx	lr
 428              		.cfi_endproc
 429              	.LFE9:
 430              		.size	SPIS_1_SetRxInterruptMode, .-SPIS_1_SetRxInterruptMode
 431              		.section	.text.SPIS_1_ReadTxStatus,"ax",%progbits
 432              		.align	2
 433              		.global	SPIS_1_ReadTxStatus
 434              		.thumb
 435              		.thumb_func
 436              		.type	SPIS_1_ReadTxStatus, %function
 437              	SPIS_1_ReadTxStatus:
 438              	.LFB10:
 388:.\Generated_Source\PSoC5/SPIS_1.c **** 
 389:.\Generated_Source\PSoC5/SPIS_1.c **** 
 390:.\Generated_Source\PSoC5/SPIS_1.c **** /*******************************************************************************
 391:.\Generated_Source\PSoC5/SPIS_1.c **** * Function Name: SPIS_1_ReadTxStatus
 392:.\Generated_Source\PSoC5/SPIS_1.c **** ********************************************************************************
 393:.\Generated_Source\PSoC5/SPIS_1.c **** *
 394:.\Generated_Source\PSoC5/SPIS_1.c **** * Summary:
 395:.\Generated_Source\PSoC5/SPIS_1.c **** *  Read the Tx status register for the component.
 396:.\Generated_Source\PSoC5/SPIS_1.c **** *
 397:.\Generated_Source\PSoC5/SPIS_1.c **** * Parameters:
 398:.\Generated_Source\PSoC5/SPIS_1.c **** *  None.
 399:.\Generated_Source\PSoC5/SPIS_1.c **** *
 400:.\Generated_Source\PSoC5/SPIS_1.c **** * Return:
 401:.\Generated_Source\PSoC5/SPIS_1.c **** *  Contents of the Tx status register.
 402:.\Generated_Source\PSoC5/SPIS_1.c **** *
 403:.\Generated_Source\PSoC5/SPIS_1.c **** * Global variables:
 404:.\Generated_Source\PSoC5/SPIS_1.c **** *  SPIS_1_swStatusTx - used to store in software status register,
 405:.\Generated_Source\PSoC5/SPIS_1.c **** *  modified every function call - resets to zero.
 406:.\Generated_Source\PSoC5/SPIS_1.c **** *
 407:.\Generated_Source\PSoC5/SPIS_1.c **** * Theory:
 408:.\Generated_Source\PSoC5/SPIS_1.c **** *  Allows the user and the API to read the Tx status register for error
 409:.\Generated_Source\PSoC5/SPIS_1.c **** *  detection and flow control.
 410:.\Generated_Source\PSoC5/SPIS_1.c **** *
 411:.\Generated_Source\PSoC5/SPIS_1.c **** * Side Effects:
 412:.\Generated_Source\PSoC5/SPIS_1.c **** *  Clear Tx status register of the component.
 413:.\Generated_Source\PSoC5/SPIS_1.c **** *
ARM GAS  C:\Users\hoangp\AppData\Local\Temp\ccnWRgig.s 			page 16


 414:.\Generated_Source\PSoC5/SPIS_1.c **** * Reentrant:
 415:.\Generated_Source\PSoC5/SPIS_1.c **** *  No.
 416:.\Generated_Source\PSoC5/SPIS_1.c **** *
 417:.\Generated_Source\PSoC5/SPIS_1.c **** *******************************************************************************/
 418:.\Generated_Source\PSoC5/SPIS_1.c **** uint8 SPIS_1_ReadTxStatus(void) 
 419:.\Generated_Source\PSoC5/SPIS_1.c **** {
 439              		.loc 1 419 0
 440              		.cfi_startproc
 441              		@ args = 0, pretend = 0, frame = 8
 442              		@ frame_needed = 1, uses_anonymous_args = 0
 443              		@ link register save eliminated.
 444 0000 80B4     		push	{r7}
 445              	.LCFI24:
 446              		.cfi_def_cfa_offset 4
 447 0002 83B0     		sub	sp, sp, #12
 448              	.LCFI25:
 449              		.cfi_def_cfa_offset 16
 450 0004 00AF     		add	r7, sp, #0
 451              		.cfi_offset 7, -4
 452              	.LCFI26:
 453              		.cfi_def_cfa_register 7
 420:.\Generated_Source\PSoC5/SPIS_1.c ****     uint8 tmpStatus = 0u;
 454              		.loc 1 420 0
 455 0006 4FF00003 		mov	r3, #0
 456 000a FB71     		strb	r3, [r7, #7]
 421:.\Generated_Source\PSoC5/SPIS_1.c **** 
 422:.\Generated_Source\PSoC5/SPIS_1.c ****     #if (SPIS_1_TXBUFFERSIZE > 4u)
 423:.\Generated_Source\PSoC5/SPIS_1.c **** 
 424:.\Generated_Source\PSoC5/SPIS_1.c ****         SPIS_1_DisableTxInt();
 425:.\Generated_Source\PSoC5/SPIS_1.c **** 
 426:.\Generated_Source\PSoC5/SPIS_1.c ****         tmpStatus = SPIS_1_GET_STATUS_TX(SPIS_1_swStatusTx);
 427:.\Generated_Source\PSoC5/SPIS_1.c **** 
 428:.\Generated_Source\PSoC5/SPIS_1.c ****         SPIS_1_swStatusTx = 0u;
 429:.\Generated_Source\PSoC5/SPIS_1.c **** 
 430:.\Generated_Source\PSoC5/SPIS_1.c ****         /* Enable Interrupts */
 431:.\Generated_Source\PSoC5/SPIS_1.c ****         SPIS_1_EnableTxInt();
 432:.\Generated_Source\PSoC5/SPIS_1.c **** 
 433:.\Generated_Source\PSoC5/SPIS_1.c ****     #else /* (SPIS_1_TXBUFFERSIZE < 4u) */
 434:.\Generated_Source\PSoC5/SPIS_1.c **** 
 435:.\Generated_Source\PSoC5/SPIS_1.c ****         tmpStatus = SPIS_1_TX_STATUS_REG;
 457              		.loc 1 435 0
 458 000c 46F26B43 		movw	r3, #:lower16:1073767531
 459 0010 C4F20003 		movt	r3, #:upper16:1073767531
 460 0014 1B78     		ldrb	r3, [r3, #0]
 461 0016 FB71     		strb	r3, [r7, #7]
 436:.\Generated_Source\PSoC5/SPIS_1.c **** 
 437:.\Generated_Source\PSoC5/SPIS_1.c ****     #endif /* (SPIS_1_TXBUFFERSIZE > 4u) */
 438:.\Generated_Source\PSoC5/SPIS_1.c **** 
 439:.\Generated_Source\PSoC5/SPIS_1.c ****     return(tmpStatus);
 462              		.loc 1 439 0
 463 0018 FB79     		ldrb	r3, [r7, #7]	@ zero_extendqisi2
 440:.\Generated_Source\PSoC5/SPIS_1.c **** }
 464              		.loc 1 440 0
 465 001a 1846     		mov	r0, r3
 466 001c 07F10C07 		add	r7, r7, #12
 467 0020 BD46     		mov	sp, r7
 468 0022 80BC     		pop	{r7}
ARM GAS  C:\Users\hoangp\AppData\Local\Temp\ccnWRgig.s 			page 17


 469 0024 7047     		bx	lr
 470              		.cfi_endproc
 471              	.LFE10:
 472              		.size	SPIS_1_ReadTxStatus, .-SPIS_1_ReadTxStatus
 473 0026 00BF     		.section	.text.SPIS_1_ReadRxStatus,"ax",%progbits
 474              		.align	2
 475              		.global	SPIS_1_ReadRxStatus
 476              		.thumb
 477              		.thumb_func
 478              		.type	SPIS_1_ReadRxStatus, %function
 479              	SPIS_1_ReadRxStatus:
 480              	.LFB11:
 441:.\Generated_Source\PSoC5/SPIS_1.c **** 
 442:.\Generated_Source\PSoC5/SPIS_1.c **** 
 443:.\Generated_Source\PSoC5/SPIS_1.c **** /*******************************************************************************
 444:.\Generated_Source\PSoC5/SPIS_1.c **** * Function Name: SPIS_1_ReadRxStatus
 445:.\Generated_Source\PSoC5/SPIS_1.c **** ********************************************************************************
 446:.\Generated_Source\PSoC5/SPIS_1.c **** *
 447:.\Generated_Source\PSoC5/SPIS_1.c **** * Summary:
 448:.\Generated_Source\PSoC5/SPIS_1.c **** *  Read the Rx status register for the component.
 449:.\Generated_Source\PSoC5/SPIS_1.c **** *
 450:.\Generated_Source\PSoC5/SPIS_1.c **** * Parameters:
 451:.\Generated_Source\PSoC5/SPIS_1.c **** *  None.
 452:.\Generated_Source\PSoC5/SPIS_1.c **** *
 453:.\Generated_Source\PSoC5/SPIS_1.c **** * Return:
 454:.\Generated_Source\PSoC5/SPIS_1.c **** *  Contents of the Rx status register.
 455:.\Generated_Source\PSoC5/SPIS_1.c **** *
 456:.\Generated_Source\PSoC5/SPIS_1.c **** * Global variables:
 457:.\Generated_Source\PSoC5/SPIS_1.c **** *  SPIS_1_swStatusRx - used to store in software Rx status register,
 458:.\Generated_Source\PSoC5/SPIS_1.c **** *  modified every function call - resets to zero.
 459:.\Generated_Source\PSoC5/SPIS_1.c **** *
 460:.\Generated_Source\PSoC5/SPIS_1.c **** * Theory:
 461:.\Generated_Source\PSoC5/SPIS_1.c **** *  Allows the user and the API to read the Rx status register for error
 462:.\Generated_Source\PSoC5/SPIS_1.c **** *  detection and flow control.
 463:.\Generated_Source\PSoC5/SPIS_1.c **** *
 464:.\Generated_Source\PSoC5/SPIS_1.c **** * Side Effects:
 465:.\Generated_Source\PSoC5/SPIS_1.c **** *  Clear Rx status register of the component.
 466:.\Generated_Source\PSoC5/SPIS_1.c **** *
 467:.\Generated_Source\PSoC5/SPIS_1.c **** * Reentrant:
 468:.\Generated_Source\PSoC5/SPIS_1.c **** *  No.
 469:.\Generated_Source\PSoC5/SPIS_1.c **** *
 470:.\Generated_Source\PSoC5/SPIS_1.c **** *******************************************************************************/
 471:.\Generated_Source\PSoC5/SPIS_1.c **** uint8 SPIS_1_ReadRxStatus(void) 
 472:.\Generated_Source\PSoC5/SPIS_1.c **** {
 481              		.loc 1 472 0
 482              		.cfi_startproc
 483              		@ args = 0, pretend = 0, frame = 8
 484              		@ frame_needed = 1, uses_anonymous_args = 0
 485              		@ link register save eliminated.
 486 0000 80B4     		push	{r7}
 487              	.LCFI27:
 488              		.cfi_def_cfa_offset 4
 489 0002 83B0     		sub	sp, sp, #12
 490              	.LCFI28:
 491              		.cfi_def_cfa_offset 16
 492 0004 00AF     		add	r7, sp, #0
 493              		.cfi_offset 7, -4
ARM GAS  C:\Users\hoangp\AppData\Local\Temp\ccnWRgig.s 			page 18


 494              	.LCFI29:
 495              		.cfi_def_cfa_register 7
 473:.\Generated_Source\PSoC5/SPIS_1.c ****     uint8 tmpStatus = 0u;
 496              		.loc 1 473 0
 497 0006 4FF00003 		mov	r3, #0
 498 000a FB71     		strb	r3, [r7, #7]
 474:.\Generated_Source\PSoC5/SPIS_1.c **** 
 475:.\Generated_Source\PSoC5/SPIS_1.c ****     #if (SPIS_1_RXBUFFERSIZE > 4u)
 476:.\Generated_Source\PSoC5/SPIS_1.c **** 
 477:.\Generated_Source\PSoC5/SPIS_1.c ****         SPIS_1_DisableRxInt();
 478:.\Generated_Source\PSoC5/SPIS_1.c **** 
 479:.\Generated_Source\PSoC5/SPIS_1.c ****         tmpStatus = SPIS_1_GET_STATUS_RX(SPIS_1_swStatusRx);
 480:.\Generated_Source\PSoC5/SPIS_1.c **** 
 481:.\Generated_Source\PSoC5/SPIS_1.c ****         SPIS_1_swStatusRx = 0u;
 482:.\Generated_Source\PSoC5/SPIS_1.c **** 
 483:.\Generated_Source\PSoC5/SPIS_1.c ****         /* Enable Interrupts */
 484:.\Generated_Source\PSoC5/SPIS_1.c ****         SPIS_1_EnableRxInt();
 485:.\Generated_Source\PSoC5/SPIS_1.c **** 
 486:.\Generated_Source\PSoC5/SPIS_1.c ****     #else /* (SPIS_1_RXBUFFERSIZE < 4u) */
 487:.\Generated_Source\PSoC5/SPIS_1.c **** 
 488:.\Generated_Source\PSoC5/SPIS_1.c ****         tmpStatus = SPIS_1_RX_STATUS_REG;
 499              		.loc 1 488 0
 500 000c 46F26C43 		movw	r3, #:lower16:1073767532
 501 0010 C4F20003 		movt	r3, #:upper16:1073767532
 502 0014 1B78     		ldrb	r3, [r3, #0]
 503 0016 FB71     		strb	r3, [r7, #7]
 489:.\Generated_Source\PSoC5/SPIS_1.c **** 
 490:.\Generated_Source\PSoC5/SPIS_1.c ****     #endif /* (SPIS_1_RXBUFFERSIZE > 4u) */
 491:.\Generated_Source\PSoC5/SPIS_1.c **** 
 492:.\Generated_Source\PSoC5/SPIS_1.c ****     return(tmpStatus);
 504              		.loc 1 492 0
 505 0018 FB79     		ldrb	r3, [r7, #7]	@ zero_extendqisi2
 493:.\Generated_Source\PSoC5/SPIS_1.c **** }
 506              		.loc 1 493 0
 507 001a 1846     		mov	r0, r3
 508 001c 07F10C07 		add	r7, r7, #12
 509 0020 BD46     		mov	sp, r7
 510 0022 80BC     		pop	{r7}
 511 0024 7047     		bx	lr
 512              		.cfi_endproc
 513              	.LFE11:
 514              		.size	SPIS_1_ReadRxStatus, .-SPIS_1_ReadRxStatus
 515 0026 00BF     		.section	.text.SPIS_1_WriteTxData,"ax",%progbits
 516              		.align	2
 517              		.global	SPIS_1_WriteTxData
 518              		.thumb
 519              		.thumb_func
 520              		.type	SPIS_1_WriteTxData, %function
 521              	SPIS_1_WriteTxData:
 522              	.LFB12:
 494:.\Generated_Source\PSoC5/SPIS_1.c **** 
 495:.\Generated_Source\PSoC5/SPIS_1.c **** 
 496:.\Generated_Source\PSoC5/SPIS_1.c **** /*******************************************************************************
 497:.\Generated_Source\PSoC5/SPIS_1.c **** * Function Name: SPIS_1_WriteTxData
 498:.\Generated_Source\PSoC5/SPIS_1.c **** ********************************************************************************
 499:.\Generated_Source\PSoC5/SPIS_1.c **** *
 500:.\Generated_Source\PSoC5/SPIS_1.c **** * Summary:
ARM GAS  C:\Users\hoangp\AppData\Local\Temp\ccnWRgig.s 			page 19


 501:.\Generated_Source\PSoC5/SPIS_1.c **** *  Write a byte of data to be sent across the SPI.
 502:.\Generated_Source\PSoC5/SPIS_1.c **** *
 503:.\Generated_Source\PSoC5/SPIS_1.c **** * Parameters:
 504:.\Generated_Source\PSoC5/SPIS_1.c **** *  txDataByte: The data value to send across the SPI.
 505:.\Generated_Source\PSoC5/SPIS_1.c **** *
 506:.\Generated_Source\PSoC5/SPIS_1.c **** * Return:
 507:.\Generated_Source\PSoC5/SPIS_1.c **** *  None.
 508:.\Generated_Source\PSoC5/SPIS_1.c **** *
 509:.\Generated_Source\PSoC5/SPIS_1.c **** * Global variables:
 510:.\Generated_Source\PSoC5/SPIS_1.c **** *  SPIS_1_txBufferWrite - used for the account of the bytes which
 511:.\Generated_Source\PSoC5/SPIS_1.c **** *  have been written down in the TX software buffer, modified every function
 512:.\Generated_Source\PSoC5/SPIS_1.c **** *  call if TX Software Buffer is used.
 513:.\Generated_Source\PSoC5/SPIS_1.c **** *  SPIS_1_txBufferRead - used for the account of the bytes which
 514:.\Generated_Source\PSoC5/SPIS_1.c **** *  have been read from the TX software buffer.
 515:.\Generated_Source\PSoC5/SPIS_1.c **** *  SPIS_1_TXBUFFER[SPIS_1_TXBUFFERSIZE] - used to store
 516:.\Generated_Source\PSoC5/SPIS_1.c **** *  data to sending, modified every function call if TX Software Buffer is used.
 517:.\Generated_Source\PSoC5/SPIS_1.c **** *
 518:.\Generated_Source\PSoC5/SPIS_1.c **** * Theory:
 519:.\Generated_Source\PSoC5/SPIS_1.c **** *  Allows the user to transmit any byte of data in a single transfer.
 520:.\Generated_Source\PSoC5/SPIS_1.c **** *
 521:.\Generated_Source\PSoC5/SPIS_1.c **** * Side Effects:
 522:.\Generated_Source\PSoC5/SPIS_1.c **** *  If this function is called again before the previous byte is finished then
 523:.\Generated_Source\PSoC5/SPIS_1.c **** *  the next byte will be appended to the transfer with no time between
 524:.\Generated_Source\PSoC5/SPIS_1.c **** *  the byte transfers. Clear Tx status register of the component.
 525:.\Generated_Source\PSoC5/SPIS_1.c **** *
 526:.\Generated_Source\PSoC5/SPIS_1.c **** * Reentrant:
 527:.\Generated_Source\PSoC5/SPIS_1.c **** *  No.
 528:.\Generated_Source\PSoC5/SPIS_1.c **** *
 529:.\Generated_Source\PSoC5/SPIS_1.c **** *******************************************************************************/
 530:.\Generated_Source\PSoC5/SPIS_1.c **** void SPIS_1_WriteTxData(uint8 txData) 
 531:.\Generated_Source\PSoC5/SPIS_1.c **** {
 523              		.loc 1 531 0
 524              		.cfi_startproc
 525              		@ args = 0, pretend = 0, frame = 8
 526              		@ frame_needed = 1, uses_anonymous_args = 0
 527              		@ link register save eliminated.
 528 0000 80B4     		push	{r7}
 529              	.LCFI30:
 530              		.cfi_def_cfa_offset 4
 531 0002 83B0     		sub	sp, sp, #12
 532              	.LCFI31:
 533              		.cfi_def_cfa_offset 16
 534 0004 00AF     		add	r7, sp, #0
 535              		.cfi_offset 7, -4
 536              	.LCFI32:
 537              		.cfi_def_cfa_register 7
 538 0006 0346     		mov	r3, r0
 539 0008 FB71     		strb	r3, [r7, #7]
 540              	.L27:
 532:.\Generated_Source\PSoC5/SPIS_1.c ****     #if(SPIS_1_TXBUFFERSIZE > 4u)
 533:.\Generated_Source\PSoC5/SPIS_1.c **** 
 534:.\Generated_Source\PSoC5/SPIS_1.c ****         int16 tmpTxBufferRead = 0u;
 535:.\Generated_Source\PSoC5/SPIS_1.c **** 
 536:.\Generated_Source\PSoC5/SPIS_1.c ****         /* Block if buffer is full, so we don't overwrite. */
 537:.\Generated_Source\PSoC5/SPIS_1.c ****         do
 538:.\Generated_Source\PSoC5/SPIS_1.c ****         {
 539:.\Generated_Source\PSoC5/SPIS_1.c ****             tmpTxBufferRead = SPIS_1_txBufferRead - 1u;
ARM GAS  C:\Users\hoangp\AppData\Local\Temp\ccnWRgig.s 			page 20


 540:.\Generated_Source\PSoC5/SPIS_1.c ****             if (tmpTxBufferRead < 0u)
 541:.\Generated_Source\PSoC5/SPIS_1.c ****             {
 542:.\Generated_Source\PSoC5/SPIS_1.c ****                 tmpTxBufferRead = SPIS_1_TXBUFFERSIZE - 1u;
 543:.\Generated_Source\PSoC5/SPIS_1.c ****             }
 544:.\Generated_Source\PSoC5/SPIS_1.c ****         } while(tmpTxBufferRead == SPIS_1_txBufferWrite);
 545:.\Generated_Source\PSoC5/SPIS_1.c **** 
 546:.\Generated_Source\PSoC5/SPIS_1.c ****         /* Disable Interrupt to protect variables that could change on interrupt. */
 547:.\Generated_Source\PSoC5/SPIS_1.c ****         SPIS_1_DisableTxInt();
 548:.\Generated_Source\PSoC5/SPIS_1.c **** 
 549:.\Generated_Source\PSoC5/SPIS_1.c ****         SPIS_1_swStatusTx = SPIS_1_GET_STATUS_TX(SPIS_1_swStatusTx);
 550:.\Generated_Source\PSoC5/SPIS_1.c **** 
 551:.\Generated_Source\PSoC5/SPIS_1.c ****         if((SPIS_1_txBufferRead == SPIS_1_txBufferWrite) &&
 552:.\Generated_Source\PSoC5/SPIS_1.c ****             ((SPIS_1_swStatusTx & SPIS_1_STS_TX_FIFO_NOT_FULL) != 0u))
 553:.\Generated_Source\PSoC5/SPIS_1.c ****         {
 554:.\Generated_Source\PSoC5/SPIS_1.c ****             /* Add directly to the FIFO. */
 555:.\Generated_Source\PSoC5/SPIS_1.c ****             CY_SET_REG8(SPIS_1_TXDATA_PTR, txData);
 556:.\Generated_Source\PSoC5/SPIS_1.c ****         }
 557:.\Generated_Source\PSoC5/SPIS_1.c ****         else
 558:.\Generated_Source\PSoC5/SPIS_1.c ****         {
 559:.\Generated_Source\PSoC5/SPIS_1.c ****             /* Add to the software buffer. */
 560:.\Generated_Source\PSoC5/SPIS_1.c ****             SPIS_1_txBufferWrite++;
 561:.\Generated_Source\PSoC5/SPIS_1.c ****             if(SPIS_1_txBufferWrite >= SPIS_1_TXBUFFERSIZE)
 562:.\Generated_Source\PSoC5/SPIS_1.c ****             {
 563:.\Generated_Source\PSoC5/SPIS_1.c ****                 SPIS_1_txBufferWrite = 0u;
 564:.\Generated_Source\PSoC5/SPIS_1.c ****             }
 565:.\Generated_Source\PSoC5/SPIS_1.c ****                
 566:.\Generated_Source\PSoC5/SPIS_1.c ****             if(SPIS_1_txBufferWrite == SPIS_1_txBufferRead)
 567:.\Generated_Source\PSoC5/SPIS_1.c ****             {
 568:.\Generated_Source\PSoC5/SPIS_1.c ****                 SPIS_1_txBufferRead++;
 569:.\Generated_Source\PSoC5/SPIS_1.c ****                 if(SPIS_1_txBufferRead >= SPIS_1_RXBUFFERSIZE)
 570:.\Generated_Source\PSoC5/SPIS_1.c ****                 {
 571:.\Generated_Source\PSoC5/SPIS_1.c ****                     SPIS_1_txBufferRead = 0u;
 572:.\Generated_Source\PSoC5/SPIS_1.c ****                 }
 573:.\Generated_Source\PSoC5/SPIS_1.c ****                 SPIS_1_txBufferFull = 1u;
 574:.\Generated_Source\PSoC5/SPIS_1.c ****             }
 575:.\Generated_Source\PSoC5/SPIS_1.c **** 
 576:.\Generated_Source\PSoC5/SPIS_1.c ****             SPIS_1_TXBUFFER[SPIS_1_txBufferWrite] = txData;
 577:.\Generated_Source\PSoC5/SPIS_1.c ****             
 578:.\Generated_Source\PSoC5/SPIS_1.c ****             SPIS_1_TX_STATUS_MASK_REG |= SPIS_1_STS_TX_FIFO_NOT_FULL;
 579:.\Generated_Source\PSoC5/SPIS_1.c ****         }                  
 580:.\Generated_Source\PSoC5/SPIS_1.c ****                
 581:.\Generated_Source\PSoC5/SPIS_1.c ****         /* Enable Interrupt. */
 582:.\Generated_Source\PSoC5/SPIS_1.c ****         SPIS_1_EnableTxInt();
 583:.\Generated_Source\PSoC5/SPIS_1.c **** 
 584:.\Generated_Source\PSoC5/SPIS_1.c ****     #else /* SPIS_1_TXBUFFERSIZE <= 4u */
 585:.\Generated_Source\PSoC5/SPIS_1.c **** 
 586:.\Generated_Source\PSoC5/SPIS_1.c ****         /* Block while FIFO is full */
 587:.\Generated_Source\PSoC5/SPIS_1.c ****         while((SPIS_1_TX_STATUS_REG & SPIS_1_STS_TX_FIFO_NOT_FULL) == 0u);
 541              		.loc 1 587 0
 542 000a 46F26B43 		movw	r3, #:lower16:1073767531
 543 000e C4F20003 		movt	r3, #:upper16:1073767531
 544 0012 1B78     		ldrb	r3, [r3, #0]
 545 0014 DBB2     		uxtb	r3, r3
 546 0016 03F00203 		and	r3, r3, #2
 547 001a 002B     		cmp	r3, #0
 548 001c F5D0     		beq	.L27
 588:.\Generated_Source\PSoC5/SPIS_1.c **** 
ARM GAS  C:\Users\hoangp\AppData\Local\Temp\ccnWRgig.s 			page 21


 589:.\Generated_Source\PSoC5/SPIS_1.c ****         /* Then write the byte */
 590:.\Generated_Source\PSoC5/SPIS_1.c ****         CY_SET_REG8(SPIS_1_TXDATA_PTR, txData);
 549              		.loc 1 590 0
 550 001e 46F24843 		movw	r3, #:lower16:1073767496
 551 0022 C4F20003 		movt	r3, #:upper16:1073767496
 552 0026 FA79     		ldrb	r2, [r7, #7]
 553 0028 1A70     		strb	r2, [r3, #0]
 591:.\Generated_Source\PSoC5/SPIS_1.c **** 
 592:.\Generated_Source\PSoC5/SPIS_1.c ****     #endif /* SPIS_1_TXBUFFERSIZE > 4u */
 593:.\Generated_Source\PSoC5/SPIS_1.c **** }
 554              		.loc 1 593 0
 555 002a 07F10C07 		add	r7, r7, #12
 556 002e BD46     		mov	sp, r7
 557 0030 80BC     		pop	{r7}
 558 0032 7047     		bx	lr
 559              		.cfi_endproc
 560              	.LFE12:
 561              		.size	SPIS_1_WriteTxData, .-SPIS_1_WriteTxData
 562              		.section	.text.SPIS_1_WriteTxDataZero,"ax",%progbits
 563              		.align	2
 564              		.global	SPIS_1_WriteTxDataZero
 565              		.thumb
 566              		.thumb_func
 567              		.type	SPIS_1_WriteTxDataZero, %function
 568              	SPIS_1_WriteTxDataZero:
 569              	.LFB13:
 594:.\Generated_Source\PSoC5/SPIS_1.c **** 
 595:.\Generated_Source\PSoC5/SPIS_1.c **** #if(SPIS_1_ModeUseZero == 1u)
 596:.\Generated_Source\PSoC5/SPIS_1.c **** 
 597:.\Generated_Source\PSoC5/SPIS_1.c ****     /*******************************************************************************
 598:.\Generated_Source\PSoC5/SPIS_1.c ****     * Function Name: SPIS_1_WriteTxDataZero
 599:.\Generated_Source\PSoC5/SPIS_1.c ****     ********************************************************************************
 600:.\Generated_Source\PSoC5/SPIS_1.c ****     *
 601:.\Generated_Source\PSoC5/SPIS_1.c ****     * Summary:
 602:.\Generated_Source\PSoC5/SPIS_1.c ****     *  Write a byte zero of data to be sent across the SPI. This must be used in
 603:.\Generated_Source\PSoC5/SPIS_1.c ****     *  Mode 00 and 01 if the FIFO is empty and data is not being sent.
 604:.\Generated_Source\PSoC5/SPIS_1.c ****     *
 605:.\Generated_Source\PSoC5/SPIS_1.c ****     * Parameters:
 606:.\Generated_Source\PSoC5/SPIS_1.c ****     *  txDataByte: The data value to send across the SPI.
 607:.\Generated_Source\PSoC5/SPIS_1.c ****     *
 608:.\Generated_Source\PSoC5/SPIS_1.c ****     * Return:
 609:.\Generated_Source\PSoC5/SPIS_1.c ****     *  None.
 610:.\Generated_Source\PSoC5/SPIS_1.c ****     *
 611:.\Generated_Source\PSoC5/SPIS_1.c ****     * Theory:
 612:.\Generated_Source\PSoC5/SPIS_1.c ****     *  Allows the user to transmit any byte of data in a single transfer. Clear
 613:.\Generated_Source\PSoC5/SPIS_1.c ****     *  status register of the component.
 614:.\Generated_Source\PSoC5/SPIS_1.c ****     *
 615:.\Generated_Source\PSoC5/SPIS_1.c ****     *******************************************************************************/
 616:.\Generated_Source\PSoC5/SPIS_1.c ****     void SPIS_1_WriteTxDataZero(uint8 txDataByte)
 617:.\Generated_Source\PSoC5/SPIS_1.c ****                                         
 618:.\Generated_Source\PSoC5/SPIS_1.c ****     {
 570              		.loc 1 618 0
 571              		.cfi_startproc
 572              		@ args = 0, pretend = 0, frame = 8
 573              		@ frame_needed = 1, uses_anonymous_args = 0
 574              		@ link register save eliminated.
 575 0000 80B4     		push	{r7}
ARM GAS  C:\Users\hoangp\AppData\Local\Temp\ccnWRgig.s 			page 22


 576              	.LCFI33:
 577              		.cfi_def_cfa_offset 4
 578 0002 83B0     		sub	sp, sp, #12
 579              	.LCFI34:
 580              		.cfi_def_cfa_offset 16
 581 0004 00AF     		add	r7, sp, #0
 582              		.cfi_offset 7, -4
 583              	.LCFI35:
 584              		.cfi_def_cfa_register 7
 585 0006 0346     		mov	r3, r0
 586 0008 FB71     		strb	r3, [r7, #7]
 619:.\Generated_Source\PSoC5/SPIS_1.c ****         CY_SET_REG8(SPIS_1_TXDATA_ZERO_PTR, txDataByte);
 587              		.loc 1 619 0
 588 000a 46F20843 		movw	r3, #:lower16:1073767432
 589 000e C4F20003 		movt	r3, #:upper16:1073767432
 590 0012 FA79     		ldrb	r2, [r7, #7]
 591 0014 1A70     		strb	r2, [r3, #0]
 620:.\Generated_Source\PSoC5/SPIS_1.c ****     }
 592              		.loc 1 620 0
 593 0016 07F10C07 		add	r7, r7, #12
 594 001a BD46     		mov	sp, r7
 595 001c 80BC     		pop	{r7}
 596 001e 7047     		bx	lr
 597              		.cfi_endproc
 598              	.LFE13:
 599              		.size	SPIS_1_WriteTxDataZero, .-SPIS_1_WriteTxDataZero
 600              		.section	.text.SPIS_1_ReadRxData,"ax",%progbits
 601              		.align	2
 602              		.global	SPIS_1_ReadRxData
 603              		.thumb
 604              		.thumb_func
 605              		.type	SPIS_1_ReadRxData, %function
 606              	SPIS_1_ReadRxData:
 607              	.LFB14:
 621:.\Generated_Source\PSoC5/SPIS_1.c **** 
 622:.\Generated_Source\PSoC5/SPIS_1.c **** #endif /* (SPIS_1_ModeUseZero == 1u) */
 623:.\Generated_Source\PSoC5/SPIS_1.c **** 
 624:.\Generated_Source\PSoC5/SPIS_1.c **** 
 625:.\Generated_Source\PSoC5/SPIS_1.c **** /*******************************************************************************
 626:.\Generated_Source\PSoC5/SPIS_1.c **** * Function Name: SPIS_1_ReadRxData
 627:.\Generated_Source\PSoC5/SPIS_1.c **** ********************************************************************************
 628:.\Generated_Source\PSoC5/SPIS_1.c **** *
 629:.\Generated_Source\PSoC5/SPIS_1.c **** * Summary:
 630:.\Generated_Source\PSoC5/SPIS_1.c **** *  Read the next byte of data received across the SPI.
 631:.\Generated_Source\PSoC5/SPIS_1.c **** *
 632:.\Generated_Source\PSoC5/SPIS_1.c **** * Parameters:
 633:.\Generated_Source\PSoC5/SPIS_1.c **** *  None.
 634:.\Generated_Source\PSoC5/SPIS_1.c **** *
 635:.\Generated_Source\PSoC5/SPIS_1.c **** * Return:
 636:.\Generated_Source\PSoC5/SPIS_1.c **** *  The next byte of data read from the FIFO.
 637:.\Generated_Source\PSoC5/SPIS_1.c **** *
 638:.\Generated_Source\PSoC5/SPIS_1.c **** * Global variables:
 639:.\Generated_Source\PSoC5/SPIS_1.c **** *  SPIS_1_rxBufferWrite - used for the account of the bytes which
 640:.\Generated_Source\PSoC5/SPIS_1.c **** *  have been written down in the RX software buffer.
 641:.\Generated_Source\PSoC5/SPIS_1.c **** *  SPIS_1_rxBufferRead - used for the account of the bytes which
 642:.\Generated_Source\PSoC5/SPIS_1.c **** *  have been read from the RX software buffer, modified every function
 643:.\Generated_Source\PSoC5/SPIS_1.c **** *  call if RX Software Buffer is used.
ARM GAS  C:\Users\hoangp\AppData\Local\Temp\ccnWRgig.s 			page 23


 644:.\Generated_Source\PSoC5/SPIS_1.c **** *  SPIS_1_RXBUFFER[SPIS_1_RXBUFFERSIZE] - used to store
 645:.\Generated_Source\PSoC5/SPIS_1.c **** *  received data.
 646:.\Generated_Source\PSoC5/SPIS_1.c **** *
 647:.\Generated_Source\PSoC5/SPIS_1.c **** * Theory:
 648:.\Generated_Source\PSoC5/SPIS_1.c **** *  Allows the user to read a byte of data received.
 649:.\Generated_Source\PSoC5/SPIS_1.c **** *
 650:.\Generated_Source\PSoC5/SPIS_1.c **** * Side Effects:
 651:.\Generated_Source\PSoC5/SPIS_1.c **** *  Will return invalid data if the FIFO is empty.  User should poll for FIFO
 652:.\Generated_Source\PSoC5/SPIS_1.c **** *  empty status before calling Read function.
 653:.\Generated_Source\PSoC5/SPIS_1.c **** *
 654:.\Generated_Source\PSoC5/SPIS_1.c **** * Reentrant:
 655:.\Generated_Source\PSoC5/SPIS_1.c **** *  No.
 656:.\Generated_Source\PSoC5/SPIS_1.c **** *
 657:.\Generated_Source\PSoC5/SPIS_1.c **** *******************************************************************************/
 658:.\Generated_Source\PSoC5/SPIS_1.c **** uint8 SPIS_1_ReadRxData(void) 
 659:.\Generated_Source\PSoC5/SPIS_1.c **** {
 608              		.loc 1 659 0
 609              		.cfi_startproc
 610              		@ args = 0, pretend = 0, frame = 8
 611              		@ frame_needed = 1, uses_anonymous_args = 0
 612              		@ link register save eliminated.
 613 0000 80B4     		push	{r7}
 614              	.LCFI36:
 615              		.cfi_def_cfa_offset 4
 616 0002 83B0     		sub	sp, sp, #12
 617              	.LCFI37:
 618              		.cfi_def_cfa_offset 16
 619 0004 00AF     		add	r7, sp, #0
 620              		.cfi_offset 7, -4
 621              	.LCFI38:
 622              		.cfi_def_cfa_register 7
 660:.\Generated_Source\PSoC5/SPIS_1.c ****     uint8 rxData = 0u;
 623              		.loc 1 660 0
 624 0006 4FF00003 		mov	r3, #0
 625 000a FB71     		strb	r3, [r7, #7]
 661:.\Generated_Source\PSoC5/SPIS_1.c **** 
 662:.\Generated_Source\PSoC5/SPIS_1.c ****     #if(SPIS_1_RXBUFFERSIZE > 4u)
 663:.\Generated_Source\PSoC5/SPIS_1.c **** 
 664:.\Generated_Source\PSoC5/SPIS_1.c ****         /* Disable Interrupt to protect variables that could change on interrupt. */
 665:.\Generated_Source\PSoC5/SPIS_1.c ****         SPIS_1_DisableRxInt();
 666:.\Generated_Source\PSoC5/SPIS_1.c **** 
 667:.\Generated_Source\PSoC5/SPIS_1.c ****         if(SPIS_1_rxBufferRead != SPIS_1_rxBufferWrite)
 668:.\Generated_Source\PSoC5/SPIS_1.c ****         {
 669:.\Generated_Source\PSoC5/SPIS_1.c ****             if(SPIS_1_rxBufferFull == 0u)
 670:.\Generated_Source\PSoC5/SPIS_1.c ****             {
 671:.\Generated_Source\PSoC5/SPIS_1.c ****                 SPIS_1_rxBufferRead++;
 672:.\Generated_Source\PSoC5/SPIS_1.c ****                 if(SPIS_1_rxBufferRead >= SPIS_1_RXBUFFERSIZE)
 673:.\Generated_Source\PSoC5/SPIS_1.c ****                 {
 674:.\Generated_Source\PSoC5/SPIS_1.c ****                     SPIS_1_rxBufferRead = 0u;
 675:.\Generated_Source\PSoC5/SPIS_1.c ****                 }
 676:.\Generated_Source\PSoC5/SPIS_1.c ****             }
 677:.\Generated_Source\PSoC5/SPIS_1.c ****             else
 678:.\Generated_Source\PSoC5/SPIS_1.c ****             {
 679:.\Generated_Source\PSoC5/SPIS_1.c ****                 SPIS_1_rxBufferFull = 0u;
 680:.\Generated_Source\PSoC5/SPIS_1.c ****             }
 681:.\Generated_Source\PSoC5/SPIS_1.c ****         }
 682:.\Generated_Source\PSoC5/SPIS_1.c **** 
ARM GAS  C:\Users\hoangp\AppData\Local\Temp\ccnWRgig.s 			page 24


 683:.\Generated_Source\PSoC5/SPIS_1.c ****         rxData = SPIS_1_RXBUFFER[SPIS_1_rxBufferRead];
 684:.\Generated_Source\PSoC5/SPIS_1.c **** 
 685:.\Generated_Source\PSoC5/SPIS_1.c ****         /* Enable Interrupt. */
 686:.\Generated_Source\PSoC5/SPIS_1.c ****         SPIS_1_EnableRxInt();
 687:.\Generated_Source\PSoC5/SPIS_1.c **** 
 688:.\Generated_Source\PSoC5/SPIS_1.c ****     #else /* SPIS_1_RXBUFFERSIZE <= 4u */
 689:.\Generated_Source\PSoC5/SPIS_1.c **** 
 690:.\Generated_Source\PSoC5/SPIS_1.c ****         rxData = CY_GET_REG8(SPIS_1_RXDATA_PTR);
 626              		.loc 1 690 0
 627 000c 46F24743 		movw	r3, #:lower16:1073767495
 628 0010 C4F20003 		movt	r3, #:upper16:1073767495
 629 0014 1B78     		ldrb	r3, [r3, #0]
 630 0016 FB71     		strb	r3, [r7, #7]
 691:.\Generated_Source\PSoC5/SPIS_1.c **** 
 692:.\Generated_Source\PSoC5/SPIS_1.c ****     #endif /* SPIS_1_RXBUFFERSIZE > 4u */
 693:.\Generated_Source\PSoC5/SPIS_1.c **** 
 694:.\Generated_Source\PSoC5/SPIS_1.c ****     return (rxData);
 631              		.loc 1 694 0
 632 0018 FB79     		ldrb	r3, [r7, #7]	@ zero_extendqisi2
 695:.\Generated_Source\PSoC5/SPIS_1.c **** 
 696:.\Generated_Source\PSoC5/SPIS_1.c **** }
 633              		.loc 1 696 0
 634 001a 1846     		mov	r0, r3
 635 001c 07F10C07 		add	r7, r7, #12
 636 0020 BD46     		mov	sp, r7
 637 0022 80BC     		pop	{r7}
 638 0024 7047     		bx	lr
 639              		.cfi_endproc
 640              	.LFE14:
 641              		.size	SPIS_1_ReadRxData, .-SPIS_1_ReadRxData
 642 0026 00BF     		.section	.text.SPIS_1_GetRxBufferSize,"ax",%progbits
 643              		.align	2
 644              		.global	SPIS_1_GetRxBufferSize
 645              		.thumb
 646              		.thumb_func
 647              		.type	SPIS_1_GetRxBufferSize, %function
 648              	SPIS_1_GetRxBufferSize:
 649              	.LFB15:
 697:.\Generated_Source\PSoC5/SPIS_1.c **** 
 698:.\Generated_Source\PSoC5/SPIS_1.c **** 
 699:.\Generated_Source\PSoC5/SPIS_1.c **** /*******************************************************************************
 700:.\Generated_Source\PSoC5/SPIS_1.c **** * Function Name: SPIS_1_GetRxBufferSize
 701:.\Generated_Source\PSoC5/SPIS_1.c **** ********************************************************************************
 702:.\Generated_Source\PSoC5/SPIS_1.c **** *
 703:.\Generated_Source\PSoC5/SPIS_1.c **** * Summary:
 704:.\Generated_Source\PSoC5/SPIS_1.c **** *  Returns the number of bytes/words of data currently held in the RX buffer.
 705:.\Generated_Source\PSoC5/SPIS_1.c **** *  If RX Software Buffer not used then function return 0 if FIFO empty or 1 if
 706:.\Generated_Source\PSoC5/SPIS_1.c **** *  FIFO not empty. In another case function return size of RX Software Buffer.
 707:.\Generated_Source\PSoC5/SPIS_1.c **** *
 708:.\Generated_Source\PSoC5/SPIS_1.c **** * Parameters:
 709:.\Generated_Source\PSoC5/SPIS_1.c **** *  None.
 710:.\Generated_Source\PSoC5/SPIS_1.c **** *
 711:.\Generated_Source\PSoC5/SPIS_1.c **** * Return:
 712:.\Generated_Source\PSoC5/SPIS_1.c **** *  Integer count of the number of bytes/words in the RX buffer.
 713:.\Generated_Source\PSoC5/SPIS_1.c **** *
 714:.\Generated_Source\PSoC5/SPIS_1.c **** * Global variables:
 715:.\Generated_Source\PSoC5/SPIS_1.c **** *  SPIS_1_rxBufferWrite - used for the account of the bytes which
ARM GAS  C:\Users\hoangp\AppData\Local\Temp\ccnWRgig.s 			page 25


 716:.\Generated_Source\PSoC5/SPIS_1.c **** *  have been written down in the RX software buffer.
 717:.\Generated_Source\PSoC5/SPIS_1.c **** *  SPIS_1_rxBufferRead - used for the account of the bytes which
 718:.\Generated_Source\PSoC5/SPIS_1.c **** *  have been read from the RX software buffer.
 719:.\Generated_Source\PSoC5/SPIS_1.c **** *
 720:.\Generated_Source\PSoC5/SPIS_1.c **** * Theory:
 721:.\Generated_Source\PSoC5/SPIS_1.c **** *  Allows the user to find out how full the RX Buffer is.
 722:.\Generated_Source\PSoC5/SPIS_1.c **** *
 723:.\Generated_Source\PSoC5/SPIS_1.c **** *******************************************************************************/
 724:.\Generated_Source\PSoC5/SPIS_1.c **** uint8 SPIS_1_GetRxBufferSize(void) 
 725:.\Generated_Source\PSoC5/SPIS_1.c **** {
 650              		.loc 1 725 0
 651              		.cfi_startproc
 652              		@ args = 0, pretend = 0, frame = 8
 653              		@ frame_needed = 1, uses_anonymous_args = 0
 654              		@ link register save eliminated.
 655 0000 80B4     		push	{r7}
 656              	.LCFI39:
 657              		.cfi_def_cfa_offset 4
 658 0002 83B0     		sub	sp, sp, #12
 659              	.LCFI40:
 660              		.cfi_def_cfa_offset 16
 661 0004 00AF     		add	r7, sp, #0
 662              		.cfi_offset 7, -4
 663              	.LCFI41:
 664              		.cfi_def_cfa_register 7
 726:.\Generated_Source\PSoC5/SPIS_1.c ****     uint8 size = 0u;
 665              		.loc 1 726 0
 666 0006 4FF00003 		mov	r3, #0
 667 000a FB71     		strb	r3, [r7, #7]
 727:.\Generated_Source\PSoC5/SPIS_1.c **** 
 728:.\Generated_Source\PSoC5/SPIS_1.c ****     #if(SPIS_1_RXBUFFERSIZE > 4u)
 729:.\Generated_Source\PSoC5/SPIS_1.c **** 
 730:.\Generated_Source\PSoC5/SPIS_1.c ****         /* Disable Interrupt to protect variables that could change on interrupt. */
 731:.\Generated_Source\PSoC5/SPIS_1.c ****         SPIS_1_DisableRxInt();
 732:.\Generated_Source\PSoC5/SPIS_1.c **** 
 733:.\Generated_Source\PSoC5/SPIS_1.c ****         if(SPIS_1_rxBufferRead == SPIS_1_rxBufferWrite)
 734:.\Generated_Source\PSoC5/SPIS_1.c ****         {
 735:.\Generated_Source\PSoC5/SPIS_1.c ****             size = 0u; /* No data in RX buffer */
 736:.\Generated_Source\PSoC5/SPIS_1.c ****         }
 737:.\Generated_Source\PSoC5/SPIS_1.c ****         else if(SPIS_1_rxBufferRead < SPIS_1_rxBufferWrite)
 738:.\Generated_Source\PSoC5/SPIS_1.c ****         {
 739:.\Generated_Source\PSoC5/SPIS_1.c ****             size = (SPIS_1_rxBufferWrite - SPIS_1_rxBufferRead);
 740:.\Generated_Source\PSoC5/SPIS_1.c ****         }
 741:.\Generated_Source\PSoC5/SPIS_1.c ****         else
 742:.\Generated_Source\PSoC5/SPIS_1.c ****         {
 743:.\Generated_Source\PSoC5/SPIS_1.c ****             size = (SPIS_1_RXBUFFERSIZE - SPIS_1_rxBufferRead) + SPIS_1_rxBufferWrite;
 744:.\Generated_Source\PSoC5/SPIS_1.c ****         }
 745:.\Generated_Source\PSoC5/SPIS_1.c **** 
 746:.\Generated_Source\PSoC5/SPIS_1.c ****         /* Enable interrupt. */
 747:.\Generated_Source\PSoC5/SPIS_1.c ****         SPIS_1_EnableRxInt();
 748:.\Generated_Source\PSoC5/SPIS_1.c **** 
 749:.\Generated_Source\PSoC5/SPIS_1.c ****     #else /* SPIS_1_RXBUFFERSIZE > 4u */
 750:.\Generated_Source\PSoC5/SPIS_1.c **** 
 751:.\Generated_Source\PSoC5/SPIS_1.c ****         /* We can only know if there is data in the fifo. */
 752:.\Generated_Source\PSoC5/SPIS_1.c ****         size = ((SPIS_1_RX_STATUS_REG & SPIS_1_STS_RX_FIFO_NOT_EMPTY) == 
 668              		.loc 1 752 0
 669 000c 46F26C43 		movw	r3, #:lower16:1073767532
ARM GAS  C:\Users\hoangp\AppData\Local\Temp\ccnWRgig.s 			page 26


 670 0010 C4F20003 		movt	r3, #:upper16:1073767532
 671 0014 1B78     		ldrb	r3, [r3, #0]
 672 0016 DBB2     		uxtb	r3, r3
 673 0018 03F00803 		and	r3, r3, #8
 674 001c 002B     		cmp	r3, #0
 675 001e 02D0     		beq	.L34
 676 0020 4FF00103 		mov	r3, #1
 677 0024 01E0     		b	.L35
 678              	.L34:
 679 0026 4FF00003 		mov	r3, #0
 680              	.L35:
 681 002a FB71     		strb	r3, [r7, #7]
 753:.\Generated_Source\PSoC5/SPIS_1.c ****                  SPIS_1_STS_RX_FIFO_NOT_EMPTY) ? 1u : 0u;
 754:.\Generated_Source\PSoC5/SPIS_1.c **** 
 755:.\Generated_Source\PSoC5/SPIS_1.c ****     #endif /* SPIS_1_RXBUFFERSIZE > 4u */
 756:.\Generated_Source\PSoC5/SPIS_1.c **** 
 757:.\Generated_Source\PSoC5/SPIS_1.c ****     return (size);
 682              		.loc 1 757 0
 683 002c FB79     		ldrb	r3, [r7, #7]	@ zero_extendqisi2
 758:.\Generated_Source\PSoC5/SPIS_1.c **** }
 684              		.loc 1 758 0
 685 002e 1846     		mov	r0, r3
 686 0030 07F10C07 		add	r7, r7, #12
 687 0034 BD46     		mov	sp, r7
 688 0036 80BC     		pop	{r7}
 689 0038 7047     		bx	lr
 690              		.cfi_endproc
 691              	.LFE15:
 692              		.size	SPIS_1_GetRxBufferSize, .-SPIS_1_GetRxBufferSize
 693 003a 00BF     		.section	.text.SPIS_1_GetTxBufferSize,"ax",%progbits
 694              		.align	2
 695              		.global	SPIS_1_GetTxBufferSize
 696              		.thumb
 697              		.thumb_func
 698              		.type	SPIS_1_GetTxBufferSize, %function
 699              	SPIS_1_GetTxBufferSize:
 700              	.LFB16:
 759:.\Generated_Source\PSoC5/SPIS_1.c **** 
 760:.\Generated_Source\PSoC5/SPIS_1.c **** 
 761:.\Generated_Source\PSoC5/SPIS_1.c **** /*******************************************************************************
 762:.\Generated_Source\PSoC5/SPIS_1.c **** * Function Name: SPIS_1_GetTxBufferSize
 763:.\Generated_Source\PSoC5/SPIS_1.c **** ********************************************************************************
 764:.\Generated_Source\PSoC5/SPIS_1.c **** *
 765:.\Generated_Source\PSoC5/SPIS_1.c **** * Summary:
 766:.\Generated_Source\PSoC5/SPIS_1.c **** *  Returns the number of bytes/words of data currently held in the TX buffer.
 767:.\Generated_Source\PSoC5/SPIS_1.c **** *  If TX Software Buffer not used then function return 0 - if FIFO empty, 1 - if
 768:.\Generated_Source\PSoC5/SPIS_1.c **** *  FIFO not full, 4 - if FIFO full. In another case function return size of TX
 769:.\Generated_Source\PSoC5/SPIS_1.c **** *  Software Buffer.
 770:.\Generated_Source\PSoC5/SPIS_1.c **** *
 771:.\Generated_Source\PSoC5/SPIS_1.c **** * Parameters:
 772:.\Generated_Source\PSoC5/SPIS_1.c **** *  None.
 773:.\Generated_Source\PSoC5/SPIS_1.c **** *
 774:.\Generated_Source\PSoC5/SPIS_1.c **** * Return:
 775:.\Generated_Source\PSoC5/SPIS_1.c **** *  Integer count of the number of bytes/words in the TX buffer.
 776:.\Generated_Source\PSoC5/SPIS_1.c **** *
 777:.\Generated_Source\PSoC5/SPIS_1.c **** * Global variables:
 778:.\Generated_Source\PSoC5/SPIS_1.c **** *  SPIS_1_txBufferWrite - used for the account of the bytes which
ARM GAS  C:\Users\hoangp\AppData\Local\Temp\ccnWRgig.s 			page 27


 779:.\Generated_Source\PSoC5/SPIS_1.c **** *  have been written down in the TX software buffer.
 780:.\Generated_Source\PSoC5/SPIS_1.c **** *  SPIS_1_txBufferRead - used for the account of the bytes which
 781:.\Generated_Source\PSoC5/SPIS_1.c **** *  have been read from the TX software buffer.
 782:.\Generated_Source\PSoC5/SPIS_1.c **** *
 783:.\Generated_Source\PSoC5/SPIS_1.c **** * Theory:
 784:.\Generated_Source\PSoC5/SPIS_1.c **** *  Allows the user to find out how full the TX Buffer is.
 785:.\Generated_Source\PSoC5/SPIS_1.c **** *
 786:.\Generated_Source\PSoC5/SPIS_1.c **** * Side Effects:
 787:.\Generated_Source\PSoC5/SPIS_1.c **** *  Clear status register of the component.
 788:.\Generated_Source\PSoC5/SPIS_1.c **** *
 789:.\Generated_Source\PSoC5/SPIS_1.c **** *******************************************************************************/
 790:.\Generated_Source\PSoC5/SPIS_1.c **** uint8  SPIS_1_GetTxBufferSize(void) 
 791:.\Generated_Source\PSoC5/SPIS_1.c **** {
 701              		.loc 1 791 0
 702              		.cfi_startproc
 703              		@ args = 0, pretend = 0, frame = 8
 704              		@ frame_needed = 1, uses_anonymous_args = 0
 705              		@ link register save eliminated.
 706 0000 80B4     		push	{r7}
 707              	.LCFI42:
 708              		.cfi_def_cfa_offset 4
 709 0002 83B0     		sub	sp, sp, #12
 710              	.LCFI43:
 711              		.cfi_def_cfa_offset 16
 712 0004 00AF     		add	r7, sp, #0
 713              		.cfi_offset 7, -4
 714              	.LCFI44:
 715              		.cfi_def_cfa_register 7
 792:.\Generated_Source\PSoC5/SPIS_1.c ****     uint8 size = 0u;
 716              		.loc 1 792 0
 717 0006 4FF00003 		mov	r3, #0
 718 000a FB71     		strb	r3, [r7, #7]
 793:.\Generated_Source\PSoC5/SPIS_1.c **** 
 794:.\Generated_Source\PSoC5/SPIS_1.c ****     #if(SPIS_1_TXBUFFERSIZE > 4u)
 795:.\Generated_Source\PSoC5/SPIS_1.c **** 
 796:.\Generated_Source\PSoC5/SPIS_1.c ****         /* Disable Interrupt to protect variables that could change on interrupt. */
 797:.\Generated_Source\PSoC5/SPIS_1.c ****         SPIS_1_DisableTxInt();
 798:.\Generated_Source\PSoC5/SPIS_1.c **** 
 799:.\Generated_Source\PSoC5/SPIS_1.c ****         if(SPIS_1_txBufferRead == SPIS_1_txBufferWrite)
 800:.\Generated_Source\PSoC5/SPIS_1.c ****         {
 801:.\Generated_Source\PSoC5/SPIS_1.c ****             size = 0u;
 802:.\Generated_Source\PSoC5/SPIS_1.c ****         }
 803:.\Generated_Source\PSoC5/SPIS_1.c ****         else if(SPIS_1_txBufferRead < SPIS_1_txBufferWrite)
 804:.\Generated_Source\PSoC5/SPIS_1.c ****         {
 805:.\Generated_Source\PSoC5/SPIS_1.c ****             size = (SPIS_1_txBufferWrite - SPIS_1_txBufferRead);
 806:.\Generated_Source\PSoC5/SPIS_1.c ****         }
 807:.\Generated_Source\PSoC5/SPIS_1.c ****         else
 808:.\Generated_Source\PSoC5/SPIS_1.c ****         {
 809:.\Generated_Source\PSoC5/SPIS_1.c ****             size = (SPIS_1_TXBUFFERSIZE - SPIS_1_txBufferRead) + SPIS_1_txBufferWrite;
 810:.\Generated_Source\PSoC5/SPIS_1.c ****         }
 811:.\Generated_Source\PSoC5/SPIS_1.c **** 
 812:.\Generated_Source\PSoC5/SPIS_1.c ****         /* Enable Interrupt. */
 813:.\Generated_Source\PSoC5/SPIS_1.c ****         SPIS_1_EnableTxInt();
 814:.\Generated_Source\PSoC5/SPIS_1.c **** 
 815:.\Generated_Source\PSoC5/SPIS_1.c ****     #else /* SPIS_1_TXBUFFERSIZE <= 4u */
 816:.\Generated_Source\PSoC5/SPIS_1.c **** 
 817:.\Generated_Source\PSoC5/SPIS_1.c ****         size = SPIS_1_TX_STATUS_REG;
ARM GAS  C:\Users\hoangp\AppData\Local\Temp\ccnWRgig.s 			page 28


 719              		.loc 1 817 0
 720 000c 46F26B43 		movw	r3, #:lower16:1073767531
 721 0010 C4F20003 		movt	r3, #:upper16:1073767531
 722 0014 1B78     		ldrb	r3, [r3, #0]
 723 0016 FB71     		strb	r3, [r7, #7]
 818:.\Generated_Source\PSoC5/SPIS_1.c **** 
 819:.\Generated_Source\PSoC5/SPIS_1.c ****         /* Is the fifo is full. */
 820:.\Generated_Source\PSoC5/SPIS_1.c ****         if((size & SPIS_1_STS_TX_FIFO_EMPTY) == SPIS_1_STS_TX_FIFO_EMPTY)
 724              		.loc 1 820 0
 725 0018 FB79     		ldrb	r3, [r7, #7]	@ zero_extendqisi2
 726 001a 03F00403 		and	r3, r3, #4
 727 001e 002B     		cmp	r3, #0
 728 0020 03D0     		beq	.L38
 821:.\Generated_Source\PSoC5/SPIS_1.c ****         {
 822:.\Generated_Source\PSoC5/SPIS_1.c ****             size = 0u;
 729              		.loc 1 822 0
 730 0022 4FF00003 		mov	r3, #0
 731 0026 FB71     		strb	r3, [r7, #7]
 732 0028 0BE0     		b	.L39
 733              	.L38:
 823:.\Generated_Source\PSoC5/SPIS_1.c ****         }
 824:.\Generated_Source\PSoC5/SPIS_1.c ****         else if((size & SPIS_1_STS_TX_FIFO_NOT_FULL) == SPIS_1_STS_TX_FIFO_NOT_FULL)
 734              		.loc 1 824 0
 735 002a FB79     		ldrb	r3, [r7, #7]	@ zero_extendqisi2
 736 002c 03F00203 		and	r3, r3, #2
 737 0030 002B     		cmp	r3, #0
 738 0032 03D0     		beq	.L40
 825:.\Generated_Source\PSoC5/SPIS_1.c ****         {
 826:.\Generated_Source\PSoC5/SPIS_1.c ****             size = 1u;
 739              		.loc 1 826 0
 740 0034 4FF00103 		mov	r3, #1
 741 0038 FB71     		strb	r3, [r7, #7]
 742 003a 02E0     		b	.L39
 743              	.L40:
 827:.\Generated_Source\PSoC5/SPIS_1.c ****         }
 828:.\Generated_Source\PSoC5/SPIS_1.c ****         else
 829:.\Generated_Source\PSoC5/SPIS_1.c ****         {
 830:.\Generated_Source\PSoC5/SPIS_1.c ****             size = 4u;
 744              		.loc 1 830 0
 745 003c 4FF00403 		mov	r3, #4
 746 0040 FB71     		strb	r3, [r7, #7]
 747              	.L39:
 831:.\Generated_Source\PSoC5/SPIS_1.c ****         }
 832:.\Generated_Source\PSoC5/SPIS_1.c **** 
 833:.\Generated_Source\PSoC5/SPIS_1.c ****     #endif /* SPIS_1_TXBUFFERSIZE > 4u */
 834:.\Generated_Source\PSoC5/SPIS_1.c **** 
 835:.\Generated_Source\PSoC5/SPIS_1.c ****     return (size);
 748              		.loc 1 835 0
 749 0042 FB79     		ldrb	r3, [r7, #7]	@ zero_extendqisi2
 836:.\Generated_Source\PSoC5/SPIS_1.c **** }
 750              		.loc 1 836 0
 751 0044 1846     		mov	r0, r3
 752 0046 07F10C07 		add	r7, r7, #12
 753 004a BD46     		mov	sp, r7
 754 004c 80BC     		pop	{r7}
 755 004e 7047     		bx	lr
 756              		.cfi_endproc
ARM GAS  C:\Users\hoangp\AppData\Local\Temp\ccnWRgig.s 			page 29


 757              	.LFE16:
 758              		.size	SPIS_1_GetTxBufferSize, .-SPIS_1_GetTxBufferSize
 759              		.section	.text.SPIS_1_ClearRxBuffer,"ax",%progbits
 760              		.align	2
 761              		.global	SPIS_1_ClearRxBuffer
 762              		.thumb
 763              		.thumb_func
 764              		.type	SPIS_1_ClearRxBuffer, %function
 765              	SPIS_1_ClearRxBuffer:
 766              	.LFB17:
 837:.\Generated_Source\PSoC5/SPIS_1.c **** 
 838:.\Generated_Source\PSoC5/SPIS_1.c **** 
 839:.\Generated_Source\PSoC5/SPIS_1.c **** /*******************************************************************************
 840:.\Generated_Source\PSoC5/SPIS_1.c **** * Function Name: SPIS_1_ClearRxBuffer
 841:.\Generated_Source\PSoC5/SPIS_1.c **** ********************************************************************************
 842:.\Generated_Source\PSoC5/SPIS_1.c **** *
 843:.\Generated_Source\PSoC5/SPIS_1.c **** * Summary:
 844:.\Generated_Source\PSoC5/SPIS_1.c **** *  Clear the RX RAM buffer by setting the read and write pointers both to zero.
 845:.\Generated_Source\PSoC5/SPIS_1.c **** *
 846:.\Generated_Source\PSoC5/SPIS_1.c **** * Parameters:
 847:.\Generated_Source\PSoC5/SPIS_1.c **** *  None.
 848:.\Generated_Source\PSoC5/SPIS_1.c **** *
 849:.\Generated_Source\PSoC5/SPIS_1.c **** * Return:
 850:.\Generated_Source\PSoC5/SPIS_1.c **** *  None.
 851:.\Generated_Source\PSoC5/SPIS_1.c **** *
 852:.\Generated_Source\PSoC5/SPIS_1.c **** * Global variables:
 853:.\Generated_Source\PSoC5/SPIS_1.c **** *  SPIS_1_rxBufferWrite - used for the account of the bytes which
 854:.\Generated_Source\PSoC5/SPIS_1.c **** *  have been written down in the RX software buffer, modified every function
 855:.\Generated_Source\PSoC5/SPIS_1.c **** *  call - resets to zero.
 856:.\Generated_Source\PSoC5/SPIS_1.c **** *  SPIS_1_rxBufferRead - used for the account of the bytes which
 857:.\Generated_Source\PSoC5/SPIS_1.c **** *  have been read from the RX software buffer, modified every function call -
 858:.\Generated_Source\PSoC5/SPIS_1.c **** *  resets to zero.
 859:.\Generated_Source\PSoC5/SPIS_1.c **** *
 860:.\Generated_Source\PSoC5/SPIS_1.c **** * Theory:
 861:.\Generated_Source\PSoC5/SPIS_1.c **** *  Setting the pointers to zero makes the system believe there is no data to
 862:.\Generated_Source\PSoC5/SPIS_1.c **** *  read and writing will resume at address 0 overwriting any data that may have
 863:.\Generated_Source\PSoC5/SPIS_1.c **** *  remained in the RAM.
 864:.\Generated_Source\PSoC5/SPIS_1.c **** *
 865:.\Generated_Source\PSoC5/SPIS_1.c **** * Side Effects:
 866:.\Generated_Source\PSoC5/SPIS_1.c **** *  Any received data not read from the RAM buffer will be lost when overwritten.
 867:.\Generated_Source\PSoC5/SPIS_1.c **** *
 868:.\Generated_Source\PSoC5/SPIS_1.c **** * Reentrant:
 869:.\Generated_Source\PSoC5/SPIS_1.c **** *  No.
 870:.\Generated_Source\PSoC5/SPIS_1.c **** *
 871:.\Generated_Source\PSoC5/SPIS_1.c **** *******************************************************************************/
 872:.\Generated_Source\PSoC5/SPIS_1.c **** void SPIS_1_ClearRxBuffer(void) 
 873:.\Generated_Source\PSoC5/SPIS_1.c **** {
 767              		.loc 1 873 0
 768              		.cfi_startproc
 769              		@ args = 0, pretend = 0, frame = 0
 770              		@ frame_needed = 1, uses_anonymous_args = 0
 771              		@ link register save eliminated.
 772 0000 80B4     		push	{r7}
 773              	.LCFI45:
 774              		.cfi_def_cfa_offset 4
 775 0002 00AF     		add	r7, sp, #0
 776              		.cfi_offset 7, -4
ARM GAS  C:\Users\hoangp\AppData\Local\Temp\ccnWRgig.s 			page 30


 777              	.LCFI46:
 778              		.cfi_def_cfa_register 7
 874:.\Generated_Source\PSoC5/SPIS_1.c ****     /* Clear Hardware RX FIFO */
 875:.\Generated_Source\PSoC5/SPIS_1.c ****     while((!(SPIS_1_RX_STATUS_REG & SPIS_1_STS_RX_FIFO_NOT_EMPTY)) == 0u)
 779              		.loc 1 875 0
 780 0004 04E0     		b	.L43
 781              	.L44:
 876:.\Generated_Source\PSoC5/SPIS_1.c ****     {
 877:.\Generated_Source\PSoC5/SPIS_1.c ****         CY_GET_REG8(SPIS_1_RXDATA_PTR);
 782              		.loc 1 877 0
 783 0006 46F24743 		movw	r3, #:lower16:1073767495
 784 000a C4F20003 		movt	r3, #:upper16:1073767495
 785 000e 1B78     		ldrb	r3, [r3, #0]
 786              	.L43:
 787              		.loc 1 875 0
 788 0010 46F26C43 		movw	r3, #:lower16:1073767532
 789 0014 C4F20003 		movt	r3, #:upper16:1073767532
 790 0018 1B78     		ldrb	r3, [r3, #0]
 791 001a DBB2     		uxtb	r3, r3
 792 001c 03F00803 		and	r3, r3, #8
 793 0020 002B     		cmp	r3, #0
 794 0022 F0D1     		bne	.L44
 878:.\Generated_Source\PSoC5/SPIS_1.c ****     }
 879:.\Generated_Source\PSoC5/SPIS_1.c **** 
 880:.\Generated_Source\PSoC5/SPIS_1.c ****     #if(SPIS_1_RXBUFFERSIZE > 4u)
 881:.\Generated_Source\PSoC5/SPIS_1.c **** 
 882:.\Generated_Source\PSoC5/SPIS_1.c ****         /* Disable interrupt to protect variables that could change on interrupt. */
 883:.\Generated_Source\PSoC5/SPIS_1.c ****         SPIS_1_DisableRxInt();
 884:.\Generated_Source\PSoC5/SPIS_1.c **** 
 885:.\Generated_Source\PSoC5/SPIS_1.c ****         SPIS_1_rxBufferRead = 0u;
 886:.\Generated_Source\PSoC5/SPIS_1.c ****         SPIS_1_rxBufferWrite = 0u;
 887:.\Generated_Source\PSoC5/SPIS_1.c **** 
 888:.\Generated_Source\PSoC5/SPIS_1.c ****         /* Enable interrupt. */
 889:.\Generated_Source\PSoC5/SPIS_1.c ****         SPIS_1_EnableRxInt();
 890:.\Generated_Source\PSoC5/SPIS_1.c **** 
 891:.\Generated_Source\PSoC5/SPIS_1.c ****     #endif /* SPIS_1_RXBUFFERSIZE > 4u */
 892:.\Generated_Source\PSoC5/SPIS_1.c **** }
 795              		.loc 1 892 0
 796 0024 BD46     		mov	sp, r7
 797 0026 80BC     		pop	{r7}
 798 0028 7047     		bx	lr
 799              		.cfi_endproc
 800              	.LFE17:
 801              		.size	SPIS_1_ClearRxBuffer, .-SPIS_1_ClearRxBuffer
 802 002a 00BF     		.section	.text.SPIS_1_ClearTxBuffer,"ax",%progbits
 803              		.align	2
 804              		.global	SPIS_1_ClearTxBuffer
 805              		.thumb
 806              		.thumb_func
 807              		.type	SPIS_1_ClearTxBuffer, %function
 808              	SPIS_1_ClearTxBuffer:
 809              	.LFB18:
 893:.\Generated_Source\PSoC5/SPIS_1.c **** 
 894:.\Generated_Source\PSoC5/SPIS_1.c **** 
 895:.\Generated_Source\PSoC5/SPIS_1.c **** /*******************************************************************************
 896:.\Generated_Source\PSoC5/SPIS_1.c **** * Function Name: SPIS_1_ClearTxBuffer
 897:.\Generated_Source\PSoC5/SPIS_1.c **** ********************************************************************************
ARM GAS  C:\Users\hoangp\AppData\Local\Temp\ccnWRgig.s 			page 31


 898:.\Generated_Source\PSoC5/SPIS_1.c **** *
 899:.\Generated_Source\PSoC5/SPIS_1.c **** * Summary:
 900:.\Generated_Source\PSoC5/SPIS_1.c **** *  Clear the TX RAM buffer by setting the read and write pointers both to zero.
 901:.\Generated_Source\PSoC5/SPIS_1.c **** *
 902:.\Generated_Source\PSoC5/SPIS_1.c **** * Parameters:
 903:.\Generated_Source\PSoC5/SPIS_1.c **** *  None.
 904:.\Generated_Source\PSoC5/SPIS_1.c **** *
 905:.\Generated_Source\PSoC5/SPIS_1.c **** * Return:
 906:.\Generated_Source\PSoC5/SPIS_1.c **** *  None.
 907:.\Generated_Source\PSoC5/SPIS_1.c **** *
 908:.\Generated_Source\PSoC5/SPIS_1.c **** * Global variables:
 909:.\Generated_Source\PSoC5/SPIS_1.c **** *  SPIS_1_txBufferWrite - used for the account of the bytes which
 910:.\Generated_Source\PSoC5/SPIS_1.c **** *  have been written down in the TX software buffer, modified every function
 911:.\Generated_Source\PSoC5/SPIS_1.c **** *  call - resets to zero.
 912:.\Generated_Source\PSoC5/SPIS_1.c **** *  SPIS_1_txBufferRead - used for the account of the bytes which
 913:.\Generated_Source\PSoC5/SPIS_1.c **** *  have been read from the TX software buffer, modified every function call -
 914:.\Generated_Source\PSoC5/SPIS_1.c **** *  resets to zero.
 915:.\Generated_Source\PSoC5/SPIS_1.c **** *
 916:.\Generated_Source\PSoC5/SPIS_1.c **** * Theory:
 917:.\Generated_Source\PSoC5/SPIS_1.c **** *  Setting the pointers to zero makes the system believe there is no data to
 918:.\Generated_Source\PSoC5/SPIS_1.c **** *  read and writing will resume at address 0 overwriting any data that may have
 919:.\Generated_Source\PSoC5/SPIS_1.c **** *  remained in the RAM.
 920:.\Generated_Source\PSoC5/SPIS_1.c **** *
 921:.\Generated_Source\PSoC5/SPIS_1.c **** * Side Effects:
 922:.\Generated_Source\PSoC5/SPIS_1.c **** *  Any data not yet transmitted from the RAM buffer will be lost when
 923:.\Generated_Source\PSoC5/SPIS_1.c **** *  overwritten.
 924:.\Generated_Source\PSoC5/SPIS_1.c **** *
 925:.\Generated_Source\PSoC5/SPIS_1.c **** * Reentrant:
 926:.\Generated_Source\PSoC5/SPIS_1.c **** *  No.
 927:.\Generated_Source\PSoC5/SPIS_1.c **** *
 928:.\Generated_Source\PSoC5/SPIS_1.c **** *******************************************************************************/
 929:.\Generated_Source\PSoC5/SPIS_1.c **** void SPIS_1_ClearTxBuffer(void) 
 930:.\Generated_Source\PSoC5/SPIS_1.c **** {
 810              		.loc 1 930 0
 811              		.cfi_startproc
 812              		@ args = 0, pretend = 0, frame = 8
 813              		@ frame_needed = 1, uses_anonymous_args = 0
 814 0000 80B5     		push	{r7, lr}
 815              	.LCFI47:
 816              		.cfi_def_cfa_offset 8
 817 0002 82B0     		sub	sp, sp, #8
 818              	.LCFI48:
 819              		.cfi_def_cfa_offset 16
 820 0004 00AF     		add	r7, sp, #0
 821              		.cfi_offset 14, -4
 822              		.cfi_offset 7, -8
 823              	.LCFI49:
 824              		.cfi_def_cfa_register 7
 931:.\Generated_Source\PSoC5/SPIS_1.c ****     uint8 enableInterrupts = 0u;
 825              		.loc 1 931 0
 826 0006 4FF00003 		mov	r3, #0
 827 000a FB71     		strb	r3, [r7, #7]
 932:.\Generated_Source\PSoC5/SPIS_1.c **** 
 933:.\Generated_Source\PSoC5/SPIS_1.c ****     /* Clear Hardware TX FIFO */
 934:.\Generated_Source\PSoC5/SPIS_1.c ****     enableInterrupts = CyEnterCriticalSection();
 828              		.loc 1 934 0
 829 000c FFF7FEFF 		bl	CyEnterCriticalSection
ARM GAS  C:\Users\hoangp\AppData\Local\Temp\ccnWRgig.s 			page 32


 830 0010 0346     		mov	r3, r0
 831 0012 FB71     		strb	r3, [r7, #7]
 935:.\Generated_Source\PSoC5/SPIS_1.c **** 
 936:.\Generated_Source\PSoC5/SPIS_1.c ****     #if(SPIS_1_DataWidth <= 8u)
 937:.\Generated_Source\PSoC5/SPIS_1.c **** 
 938:.\Generated_Source\PSoC5/SPIS_1.c ****         /* Clear TX FIFO */
 939:.\Generated_Source\PSoC5/SPIS_1.c ****         SPIS_1_TX_AUX_CONTROL_DP0_REG |= SPIS_1_FIFO_CLR;
 832              		.loc 1 939 0
 833 0014 46F29843 		movw	r3, #:lower16:1073767576
 834 0018 C4F20003 		movt	r3, #:upper16:1073767576
 835 001c 46F29842 		movw	r2, #:lower16:1073767576
 836 0020 C4F20002 		movt	r2, #:upper16:1073767576
 837 0024 1278     		ldrb	r2, [r2, #0]
 838 0026 D2B2     		uxtb	r2, r2
 839 0028 42F00302 		orr	r2, r2, #3
 840 002c D2B2     		uxtb	r2, r2
 841 002e 1A70     		strb	r2, [r3, #0]
 940:.\Generated_Source\PSoC5/SPIS_1.c ****         SPIS_1_TX_AUX_CONTROL_DP0_REG &= ~SPIS_1_FIFO_CLR;
 842              		.loc 1 940 0
 843 0030 46F29843 		movw	r3, #:lower16:1073767576
 844 0034 C4F20003 		movt	r3, #:upper16:1073767576
 845 0038 46F29842 		movw	r2, #:lower16:1073767576
 846 003c C4F20002 		movt	r2, #:upper16:1073767576
 847 0040 1278     		ldrb	r2, [r2, #0]
 848 0042 D2B2     		uxtb	r2, r2
 849 0044 02F0FC02 		and	r2, r2, #252
 850 0048 1A70     		strb	r2, [r3, #0]
 941:.\Generated_Source\PSoC5/SPIS_1.c **** 
 942:.\Generated_Source\PSoC5/SPIS_1.c ****     #else
 943:.\Generated_Source\PSoC5/SPIS_1.c **** 
 944:.\Generated_Source\PSoC5/SPIS_1.c ****         /* Clear TX FIFO */
 945:.\Generated_Source\PSoC5/SPIS_1.c ****         SPIS_1_TX_AUX_CONTROL_DP0_REG |= SPIS_1_FIFO_CLR;
 946:.\Generated_Source\PSoC5/SPIS_1.c ****         SPIS_1_TX_AUX_CONTROL_DP0_REG &= ~SPIS_1_FIFO_CLR;
 947:.\Generated_Source\PSoC5/SPIS_1.c ****         SPIS_1_TX_AUX_CONTROL_DP1_REG |= SPIS_1_FIFO_CLR;
 948:.\Generated_Source\PSoC5/SPIS_1.c ****         SPIS_1_TX_AUX_CONTROL_DP1_REG &= ~SPIS_1_FIFO_CLR;
 949:.\Generated_Source\PSoC5/SPIS_1.c **** 
 950:.\Generated_Source\PSoC5/SPIS_1.c ****     #endif /* SPIS_1_DataWidth > 8u */
 951:.\Generated_Source\PSoC5/SPIS_1.c **** 
 952:.\Generated_Source\PSoC5/SPIS_1.c ****     CyExitCriticalSection(enableInterrupts);
 851              		.loc 1 952 0
 852 004a FB79     		ldrb	r3, [r7, #7]	@ zero_extendqisi2
 853 004c 1846     		mov	r0, r3
 854 004e FFF7FEFF 		bl	CyExitCriticalSection
 953:.\Generated_Source\PSoC5/SPIS_1.c **** 
 954:.\Generated_Source\PSoC5/SPIS_1.c ****     #if(SPIS_1_TXBUFFERSIZE > 4u)
 955:.\Generated_Source\PSoC5/SPIS_1.c **** 
 956:.\Generated_Source\PSoC5/SPIS_1.c ****         /* Disable Interrupt to protect variables that could change on interrupt. */
 957:.\Generated_Source\PSoC5/SPIS_1.c ****         SPIS_1_DisableTxInt();
 958:.\Generated_Source\PSoC5/SPIS_1.c **** 
 959:.\Generated_Source\PSoC5/SPIS_1.c ****         SPIS_1_txBufferRead = 0u;
 960:.\Generated_Source\PSoC5/SPIS_1.c ****         SPIS_1_txBufferWrite = 0u;
 961:.\Generated_Source\PSoC5/SPIS_1.c **** 
 962:.\Generated_Source\PSoC5/SPIS_1.c ****         /* If Buffer is empty then disable TX FIFO status interrupt */
 963:.\Generated_Source\PSoC5/SPIS_1.c ****         SPIS_1_TX_STATUS_MASK_REG &= ~SPIS_1_STS_TX_FIFO_NOT_FULL;
 964:.\Generated_Source\PSoC5/SPIS_1.c **** 
 965:.\Generated_Source\PSoC5/SPIS_1.c ****         /* Enable Interrupt. */
 966:.\Generated_Source\PSoC5/SPIS_1.c ****         SPIS_1_EnableTxInt();
ARM GAS  C:\Users\hoangp\AppData\Local\Temp\ccnWRgig.s 			page 33


 967:.\Generated_Source\PSoC5/SPIS_1.c **** 
 968:.\Generated_Source\PSoC5/SPIS_1.c ****     #endif /* SPIS_1_TXBUFFERSIZE > 4u */
 969:.\Generated_Source\PSoC5/SPIS_1.c **** }
 855              		.loc 1 969 0
 856 0052 07F10807 		add	r7, r7, #8
 857 0056 BD46     		mov	sp, r7
 858 0058 80BD     		pop	{r7, pc}
 859              		.cfi_endproc
 860              	.LFE18:
 861              		.size	SPIS_1_ClearTxBuffer, .-SPIS_1_ClearTxBuffer
 862 005a 00BF     		.section	.text.SPIS_1_PutArray,"ax",%progbits
 863              		.align	2
 864              		.global	SPIS_1_PutArray
 865              		.thumb
 866              		.thumb_func
 867              		.type	SPIS_1_PutArray, %function
 868              	SPIS_1_PutArray:
 869              	.LFB19:
 970:.\Generated_Source\PSoC5/SPIS_1.c **** 
 971:.\Generated_Source\PSoC5/SPIS_1.c **** 
 972:.\Generated_Source\PSoC5/SPIS_1.c **** #if (SPIS_1_BidirectionalMode == 1u)
 973:.\Generated_Source\PSoC5/SPIS_1.c **** 
 974:.\Generated_Source\PSoC5/SPIS_1.c ****     /*******************************************************************************
 975:.\Generated_Source\PSoC5/SPIS_1.c ****     * Function Name: SPIS_1_TxEnable
 976:.\Generated_Source\PSoC5/SPIS_1.c ****     ********************************************************************************
 977:.\Generated_Source\PSoC5/SPIS_1.c ****     *
 978:.\Generated_Source\PSoC5/SPIS_1.c ****     * Summary:
 979:.\Generated_Source\PSoC5/SPIS_1.c ****     *  If the SPI Slave is configured to use a single bi-directional pin then this
 980:.\Generated_Source\PSoC5/SPIS_1.c ****     *  will set the bi-directional pin to transmit.
 981:.\Generated_Source\PSoC5/SPIS_1.c ****     *
 982:.\Generated_Source\PSoC5/SPIS_1.c ****     * Parameters:
 983:.\Generated_Source\PSoC5/SPIS_1.c ****     *  None.
 984:.\Generated_Source\PSoC5/SPIS_1.c ****     *
 985:.\Generated_Source\PSoC5/SPIS_1.c ****     * Return:
 986:.\Generated_Source\PSoC5/SPIS_1.c ****     *  None.
 987:.\Generated_Source\PSoC5/SPIS_1.c ****     *
 988:.\Generated_Source\PSoC5/SPIS_1.c ****     *******************************************************************************/
 989:.\Generated_Source\PSoC5/SPIS_1.c ****     void SPIS_1_TxEnable(void) 
 990:.\Generated_Source\PSoC5/SPIS_1.c ****     {
 991:.\Generated_Source\PSoC5/SPIS_1.c ****             SPIS_1_CONTROL_REG |= SPIS_1_CTRL_TX_SIGNAL_EN;
 992:.\Generated_Source\PSoC5/SPIS_1.c ****     }
 993:.\Generated_Source\PSoC5/SPIS_1.c **** 
 994:.\Generated_Source\PSoC5/SPIS_1.c **** 
 995:.\Generated_Source\PSoC5/SPIS_1.c ****     /*******************************************************************************
 996:.\Generated_Source\PSoC5/SPIS_1.c ****     * Function Name: SPIS_1_TxDisable
 997:.\Generated_Source\PSoC5/SPIS_1.c ****     ********************************************************************************
 998:.\Generated_Source\PSoC5/SPIS_1.c ****     *
 999:.\Generated_Source\PSoC5/SPIS_1.c ****     * Summary:
1000:.\Generated_Source\PSoC5/SPIS_1.c ****     *  If the SPI Slave is configured to use a single bi-directional pin then this
1001:.\Generated_Source\PSoC5/SPIS_1.c ****     *  will set the bi-directional pin to receive.
1002:.\Generated_Source\PSoC5/SPIS_1.c ****     *
1003:.\Generated_Source\PSoC5/SPIS_1.c ****     * Parameters:
1004:.\Generated_Source\PSoC5/SPIS_1.c ****     *  None.
1005:.\Generated_Source\PSoC5/SPIS_1.c ****     *
1006:.\Generated_Source\PSoC5/SPIS_1.c ****     * Return:
1007:.\Generated_Source\PSoC5/SPIS_1.c ****     *  None.
1008:.\Generated_Source\PSoC5/SPIS_1.c ****     *
ARM GAS  C:\Users\hoangp\AppData\Local\Temp\ccnWRgig.s 			page 34


1009:.\Generated_Source\PSoC5/SPIS_1.c ****     *******************************************************************************/
1010:.\Generated_Source\PSoC5/SPIS_1.c ****     void SPIS_1_TxDisable(void) 
1011:.\Generated_Source\PSoC5/SPIS_1.c ****     {
1012:.\Generated_Source\PSoC5/SPIS_1.c ****             SPIS_1_CONTROL_REG &= ~SPIS_1_CTRL_TX_SIGNAL_EN;
1013:.\Generated_Source\PSoC5/SPIS_1.c ****     }
1014:.\Generated_Source\PSoC5/SPIS_1.c **** 
1015:.\Generated_Source\PSoC5/SPIS_1.c **** #endif /* SPIS_1_BidirectionalMode == 1u */
1016:.\Generated_Source\PSoC5/SPIS_1.c **** 
1017:.\Generated_Source\PSoC5/SPIS_1.c **** 
1018:.\Generated_Source\PSoC5/SPIS_1.c **** /*******************************************************************************
1019:.\Generated_Source\PSoC5/SPIS_1.c **** * Function Name: SPIS_1_PutArray
1020:.\Generated_Source\PSoC5/SPIS_1.c **** ********************************************************************************
1021:.\Generated_Source\PSoC5/SPIS_1.c **** *
1022:.\Generated_Source\PSoC5/SPIS_1.c **** * Summary:
1023:.\Generated_Source\PSoC5/SPIS_1.c **** *  Write available data from RAM/ROM to the TX buffer while space is available
1024:.\Generated_Source\PSoC5/SPIS_1.c **** *  in the TX buffer. Keep trying until all data is passed to the TX buffer. If
1025:.\Generated_Source\PSoC5/SPIS_1.c **** *  used Mode 00 or 01 before PutArray() function should be called
1026:.\Generated_Source\PSoC5/SPIS_1.c **** *  WriteTxDataZero() function.
1027:.\Generated_Source\PSoC5/SPIS_1.c **** *
1028:.\Generated_Source\PSoC5/SPIS_1.c **** * Parameters:
1029:.\Generated_Source\PSoC5/SPIS_1.c **** *  *buffer: Pointer to the location in RAM containing the data to send
1030:.\Generated_Source\PSoC5/SPIS_1.c **** *  byteCount: The number of bytes to move to the transmit buffer.
1031:.\Generated_Source\PSoC5/SPIS_1.c **** *
1032:.\Generated_Source\PSoC5/SPIS_1.c **** * Return:
1033:.\Generated_Source\PSoC5/SPIS_1.c **** *  None.
1034:.\Generated_Source\PSoC5/SPIS_1.c **** *
1035:.\Generated_Source\PSoC5/SPIS_1.c **** * Side Effects:
1036:.\Generated_Source\PSoC5/SPIS_1.c **** *  Will stay in this routine until all data has been sent.  May get locked in
1037:.\Generated_Source\PSoC5/SPIS_1.c **** *  this loop if data is not being initiated by the master if there is not
1038:.\Generated_Source\PSoC5/SPIS_1.c **** *  enough room in the TX FIFO.
1039:.\Generated_Source\PSoC5/SPIS_1.c **** *
1040:.\Generated_Source\PSoC5/SPIS_1.c **** * Reentrant:
1041:.\Generated_Source\PSoC5/SPIS_1.c **** *  No.
1042:.\Generated_Source\PSoC5/SPIS_1.c **** *
1043:.\Generated_Source\PSoC5/SPIS_1.c **** *******************************************************************************/
1044:.\Generated_Source\PSoC5/SPIS_1.c **** void SPIS_1_PutArray(uint8 *buffer, uint8 byteCount) 
1045:.\Generated_Source\PSoC5/SPIS_1.c **** {
 870              		.loc 1 1045 0
 871              		.cfi_startproc
 872              		@ args = 0, pretend = 0, frame = 8
 873              		@ frame_needed = 1, uses_anonymous_args = 0
 874 0000 80B5     		push	{r7, lr}
 875              	.LCFI50:
 876              		.cfi_def_cfa_offset 8
 877 0002 82B0     		sub	sp, sp, #8
 878              	.LCFI51:
 879              		.cfi_def_cfa_offset 16
 880 0004 00AF     		add	r7, sp, #0
 881              		.cfi_offset 14, -4
 882              		.cfi_offset 7, -8
 883              	.LCFI52:
 884              		.cfi_def_cfa_register 7
 885 0006 7860     		str	r0, [r7, #4]
 886 0008 0B46     		mov	r3, r1
 887 000a FB70     		strb	r3, [r7, #3]
1046:.\Generated_Source\PSoC5/SPIS_1.c ****     while(byteCount > 0u)
 888              		.loc 1 1046 0
ARM GAS  C:\Users\hoangp\AppData\Local\Temp\ccnWRgig.s 			page 35


 889 000c 0CE0     		b	.L49
 890              	.L50:
1047:.\Generated_Source\PSoC5/SPIS_1.c ****     {
1048:.\Generated_Source\PSoC5/SPIS_1.c ****         SPIS_1_WriteTxData(*buffer++);
 891              		.loc 1 1048 0
 892 000e 7B68     		ldr	r3, [r7, #4]
 893 0010 1B78     		ldrb	r3, [r3, #0]	@ zero_extendqisi2
 894 0012 7A68     		ldr	r2, [r7, #4]
 895 0014 02F10102 		add	r2, r2, #1
 896 0018 7A60     		str	r2, [r7, #4]
 897 001a 1846     		mov	r0, r3
 898 001c FFF7FEFF 		bl	SPIS_1_WriteTxData
1049:.\Generated_Source\PSoC5/SPIS_1.c ****         byteCount--;
 899              		.loc 1 1049 0
 900 0020 FB78     		ldrb	r3, [r7, #3]
 901 0022 03F1FF33 		add	r3, r3, #-1
 902 0026 FB70     		strb	r3, [r7, #3]
 903              	.L49:
 904              		.loc 1 1046 0
 905 0028 FB78     		ldrb	r3, [r7, #3]	@ zero_extendqisi2
 906 002a 002B     		cmp	r3, #0
 907 002c EFD1     		bne	.L50
1050:.\Generated_Source\PSoC5/SPIS_1.c ****     }
1051:.\Generated_Source\PSoC5/SPIS_1.c **** }
 908              		.loc 1 1051 0
 909 002e 07F10807 		add	r7, r7, #8
 910 0032 BD46     		mov	sp, r7
 911 0034 80BD     		pop	{r7, pc}
 912              		.cfi_endproc
 913              	.LFE19:
 914              		.size	SPIS_1_PutArray, .-SPIS_1_PutArray
 915 0036 00BF     		.section	.text.SPIS_1_ClearFIFO,"ax",%progbits
 916              		.align	2
 917              		.global	SPIS_1_ClearFIFO
 918              		.thumb
 919              		.thumb_func
 920              		.type	SPIS_1_ClearFIFO, %function
 921              	SPIS_1_ClearFIFO:
 922              	.LFB20:
1052:.\Generated_Source\PSoC5/SPIS_1.c **** 
1053:.\Generated_Source\PSoC5/SPIS_1.c **** 
1054:.\Generated_Source\PSoC5/SPIS_1.c **** /*******************************************************************************
1055:.\Generated_Source\PSoC5/SPIS_1.c **** * Function Name: SPIS_1_ClearFIFO
1056:.\Generated_Source\PSoC5/SPIS_1.c **** ********************************************************************************
1057:.\Generated_Source\PSoC5/SPIS_1.c **** *
1058:.\Generated_Source\PSoC5/SPIS_1.c **** * Summary:
1059:.\Generated_Source\PSoC5/SPIS_1.c **** *  Clear the RX and TX FIFO's of all data for a fresh start.
1060:.\Generated_Source\PSoC5/SPIS_1.c **** *
1061:.\Generated_Source\PSoC5/SPIS_1.c **** * Parameters:
1062:.\Generated_Source\PSoC5/SPIS_1.c **** *  None.
1063:.\Generated_Source\PSoC5/SPIS_1.c **** *
1064:.\Generated_Source\PSoC5/SPIS_1.c **** * Return:
1065:.\Generated_Source\PSoC5/SPIS_1.c **** *  None.
1066:.\Generated_Source\PSoC5/SPIS_1.c **** *
1067:.\Generated_Source\PSoC5/SPIS_1.c **** * Side Effects:
1068:.\Generated_Source\PSoC5/SPIS_1.c **** *  Clear status register of the component.
1069:.\Generated_Source\PSoC5/SPIS_1.c **** *
ARM GAS  C:\Users\hoangp\AppData\Local\Temp\ccnWRgig.s 			page 36


1070:.\Generated_Source\PSoC5/SPIS_1.c **** *******************************************************************************/
1071:.\Generated_Source\PSoC5/SPIS_1.c **** void SPIS_1_ClearFIFO(void) 
1072:.\Generated_Source\PSoC5/SPIS_1.c **** {
 923              		.loc 1 1072 0
 924              		.cfi_startproc
 925              		@ args = 0, pretend = 0, frame = 8
 926              		@ frame_needed = 1, uses_anonymous_args = 0
 927 0000 80B5     		push	{r7, lr}
 928              	.LCFI53:
 929              		.cfi_def_cfa_offset 8
 930 0002 82B0     		sub	sp, sp, #8
 931              	.LCFI54:
 932              		.cfi_def_cfa_offset 16
 933 0004 00AF     		add	r7, sp, #0
 934              		.cfi_offset 14, -4
 935              		.cfi_offset 7, -8
 936              	.LCFI55:
 937              		.cfi_def_cfa_register 7
1073:.\Generated_Source\PSoC5/SPIS_1.c ****     uint8 enableInterrupts = 0u;
 938              		.loc 1 1073 0
 939 0006 4FF00003 		mov	r3, #0
 940 000a FB71     		strb	r3, [r7, #7]
1074:.\Generated_Source\PSoC5/SPIS_1.c **** 
1075:.\Generated_Source\PSoC5/SPIS_1.c ****     while((!(SPIS_1_RX_STATUS_REG & SPIS_1_STS_RX_FIFO_NOT_EMPTY)) == 0u)
 941              		.loc 1 1075 0
 942 000c 04E0     		b	.L53
 943              	.L54:
1076:.\Generated_Source\PSoC5/SPIS_1.c ****     {
1077:.\Generated_Source\PSoC5/SPIS_1.c ****         CY_GET_REG8(SPIS_1_RXDATA_PTR);
 944              		.loc 1 1077 0
 945 000e 46F24743 		movw	r3, #:lower16:1073767495
 946 0012 C4F20003 		movt	r3, #:upper16:1073767495
 947 0016 1B78     		ldrb	r3, [r3, #0]
 948              	.L53:
 949              		.loc 1 1075 0
 950 0018 46F26C43 		movw	r3, #:lower16:1073767532
 951 001c C4F20003 		movt	r3, #:upper16:1073767532
 952 0020 1B78     		ldrb	r3, [r3, #0]
 953 0022 DBB2     		uxtb	r3, r3
 954 0024 03F00803 		and	r3, r3, #8
 955 0028 002B     		cmp	r3, #0
 956 002a F0D1     		bne	.L54
1078:.\Generated_Source\PSoC5/SPIS_1.c ****     }
1079:.\Generated_Source\PSoC5/SPIS_1.c **** 
1080:.\Generated_Source\PSoC5/SPIS_1.c ****     enableInterrupts = CyEnterCriticalSection();
 957              		.loc 1 1080 0
 958 002c FFF7FEFF 		bl	CyEnterCriticalSection
 959 0030 0346     		mov	r3, r0
 960 0032 FB71     		strb	r3, [r7, #7]
1081:.\Generated_Source\PSoC5/SPIS_1.c **** 
1082:.\Generated_Source\PSoC5/SPIS_1.c ****     #if(SPIS_1_DataWidth <= 8u)
1083:.\Generated_Source\PSoC5/SPIS_1.c **** 
1084:.\Generated_Source\PSoC5/SPIS_1.c ****         /* Clear TX FIFO */
1085:.\Generated_Source\PSoC5/SPIS_1.c ****         SPIS_1_TX_AUX_CONTROL_DP0_REG |= SPIS_1_FIFO_CLR;
 961              		.loc 1 1085 0
 962 0034 46F29843 		movw	r3, #:lower16:1073767576
 963 0038 C4F20003 		movt	r3, #:upper16:1073767576
ARM GAS  C:\Users\hoangp\AppData\Local\Temp\ccnWRgig.s 			page 37


 964 003c 46F29842 		movw	r2, #:lower16:1073767576
 965 0040 C4F20002 		movt	r2, #:upper16:1073767576
 966 0044 1278     		ldrb	r2, [r2, #0]
 967 0046 D2B2     		uxtb	r2, r2
 968 0048 42F00302 		orr	r2, r2, #3
 969 004c D2B2     		uxtb	r2, r2
 970 004e 1A70     		strb	r2, [r3, #0]
1086:.\Generated_Source\PSoC5/SPIS_1.c ****         SPIS_1_TX_AUX_CONTROL_DP0_REG &= ~SPIS_1_FIFO_CLR;
 971              		.loc 1 1086 0
 972 0050 46F29843 		movw	r3, #:lower16:1073767576
 973 0054 C4F20003 		movt	r3, #:upper16:1073767576
 974 0058 46F29842 		movw	r2, #:lower16:1073767576
 975 005c C4F20002 		movt	r2, #:upper16:1073767576
 976 0060 1278     		ldrb	r2, [r2, #0]
 977 0062 D2B2     		uxtb	r2, r2
 978 0064 02F0FC02 		and	r2, r2, #252
 979 0068 1A70     		strb	r2, [r3, #0]
1087:.\Generated_Source\PSoC5/SPIS_1.c **** 
1088:.\Generated_Source\PSoC5/SPIS_1.c ****     #else
1089:.\Generated_Source\PSoC5/SPIS_1.c **** 
1090:.\Generated_Source\PSoC5/SPIS_1.c ****         /* Clear TX FIFO */
1091:.\Generated_Source\PSoC5/SPIS_1.c ****         SPIS_1_TX_AUX_CONTROL_DP0_REG |= SPIS_1_FIFO_CLR;
1092:.\Generated_Source\PSoC5/SPIS_1.c ****         SPIS_1_TX_AUX_CONTROL_DP0_REG &= ~SPIS_1_FIFO_CLR;
1093:.\Generated_Source\PSoC5/SPIS_1.c ****         SPIS_1_TX_AUX_CONTROL_DP1_REG |= SPIS_1_FIFO_CLR;
1094:.\Generated_Source\PSoC5/SPIS_1.c ****         SPIS_1_TX_AUX_CONTROL_DP1_REG &= ~SPIS_1_FIFO_CLR;
1095:.\Generated_Source\PSoC5/SPIS_1.c **** 
1096:.\Generated_Source\PSoC5/SPIS_1.c ****     #endif /* SPIS_1_DataWidth > 8u */
1097:.\Generated_Source\PSoC5/SPIS_1.c **** 
1098:.\Generated_Source\PSoC5/SPIS_1.c ****     CyExitCriticalSection(enableInterrupts);
 980              		.loc 1 1098 0
 981 006a FB79     		ldrb	r3, [r7, #7]	@ zero_extendqisi2
 982 006c 1846     		mov	r0, r3
 983 006e FFF7FEFF 		bl	CyExitCriticalSection
1099:.\Generated_Source\PSoC5/SPIS_1.c **** }
 984              		.loc 1 1099 0
 985 0072 07F10807 		add	r7, r7, #8
 986 0076 BD46     		mov	sp, r7
 987 0078 80BD     		pop	{r7, pc}
 988              		.cfi_endproc
 989              	.LFE20:
 990              		.size	SPIS_1_ClearFIFO, .-SPIS_1_ClearFIFO
 991 007a 00BF     		.section	.text.SPIS_1_EnableInt,"ax",%progbits
 992              		.align	2
 993              		.global	SPIS_1_EnableInt
 994              		.thumb
 995              		.thumb_func
 996              		.type	SPIS_1_EnableInt, %function
 997              	SPIS_1_EnableInt:
 998              	.LFB21:
1100:.\Generated_Source\PSoC5/SPIS_1.c **** 
1101:.\Generated_Source\PSoC5/SPIS_1.c **** 
1102:.\Generated_Source\PSoC5/SPIS_1.c **** /* Following functions are for version Compatibility, they are obsolete.
1103:.\Generated_Source\PSoC5/SPIS_1.c **** *  Please do not use it in new projects.
1104:.\Generated_Source\PSoC5/SPIS_1.c **** */
1105:.\Generated_Source\PSoC5/SPIS_1.c **** 
1106:.\Generated_Source\PSoC5/SPIS_1.c **** /*******************************************************************************
1107:.\Generated_Source\PSoC5/SPIS_1.c **** * Function Name: SPIS_1_EnableInt
ARM GAS  C:\Users\hoangp\AppData\Local\Temp\ccnWRgig.s 			page 38


1108:.\Generated_Source\PSoC5/SPIS_1.c **** ********************************************************************************
1109:.\Generated_Source\PSoC5/SPIS_1.c **** *
1110:.\Generated_Source\PSoC5/SPIS_1.c **** * Summary:
1111:.\Generated_Source\PSoC5/SPIS_1.c **** *  Enable internal interrupt generation.
1112:.\Generated_Source\PSoC5/SPIS_1.c **** *
1113:.\Generated_Source\PSoC5/SPIS_1.c **** * Parameters:
1114:.\Generated_Source\PSoC5/SPIS_1.c **** *  None.
1115:.\Generated_Source\PSoC5/SPIS_1.c **** *
1116:.\Generated_Source\PSoC5/SPIS_1.c **** * Return:
1117:.\Generated_Source\PSoC5/SPIS_1.c **** *  None.
1118:.\Generated_Source\PSoC5/SPIS_1.c **** *
1119:.\Generated_Source\PSoC5/SPIS_1.c **** * Theory:
1120:.\Generated_Source\PSoC5/SPIS_1.c **** *  Enable the internal interrupt output -or- the interrupt component itself.
1121:.\Generated_Source\PSoC5/SPIS_1.c **** *
1122:.\Generated_Source\PSoC5/SPIS_1.c **** *******************************************************************************/
1123:.\Generated_Source\PSoC5/SPIS_1.c **** void SPIS_1_EnableInt(void) 
1124:.\Generated_Source\PSoC5/SPIS_1.c **** {
 999              		.loc 1 1124 0
 1000              		.cfi_startproc
 1001              		@ args = 0, pretend = 0, frame = 0
 1002              		@ frame_needed = 1, uses_anonymous_args = 0
 1003              		@ link register save eliminated.
 1004 0000 80B4     		push	{r7}
 1005              	.LCFI56:
 1006              		.cfi_def_cfa_offset 4
 1007 0002 00AF     		add	r7, sp, #0
 1008              		.cfi_offset 7, -4
 1009              	.LCFI57:
 1010              		.cfi_def_cfa_register 7
1125:.\Generated_Source\PSoC5/SPIS_1.c ****     #if(SPIS_1_InternalTxInterruptEnabled)    
1126:.\Generated_Source\PSoC5/SPIS_1.c ****         CyIntEnable(SPIS_1_TX_ISR_NUMBER);
1127:.\Generated_Source\PSoC5/SPIS_1.c ****     #endif /* SPIS_1_InternalTxInterruptEnabled */                                
1128:.\Generated_Source\PSoC5/SPIS_1.c ****     
1129:.\Generated_Source\PSoC5/SPIS_1.c ****     #if(SPIS_1_InternalRxInterruptEnabled)           
1130:.\Generated_Source\PSoC5/SPIS_1.c ****         CyIntEnable(SPIS_1_RX_ISR_NUMBER);
1131:.\Generated_Source\PSoC5/SPIS_1.c ****     #endif /* SPIS_1_InternalRxInterruptEnabled */
1132:.\Generated_Source\PSoC5/SPIS_1.c **** }
 1011              		.loc 1 1132 0
 1012 0004 BD46     		mov	sp, r7
 1013 0006 80BC     		pop	{r7}
 1014 0008 7047     		bx	lr
 1015              		.cfi_endproc
 1016              	.LFE21:
 1017              		.size	SPIS_1_EnableInt, .-SPIS_1_EnableInt
 1018 000a 00BF     		.section	.text.SPIS_1_DisableInt,"ax",%progbits
 1019              		.align	2
 1020              		.global	SPIS_1_DisableInt
 1021              		.thumb
 1022              		.thumb_func
 1023              		.type	SPIS_1_DisableInt, %function
 1024              	SPIS_1_DisableInt:
 1025              	.LFB22:
1133:.\Generated_Source\PSoC5/SPIS_1.c **** 
1134:.\Generated_Source\PSoC5/SPIS_1.c **** 
1135:.\Generated_Source\PSoC5/SPIS_1.c **** /*******************************************************************************
1136:.\Generated_Source\PSoC5/SPIS_1.c **** * Function Name: SPIS_1_DisableInt
1137:.\Generated_Source\PSoC5/SPIS_1.c **** ********************************************************************************
ARM GAS  C:\Users\hoangp\AppData\Local\Temp\ccnWRgig.s 			page 39


1138:.\Generated_Source\PSoC5/SPIS_1.c **** *
1139:.\Generated_Source\PSoC5/SPIS_1.c **** * Summary:
1140:.\Generated_Source\PSoC5/SPIS_1.c **** *  Disable internal interrupt generation.
1141:.\Generated_Source\PSoC5/SPIS_1.c **** *
1142:.\Generated_Source\PSoC5/SPIS_1.c **** * Parameters:
1143:.\Generated_Source\PSoC5/SPIS_1.c **** *  None.
1144:.\Generated_Source\PSoC5/SPIS_1.c **** *
1145:.\Generated_Source\PSoC5/SPIS_1.c **** * Return:
1146:.\Generated_Source\PSoC5/SPIS_1.c **** *  None.
1147:.\Generated_Source\PSoC5/SPIS_1.c **** *
1148:.\Generated_Source\PSoC5/SPIS_1.c **** * Theory:
1149:.\Generated_Source\PSoC5/SPIS_1.c **** *  Disable the internal interrupt output -or- the interrupt component itself.
1150:.\Generated_Source\PSoC5/SPIS_1.c **** *
1151:.\Generated_Source\PSoC5/SPIS_1.c **** *******************************************************************************/
1152:.\Generated_Source\PSoC5/SPIS_1.c **** void SPIS_1_DisableInt(void) 
1153:.\Generated_Source\PSoC5/SPIS_1.c **** {
 1026              		.loc 1 1153 0
 1027              		.cfi_startproc
 1028              		@ args = 0, pretend = 0, frame = 0
 1029              		@ frame_needed = 1, uses_anonymous_args = 0
 1030              		@ link register save eliminated.
 1031 0000 80B4     		push	{r7}
 1032              	.LCFI58:
 1033              		.cfi_def_cfa_offset 4
 1034 0002 00AF     		add	r7, sp, #0
 1035              		.cfi_offset 7, -4
 1036              	.LCFI59:
 1037              		.cfi_def_cfa_register 7
1154:.\Generated_Source\PSoC5/SPIS_1.c ****     #if(SPIS_1_InternalTxInterruptEnabled)    
1155:.\Generated_Source\PSoC5/SPIS_1.c ****         CyIntDisable(SPIS_1_TX_ISR_NUMBER);
1156:.\Generated_Source\PSoC5/SPIS_1.c ****     #endif /* SPIS_1_InternalTxInterruptEnabled */
1157:.\Generated_Source\PSoC5/SPIS_1.c ****     
1158:.\Generated_Source\PSoC5/SPIS_1.c ****     #if(SPIS_1_InternalRxInterruptEnabled)           
1159:.\Generated_Source\PSoC5/SPIS_1.c ****         CyIntDisable(SPIS_1_RX_ISR_NUMBER);
1160:.\Generated_Source\PSoC5/SPIS_1.c ****     #endif /* SPIS_1_InternalRxInterruptEnabled */
1161:.\Generated_Source\PSoC5/SPIS_1.c **** }
 1038              		.loc 1 1161 0
 1039 0004 BD46     		mov	sp, r7
 1040 0006 80BC     		pop	{r7}
 1041 0008 7047     		bx	lr
 1042              		.cfi_endproc
 1043              	.LFE22:
 1044              		.size	SPIS_1_DisableInt, .-SPIS_1_DisableInt
 1045 000a 00BF     		.section	.text.SPIS_1_SetInterruptMode,"ax",%progbits
 1046              		.align	2
 1047              		.global	SPIS_1_SetInterruptMode
 1048              		.thumb
 1049              		.thumb_func
 1050              		.type	SPIS_1_SetInterruptMode, %function
 1051              	SPIS_1_SetInterruptMode:
 1052              	.LFB23:
1162:.\Generated_Source\PSoC5/SPIS_1.c **** 
1163:.\Generated_Source\PSoC5/SPIS_1.c **** 
1164:.\Generated_Source\PSoC5/SPIS_1.c **** /*******************************************************************************
1165:.\Generated_Source\PSoC5/SPIS_1.c **** * Function Name: SPIS_1_SetInterruptMode
1166:.\Generated_Source\PSoC5/SPIS_1.c **** ********************************************************************************
1167:.\Generated_Source\PSoC5/SPIS_1.c **** *
ARM GAS  C:\Users\hoangp\AppData\Local\Temp\ccnWRgig.s 			page 40


1168:.\Generated_Source\PSoC5/SPIS_1.c **** * Summary:
1169:.\Generated_Source\PSoC5/SPIS_1.c **** *  Configure which status bits trigger an interrupt event.
1170:.\Generated_Source\PSoC5/SPIS_1.c **** *
1171:.\Generated_Source\PSoC5/SPIS_1.c **** * Parameters:
1172:.\Generated_Source\PSoC5/SPIS_1.c **** *  intSrc: An or'd combination of the desired status bit masks (defined in the
1173:.\Generated_Source\PSoC5/SPIS_1.c **** *  header file).
1174:.\Generated_Source\PSoC5/SPIS_1.c **** *
1175:.\Generated_Source\PSoC5/SPIS_1.c **** * Return:
1176:.\Generated_Source\PSoC5/SPIS_1.c **** *  None.
1177:.\Generated_Source\PSoC5/SPIS_1.c **** *
1178:.\Generated_Source\PSoC5/SPIS_1.c **** * Theory:
1179:.\Generated_Source\PSoC5/SPIS_1.c **** *  Enables the output of specific status bits to the interrupt controller.
1180:.\Generated_Source\PSoC5/SPIS_1.c **** *
1181:.\Generated_Source\PSoC5/SPIS_1.c **** *******************************************************************************/
1182:.\Generated_Source\PSoC5/SPIS_1.c **** void SPIS_1_SetInterruptMode(uint8 intSrc) 
1183:.\Generated_Source\PSoC5/SPIS_1.c **** {
 1053              		.loc 1 1183 0
 1054              		.cfi_startproc
 1055              		@ args = 0, pretend = 0, frame = 8
 1056              		@ frame_needed = 1, uses_anonymous_args = 0
 1057              		@ link register save eliminated.
 1058 0000 80B4     		push	{r7}
 1059              	.LCFI60:
 1060              		.cfi_def_cfa_offset 4
 1061 0002 83B0     		sub	sp, sp, #12
 1062              	.LCFI61:
 1063              		.cfi_def_cfa_offset 16
 1064 0004 00AF     		add	r7, sp, #0
 1065              		.cfi_offset 7, -4
 1066              	.LCFI62:
 1067              		.cfi_def_cfa_register 7
 1068 0006 0346     		mov	r3, r0
 1069 0008 FB71     		strb	r3, [r7, #7]
1184:.\Generated_Source\PSoC5/SPIS_1.c ****     SPIS_1_TX_STATUS_MASK_REG  = intSrc;
 1070              		.loc 1 1184 0
 1071 000a 46F28B43 		movw	r3, #:lower16:1073767563
 1072 000e C4F20003 		movt	r3, #:upper16:1073767563
 1073 0012 FA79     		ldrb	r2, [r7, #7]
 1074 0014 1A70     		strb	r2, [r3, #0]
1185:.\Generated_Source\PSoC5/SPIS_1.c ****     SPIS_1_RX_STATUS_MASK_REG  = intSrc;
 1075              		.loc 1 1185 0
 1076 0016 46F28C43 		movw	r3, #:lower16:1073767564
 1077 001a C4F20003 		movt	r3, #:upper16:1073767564
 1078 001e FA79     		ldrb	r2, [r7, #7]
 1079 0020 1A70     		strb	r2, [r3, #0]
1186:.\Generated_Source\PSoC5/SPIS_1.c **** }
 1080              		.loc 1 1186 0
 1081 0022 07F10C07 		add	r7, r7, #12
 1082 0026 BD46     		mov	sp, r7
 1083 0028 80BC     		pop	{r7}
 1084 002a 7047     		bx	lr
 1085              		.cfi_endproc
 1086              	.LFE23:
 1087              		.size	SPIS_1_SetInterruptMode, .-SPIS_1_SetInterruptMode
 1088              		.section	.text.SPIS_1_ReadStatus,"ax",%progbits
 1089              		.align	2
 1090              		.global	SPIS_1_ReadStatus
ARM GAS  C:\Users\hoangp\AppData\Local\Temp\ccnWRgig.s 			page 41


 1091              		.thumb
 1092              		.thumb_func
 1093              		.type	SPIS_1_ReadStatus, %function
 1094              	SPIS_1_ReadStatus:
 1095              	.LFB24:
1187:.\Generated_Source\PSoC5/SPIS_1.c **** 
1188:.\Generated_Source\PSoC5/SPIS_1.c **** 
1189:.\Generated_Source\PSoC5/SPIS_1.c **** /*******************************************************************************
1190:.\Generated_Source\PSoC5/SPIS_1.c **** * Function Name: SPIS_1_ReadStatus
1191:.\Generated_Source\PSoC5/SPIS_1.c **** ********************************************************************************
1192:.\Generated_Source\PSoC5/SPIS_1.c **** *
1193:.\Generated_Source\PSoC5/SPIS_1.c **** * Summary:
1194:.\Generated_Source\PSoC5/SPIS_1.c **** *  Read the status register for the component.
1195:.\Generated_Source\PSoC5/SPIS_1.c **** *
1196:.\Generated_Source\PSoC5/SPIS_1.c **** * Parameters:
1197:.\Generated_Source\PSoC5/SPIS_1.c **** *  None.
1198:.\Generated_Source\PSoC5/SPIS_1.c **** *
1199:.\Generated_Source\PSoC5/SPIS_1.c **** * Return:
1200:.\Generated_Source\PSoC5/SPIS_1.c **** *  Contents of the status register.
1201:.\Generated_Source\PSoC5/SPIS_1.c **** *
1202:.\Generated_Source\PSoC5/SPIS_1.c **** * Global variables:
1203:.\Generated_Source\PSoC5/SPIS_1.c **** *  SPIS_1_swStatus - used to store in software status register,
1204:.\Generated_Source\PSoC5/SPIS_1.c **** *  modified every function call - resets to zero.
1205:.\Generated_Source\PSoC5/SPIS_1.c **** *
1206:.\Generated_Source\PSoC5/SPIS_1.c **** * Theory:
1207:.\Generated_Source\PSoC5/SPIS_1.c **** *  Allows the user and the API to read the status register for error detection
1208:.\Generated_Source\PSoC5/SPIS_1.c **** *  and flow control.
1209:.\Generated_Source\PSoC5/SPIS_1.c **** *
1210:.\Generated_Source\PSoC5/SPIS_1.c **** * Side Effects:
1211:.\Generated_Source\PSoC5/SPIS_1.c **** *  Clear status register of the component.
1212:.\Generated_Source\PSoC5/SPIS_1.c **** *
1213:.\Generated_Source\PSoC5/SPIS_1.c **** * Reentrant:
1214:.\Generated_Source\PSoC5/SPIS_1.c **** *  No.
1215:.\Generated_Source\PSoC5/SPIS_1.c **** *
1216:.\Generated_Source\PSoC5/SPIS_1.c **** *******************************************************************************/
1217:.\Generated_Source\PSoC5/SPIS_1.c **** uint8 SPIS_1_ReadStatus(void) 
1218:.\Generated_Source\PSoC5/SPIS_1.c **** {
 1096              		.loc 1 1218 0
 1097              		.cfi_startproc
 1098              		@ args = 0, pretend = 0, frame = 8
 1099              		@ frame_needed = 1, uses_anonymous_args = 0
 1100              		@ link register save eliminated.
 1101 0000 80B4     		push	{r7}
 1102              	.LCFI63:
 1103              		.cfi_def_cfa_offset 4
 1104 0002 83B0     		sub	sp, sp, #12
 1105              	.LCFI64:
 1106              		.cfi_def_cfa_offset 16
 1107 0004 00AF     		add	r7, sp, #0
 1108              		.cfi_offset 7, -4
 1109              	.LCFI65:
 1110              		.cfi_def_cfa_register 7
1219:.\Generated_Source\PSoC5/SPIS_1.c ****     uint8 tmpStatus;
1220:.\Generated_Source\PSoC5/SPIS_1.c **** 
1221:.\Generated_Source\PSoC5/SPIS_1.c ****     #if ((SPIS_1_TXBUFFERSIZE > 4u) || (SPIS_1_RXBUFFERSIZE > 4u))
1222:.\Generated_Source\PSoC5/SPIS_1.c **** 
1223:.\Generated_Source\PSoC5/SPIS_1.c ****         SPIS_1_DisableInt();
ARM GAS  C:\Users\hoangp\AppData\Local\Temp\ccnWRgig.s 			page 42


1224:.\Generated_Source\PSoC5/SPIS_1.c **** 
1225:.\Generated_Source\PSoC5/SPIS_1.c ****         tmpStatus = SPIS_1_GET_STATUS_TX(SPIS_1_swStatusTx) |
1226:.\Generated_Source\PSoC5/SPIS_1.c ****                     (SPIS_1_GET_STATUS_RX(SPIS_1_swStatusRx) & ~SPIS_1_STS_RX_FIFO_FULL);
1227:.\Generated_Source\PSoC5/SPIS_1.c **** 
1228:.\Generated_Source\PSoC5/SPIS_1.c ****         SPIS_1_swStatusTx = 0u;
1229:.\Generated_Source\PSoC5/SPIS_1.c ****         SPIS_1_swStatusRx = 0u;
1230:.\Generated_Source\PSoC5/SPIS_1.c **** 
1231:.\Generated_Source\PSoC5/SPIS_1.c ****         /* Enable Interrupts */
1232:.\Generated_Source\PSoC5/SPIS_1.c ****         SPIS_1_EnableInt();
1233:.\Generated_Source\PSoC5/SPIS_1.c **** 
1234:.\Generated_Source\PSoC5/SPIS_1.c ****     #else /* (SPIS_1_TXBUFFERSIZE < 4u) && (SPIS_1_RXBUFFERSIZE < 4u) */
1235:.\Generated_Source\PSoC5/SPIS_1.c **** 
1236:.\Generated_Source\PSoC5/SPIS_1.c ****         tmpStatus = SPIS_1_TX_STATUS_REG | (SPIS_1_RX_STATUS_REG &
 1111              		.loc 1 1236 0
 1112 0006 46F26B43 		movw	r3, #:lower16:1073767531
 1113 000a C4F20003 		movt	r3, #:upper16:1073767531
 1114 000e 1B78     		ldrb	r3, [r3, #0]
 1115 0010 DAB2     		uxtb	r2, r3
 1116 0012 46F26C43 		movw	r3, #:lower16:1073767532
 1117 0016 C4F20003 		movt	r3, #:upper16:1073767532
 1118 001a 1B78     		ldrb	r3, [r3, #0]
 1119 001c DBB2     		uxtb	r3, r3
 1120 001e 03F0BF03 		and	r3, r3, #191
 1121 0022 42EA0303 		orr	r3, r2, r3
 1122 0026 FB71     		strb	r3, [r7, #7]
1237:.\Generated_Source\PSoC5/SPIS_1.c ****                                                       ~SPIS_1_STS_RX_FIFO_FULL);
1238:.\Generated_Source\PSoC5/SPIS_1.c **** 
1239:.\Generated_Source\PSoC5/SPIS_1.c ****     #endif /* (SPIS_1_TXBUFFERSIZE > 4u) || (SPIS_1_RXBUFFERSIZE > 4u) */
1240:.\Generated_Source\PSoC5/SPIS_1.c **** 
1241:.\Generated_Source\PSoC5/SPIS_1.c ****     return(tmpStatus);
 1123              		.loc 1 1241 0
 1124 0028 FB79     		ldrb	r3, [r7, #7]	@ zero_extendqisi2
1242:.\Generated_Source\PSoC5/SPIS_1.c **** }
 1125              		.loc 1 1242 0
 1126 002a 1846     		mov	r0, r3
 1127 002c 07F10C07 		add	r7, r7, #12
 1128 0030 BD46     		mov	sp, r7
 1129 0032 80BC     		pop	{r7}
 1130 0034 7047     		bx	lr
 1131              		.cfi_endproc
 1132              	.LFE24:
 1133              		.size	SPIS_1_ReadStatus, .-SPIS_1_ReadStatus
 1134 0036 00BF     		.text
 1135              	.Letext0: