ARM GAS  C:\Users\hoangp\AppData\Local\Temp\ccnWRgig.s 			page 1


   1              		.syntax unified
   2              		.cpu cortex-m3
   3              		.fpu softvfp
   4              		.eabi_attribute 20, 1
   5              		.eabi_attribute 21, 1
   6              		.eabi_attribute 23, 3
   7              		.eabi_attribute 24, 1
   8              		.eabi_attribute 25, 1
   9              		.eabi_attribute 26, 1
  10              		.eabi_attribute 30, 6
  11              		.eabi_attribute 18, 4
  12              		.thumb
  13              		.file	"SPIS_1.c"
  14              		.section	.debug_abbrev,"",%progbits
  15              	.Ldebug_abbrev0:
  16              		.section	.debug_info,"",%progbits
  17              	.Ldebug_info0:
  18              		.section	.debug_line,"",%progbits
  19              	.Ldebug_line0:
  20 0000 73020000 		.text
  20      02005F00 
  20      00000201 
  20      FB0E0D00 
  20      01010101 
  21              	.Ltext0:
  22              		.cfi_sections	.debug_frame
  23              		.global	SPIS_1_initVar
  24              		.bss
  25              		.type	SPIS_1_initVar, %object
  26              		.size	SPIS_1_initVar, 1
  27              	SPIS_1_initVar:
  28 0000 00       		.space	1
  29              		.section	.text.SPIS_1_Init,"ax",%progbits
  30              		.align	2
  31              		.global	SPIS_1_Init
  32              		.thumb
  33              		.thumb_func
  34              		.type	SPIS_1_Init, %function
  35              	SPIS_1_Init:
  36              	.LFB0:
  37              		.file 1 ".\\Generated_Source\\PSoC5\\SPIS_1.c"
   1:.\Generated_Source\PSoC5/SPIS_1.c **** /*******************************************************************************
   2:.\Generated_Source\PSoC5/SPIS_1.c **** * File Name: SPIS_1.c
   3:.\Generated_Source\PSoC5/SPIS_1.c **** * Version 2.50
   4:.\Generated_Source\PSoC5/SPIS_1.c **** *
   5:.\Generated_Source\PSoC5/SPIS_1.c **** * Description:
   6:.\Generated_Source\PSoC5/SPIS_1.c **** *  This file provides all API functionality of the SPI Slave component.
   7:.\Generated_Source\PSoC5/SPIS_1.c **** *
   8:.\Generated_Source\PSoC5/SPIS_1.c **** * Note:
   9:.\Generated_Source\PSoC5/SPIS_1.c **** *  None.
  10:.\Generated_Source\PSoC5/SPIS_1.c **** *
  11:.\Generated_Source\PSoC5/SPIS_1.c **** ********************************************************************************
  12:.\Generated_Source\PSoC5/SPIS_1.c **** * Copyright 2008-2012, Cypress Semiconductor Corporation.  All rights reserved.
  13:.\Generated_Source\PSoC5/SPIS_1.c **** * You may use this file only in accordance with the license, terms, conditions,
  14:.\Generated_Source\PSoC5/SPIS_1.c **** * disclaimers, and limitations in the end user license agreement accompanying
  15:.\Generated_Source\PSoC5/SPIS_1.c **** * the software package with which this file was provided.
  16:.\Generated_Source\PSoC5/SPIS_1.c **** *******************************************************************************/
ARM GAS  C:\Users\hoangp\AppData\Local\Temp\ccnWRgig.s 			page 2


  17:.\Generated_Source\PSoC5/SPIS_1.c **** 
  18:.\Generated_Source\PSoC5/SPIS_1.c **** #include "CyLib.h"
  19:.\Generated_Source\PSoC5/SPIS_1.c **** #include "SPIS_1.h"
  20:.\Generated_Source\PSoC5/SPIS_1.c **** 
  21:.\Generated_Source\PSoC5/SPIS_1.c **** #if (SPIS_1_TXBUFFERSIZE > 4u)
  22:.\Generated_Source\PSoC5/SPIS_1.c **** 
  23:.\Generated_Source\PSoC5/SPIS_1.c ****     volatile uint8 SPIS_1_TXBUFFER[SPIS_1_TXBUFFERSIZE] = {0u};
  24:.\Generated_Source\PSoC5/SPIS_1.c ****     volatile uint8 SPIS_1_txBufferRead = 0u;
  25:.\Generated_Source\PSoC5/SPIS_1.c ****     volatile uint8 SPIS_1_txBufferWrite = 0u;
  26:.\Generated_Source\PSoC5/SPIS_1.c ****     volatile uint8 SPIS_1_txBufferFull = 0u;
  27:.\Generated_Source\PSoC5/SPIS_1.c **** 
  28:.\Generated_Source\PSoC5/SPIS_1.c **** #endif /* SPIS_1_TXBUFFERSIZE > 4u */
  29:.\Generated_Source\PSoC5/SPIS_1.c **** 
  30:.\Generated_Source\PSoC5/SPIS_1.c **** #if (SPIS_1_RXBUFFERSIZE > 4u)
  31:.\Generated_Source\PSoC5/SPIS_1.c **** 
  32:.\Generated_Source\PSoC5/SPIS_1.c ****     volatile uint8 SPIS_1_RXBUFFER[SPIS_1_RXBUFFERSIZE] = {0u};
  33:.\Generated_Source\PSoC5/SPIS_1.c ****     volatile uint8 SPIS_1_rxBufferRead = 0u;
  34:.\Generated_Source\PSoC5/SPIS_1.c ****     volatile uint8 SPIS_1_rxBufferWrite = 0u;
  35:.\Generated_Source\PSoC5/SPIS_1.c ****     volatile uint8 SPIS_1_rxBufferFull = 0u;
  36:.\Generated_Source\PSoC5/SPIS_1.c **** 
  37:.\Generated_Source\PSoC5/SPIS_1.c **** #endif /* SPIS_1_RXBUFFERSIZE > 4u */
  38:.\Generated_Source\PSoC5/SPIS_1.c **** 
  39:.\Generated_Source\PSoC5/SPIS_1.c **** uint8 SPIS_1_initVar = 0u;
  40:.\Generated_Source\PSoC5/SPIS_1.c **** 
  41:.\Generated_Source\PSoC5/SPIS_1.c **** extern volatile uint8 SPIS_1_swStatusTx;
  42:.\Generated_Source\PSoC5/SPIS_1.c **** extern volatile uint8 SPIS_1_swStatusRx;
  43:.\Generated_Source\PSoC5/SPIS_1.c **** 
  44:.\Generated_Source\PSoC5/SPIS_1.c **** 
  45:.\Generated_Source\PSoC5/SPIS_1.c **** /*******************************************************************************
  46:.\Generated_Source\PSoC5/SPIS_1.c **** * Function Name: SPIS_1_Init
  47:.\Generated_Source\PSoC5/SPIS_1.c **** ********************************************************************************
  48:.\Generated_Source\PSoC5/SPIS_1.c **** *
  49:.\Generated_Source\PSoC5/SPIS_1.c **** * Summary:
  50:.\Generated_Source\PSoC5/SPIS_1.c **** *  Inits/Restores default SPIS configuration provided with customizer.
  51:.\Generated_Source\PSoC5/SPIS_1.c **** *
  52:.\Generated_Source\PSoC5/SPIS_1.c **** * Parameters:
  53:.\Generated_Source\PSoC5/SPIS_1.c **** *  None.
  54:.\Generated_Source\PSoC5/SPIS_1.c **** *
  55:.\Generated_Source\PSoC5/SPIS_1.c **** * Return:
  56:.\Generated_Source\PSoC5/SPIS_1.c **** *  None.
  57:.\Generated_Source\PSoC5/SPIS_1.c **** *
  58:.\Generated_Source\PSoC5/SPIS_1.c **** * Side Effects:
  59:.\Generated_Source\PSoC5/SPIS_1.c **** *  When this function is called it initializes all of the necessary parameters
  60:.\Generated_Source\PSoC5/SPIS_1.c **** *  for execution. i.e. setting the initial interrupt mask, configuring the
  61:.\Generated_Source\PSoC5/SPIS_1.c **** *  interrupt service routine, configuring the bit-counter parameters and
  62:.\Generated_Source\PSoC5/SPIS_1.c **** *  clearing the FIFO and Status Register.
  63:.\Generated_Source\PSoC5/SPIS_1.c **** *
  64:.\Generated_Source\PSoC5/SPIS_1.c **** * Reentrant:
  65:.\Generated_Source\PSoC5/SPIS_1.c **** *  No.
  66:.\Generated_Source\PSoC5/SPIS_1.c **** *
  67:.\Generated_Source\PSoC5/SPIS_1.c **** *******************************************************************************/
  68:.\Generated_Source\PSoC5/SPIS_1.c **** void SPIS_1_Init(void) 
  69:.\Generated_Source\PSoC5/SPIS_1.c **** {
  38              		.loc 1 69 0
  39              		.cfi_startproc
  40              		@ args = 0, pretend = 0, frame = 0
  41              		@ frame_needed = 1, uses_anonymous_args = 0
ARM GAS  C:\Users\hoangp\AppData\Local\Temp\ccnWRgig.s 			page 3


  42 0000 80B5     		push	{r7, lr}
  43              	.LCFI0:
  44              		.cfi_def_cfa_offset 8
  45 0002 00AF     		add	r7, sp, #0
  46              		.cfi_offset 14, -4
  47              		.cfi_offset 7, -8
  48              	.LCFI1:
  49              		.cfi_def_cfa_register 7
  70:.\Generated_Source\PSoC5/SPIS_1.c ****     /*Initialize the Bit counter */
  71:.\Generated_Source\PSoC5/SPIS_1.c ****     SPIS_1_COUNTER_PERIOD_REG = SPIS_1_BITCTR_INIT;
  50              		.loc 1 71 0
  51 0004 46F28743 		movw	r3, #:lower16:1073767559
  52 0008 C4F20003 		movt	r3, #:upper16:1073767559
  53 000c 4FF00702 		mov	r2, #7
  54 0010 1A70     		strb	r2, [r3, #0]
  72:.\Generated_Source\PSoC5/SPIS_1.c **** 
  73:.\Generated_Source\PSoC5/SPIS_1.c ****     /* ISR initialization */
  74:.\Generated_Source\PSoC5/SPIS_1.c ****     #if(SPIS_1_InternalTxInterruptEnabled)
  75:.\Generated_Source\PSoC5/SPIS_1.c **** 
  76:.\Generated_Source\PSoC5/SPIS_1.c ****         CyIntDisable(SPIS_1_TX_ISR_NUMBER);
  77:.\Generated_Source\PSoC5/SPIS_1.c **** 
  78:.\Generated_Source\PSoC5/SPIS_1.c ****         /* Set the ISR to point to the SPIS_1_isr Interrupt. */
  79:.\Generated_Source\PSoC5/SPIS_1.c ****         CyIntSetVector(SPIS_1_TX_ISR_NUMBER, SPIS_1_TX_ISR);
  80:.\Generated_Source\PSoC5/SPIS_1.c **** 
  81:.\Generated_Source\PSoC5/SPIS_1.c ****         /* Set the priority. */
  82:.\Generated_Source\PSoC5/SPIS_1.c ****         CyIntSetPriority(SPIS_1_TX_ISR_NUMBER, SPIS_1_TX_ISR_PRIORITY);
  83:.\Generated_Source\PSoC5/SPIS_1.c **** 
  84:.\Generated_Source\PSoC5/SPIS_1.c ****     #endif /* SPIS_1_InternalTxInterruptEnabled */
  85:.\Generated_Source\PSoC5/SPIS_1.c **** 
  86:.\Generated_Source\PSoC5/SPIS_1.c ****     #if(SPIS_1_InternalRxInterruptEnabled)
  87:.\Generated_Source\PSoC5/SPIS_1.c **** 
  88:.\Generated_Source\PSoC5/SPIS_1.c ****         CyIntDisable(SPIS_1_RX_ISR_NUMBER);
  89:.\Generated_Source\PSoC5/SPIS_1.c **** 
  90:.\Generated_Source\PSoC5/SPIS_1.c ****         /* Set the ISR to point to the SPIS_1_isr Interrupt. */
  91:.\Generated_Source\PSoC5/SPIS_1.c ****         CyIntSetVector(SPIS_1_RX_ISR_NUMBER, SPIS_1_RX_ISR);
  92:.\Generated_Source\PSoC5/SPIS_1.c **** 
  93:.\Generated_Source\PSoC5/SPIS_1.c ****         /* Set the priority. */
  94:.\Generated_Source\PSoC5/SPIS_1.c ****         CyIntSetPriority(SPIS_1_RX_ISR_NUMBER, SPIS_1_RX_ISR_PRIORITY);
  95:.\Generated_Source\PSoC5/SPIS_1.c **** 
  96:.\Generated_Source\PSoC5/SPIS_1.c ****     #endif /* SPIS_1_InternalRxInterruptEnabled */
  97:.\Generated_Source\PSoC5/SPIS_1.c **** 
  98:.\Generated_Source\PSoC5/SPIS_1.c ****     /* Clear any stray data from the RX and TX FIFO */
  99:.\Generated_Source\PSoC5/SPIS_1.c ****     SPIS_1_ClearFIFO();
  55              		.loc 1 99 0
  56 0012 FFF7FEFF 		bl	SPIS_1_ClearFIFO
 100:.\Generated_Source\PSoC5/SPIS_1.c **** 
 101:.\Generated_Source\PSoC5/SPIS_1.c ****     #if(SPIS_1_RXBUFFERSIZE > 4u)
 102:.\Generated_Source\PSoC5/SPIS_1.c **** 
 103:.\Generated_Source\PSoC5/SPIS_1.c ****         SPIS_1_rxBufferRead = 0u;
 104:.\Generated_Source\PSoC5/SPIS_1.c ****         SPIS_1_rxBufferWrite = 0u;
 105:.\Generated_Source\PSoC5/SPIS_1.c **** 
 106:.\Generated_Source\PSoC5/SPIS_1.c ****     #endif /* SPIS_1_RXBUFFERSIZE > 4u */
 107:.\Generated_Source\PSoC5/SPIS_1.c **** 
 108:.\Generated_Source\PSoC5/SPIS_1.c ****     #if(SPIS_1_TXBUFFERSIZE > 4u)
 109:.\Generated_Source\PSoC5/SPIS_1.c **** 
 110:.\Generated_Source\PSoC5/SPIS_1.c ****         SPIS_1_txBufferRead = 0u;
 111:.\Generated_Source\PSoC5/SPIS_1.c ****         SPIS_1_txBufferWrite = 0u;
ARM GAS  C:\Users\hoangp\AppData\Local\Temp\ccnWRgig.s 			page 4


 112:.\Generated_Source\PSoC5/SPIS_1.c **** 
 113:.\Generated_Source\PSoC5/SPIS_1.c ****     #endif /* SPIS_1_TXBUFFERSIZE > 4u */
 114:.\Generated_Source\PSoC5/SPIS_1.c **** 
 115:.\Generated_Source\PSoC5/SPIS_1.c ****     (void) SPIS_1_ReadTxStatus(); /* Clear any pending status bits */
  57              		.loc 1 115 0
  58 0016 FFF7FEFF 		bl	SPIS_1_ReadTxStatus
 116:.\Generated_Source\PSoC5/SPIS_1.c ****     (void) SPIS_1_ReadRxStatus(); /* Clear any pending status bits */
  59              		.loc 1 116 0
  60 001a FFF7FEFF 		bl	SPIS_1_ReadRxStatus
 117:.\Generated_Source\PSoC5/SPIS_1.c **** 
 118:.\Generated_Source\PSoC5/SPIS_1.c **** 
 119:.\Generated_Source\PSoC5/SPIS_1.c ****     /* Configure the Initial interrupt mask */
 120:.\Generated_Source\PSoC5/SPIS_1.c ****     #if (SPIS_1_TXBUFFERSIZE > 4u)
 121:.\Generated_Source\PSoC5/SPIS_1.c ****         SPIS_1_TX_STATUS_MASK_REG  = SPIS_1_TX_INIT_INTERRUPTS_MASK &
 122:.\Generated_Source\PSoC5/SPIS_1.c ****                                                 ~SPIS_1_STS_TX_FIFO_NOT_FULL;
 123:.\Generated_Source\PSoC5/SPIS_1.c ****     #else /* SPIS_1_TXBUFFERSIZE < 4u */
 124:.\Generated_Source\PSoC5/SPIS_1.c ****         SPIS_1_TX_STATUS_MASK_REG  = SPIS_1_TX_INIT_INTERRUPTS_MASK;
  61              		.loc 1 124 0
  62 001e 46F28B43 		movw	r3, #:lower16:1073767563
  63 0022 C4F20003 		movt	r3, #:upper16:1073767563
  64 0026 4FF00002 		mov	r2, #0
  65 002a 1A70     		strb	r2, [r3, #0]
 125:.\Generated_Source\PSoC5/SPIS_1.c ****     #endif /* SPIS_1_TXBUFFERSIZE > 4u */
 126:.\Generated_Source\PSoC5/SPIS_1.c **** 
 127:.\Generated_Source\PSoC5/SPIS_1.c ****     SPIS_1_RX_STATUS_MASK_REG  = SPIS_1_RX_INIT_INTERRUPTS_MASK;
  66              		.loc 1 127 0
  67 002c 46F28C43 		movw	r3, #:lower16:1073767564
  68 0030 C4F20003 		movt	r3, #:upper16:1073767564
  69 0034 4FF00002 		mov	r2, #0
  70 0038 1A70     		strb	r2, [r3, #0]
 128:.\Generated_Source\PSoC5/SPIS_1.c **** 
 129:.\Generated_Source\PSoC5/SPIS_1.c **** }
  71              		.loc 1 129 0
  72 003a 80BD     		pop	{r7, pc}
  73              		.cfi_endproc
  74              	.LFE0:
  75              		.size	SPIS_1_Init, .-SPIS_1_Init
  76              		.section	.text.SPIS_1_Enable,"ax",%progbits
  77              		.align	2
  78              		.global	SPIS_1_Enable
  79              		.thumb
  80              		.thumb_func
  81              		.type	SPIS_1_Enable, %function
  82              	SPIS_1_Enable:
  83              	.LFB1:
 130:.\Generated_Source\PSoC5/SPIS_1.c **** 
 131:.\Generated_Source\PSoC5/SPIS_1.c **** 
 132:.\Generated_Source\PSoC5/SPIS_1.c **** /*******************************************************************************
 133:.\Generated_Source\PSoC5/SPIS_1.c **** * Function Name: SPIS_1_Enable
 134:.\Generated_Source\PSoC5/SPIS_1.c **** ********************************************************************************
 135:.\Generated_Source\PSoC5/SPIS_1.c **** *
 136:.\Generated_Source\PSoC5/SPIS_1.c **** * Summary:
 137:.\Generated_Source\PSoC5/SPIS_1.c **** *  Enable SPIS component.
 138:.\Generated_Source\PSoC5/SPIS_1.c **** *
 139:.\Generated_Source\PSoC5/SPIS_1.c **** * Parameters:
 140:.\Generated_Source\PSoC5/SPIS_1.c **** *  None.
 141:.\Generated_Source\PSoC5/SPIS_1.c **** *
ARM GAS  C:\Users\hoangp\AppData\Local\Temp\ccnWRgig.s 			page 5


 142:.\Generated_Source\PSoC5/SPIS_1.c **** * Return:
 143:.\Generated_Source\PSoC5/SPIS_1.c **** *  None.
 144:.\Generated_Source\PSoC5/SPIS_1.c **** *
 145:.\Generated_Source\PSoC5/SPIS_1.c **** *******************************************************************************/
 146:.\Generated_Source\PSoC5/SPIS_1.c **** void SPIS_1_Enable(void) 
 147:.\Generated_Source\PSoC5/SPIS_1.c **** {
  84              		.loc 1 147 0
  85              		.cfi_startproc
  86              		@ args = 0, pretend = 0, frame = 8
  87              		@ frame_needed = 1, uses_anonymous_args = 0
  88 0000 80B5     		push	{r7, lr}
  89              	.LCFI2:
  90              		.cfi_def_cfa_offset 8
  91 0002 82B0     		sub	sp, sp, #8
  92              	.LCFI3:
  93              		.cfi_def_cfa_offset 16
  94 0004 00AF     		add	r7, sp, #0
  95              		.cfi_offset 14, -4
  96              		.cfi_offset 7, -8
  97              	.LCFI4:
  98              		.cfi_def_cfa_register 7
 148:.\Generated_Source\PSoC5/SPIS_1.c ****     uint8 enableInterrupts = 0u;
  99              		.loc 1 148 0
 100 0006 4FF00003 		mov	r3, #0
 101 000a FB71     		strb	r3, [r7, #7]
 149:.\Generated_Source\PSoC5/SPIS_1.c **** 
 150:.\Generated_Source\PSoC5/SPIS_1.c ****     enableInterrupts = CyEnterCriticalSection();
 102              		.loc 1 150 0
 103 000c FFF7FEFF 		bl	CyEnterCriticalSection
 104 0010 0346     		mov	r3, r0
 105 0012 FB71     		strb	r3, [r7, #7]
 151:.\Generated_Source\PSoC5/SPIS_1.c **** 
 152:.\Generated_Source\PSoC5/SPIS_1.c ****     SPIS_1_COUNTER_CONTROL_REG |= SPIS_1_CNTR_ENABLE;
 106              		.loc 1 152 0
 107 0014 46F29743 		movw	r3, #:lower16:1073767575
 108 0018 C4F20003 		movt	r3, #:upper16:1073767575
 109 001c 46F29742 		movw	r2, #:lower16:1073767575
 110 0020 C4F20002 		movt	r2, #:upper16:1073767575
 111 0024 1278     		ldrb	r2, [r2, #0]
 112 0026 D2B2     		uxtb	r2, r2
 113 0028 42F02002 		orr	r2, r2, #32
 114 002c D2B2     		uxtb	r2, r2
 115 002e 1A70     		strb	r2, [r3, #0]
 153:.\Generated_Source\PSoC5/SPIS_1.c ****     SPIS_1_TX_STATUS_ACTL_REG |= SPIS_1_INT_ENABLE;
 116              		.loc 1 153 0
 117 0030 46F29B43 		movw	r3, #:lower16:1073767579
 118 0034 C4F20003 		movt	r3, #:upper16:1073767579
 119 0038 46F29B42 		movw	r2, #:lower16:1073767579
 120 003c C4F20002 		movt	r2, #:upper16:1073767579
 121 0040 1278     		ldrb	r2, [r2, #0]
 122 0042 D2B2     		uxtb	r2, r2
 123 0044 42F01002 		orr	r2, r2, #16
 124 0048 D2B2     		uxtb	r2, r2
 125 004a 1A70     		strb	r2, [r3, #0]
 154:.\Generated_Source\PSoC5/SPIS_1.c ****     SPIS_1_RX_STATUS_ACTL_REG |= SPIS_1_INT_ENABLE;
 126              		.loc 1 154 0
 127 004c 46F29C43 		movw	r3, #:lower16:1073767580
ARM GAS  C:\Users\hoangp\AppData\Local\Temp\ccnWRgig.s 			page 6


 128 0050 C4F20003 		movt	r3, #:upper16:1073767580
 129 0054 46F29C42 		movw	r2, #:lower16:1073767580
 130 0058 C4F20002 		movt	r2, #:upper16:1073767580
 131 005c 1278     		ldrb	r2, [r2, #0]
 132 005e D2B2     		uxtb	r2, r2
 133 0060 42F01002 		orr	r2, r2, #16
 134 0064 D2B2     		uxtb	r2, r2
 135 0066 1A70     		strb	r2, [r3, #0]
 155:.\Generated_Source\PSoC5/SPIS_1.c **** 
 156:.\Generated_Source\PSoC5/SPIS_1.c ****     CyExitCriticalSection(enableInterrupts);
 136              		.loc 1 156 0
 137 0068 FB79     		ldrb	r3, [r7, #7]	@ zero_extendqisi2
 138 006a 1846     		mov	r0, r3
 139 006c FFF7FEFF 		bl	CyExitCriticalSection
 157:.\Generated_Source\PSoC5/SPIS_1.c **** 
 158:.\Generated_Source\PSoC5/SPIS_1.c ****     #if(SPIS_1_InternalTxInterruptEnabled)
 159:.\Generated_Source\PSoC5/SPIS_1.c ****         CyIntEnable(SPIS_1_TX_ISR_NUMBER);
 160:.\Generated_Source\PSoC5/SPIS_1.c ****     #endif /* SPIS_1_InternalTxInterruptEnabled */
 161:.\Generated_Source\PSoC5/SPIS_1.c **** 
 162:.\Generated_Source\PSoC5/SPIS_1.c ****     #if(SPIS_1_InternalRxInterruptEnabled)
 163:.\Generated_Source\PSoC5/SPIS_1.c ****         CyIntEnable(SPIS_1_RX_ISR_NUMBER);
 164:.\Generated_Source\PSoC5/SPIS_1.c ****     #endif /* SPIS_1_InternalRxInterruptEnabled */
 165:.\Generated_Source\PSoC5/SPIS_1.c **** }
 140              		.loc 1 165 0
 141 0070 07F10807 		add	r7, r7, #8
 142 0074 BD46     		mov	sp, r7
 143 0076 80BD     		pop	{r7, pc}
 144              		.cfi_endproc
 145              	.LFE1:
 146              		.size	SPIS_1_Enable, .-SPIS_1_Enable
 147              		.section	.text.SPIS_1_Start,"ax",%progbits
 148              		.align	2
 149              		.global	SPIS_1_Start
 150              		.thumb
 151              		.thumb_func
 152              		.type	SPIS_1_Start, %function
 153              	SPIS_1_Start:
 154              	.LFB2:
 166:.\Generated_Source\PSoC5/SPIS_1.c **** 
 167:.\Generated_Source\PSoC5/SPIS_1.c **** 
 168:.\Generated_Source\PSoC5/SPIS_1.c **** /*******************************************************************************
 169:.\Generated_Source\PSoC5/SPIS_1.c **** * Function Name: SPIS_1_Start
 170:.\Generated_Source\PSoC5/SPIS_1.c **** ********************************************************************************
 171:.\Generated_Source\PSoC5/SPIS_1.c **** *
 172:.\Generated_Source\PSoC5/SPIS_1.c **** * Summary:
 173:.\Generated_Source\PSoC5/SPIS_1.c **** *  Initialize and Enable the SPI Slave component.
 174:.\Generated_Source\PSoC5/SPIS_1.c **** *
 175:.\Generated_Source\PSoC5/SPIS_1.c **** * Parameters:
 176:.\Generated_Source\PSoC5/SPIS_1.c **** *  None.
 177:.\Generated_Source\PSoC5/SPIS_1.c **** *
 178:.\Generated_Source\PSoC5/SPIS_1.c **** * Return:
 179:.\Generated_Source\PSoC5/SPIS_1.c **** *  None.
 180:.\Generated_Source\PSoC5/SPIS_1.c **** *
 181:.\Generated_Source\PSoC5/SPIS_1.c **** * Global variables:
 182:.\Generated_Source\PSoC5/SPIS_1.c **** *  SPIS_1_initVar - used to check initial configuration, modified on
 183:.\Generated_Source\PSoC5/SPIS_1.c **** *  first function call.
 184:.\Generated_Source\PSoC5/SPIS_1.c **** *
ARM GAS  C:\Users\hoangp\AppData\Local\Temp\ccnWRgig.s 			page 7


 185:.\Generated_Source\PSoC5/SPIS_1.c **** * Theory:
 186:.\Generated_Source\PSoC5/SPIS_1.c **** *  Enable the clock input to enable operation.
 187:.\Generated_Source\PSoC5/SPIS_1.c **** *
 188:.\Generated_Source\PSoC5/SPIS_1.c **** * Reentrant:
 189:.\Generated_Source\PSoC5/SPIS_1.c **** *  No.
 190:.\Generated_Source\PSoC5/SPIS_1.c **** *
 191:.\Generated_Source\PSoC5/SPIS_1.c **** *******************************************************************************/
 192:.\Generated_Source\PSoC5/SPIS_1.c **** void SPIS_1_Start(void) 
 193:.\Generated_Source\PSoC5/SPIS_1.c **** {
 155              		.loc 1 193 0
 156              		.cfi_startproc
 157              		@ args = 0, pretend = 0, frame = 0
 158              		@ frame_needed = 1, uses_anonymous_args = 0
 159 0000 80B5     		push	{r7, lr}
 160              	.LCFI5:
 161              		.cfi_def_cfa_offset 8
 162 0002 00AF     		add	r7, sp, #0
 163              		.cfi_offset 14, -4
 164              		.cfi_offset 7, -8
 165              	.LCFI6:
 166              		.cfi_def_cfa_register 7
 194:.\Generated_Source\PSoC5/SPIS_1.c ****     if(SPIS_1_initVar == 0u)
 167              		.loc 1 194 0
 168 0004 40F20003 		movw	r3, #:lower16:SPIS_1_initVar
 169 0008 C0F20003 		movt	r3, #:upper16:SPIS_1_initVar
 170 000c 1B78     		ldrb	r3, [r3, #0]	@ zero_extendqisi2
 171 000e 002B     		cmp	r3, #0
 172 0010 08D1     		bne	.L6
 195:.\Generated_Source\PSoC5/SPIS_1.c ****     {
 196:.\Generated_Source\PSoC5/SPIS_1.c ****         SPIS_1_Init();
 173              		.loc 1 196 0
 174 0012 FFF7FEFF 		bl	SPIS_1_Init
 197:.\Generated_Source\PSoC5/SPIS_1.c ****         SPIS_1_initVar = 1u;
 175              		.loc 1 197 0
 176 0016 40F20003 		movw	r3, #:lower16:SPIS_1_initVar
 177 001a C0F20003 		movt	r3, #:upper16:SPIS_1_initVar
 178 001e 4FF00102 		mov	r2, #1
 179 0022 1A70     		strb	r2, [r3, #0]
 180              	.L6:
 198:.\Generated_Source\PSoC5/SPIS_1.c ****     }
 199:.\Generated_Source\PSoC5/SPIS_1.c **** 
 200:.\Generated_Source\PSoC5/SPIS_1.c ****     SPIS_1_Enable();
 181              		.loc 1 200 0
 182 0024 FFF7FEFF 		bl	SPIS_1_Enable
 201:.\Generated_Source\PSoC5/SPIS_1.c **** }
 183              		.loc 1 201 0
 184 0028 80BD     		pop	{r7, pc}
 185              		.cfi_endproc
 186              	.LFE2:
 187              		.size	SPIS_1_Start, .-SPIS_1_Start
 188 002a 00BF     		.section	.text.SPIS_1_Stop,"ax",%progbits
 189              		.align	2
 190              		.global	SPIS_1_Stop
 191              		.thumb
 192              		.thumb_func
 193              		.type	SPIS_1_Stop, %function
 194              	SPIS_1_Stop:
ARM GAS  C:\Users\hoangp\AppData\Local\Temp\ccnWRgig.s 			page 8


 195              	.LFB3:
 202:.\Generated_Source\PSoC5/SPIS_1.c **** 
 203:.\Generated_Source\PSoC5/SPIS_1.c **** 
 204:.\Generated_Source\PSoC5/SPIS_1.c **** /*******************************************************************************
 205:.\Generated_Source\PSoC5/SPIS_1.c **** * Function Name: SPIS_1_Stop
 206:.\Generated_Source\PSoC5/SPIS_1.c **** ********************************************************************************
 207:.\Generated_Source\PSoC5/SPIS_1.c **** *
 208:.\Generated_Source\PSoC5/SPIS_1.c **** * Summary:
 209:.\Generated_Source\PSoC5/SPIS_1.c **** *  Disable the SPI Slave component.
 210:.\Generated_Source\PSoC5/SPIS_1.c **** *
 211:.\Generated_Source\PSoC5/SPIS_1.c **** * Parameters:
 212:.\Generated_Source\PSoC5/SPIS_1.c **** *  None.
 213:.\Generated_Source\PSoC5/SPIS_1.c **** *
 214:.\Generated_Source\PSoC5/SPIS_1.c **** * Return:
 215:.\Generated_Source\PSoC5/SPIS_1.c **** *  None.
 216:.\Generated_Source\PSoC5/SPIS_1.c **** *
 217:.\Generated_Source\PSoC5/SPIS_1.c **** * Theory:
 218:.\Generated_Source\PSoC5/SPIS_1.c **** *  Disable the internal interrupt if one is used.
 219:.\Generated_Source\PSoC5/SPIS_1.c **** *
 220:.\Generated_Source\PSoC5/SPIS_1.c **** *******************************************************************************/
 221:.\Generated_Source\PSoC5/SPIS_1.c **** void SPIS_1_Stop(void) 
 222:.\Generated_Source\PSoC5/SPIS_1.c **** {
 196              		.loc 1 222 0
 197              		.cfi_startproc
 198              		@ args = 0, pretend = 0, frame = 8
 199              		@ frame_needed = 1, uses_anonymous_args = 0
 200 0000 80B5     		push	{r7, lr}
 201              	.LCFI7:
 202              		.cfi_def_cfa_offset 8
 203 0002 82B0     		sub	sp, sp, #8
 204              	.LCFI8:
 205              		.cfi_def_cfa_offset 16
 206 0004 00AF     		add	r7, sp, #0
 207              		.cfi_offset 14, -4
 208              		.cfi_offset 7, -8
 209              	.LCFI9:
 210              		.cfi_def_cfa_register 7
 223:.\Generated_Source\PSoC5/SPIS_1.c ****     uint8 enableInterrupts = 0u;
 211              		.loc 1 223 0
 212 0006 4FF00003 		mov	r3, #0
 213 000a FB71     		strb	r3, [r7, #7]
 224:.\Generated_Source\PSoC5/SPIS_1.c **** 
 225:.\Generated_Source\PSoC5/SPIS_1.c ****     enableInterrupts = CyEnterCriticalSection();
 214              		.loc 1 225 0
 215 000c FFF7FEFF 		bl	CyEnterCriticalSection
 216 0010 0346     		mov	r3, r0
 217 0012 FB71     		strb	r3, [r7, #7]
 226:.\Generated_Source\PSoC5/SPIS_1.c **** 
 227:.\Generated_Source\PSoC5/SPIS_1.c ****     SPIS_1_TX_STATUS_ACTL_REG &= ~SPIS_1_INT_ENABLE;
 218              		.loc 1 227 0
 219 0014 46F29B43 		movw	r3, #:lower16:1073767579
 220 0018 C4F20003 		movt	r3, #:upper16:1073767579
 221 001c 46F29B42 		movw	r2, #:lower16:1073767579
 222 0020 C4F20002 		movt	r2, #:upper16:1073767579
 223 0024 1278     		ldrb	r2, [r2, #0]
 224 0026 D2B2     		uxtb	r2, r2
 225 0028 02F0EF02 		and	r2, r2, #239
ARM GAS  C:\Users\hoangp\AppData\Local\Temp\ccnWRgig.s 			page 9


 226 002c 1A70     		strb	r2, [r3, #0]
 228:.\Generated_Source\PSoC5/SPIS_1.c ****     SPIS_1_RX_STATUS_ACTL_REG &= ~SPIS_1_INT_ENABLE;
 227              		.loc 1 228 0
 228 002e 46F29C43 		movw	r3, #:lower16:1073767580
 229 0032 C4F20003 		movt	r3, #:upper16:1073767580
 230 0036 46F29C42 		movw	r2, #:lower16:1073767580
 231 003a C4F20002 		movt	r2, #:upper16:1073767580
 232 003e 1278     		ldrb	r2, [r2, #0]
 233 0040 D2B2     		uxtb	r2, r2
 234 0042 02F0EF02 		and	r2, r2, #239
 235 0046 1A70     		strb	r2, [r3, #0]
 229:.\Generated_Source\PSoC5/SPIS_1.c **** 
 230:.\Generated_Source\PSoC5/SPIS_1.c ****     CyExitCriticalSection(enableInterrupts);
 236              		.loc 1 230 0
 237 0048 FB79     		ldrb	r3, [r7, #7]	@ zero_extendqisi2
 238 004a 1846     		mov	r0, r3
 239 004c FFF7FEFF 		bl	CyExitCriticalSection
 231:.\Generated_Source\PSoC5/SPIS_1.c **** 
 232:.\Generated_Source\PSoC5/SPIS_1.c ****     #if(SPIS_1_InternalTxInterruptEnabled)
 233:.\Generated_Source\PSoC5/SPIS_1.c ****         CyIntDisable(SPIS_1_TX_ISR_NUMBER);
 234:.\Generated_Source\PSoC5/SPIS_1.c ****     #endif /* SPIS_1_InternalTxInterruptEnabled */
 235:.\Generated_Source\PSoC5/SPIS_1.c **** 
 236:.\Generated_Source\PSoC5/SPIS_1.c ****     #if(SPIS_1_InternalRxInterruptEnabled)
 237:.\Generated_Source\PSoC5/SPIS_1.c ****         CyIntDisable(SPIS_1_RX_ISR_NUMBER);
 238:.\Generated_Source\PSoC5/SPIS_1.c ****     #endif /* SPIS_1_InternalRxInterruptEnabled */
 239:.\Generated_Source\PSoC5/SPIS_1.c **** }
 240              		.loc 1 239 0
 241 0050 07F10807 		add	r7, r7, #8
 242 0054 BD46     		mov	sp, r7
 243 0056 80BD     		pop	{r7, pc}
 244              		.cfi_endproc
 245              	.LFE3:
 246              		.size	SPIS_1_Stop, .-SPIS_1_Stop
 247              		.section	.text.SPIS_1_EnableTxInt,"ax",%progbits
 248              		.align	2
 249              		.global	SPIS_1_EnableTxInt
 250              		.thumb
 251              		.thumb_func
 252              		.type	SPIS_1_EnableTxInt, %function
 253              	SPIS_1_EnableTxInt:
 254              	.LFB4:
 240:.\Generated_Source\PSoC5/SPIS_1.c **** 
 241:.\Generated_Source\PSoC5/SPIS_1.c **** 
 242:.\Generated_Source\PSoC5/SPIS_1.c **** /*******************************************************************************
 243:.\Generated_Source\PSoC5/SPIS_1.c **** * Function Name: SPIS_1_EnableTxInt
 244:.\Generated_Source\PSoC5/SPIS_1.c **** ********************************************************************************
 245:.\Generated_Source\PSoC5/SPIS_1.c **** *
 246:.\Generated_Source\PSoC5/SPIS_1.c **** * Summary:
 247:.\Generated_Source\PSoC5/SPIS_1.c **** *  Enable internal Tx interrupt generation.
 248:.\Generated_Source\PSoC5/SPIS_1.c **** *
 249:.\Generated_Source\PSoC5/SPIS_1.c **** * Parameters:
 250:.\Generated_Source\PSoC5/SPIS_1.c **** *  None.
 251:.\Generated_Source\PSoC5/SPIS_1.c **** *
 252:.\Generated_Source\PSoC5/SPIS_1.c **** * Return:
 253:.\Generated_Source\PSoC5/SPIS_1.c **** *  None.
 254:.\Generated_Source\PSoC5/SPIS_1.c **** *
 255:.\Generated_Source\PSoC5/SPIS_1.c **** * Theory:
ARM GAS  C:\Users\hoangp\AppData\Local\Temp\ccnWRgig.s 			page 10


 256:.\Generated_Source\PSoC5/SPIS_1.c **** *  Enable the internal Tx interrupt output -or- the interrupt component itself.
 257:.\Generated_Source\PSoC5/SPIS_1.c **** *
 258:.\Generated_Source\PSoC5/SPIS_1.c **** *******************************************************************************/
 259:.\Generated_Source\PSoC5/SPIS_1.c **** void SPIS_1_EnableTxInt(void) 
 260:.\Generated_Source\PSoC5/SPIS_1.c **** {
 255              		.loc 1 260 0
 256              		.cfi_startproc
 257              		@ args = 0, pretend = 0, frame = 0
 258              		@ frame_needed = 1, uses_anonymous_args = 0
 259              		@ link register save eliminated.
 260 0000 80B4     		push	{r7}
 261              	.LCFI10:
 262              		.cfi_def_cfa_offset 4
 263 0002 00AF     		add	r7, sp, #0
 264              		.cfi_offset 7, -4
 265              	.LCFI11:
 266              		.cfi_def_cfa_register 7
 261:.\Generated_Source\PSoC5/SPIS_1.c ****     #if(SPIS_1_InternalTxInterruptEnabled)
 262:.\Generated_Source\PSoC5/SPIS_1.c ****         CyIntEnable(SPIS_1_TX_ISR_NUMBER);
 263:.\Generated_Source\PSoC5/SPIS_1.c ****     #endif /* SPIS_1_InternalTxInterruptEnabled */
 264:.\Generated_Source\PSoC5/SPIS_1.c **** }
 267              		.loc 1 264 0
 268 0004 BD46     		mov	sp, r7
 269 0006 80BC     		pop	{r7}
 270 0008 7047     		bx	lr
 271              		.cfi_endproc
 272              	.LFE4:
 273              		.size	SPIS_1_EnableTxInt, .-SPIS_1_EnableTxInt
 274 000a 00BF     		.section	.text.SPIS_1_EnableRxInt,"ax",%progbits
 275              		.align	2
 276              		.global	SPIS_1_EnableRxInt
 277              		.thumb
 278              		.thumb_func
 279              		.type	SPIS_1_EnableRxInt, %function
 280              	SPIS_1_EnableRxInt:
 281              	.LFB5:
 265:.\Generated_Source\PSoC5/SPIS_1.c **** 
 266:.\Generated_Source\PSoC5/SPIS_1.c **** 
 267:.\Generated_Source\PSoC5/SPIS_1.c **** /*******************************************************************************
 268:.\Generated_Source\PSoC5/SPIS_1.c **** * Function Name: SPIS_1_EnableRxInt
 269:.\Generated_Source\PSoC5/SPIS_1.c **** ********************************************************************************
 270:.\Generated_Source\PSoC5/SPIS_1.c **** *
 271:.\Generated_Source\PSoC5/SPIS_1.c **** * Summary:
 272:.\Generated_Source\PSoC5/SPIS_1.c **** *  Enable internal Rx interrupt generation.
 273:.\Generated_Source\PSoC5/SPIS_1.c **** *
 274:.\Generated_Source\PSoC5/SPIS_1.c **** * Parameters:
 275:.\Generated_Source\PSoC5/SPIS_1.c **** *  None.
 276:.\Generated_Source\PSoC5/SPIS_1.c **** *
 277:.\Generated_Source\PSoC5/SPIS_1.c **** * Return:
 278:.\Generated_Source\PSoC5/SPIS_1.c **** *  None.
 279:.\Generated_Source\PSoC5/SPIS_1.c **** *
 280:.\Generated_Source\PSoC5/SPIS_1.c **** * Theory:
 281:.\Generated_Source\PSoC5/SPIS_1.c **** *  Enable the internal Rx interrupt output -or- the interrupt component itself.
 282:.\Generated_Source\PSoC5/SPIS_1.c **** *
 283:.\Generated_Source\PSoC5/SPIS_1.c **** *******************************************************************************/
 284:.\Generated_Source\PSoC5/SPIS_1.c **** void SPIS_1_EnableRxInt(void) 
 285:.\Generated_Source\PSoC5/SPIS_1.c **** {
ARM GAS  C:\Users\hoangp\AppData\Local\Temp\ccnWRgig.s 			page 11


 282              		.loc 1 285 0
 283              		.cfi_startproc
 284              		@ args = 0, pretend = 0, frame = 0
 285              		@ frame_needed = 1, uses_anonymous_args = 0
 286              		@ link register save eliminated.
 287 0000 80B4     		push	{r7}
 288              	.LCFI12:
 289              		.cfi_def_cfa_offset 4
 290 0002 00AF     		add	r7, sp, #0
 291              		.cfi_offset 7, -4
 292              	.LCFI13:
 293              		.cfi_def_cfa_register 7
 286:.\Generated_Source\PSoC5/SPIS_1.c ****     #if(SPIS_1_InternalRxInterruptEnabled)
 287:.\Generated_Source\PSoC5/SPIS_1.c ****         CyIntEnable(SPIS_1_RX_ISR_NUMBER);
 288:.\Generated_Source\PSoC5/SPIS_1.c ****     #endif /* SPIS_1_InternalRxInterruptEnabled */
 289:.\Generated_Source\PSoC5/SPIS_1.c **** }
 294              		.loc 1 289 0
 295 0004 BD46     		mov	sp, r7
 296 0006 80BC     		pop	{r7}
 297 0008 7047     		bx	lr
 298              		.cfi_endproc
 299              	.LFE5:
 300              		.size	SPIS_1_EnableRxInt, .-SPIS_1_EnableRxInt
 301 000a 00BF     		.section	.text.SPIS_1_DisableTxInt,"ax",%progbits
 302              		.align	2
 303              		.global	SPIS_1_DisableTxInt
 304              		.thumb
 305              		.thumb_func
 306              		.type	SPIS_1_DisableTxInt, %function
 307              	SPIS_1_DisableTxInt:
 308              	.LFB6:
 290:.\Generated_Source\PSoC5/SPIS_1.c **** 
 291:.\Generated_Source\PSoC5/SPIS_1.c **** 
 292:.\Generated_Source\PSoC5/SPIS_1.c **** /*******************************************************************************
 293:.\Generated_Source\PSoC5/SPIS_1.c **** * Function Name: SPIS_1_DisableTxInt
 294:.\Generated_Source\PSoC5/SPIS_1.c **** ********************************************************************************
 295:.\Generated_Source\PSoC5/SPIS_1.c **** *
 296:.\Generated_Source\PSoC5/SPIS_1.c **** * Summary:
 297:.\Generated_Source\PSoC5/SPIS_1.c **** *  Disable internal Tx interrupt generation.
 298:.\Generated_Source\PSoC5/SPIS_1.c **** *
 299:.\Generated_Source\PSoC5/SPIS_1.c **** * Parameters:
 300:.\Generated_Source\PSoC5/SPIS_1.c **** *  None.
 301:.\Generated_Source\PSoC5/SPIS_1.c **** *
 302:.\Generated_Source\PSoC5/SPIS_1.c **** * Return:
 303:.\Generated_Source\PSoC5/SPIS_1.c **** *  None.
 304:.\Generated_Source\PSoC5/SPIS_1.c **** *
 305:.\Generated_Source\PSoC5/SPIS_1.c **** * Theory:
 306:.\Generated_Source\PSoC5/SPIS_1.c **** *  Disable the internal Tx interrupt output -or- the interrupt component itself.
 307:.\Generated_Source\PSoC5/SPIS_1.c **** *
 308:.\Generated_Source\PSoC5/SPIS_1.c **** *******************************************************************************/
 309:.\Generated_Source\PSoC5/SPIS_1.c **** void SPIS_1_DisableTxInt(void) 
 310:.\Generated_Source\PSoC5/SPIS_1.c **** {
 309              		.loc 1 310 0
 310              		.cfi_startproc
 311              		@ args = 0, pretend = 0, frame = 0
 312              		@ frame_needed = 1, uses_anonymous_args = 0
 313              		@ link register save eliminated.
ARM GAS  C:\Users\hoangp\AppData\Local\Temp\ccnWRgig.s 			page 12


 314 0000 80B4     		push	{r7}
 315              	.LCFI14:
 316              		.cfi_def_cfa_offset 4
 317 0002 00AF     		add	r7, sp, #0
 318              		.cfi_offset 7, -4
 319              	.LCFI15:
 320              		.cfi_def_cfa_register 7
 311:.\Generated_Source\PSoC5/SPIS_1.c ****     #if(SPIS_1_InternalTxInterruptEnabled)
 312:.\Generated_Source\PSoC5/SPIS_1.c ****         CyIntDisable(SPIS_1_TX_ISR_NUMBER);
 313:.\Generated_Source\PSoC5/SPIS_1.c ****     #endif /* SPIS_1_InternalTxInterruptEnabled */
 314:.\Generated_Source\PSoC5/SPIS_1.c **** }
 321              		.loc 1 314 0
 322 0004 BD46     		mov	sp, r7
 323 0006 80BC     		pop	{r7}
 324 0008 7047     		bx	lr
 325              		.cfi_endproc
 326              	.LFE6:
 327              		.size	SPIS_1_DisableTxInt, .-SPIS_1_DisableTxInt
 328 000a 00BF     		.section	.text.SPIS_1_DisableRxInt,"ax",%progbits
 329              		.align	2
 330              		.global	SPIS_1_DisableRxInt
 331              		.thumb
 332              		.thumb_func
 333              		.type	SPIS_1_DisableRxInt, %function
 334              	SPIS_1_DisableRxInt:
 335              	.LFB7:
 315:.\Generated_Source\PSoC5/SPIS_1.c **** 
 316:.\Generated_Source\PSoC5/SPIS_1.c **** 
 317:.\Generated_Source\PSoC5/SPIS_1.c **** /*******************************************************************************
 318:.\Generated_Source\PSoC5/SPIS_1.c **** * Function Name: SPIS_1_DisableRxInt
 319:.\Generated_Source\PSoC5/SPIS_1.c **** ********************************************************************************
 320:.\Generated_Source\PSoC5/SPIS_1.c **** *
 321:.\Generated_Source\PSoC5/SPIS_1.c **** * Summary:
 322:.\Generated_Source\PSoC5/SPIS_1.c **** *  Disable internal Rx interrupt generation.
 323:.\Generated_Source\PSoC5/SPIS_1.c **** *
 324:.\Generated_Source\PSoC5/SPIS_1.c **** * Parameters:
 325:.\Generated_Source\PSoC5/SPIS_1.c **** *  None.
 326:.\Generated_Source\PSoC5/SPIS_1.c **** *
 327:.\Generated_Source\PSoC5/SPIS_1.c **** * Return:
 328:.\Generated_Source\PSoC5/SPIS_1.c **** *  None.
 329:.\Generated_Source\PSoC5/SPIS_1.c **** *
 330:.\Generated_Source\PSoC5/SPIS_1.c **** * Theory:
 331:.\Generated_Source\PSoC5/SPIS_1.c **** *  Disable the internal Rx interrupt output -or- the interrupt component itself.
 332:.\Generated_Source\PSoC5/SPIS_1.c **** *
 333:.\Generated_Source\PSoC5/SPIS_1.c **** *******************************************************************************/
 334:.\Generated_Source\PSoC5/SPIS_1.c **** void SPIS_1_DisableRxInt(void) 
 335:.\Generated_Source\PSoC5/SPIS_1.c **** {
 336              		.loc 1 335 0
 337              		.cfi_startproc
 338              		@ args = 0, pretend = 0, frame = 0
 339              		@ frame_needed = 1, uses_anonymous_args = 0
 340              		@ link register save eliminated.
 341 0000 80B4     		push	{r7}
 342              	.LCFI16:
 343              		.cfi_def_cfa_offset 4
 344 0002 00AF     		add	r7, sp, #0
 345              		.cfi_offset 7, -4
ARM GAS  C:\Users\hoangp\AppData\Local\Temp\ccnWRgig.s 			page 13


 346              	.LCFI17:
 347              		.cfi_def_cfa_register 7
 336:.\Generated_Source\PSoC5/SPIS_1.c ****     #if(SPIS_1_InternalRxInterruptEnabled)
 337:.\Generated_Source\PSoC5/SPIS_1.c ****         CyIntDisable(SPIS_1_RX_ISR_NUMBER);
 338:.\Generated_Source\PSoC5/SPIS_1.c ****     #endif /* SPIS_1_InternalRxInterruptEnabled */
 339:.\Generated_Source\PSoC5/SPIS_1.c **** }
 348              		.loc 1 339 0
 349 0004 BD46     		mov	sp, r7
 350 0006 80BC     		pop	{r7}
 351 0008 7047     		bx	lr
 352              		.cfi_endproc
 353              	.LFE7:
 354              		.size	SPIS_1_DisableRxInt, .-SPIS_1_DisableRxInt
 355 000a 00BF     		.section	.text.SPIS_1_SetTxInterruptMode,"ax",%progbits
 356              		.align	2
 357              		.global	SPIS_1_SetTxInterruptMode
 358              		.thumb
 359              		.thumb_func
 360              		.type	SPIS_1_SetTxInterruptMode, %function
 361              	SPIS_1_SetTxInterruptMode:
 362              	.LFB8:
 340:.\Generated_Source\PSoC5/SPIS_1.c **** 
 341:.\Generated_Source\PSoC5/SPIS_1.c **** 
 342:.\Generated_Source\PSoC5/SPIS_1.c **** /*******************************************************************************
 343:.\Generated_Source\PSoC5/SPIS_1.c **** * Function Name: SPIS_1_SetTxInterruptMode
 344:.\Generated_Source\PSoC5/SPIS_1.c **** ********************************************************************************
 345:.\Generated_Source\PSoC5/SPIS_1.c **** *
 346:.\Generated_Source\PSoC5/SPIS_1.c **** * Summary:
 347:.\Generated_Source\PSoC5/SPIS_1.c **** *  Configure which status bits trigger an interrupt event.
 348:.\Generated_Source\PSoC5/SPIS_1.c **** *
 349:.\Generated_Source\PSoC5/SPIS_1.c **** * Parameters:
 350:.\Generated_Source\PSoC5/SPIS_1.c **** *  intSrc: An or'd combination of the desired status bit masks (defined in the
 351:.\Generated_Source\PSoC5/SPIS_1.c **** *  header file).
 352:.\Generated_Source\PSoC5/SPIS_1.c **** *
 353:.\Generated_Source\PSoC5/SPIS_1.c **** * Return:
 354:.\Generated_Source\PSoC5/SPIS_1.c **** *  None.
 355:.\Generated_Source\PSoC5/SPIS_1.c **** *
 356:.\Generated_Source\PSoC5/SPIS_1.c **** * Theory:
 357:.\Generated_Source\PSoC5/SPIS_1.c **** *  Enables the output of specific status bits to the interrupt controller.
 358:.\Generated_Source\PSoC5/SPIS_1.c **** *
 359:.\Generated_Source\PSoC5/SPIS_1.c **** *******************************************************************************/
 360:.\Generated_Source\PSoC5/SPIS_1.c **** void SPIS_1_SetTxInterruptMode(uint8 intSrc) 
 361:.\Generated_Source\PSoC5/SPIS_1.c **** {
 363              		.loc 1 361 0
 364              		.cfi_startproc
 365              		@ args = 0, pretend = 0, frame = 8
 366              		@ frame_needed = 1, uses_anonymous_args = 0
 367              		@ link register save eliminated.
 368 0000 80B4     		push	{r7}
 369              	.LCFI18:
 370              		.cfi_def_cfa_offset 4
 371 0002 83B0     		sub	sp, sp, #12
 372              	.LCFI19:
 373              		.cfi_def_cfa_offset 16
 374 0004 00AF     		add	r7, sp, #0
 375              		.cfi_offset 7, -4
 376              	.LCFI20:
ARM GAS  C:\Users\hoangp\AppData\Local\Temp\ccnWRgig.s 			page 14


 377              		.cfi_def_cfa_register 7
 378 0006 0346     		mov	r3, r0
 379 0008 FB71     		strb	r3, [r7, #7]
 362:.\Generated_Source\PSoC5/SPIS_1.c ****     SPIS_1_TX_STATUS_MASK_REG  = intSrc;
 380              		.loc 1 362 0
 381 000a 46F28B43 		movw	r3, #:lower16:1073767563
 382 000e C4F20003 		movt	r3, #:upper16:1073767563
 383 0012 FA79     		ldrb	r2, [r7, #7]
 384 0014 1A70     		strb	r2, [r3, #0]
 363:.\Generated_Source\PSoC5/SPIS_1.c **** }
 385              		.loc 1 363 0
 386 0016 07F10C07 		add	r7, r7, #12
 387 001a BD46     		mov	sp, r7
 388 001c 80BC     		pop	{r7}
 389 001e 7047     		bx	lr
 390              		.cfi_endproc
 391              	.LFE8:
 392              		.size	SPIS_1_SetTxInterruptMode, .-SPIS_1_SetTxInterruptMode
 393              		.section	.text.SPIS_1_SetRxInterruptMode,"ax",%progbits
 394              		.align	2
 395              		.global	SPIS_1_SetRxInterruptMode
 396              		.thumb
 397              		.thumb_func
 398              		.type	SPIS_1_SetRxInterruptMode, %function
 399              	SPIS_1_SetRxInterruptMode:
 400              	.LFB9:
 364:.\Generated_Source\PSoC5/SPIS_1.c **** 
 365:.\Generated_Source\PSoC5/SPIS_1.c **** 
 366:.\Generated_Source\PSoC5/SPIS_1.c **** /*******************************************************************************
 367:.\Generated_Source\PSoC5/SPIS_1.c **** * Function Name: SPIS_1_SetRxInterruptMode
 368:.\Generated_Source\PSoC5/SPIS_1.c **** ********************************************************************************
 369:.\Generated_Source\PSoC5/SPIS_1.c **** *
 370:.\Generated_Source\PSoC5/SPIS_1.c **** * Summary:
 371:.\Generated_Source\PSoC5/SPIS_1.c **** *  Configure which status bits trigger an interrupt event.
 372:.\Generated_Source\PSoC5/SPIS_1.c **** *
 373:.\Generated_Source\PSoC5/SPIS_1.c **** * Parameters:
 374:.\Generated_Source\PSoC5/SPIS_1.c **** *  intSrc: An or'd combination of the desired status bit masks (defined in the
 375:.\Generated_Source\PSoC5/SPIS_1.c **** *  header file).
 376:.\Generated_Source\PSoC5/SPIS_1.c **** *
 377:.\Generated_Source\PSoC5/SPIS_1.c **** * Return:
 378:.\Generated_Source\PSoC5/SPIS_1.c **** *  None.
 379:.\Generated_Source\PSoC5/SPIS_1.c **** *
 380:.\Generated_Source\PSoC5/SPIS_1.c **** * Theory:
 381:.\Generated_Source\PSoC5/SPIS_1.c **** *  Enables the output of specific status bits to the interrupt controller.
 382:.\Generated_Source\PSoC5/SPIS_1.c **** *
 383:.\Generated_Source\PSoC5/SPIS_1.c **** *******************************************************************************/
 384:.\Generated_Source\PSoC5/SPIS_1.c **** void SPIS_1_SetRxInterruptMode(uint8 intSrc) 
 385:.\Generated_Source\PSoC5/SPIS_1.c **** {
 401              		.loc 1 385 0
 402              		.cfi_startproc
 403              		@ args = 0, pretend = 0, frame = 8
 404              		@ frame_needed = 1, uses_anonymous_args = 0
 405              		@ link register save eliminated.
 406 0000 80B4     		push	{r7}
 407              	.LCFI21:
 408              		.cfi_def_cfa_offset 4
 409 0002 83B0     		sub	sp, sp, #12
ARM GAS  C:\Users\hoangp\AppData\Local\Temp\ccnWRgig.s 			page 15


 410              	.LCFI22:
 411              		.cfi_def_cfa_offset 16
 412 0004 00AF     		add	r7, sp, #0
 413              		.cfi_offset 7, -4
 414              	.LCFI23:
 415              		.cfi_def_cfa_register 7
 416 0006 0346     		mov	r3, r0
 417 0008 FB71     		strb	r3, [r7, #7]
 386:.\Generated_Source\PSoC5/SPIS_1.c ****     SPIS_1_RX_STATUS_MASK_REG  = intSrc;
 418              		.loc 1 386 0
 419 000a 46F28C43 		movw	r3, #:lower16:1073767564
 420 000e C4F20003 		movt	r3, #:upper16:1073767564
 421 0012 FA79     		ldrb	r2, [r7, #7]
 422 0014 1A70     		strb	r2, [r3, #0]
 387:.\Generated_Source\PSoC5/SPIS_1.c **** }
 423              		.loc 1 387 0
 424 0016 07F10C07 		add	r7, r7, #12
 425 001a BD46     		mov	sp, r7
 426 001c 80BC     		pop	{r7}
 427 001e 7047     		bx	lr
 428              		.cfi_endproc
 429              	.LFE9:
 430              		.size	SPIS_1_SetRxInterruptMode, .-SPIS_1_SetRxInterruptMode
 431              		.section	.text.SPIS_1_ReadTxStatus,"ax",%progbits
 432              		.align	2
 433              		.global	SPIS_1_ReadTxStatus
 434              		.thumb
 435              		.thumb_func
 436              		.type	SPIS_1_ReadTxStatus, %function
 437              	SPIS_1_ReadTxStatus:
 438              	.LFB10:
 388:.\Generated_Source\PSoC5/SPIS_1.c **** 
 389:.\Generated_Source\PSoC5/SPIS_1.c **** 
 390:.\Generated_Source\PSoC5/SPIS_1.c **** /*******************************************************************************
 391:.\Generated_Source\PSoC5/SPIS_1.c **** * Function Name: SPIS_1_ReadTxStatus
 392:.\Generated_Source\PSoC5/SPIS_1.c **** ********************************************************************************
 393:.\Generated_Source\PSoC5/SPIS_1.c **** *
 394:.\Generated_Source\PSoC5/SPIS_1.c **** * Summary:
 395:.\Generated_Source\PSoC5/SPIS_1.c **** *  Read the Tx status register for the component.
 396:.\Generated_Source\PSoC5/SPIS_1.c **** *
 397:.\Generated_Source\PSoC5/SPIS_1.c **** * Parameters:
 398:.\Generated_Source\PSoC5/SPIS_1.c **** *  None.
 399:.\Generated_Source\PSoC5/SPIS_1.c **** *
 400:.\Generated_Source\PSoC5/SPIS_1.c **** * Return:
 401:.\Generated_Source\PSoC5/SPIS_1.c **** *  Contents of the Tx status register.
 402:.\Generated_Source\PSoC5/SPIS_1.c **** *
 403:.\Generated_Source\PSoC5/SPIS_1.c **** * Global variables:
 404:.\Generated_Source\PSoC5/SPIS_1.c **** *  SPIS_1_swStatusTx - used to store in software status register,
 405:.\Generated_Source\PSoC5/SPIS_1.c **** *  modified every function call - resets to zero.
 406:.\Generated_Source\PSoC5/SPIS_1.c **** *
 407:.\Generated_Source\PSoC5/SPIS_1.c **** * Theory:
 408:.\Generated_Source\PSoC5/SPIS_1.c **** *  Allows the user and the API to read the Tx status register for error
 409:.\Generated_Source\PSoC5/SPIS_1.c **** *  detection and flow control.
 410:.\Generated_Source\PSoC5/SPIS_1.c **** *
 411:.\Generated_Source\PSoC5/SPIS_1.c **** * Side Effects:
 412:.\Generated_Source\PSoC5/SPIS_1.c **** *  Clear Tx status register of the component.
 413:.\Generated_Source\PSoC5/SPIS_1.c **** *
ARM GAS  C:\Users\hoangp\AppData\Local\Temp\ccnWRgig.s 			page 16


 414:.\Generated_Source\PSoC5/SPIS_1.c **** * Reentrant:
 415:.\Generated_Source\PSoC5/SPIS_1.c **** *  No.
 416:.\Generated_Source\PSoC5/SPIS_1.c **** *
 417:.\Generated_Source\PSoC5/SPIS_1.c **** *******************************************************************************/
 418:.\Generated_Source\PSoC5/SPIS_1.c **** uint8 SPIS_1_ReadTxStatus(void) 
 419:.\Generated_Source\PSoC5/SPIS_1.c **** {
 439              		.loc 1 419 0
 440              		.cfi_startproc
 441              		@ args = 0, pretend = 0, frame = 8
 442              		@ frame_needed = 1, uses_anonymous_args = 0
 443              		@ link register save eliminated.
 444 0000 80B4     		push	{r7}
 445              	.LCFI24:
 446              		.cfi_def_cfa_offset 4
 447 0002 83B0     		sub	sp, sp, #12
 448              	.LCFI25:
 449              		.cfi_def_cfa_offset 16
 450 0004 00AF     		add	r7, sp, #0
 451              		.cfi_offset 7, -4
 452              	.LCFI26:
 453              		.cfi_def_cfa_register 7
 420:.\Generated_Source\PSoC5/SPIS_1.c ****     uint8 tmpStatus = 0u;
 454              		.loc 1 420 0
 455 0006 4FF00003 		mov	r3, #0
 456 000a FB71     		strb	r3, [r7, #7]
 421:.\Generated_Source\PSoC5/SPIS_1.c **** 
 422:.\Generated_Source\PSoC5/SPIS_1.c ****     #if (SPIS_1_TXBUFFERSIZE > 4u)
 423:.\Generated_Source\PSoC5/SPIS_1.c **** 
 424:.\Generated_Source\PSoC5/SPIS_1.c ****         SPIS_1_DisableTxInt();
 425:.\Generated_Source\PSoC5/SPIS_1.c **** 
 426:.\Generated_Source\PSoC5/SPIS_1.c ****         tmpStatus = SPIS_1_GET_STATUS_TX(SPIS_1_swStatusTx);
 427:.\Generated_Source\PSoC5/SPIS_1.c **** 
 428:.\Generated_Source\PSoC5/SPIS_1.c ****         SPIS_1_swStatusTx = 0u;
 429:.\Generated_Source\PSoC5/SPIS_1.c **** 
 430:.\Generated_Source\PSoC5/SPIS_1.c ****         /* Enable Interrupts */
 431:.\Generated_Source\PSoC5/SPIS_1.c ****         SPIS_1_EnableTxInt();
 432:.\Generated_Source\PSoC5/SPIS_1.c **** 
 433:.\Generated_Source\PSoC5/SPIS_1.c ****     #else /* (SPIS_1_TXBUFFERSIZE < 4u) */
 434:.\Generated_Source\PSoC5/SPIS_1.c **** 
 435:.\Generated_Source\PSoC5/SPIS_1.c ****         tmpStatus = SPIS_1_TX_STATUS_REG;
 457              		.loc 1 435 0
 458 000c 46F26B43 		movw	r3, #:lower16:1073767531
 459 0010 C4F20003 		movt	r3, #:upper16:1073767531
 460 0014 1B78     		ldrb	r3, [r3, #0]
 461 0016 FB71     		strb	r3, [r7, #7]
 436:.\Generated_Source\PSoC5/SPIS_1.c **** 
 437:.\Generated_Source\PSoC5/SPIS_1.c ****     #endif /* (SPIS_1_TXBUFFERSIZE > 4u) */
 438:.\Generated_Source\PSoC5/SPIS_1.c **** 
 439:.\Generated_Source\PSoC5/SPIS_1.c ****     return(tmpStatus);
 462              		.loc 1 439 0
 463 0018 FB79     		ldrb	r3, [r7, #7]	@ zero_extendqisi2
 440:.\Generated_Source\PSoC5/SPIS_1.c **** }
 464              		.loc 1 440 0
 465 001a 1846     		mov	r0, r3
 466 001c 07F10C07 		add	r7, r7, #12
 467 0020 BD46     		mov	sp, r7
 468 0022 80BC     		pop	{r7}
ARM GAS  C:\Users\hoangp\AppData\Local\Temp\ccnWRgig.s 			page 17


 469 0024 7047     		bx	lr
 470              		.cfi_endproc
 471              	.LFE10:
 472              		.size	SPIS_1_ReadTxStatus, .-SPIS_1_ReadTxStatus
 473 0026 00BF     		.section	.text.SPIS_1_ReadRxStatus,"ax",%progbits
 474              		.align	2
 475              		.global	SPIS_1_ReadRxStatus
 476              		.thumb
 477              		.thumb_func
 478              		.type	SPIS_1_ReadRxStatus, %function
 479              	SPIS_1_ReadRxStatus:
 480              	.LFB11:
 441:.\Generated_Source\PSoC5/SPIS_1.c **** 
 442:.\Generated_Source\PSoC5/SPIS_1.c **** 
 443:.\Generated_Source\PSoC5/SPIS_1.c **** /*******************************************************************************
 444:.\Generated_Source\PSoC5/SPIS_1.c **** * Function Name: SPIS_1_ReadRxStatus
 445:.\Generated_Source\PSoC5/SPIS_1.c **** ********************************************************************************
 446:.\Generated_Source\PSoC5/SPIS_1.c **** *
 447:.\Generated_Source\PSoC5/SPIS_1.c **** * Summary:
 448:.\Generated_Source\PSoC5/SPIS_1.c **** *  Read the Rx status register for the component.
 449:.\Generated_Source\PSoC5/SPIS_1.c **** *
 450:.\Generated_Source\PSoC5/SPIS_1.c **** * Parameters:
 451:.\Generated_Source\PSoC5/SPIS_1.c **** *  None.
 452:.\Generated_Source\PSoC5/SPIS_1.c **** *
 453:.\Generated_Source\PSoC5/SPIS_1.c **** * Return:
 454:.\Generated_Source\PSoC5/SPIS_1.c **** *  Contents of the Rx status register.
 455:.\Generated_Source\PSoC5/SPIS_1.c **** *
 456:.\Generated_Source\PSoC5/SPIS_1.c **** * Global variables:
 457:.\Generated_Source\PSoC5/SPIS_1.c **** *  SPIS_1_swStatusRx - used to store in software Rx status register,
 458:.\Generated_Source\PSoC5/SPIS_1.c **** *  modified every function call - resets to zero.
 459:.\Generated_Source\PSoC5/SPIS_1.c **** *
 460:.\Generated_Source\PSoC5/SPIS_1.c **** * Theory:
 461:.\Generated_Source\PSoC5/SPIS_1.c **** *  Allows the user and the API to read the Rx status register for error
 462:.\Generated_Source\PSoC5/SPIS_1.c **** *  detection and flow control.
 463:.\Generated_Source\PSoC5/SPIS_1.c **** *
 464:.\Generated_Source\PSoC5/SPIS_1.c **** * Side Effects:
 465:.\Generated_Source\PSoC5/SPIS_1.c **** *  Clear Rx status register of the component.
 466:.\Generated_Source\PSoC5/SPIS_1.c **** *
 467:.\Generated_Source\PSoC5/SPIS_1.c **** * Reentrant:
 468:.\Generated_Source\PSoC5/SPIS_1.c **** *  No.
 469:.\Generated_Source\PSoC5/SPIS_1.c **** *
 470:.\Generated_Source\PSoC5/SPIS_1.c **** *******************************************************************************/
 471:.\Generated_Source\PSoC5/SPIS_1.c **** uint8 SPIS_1_ReadRxStatus(void) 
 472:.\Generated_Source\PSoC5/SPIS_1.c **** {
 481              		.loc 1 472 0
 482              		.cfi_startproc
 483              		@ args = 0, pretend = 0, frame = 8
 484              		@ frame_needed = 1, uses_anonymous_args = 0
 485              		@ link register save eliminated.
 486 0000 80B4     		push	{r7}
 487              	.LCFI27:
 488              		.cfi_def_cfa_offset 4
 489 0002 83B0     		sub	sp, sp, #12
 490              	.LCFI28:
 491              		.cfi_def_cfa_offset 16
 492 0004 00AF     		add	r7, sp, #0
 493              		.cfi_offset 7, -4
ARM GAS  C:\Users\hoangp\AppData\Local\Temp\ccnWRgig.s 			page 18


 494              	.LCFI29:
 495              		.cfi_def_cfa_register 7
 473:.\Generated_Source\PSoC5/SPIS_1.c ****     uint8 tmpStatus = 0u;
 496              		.loc 1 473 0
 497 0006 4FF00003 		mov	r3, #0
 498 000a FB71     		strb	r3, [r7, #7]
 474:.\Generated_Source\PSoC5/SPIS_1.c **** 
 475:.\Generated_Source\PSoC5/SPIS_1.c ****     #if (SPIS_1_RXBUFFERSIZE > 4u)
 476:.\Generated_Source\PSoC5/SPIS_1.c **** 
 477:.\Generated_Source\PSoC5/SPIS_1.c ****         SPIS_1_DisableRxInt();
 478:.\Generated_Source\PSoC5/SPIS_1.c **** 
 479:.\Generated_Source\PSoC5/SPIS_1.c ****         tmpStatus = SPIS_1_GET_STATUS_RX(SPIS_1_swStatusRx);
 480:.\Generated_Source\PSoC5/SPIS_1.c **** 
 481:.\Generated_Source\PSoC5/SPIS_1.c ****         SPIS_1_swStatusRx = 0u;
 482:.\Generated_Source\PSoC5/SPIS_1.c **** 
 483:.\Generated_Source\PSoC5/SPIS_1.c ****         /* Enable Interrupts */
 484:.\Generated_Source\PSoC5/SPIS_1.c ****         SPIS_1_EnableRxInt();
 485:.\Generated_Source\PSoC5/SPIS_1.c **** 
 486:.\Generated_Source\PSoC5/SPIS_1.c ****     #else /* (SPIS_1_RXBUFFERSIZE < 4u) */
 487:.\Generated_Source\PSoC5/SPIS_1.c **** 
 488:.\Generated_Source\PSoC5/SPIS_1.c ****         tmpStatus = SPIS_1_RX_STATUS_REG;
 499              		.loc 1 488 0
 500 000c 46F26C43 		movw	r3, #:lower16:1073767532
 501 0010 C4F20003 		movt	r3, #:upper16:1073767532
 502 0014 1B78     		ldrb	r3, [r3, #0]
 503 0016 FB71     		strb	r3, [r7, #7]
 489:.\Generated_Source\PSoC5/SPIS_1.c **** 
 490:.\Generated_Source\PSoC5/SPIS_1.c ****     #endif /* (SPIS_1_RXBUFFERSIZE > 4u) */
 491:.\Generated_Source\PSoC5/SPIS_1.c **** 
 492:.\Generated_Source\PSoC5/SPIS_1.c ****     return(tmpStatus);
 504              		.loc 1 492 0
 505 0018 FB79     		ldrb	r3, [r7, #7]	@ zero_extendqisi2
 493:.\Generated_Source\PSoC5/SPIS_1.c **** }
 506              		.loc 1 493 0
 507 001a 1846     		mov	r0, r3
 508 001c 07F10C07 		add	r7, r7, #12
 509 0020 BD46     		mov	sp, r7
 510 0022 80BC     		pop	{r7}
 511 0024 7047     		bx	lr
 512              		.cfi_endproc
 513              	.LFE11:
 514              		.size	SPIS_1_ReadRxStatus, .-SPIS_1_ReadRxStatus
 515 0026 00BF     		.section	.text.SPIS_1_WriteTxData,"ax",%progbits
 516              		.align	2
 517              		.global	SPIS_1_WriteTxData
 518              		.thumb
 519              		.thumb_func
 520              		.type	SPIS_1_WriteTxData, %function
 521              	SPIS_1_WriteTxData:
 522              	.LFB12:
 494:.\Generated_Source\PSoC5/SPIS_1.c **** 
 495:.\Generated_Source\PSoC5/SPIS_1.c **** 
 496:.\Generated_Source\PSoC5/SPIS_1.c **** /*******************************************************************************
 497:.\Generated_Source\PSoC5/SPIS_1.c **** * Function Name: SPIS_1_WriteTxData
 498:.\Generated_Source\PSoC5/SPIS_1.c **** ********************************************************************************
 499:.\Generated_Source\PSoC5/SPIS_1.c **** *
 500:.\Generated_Source\PSoC5/SPIS_1.c **** * Summary:
ARM GAS  C:\Users\hoangp\AppData\Local\Temp\ccnWRgig.s 			page 19


 501:.\Generated_Source\PSoC5/SPIS_1.c **** *  Write a byte of data to be sent across the SPI.
 502:.\Generated_Source\PSoC5/SPIS_1.c **** *
 503:.\Generated_Source\PSoC5/SPIS_1.c **** * Parameters:
 504:.\Generated_Source\PSoC5/SPIS_1.c **** *  txDataByte: The data value to send across the SPI.
 505:.\Generated_Source\PSoC5/SPIS_1.c **** *
 506:.\Generated_Source\PSoC5/SPIS_1.c **** * Return:
 507:.\Generated_Source\PSoC5/SPIS_1.c **** *  None.
 508:.\Generated_Source\PSoC5/SPIS_1.c **** *
 509:.\Generated_Source\PSoC5/SPIS_1.c **** * Global variables:
 510:.\Generated_Source\PSoC5/SPIS_1.c **** *  SPIS_1_txBufferWrite - used for the account of the bytes which
 511:.\Generated_Source\PSoC5/SPIS_1.c **** *  have been written down in the TX software buffer, modified every function
 512:.\Generated_Source\PSoC5/SPIS_1.c **** *  call if TX Software Buffer is used.
 513:.\Generated_Source\PSoC5/SPIS_1.c **** *  SPIS_1_txBufferRead - used for the account of the bytes which
 514:.\Generated_Source\PSoC5/SPIS_1.c **** *  have been read from the TX software buffer.
 515:.\Generated_Source\PSoC5/SPIS_1.c **** *  SPIS_1_TXBUFFER[SPIS_1_TXBUFFERSIZE] - used to store
 516:.\Generated_Source\PSoC5/SPIS_1.c **** *  data to sending, modified every function call if TX Software Buffer is used.
 517:.\Generated_Source\PSoC5/SPIS_1.c **** *
 518:.\Generated_Source\PSoC5/SPIS_1.c **** * Theory:
 519:.\Generated_Source\PSoC5/SPIS_1.c **** *  Allows the user to transmit any byte of data in a single transfer.
 520:.\Generated_Source\PSoC5/SPIS_1.c **** *
 521:.\Generated_Source\PSoC5/SPIS_1.c **** * Side Effects:
 522:.\Generated_Source\PSoC5/SPIS_1.c **** *  If this function is called again before the previous byte is finished then
 523:.\Generated_Source\PSoC5/SPIS_1.c **** *  the next byte will be appended to the transfer with no time between
 524:.\Generated_Source\PSoC5/SPIS_1.c **** *  the byte transfers. Clear Tx status register of the component.
 525:.\Generated_Source\PSoC5/SPIS_1.c **** *
 526:.\Generated_Source\PSoC5/SPIS_1.c **** * Reentrant:
 527:.\Generated_Source\PSoC5/SPIS_1.c **** *  No.
 528:.\Generated_Source\PSoC5/SPIS_1.c **** *
 529:.\Generated_Source\PSoC5/SPIS_1.c **** *******************************************************************************/
 530:.\Generated_Source\PSoC5/SPIS_1.c **** void SPIS_1_WriteTxData(uint8 txData) 
 531:.\Generated_Source\PSoC5/SPIS_1.c **** {
 523              		.loc 1 531 0
 524              		.cfi_startproc
 525              		@ args = 0, pretend = 0, frame = 8
 526              		@ frame_needed = 1, uses_anonymous_args = 0
 527              		@ link register save eliminated.
 528 0000 80B4     		push	{r7}
 529              	.LCFI30:
 530              		.cfi_def_cfa_offset 4
 531 0002 83B0     		sub	sp, sp, #12
 532              	.LCFI31:
 533              		.cfi_def_cfa_offset 16
 534 0004 00AF     		add	r7, sp, #0
 535              		.cfi_offset 7, -4
 536              	.LCFI32:
 537              		.cfi_def_cfa_register 7
 538 0006 0346     		mov	r3, r0
 539 0008 FB71     		strb	r3, [r7, #7]
 540              	.L27:
 532:.\Generated_Source\PSoC5/SPIS_1.c ****     #if(SPIS_1_TXBUFFERSIZE > 4u)
 533:.\Generated_Source\PSoC5/SPIS_1.c **** 
 534:.\Generated_Source\PSoC5/SPIS_1.c ****         int16 tmpTxBufferRead = 0u;
 535:.\Generated_Source\PSoC5/SPIS_1.c **** 
 536:.\Generated_Source\PSoC5/SPIS_1.c ****         /* Block if buffer is full, so we don't overwrite. */
 537:.\Generated_Source\PSoC5/SPIS_1.c ****         do
 538:.\Generated_Source\PSoC5/SPIS_1.c ****         {
 539:.\Generated_Source\PSoC5/SPIS_1.c ****             tmpTxBufferRead = SPIS_1_txBufferRead - 1u;
ARM GAS  C:\Users\hoangp\AppData\Local\Temp\ccnWRgig.s 			page 20


 540:.\Generated_Source\PSoC5/SPIS_1.c ****             if (tmpTxBufferRead < 0u)
 541:.\Generated_Source\PSoC5/SPIS_1.c ****             {
 542:.\Generated_Source\PSoC5/SPIS_1.c ****                 tmpTxBufferRead = SPIS_1_TXBUFFERSIZE - 1u;
 543:.\Generated_Source\PSoC5/SPIS_1.c ****             }
 544:.\Generated_Source\PSoC5/SPIS_1.c ****         } while(tmpTxBufferRead == SPIS_1_txBufferWrite);
 545:.\Generated_Source\PSoC5/SPIS_1.c **** 
 546:.\Generated_Source\PSoC5/SPIS_1.c ****         /* Disable Interrupt to protect variables that could change on interrupt. */
 547:.\Generated_Source\PSoC5/SPIS_1.c ****         SPIS_1_DisableTxInt();
 548:.\Generated_Source\PSoC5/SPIS_1.c **** 
 549:.\Generated_Source\PSoC5/SPIS_1.c ****         SPIS_1_swStatusTx = SPIS_1_GET_STATUS_TX(SPIS_1_swStatusTx);
 550:.\Generated_Source\PSoC5/SPIS_1.c **** 
 551:.\Generated_Source\PSoC5/SPIS_1.c ****         if((SPIS_1_txBufferRead == SPIS_1_txBufferWrite) &&
 552:.\Generated_Source\PSoC5/SPIS_1.c ****             ((SPIS_1_swStatusTx & SPIS_1_STS_TX_FIFO_NOT_FULL) != 0u))
 553:.\Generated_Source\PSoC5/SPIS_1.c ****         {
 554:.\Generated_Source\PSoC5/SPIS_1.c ****             /* Add directly to the FIFO. */
 555:.\Generated_Source\PSoC5/SPIS_1.c ****             CY_SET_REG8(SPIS_1_TXDATA_PTR, txData);
 556:.\Generated_Source\PSoC5/SPIS_1.c ****         }
 557:.\Generated_Source\PSoC5/SPIS_1.c ****         else
 558:.\Generated_Source\PSoC5/SPIS_1.c ****         {
 559:.\Generated_Source\PSoC5/SPIS_1.c ****             /* Add to the software buffer. */
 560:.\Generated_Source\PSoC5/SPIS_1.c ****             SPIS_1_txBufferWrite++;
 561:.\Generated_Source\PSoC5/SPIS_1.c ****             if(SPIS_1_txBufferWrite >= SPIS_1_TXBUFFERSIZE)
 562:.\Generated_Source\PSoC5/SPIS_1.c ****             {
 563:.\Generated_Source\PSoC5/SPIS_1.c ****                 SPIS_1_txBufferWrite = 0u;
 564:.\Generated_Source\PSoC5/SPIS_1.c ****             }
 565:.\Generated_Source\PSoC5/SPIS_1.c ****                
 566:.\Generated_Source\PSoC5/SPIS_1.c ****             if(SPIS_1_txBufferWrite == SPIS_1_txBufferRead)
 567:.\Generated_Source\PSoC5/SPIS_1.c ****             {
 568:.\Generated_Source\PSoC5/SPIS_1.c ****                 SPIS_1_txBufferRead++;
 569:.\Generated_Source\PSoC5/SPIS_1.c ****                 if(SPIS_1_txBufferRead >= SPIS_1_RXBUFFERSIZE)
 570:.\Generated_Source\PSoC5/SPIS_1.c ****                 {
 571:.\Generated_Source\PSoC5/SPIS_1.c ****                     SPIS_1_txBufferRead = 0u;
 572:.\Generated_Source\PSoC5/SPIS_1.c ****                 }
 573:.\Generated_Source\PSoC5/SPIS_1.c ****                 SPIS_1_txBufferFull = 1u;
 574:.\Generated_Source\PSoC5/SPIS_1.c ****             }
 575:.\Generated_Source\PSoC5/SPIS_1.c **** 
 576:.\Generated_Source\PSoC5/SPIS_1.c ****             SPIS_1_TXBUFFER[SPIS_1_txBufferWrite] = txData;
 577:.\Generated_Source\PSoC5/SPIS_1.c ****             
 578:.\Generated_Source\PSoC5/SPIS_1.c ****             SPIS_1_TX_STATUS_MASK_REG |= SPIS_1_STS_TX_FIFO_NOT_FULL;
 579:.\Generated_Source\PSoC5/SPIS_1.c ****         }                  
 580:.\Generated_Source\PSoC5/SPIS_1.c ****                
 581:.\Generated_Source\PSoC5/SPIS_1.c ****         /* Enable Interrupt. */
 582:.\Generated_Source\PSoC5/SPIS_1.c ****         SPIS_1_EnableTxInt();
 583:.\Generated_Source\PSoC5/SPIS_1.c **** 
 584:.\Generated_Source\PSoC5/SPIS_1.c ****     #else /* SPIS_1_TXBUFFERSIZE <= 4u */
 585:.\Generated_Source\PSoC5/SPIS_1.c **** 
 586:.\Generated_Source\PSoC5/SPIS_1.c ****         /* Block while FIFO is full */
 587:.\Generated_Source\PSoC5/SPIS_1.c ****         while((SPIS_1_TX_STATUS_REG & SPIS_1_STS_TX_FIFO_NOT_FULL) == 0u);
 541              		.loc 1 587 0
 542 000a 46F26B43 		movw	r3, #:lower16:1073767531
 543 000e C4F20003 		movt	r3, #:upper16:1073767531
 544 0012 1B78     		ldrb	r3, [r3, #0]
 545 0014 DBB2     		uxtb	r3, r3
 546 0016 03F00203 		and	r3, r3, #2
 547 001a 002B     		cmp	r3, #0
 548 001c F5D0     		beq	.L27
 588:.\Generated_Source\PSoC5/SPIS_1.c **** 
ARM GAS  C:\Users\hoangp\AppData\Local\Temp\ccnWRgig.s 			page 21


 589:.\Generated_Source\PSoC5/SPIS_1.c ****         /* Then write the byte */
 590:.\Generated_Source\PSoC5/SPIS_1.c ****         CY_SET_REG8(SPIS_1_TXDATA_PTR, txData);
 549              		.loc 1 590 0
 550 001e 46F24843 		movw	r3, #:lower16:1073767496
 551 0022 C4F20003 		movt	r3, #:upper16:1073767496
 552 0026 FA79     		ldrb	r2, [r7, #7]
 553 0028 1A70     		strb	r2, [r3, #0]
 591:.\Generated_Source\PSoC5/SPIS_1.c **** 
 592:.\Generated_Source\PSoC5/SPIS_1.c ****     #endif /* SPIS_1_TXBUFFERSIZE > 4u */
 593:.\Generated_Source\PSoC5/SPIS_1.c **** }
 554              		.loc 1 593 0
 555 002a 07F10C07 		add	r7, r7, #12
 556 002e BD46     		mov	sp, r7
 557 0030 80BC     		pop	{r7}
 558 0032 7047     		bx	lr
 559              		.cfi_endproc
 560              	.LFE12:
 561              		.size	SPIS_1_WriteTxData, .-SPIS_1_WriteTxData
 562              		.section	.text.SPIS_1_WriteTxDataZero,"ax",%progbits
 563              		.align	2
 564              		.global	SPIS_1_WriteTxDataZero
 565              		.thumb
 566              		.thumb_func
 567              		.type	SPIS_1_WriteTxDataZero, %function
 568              	SPIS_1_WriteTxDataZero:
 569              	.LFB13:
 594:.\Generated_Source\PSoC5/SPIS_1.c **** 
 595:.\Generated_Source\PSoC5/SPIS_1.c **** #if(SPIS_1_ModeUseZero == 1u)
 596:.\Generated_Source\PSoC5/SPIS_1.c **** 
 597:.\Generated_Source\PSoC5/SPIS_1.c ****     /*******************************************************************************
 598:.\Generated_Source\PSoC5/SPIS_1.c ****     * Function Name: SPIS_1_WriteTxDataZero
 599:.\Generated_Source\PSoC5/SPIS_1.c ****     ********************************************************************************
 600:.\Generated_Source\PSoC5/SPIS_1.c ****     *
 601:.\Generated_Source\PSoC5/SPIS_1.c ****     * Summary:
 602:.\Generated_Source\PSoC5/SPIS_1.c ****     *  Write a byte zero of data to be sent across the SPI. This must be used in
 603:.\Generated_Source\PSoC5/SPIS_1.c ****     *  Mode 00 and 01 if the FIFO is empty and data is not being sent.
 604:.\Generated_Source\PSoC5/SPIS_1.c ****     *
 605:.\Generated_Source\PSoC5/SPIS_1.c ****     * Parameters:
 606:.\Generated_Source\PSoC5/SPIS_1.c ****     *  txDataByte: The data value to send across the SPI.
 607:.\Generated_Source\PSoC5/SPIS_1.c ****     *
 608:.\Generated_Source\PSoC5/SPIS_1.c ****     * Return:
 609:.\Generated_Source\PSoC5/SPIS_1.c ****     *  None.
 610:.\Generated_Source\PSoC5/SPIS_1.c ****     *
 611:.\Generated_Source\PSoC5/SPIS_1.c ****     * Theory:
 612:.\Generated_Source\PSoC5/SPIS_1.c ****     *  Allows the user to transmit any byte of data in a single transfer. Clear
 613:.\Generated_Source\PSoC5/SPIS_1.c ****     *  status register of the component.
 614:.\Generated_Source\PSoC5/SPIS_1.c ****     *
 615:.\Generated_Source\PSoC5/SPIS_1.c ****     *******************************************************************************/
 616:.\Generated_Source\PSoC5/SPIS_1.c ****     void SPIS_1_WriteTxDataZero(uint8 txDataByte)
 617:.\Generated_Source\PSoC5/SPIS_1.c ****                                         
 618:.\Generated_Source\PSoC5/SPIS_1.c ****     {
 570              		.loc 1 618 0
 571              		.cfi_startproc
 572              		@ args = 0, pretend = 0, frame = 8
 573              		@ frame_needed = 1, uses_anonymous_args = 0
 574              		@ link register save eliminated.
 575 0000 80B4     		push	{r7}
ARM GAS  C:\Users\hoangp\AppData\Local\Temp\ccnWRgig.s 			page 22


 576              	.LCFI33:
 577              		.cfi_def_cfa_offset 4
 578 0002 83B0     		sub	sp, sp, #12
 579              	.LCFI34:
 580              		.cfi_def_cfa_offset 16
 581 0004 00AF     		add	r7, sp, #0
 582              		.cfi_offset 7, -4
 583              	.LCFI35:
 584              		.cfi_def_cfa_register 7
 585 0006 0346     		mov	r3, r0
 586 0008 FB71     		strb	r3, [r7, #7]
 619:.\Generated_Source\PSoC5/SPIS_1.c ****         CY_SET_REG8(SPIS_1_TXDATA_ZERO_PTR, txDataByte);
 587              		.loc 1 619 0
 588 000a 46F20843 		movw	r3, #:lower16:1073767432
 589 000e C4F20003 		movt	r3, #:upper16:1073767432
 590 0012 FA79     		ldrb	r2, [r7, #7]
 591 0014 1A70     		strb	r2, [r3, #0]
 620:.\Generated_Source\PSoC5/SPIS_1.c ****     }
 592              		.loc 1 620 0
 593 0016 07F10C07 		add	r7, r7, #12
 594 001a BD46     		mov	sp, r7
 595 001c 80BC     		pop	{r7}
 596 001e 7047     		bx	lr
 597              		.cfi_endproc
 598              	.LFE13:
 599              		.size	SPIS_1_WriteTxDataZero, .-SPIS_1_WriteTxDataZero
 600              		.section	.text.SPIS_1_ReadRxData,"ax",%progbits
 601              		.align	2
 602              		.global	SPIS_1_ReadRxData
 603              		.thumb
 604              		.thumb_func
 605              		.type	SPIS_1_ReadRxData, %function
 606              	SPIS_1_ReadRxData:
 607              	.LFB14:
 621:.\Generated_Source\PSoC5/SPIS_1.c **** 
 622:.\Generated_Source\PSoC5/SPIS_1.c **** #endif /* (SPIS_1_ModeUseZero == 1u) */
 623:.\Generated_Source\PSoC5/SPIS_1.c **** 
 624:.\Generated_Source\PSoC5/SPIS_1.c **** 
 625:.\Generated_Source\PSoC5/SPIS_1.c **** /*******************************************************************************
 626:.\Generated_Source\PSoC5/SPIS_1.c **** * Function Name: SPIS_1_ReadRxData
 627:.\Generated_Source\PSoC5/SPIS_1.c **** ********************************************************************************
 628:.\Generated_Source\PSoC5/SPIS_1.c **** *
 629:.\Generated_Source\PSoC5/SPIS_1.c **** * Summary:
 630:.\Generated_Source\PSoC5/SPIS_1.c **** *  Read the next byte of data received across the SPI.
 631:.\Generated_Source\PSoC5/SPIS_1.c **** *
 632:.\Generated_Source\PSoC5/SPIS_1.c **** * Parameters:
 633:.\Generated_Source\PSoC5/SPIS_1.c **** *  None.
 634:.\Generated_Source\PSoC5/SPIS_1.c **** *
 635:.\Generated_Source\PSoC5/SPIS_1.c **** * Return:
 636:.\Generated_Source\PSoC5/SPIS_1.c **** *  The next byte of data read from the FIFO.
 637:.\Generated_Source\PSoC5/SPIS_1.c **** *
 638:.\Generated_Source\PSoC5/SPIS_1.c **** * Global variables:
 639:.\Generated_Source\PSoC5/SPIS_1.c **** *  SPIS_1_rxBufferWrite - used for the account of the bytes which
 640:.\Generated_Source\PSoC5/SPIS_1.c **** *  have been written down in the RX software buffer.
 641:.\Generated_Source\PSoC5/SPIS_1.c **** *  SPIS_1_rxBufferRead - used for the account of the bytes which
 642:.\Generated_Source\PSoC5/SPIS_1.c **** *  have been read from the RX software buffer, modified every function
 643:.\Generated_Source\PSoC5/SPIS_1.c **** *  call if RX Software Buffer is used.
ARM GAS  C:\Users\hoangp\AppData\Local\Temp\ccnWRgig.s 			page 23


 644:.\Generated_Source\PSoC5/SPIS_1.c **** *  SPIS_1_RXBUFFER[SPIS_1_RXBUFFERSIZE] - used to store
 645:.\Generated_Source\PSoC5/SPIS_1.c **** *  received data.
 646:.\Generated_Source\PSoC5/SPIS_1.c **** *
 647:.\Generated_Source\PSoC5/SPIS_1.c **** * Theory:
 648:.\Generated_Source\PSoC5/SPIS_1.c **** *  Allows the user to read a byte of data received.
 649:.\Generated_Source\PSoC5/SPIS_1.c **** *
 650:.\Generated_Source\PSoC5/SPIS_1.c **** * Side Effects:
 651:.\Generated_Source\PSoC5/SPIS_1.c **** *  Will return invalid data if the FIFO is empty.  User should poll for FIFO
 652:.\Generated_Source\PSoC5/SPIS_1.c **** *  empty status before calling Read function.
 653:.\Generated_Source\PSoC5/SPIS_1.c **** *
 654:.\Generated_Source\PSoC5/SPIS_1.c **** * Reentrant:
 655:.\Generated_Source\PSoC5/SPIS_1.c **** *  No.
 656:.\Generated_Source\PSoC5/SPIS_1.c **** *
 657:.\Generated_Source\PSoC5/SPIS_1.c **** *******************************************************************************/
 658:.\Generated_Source\PSoC5/SPIS_1.c **** uint8 SPIS_1_ReadRxData(void) 
 659:.\Generated_Source\PSoC5/SPIS_1.c **** {
 608              		.loc 1 659 0
 609              		.cfi_startproc
 610              		@ args = 0, pretend = 0, frame = 8
 611              		@ frame_needed = 1, uses_anonymous_args = 0
 612              		@ link register save eliminated.
 613 0000 80B4     		push	{r7}
 614              	.LCFI36:
 615              		.cfi_def_cfa_offset 4
 616 0002 83B0     		sub	sp, sp, #12
 617              	.LCFI37:
 618              		.cfi_def_cfa_offset 16
 619 0004 00AF     		add	r7, sp, #0
 620              		.cfi_offset 7, -4
 621              	.LCFI38:
 622              		.cfi_def_cfa_register 7
 660:.\Generated_Source\PSoC5/SPIS_1.c ****     uint8 rxData = 0u;
 623              		.loc 1 660 0
 624 0006 4FF00003 		mov	r3, #0
 625 000a FB71     		strb	r3, [r7, #7]
 661:.\Generated_Source\PSoC5/SPIS_1.c **** 
 662:.\Generated_Source\PSoC5/SPIS_1.c ****     #if(SPIS_1_RXBUFFERSIZE > 4u)
 663:.\Generated_Source\PSoC5/SPIS_1.c **** 
 664:.\Generated_Source\PSoC5/SPIS_1.c ****         /* Disable Interrupt to protect variables that could change on interrupt. */
 665:.\Generated_Source\PSoC5/SPIS_1.c ****         SPIS_1_DisableRxInt();
 666:.\Generated_Source\PSoC5/SPIS_1.c **** 
 667:.\Generated_Source\PSoC5/SPIS_1.c ****         if(SPIS_1_rxBufferRead != SPIS_1_rxBufferWrite)
 668:.\Generated_Source\PSoC5/SPIS_1.c ****         {
 669:.\Generated_Source\PSoC5/SPIS_1.c ****             if(SPIS_1_rxBufferFull == 0u)
 670:.\Generated_Source\PSoC5/SPIS_1.c ****             {
 671:.\Generated_Source\PSoC5/SPIS_1.c ****                 SPIS_1_rxBufferRead++;
 672:.\Generated_Source\PSoC5/SPIS_1.c ****                 if(SPIS_1_rxBufferRead >= SPIS_1_RXBUFFERSIZE)
 673:.\Generated_Source\PSoC5/SPIS_1.c ****                 {
 674:.\Generated_Source\PSoC5/SPIS_1.c ****                     SPIS_1_rxBufferRead = 0u;
 675:.\Generated_Source\PSoC5/SPIS_1.c ****                 }
 676:.\Generated_Source\PSoC5/SPIS_1.c ****             }
 677:.\Generated_Source\PSoC5/SPIS_1.c ****             else
 678:.\Generated_Source\PSoC5/SPIS_1.c ****             {
 679:.\Generated_Source\PSoC5/SPIS_1.c ****                 SPIS_1_rxBufferFull = 0u;
 680:.\Generated_Source\PSoC5/SPIS_1.c ****             }
 681:.\Generated_Source\PSoC5/SPIS_1.c ****         }
 682:.\Generated_Source\PSoC5/SPIS_1.c **** 
ARM GAS  C:\Users\hoangp\AppData\Local\Temp\ccnWRgig.s 			page 24


 683:.\Generated_Source\PSoC5/SPIS_1.c ****         rxData = SPIS_1_RXBUFFER[SPIS_1_rxBufferRead];
 684:.\Generated_Source\PSoC5/SPIS_1.c **** 
 685:.\Generated_Source\PSoC5/SPIS_1.c ****         /* Enable Interrupt. */
 686:.\Generated_Source\PSoC5/SPIS_1.c ****         SPIS_1_EnableRxInt();
 687:.\Generated_Source\PSoC5/SPIS_1.c **** 
 688:.\Generated_Source\PSoC5/SPIS_1.c ****     #else /* SPIS_1_RXBUFFERSIZE <= 4u */
 689:.\Generated_Source\PSoC5/SPIS_1.c **** 
 690:.\Generated_Source\PSoC5/SPIS_1.c ****         rxData = CY_GET_REG8(SPIS_1_RXDATA_PTR);
 626              		.loc 1 690 0
 627 000c 46F24743 		movw	r3, #:lower16:1073767495
 628 0010 C4F20003 		movt	r3, #:upper16:1073767495
 629 0014 1B78     		ldrb	r3, [r3, #0]
 630 0016 FB71     		strb	r3, [r7, #7]
 691:.\Generated_Source\PSoC5/SPIS_1.c **** 
 692:.\Generated_Source\PSoC5/SPIS_1.c ****     #endif /* SPIS_1_RXBUFFERSIZE > 4u */
 693:.\Generated_Source\PSoC5/SPIS_1.c **** 
 694:.\Generated_Source\PSoC5/SPIS_1.c ****     return (rxData);
 631              		.loc 1 694 0
 632 0018 FB79     		ldrb	r3, [r7, #7]	@ zero_extendqisi2
 695:.\Generated_Source\PSoC5/SPIS_1.c **** 
 696:.\Generated_Source\PSoC5/SPIS_1.c **** }
 633              		.loc 1 696 0
 634 001a 1846     		mov	r0, r3
 635 001c 07F10C07 		add	r7, r7, #12
 636 0020 BD46     		mov	sp, r7
 637 0022 80BC     		pop	{r7}
 638 0024 7047     		bx	lr
 639              		.cfi_endproc
 640              	.LFE14:
 641              		.size	SPIS_1_ReadRxData, .-SPIS_1_ReadRxData
 642 0026 00BF     		.section	.text.SPIS_1_GetRxBufferSize,"ax",%progbits
 643              		.align	2
 644              		.global	SPIS_1_GetRxBufferSize
 645              		.thumb
 646              		.thumb_func
 647              		.type	SPIS_1_GetRxBufferSize, %function
 648              	SPIS_1_GetRxBufferSize:
 649              	.LFB15:
 697:.\Generated_Source\PSoC5/SPIS_1.c **** 
 698:.\Generated_Source\PSoC5/SPIS_1.c **** 
 699:.\Generated_Source\PSoC5/SPIS_1.c **** /*******************************************************************************
 700:.\Generated_Source\PSoC5/SPIS_1.c **** * Function Name: SPIS_1_GetRxBufferSize
 701:.\Generated_Source\PSoC5/SPIS_1.c **** ********************************************************************************
 702:.\Generated_Source\PSoC5/SPIS_1.c **** *
 703:.\Generated_Source\PSoC5/SPIS_1.c **** * Summary:
 704:.\Generated_Source\PSoC5/SPIS_1.c **** *  Returns the number of bytes/words of data currently held in the RX buffer.
 705:.\Generated_Source\PSoC5/SPIS_1.c **** *  If RX Software Buffer not used then function return 0 if FIFO empty or 1 if
 706:.\Generated_Source\PSoC5/SPIS_1.c **** *  FIFO not empty. In another case function return size of RX Software Buffer.
 707:.\Generated_Source\PSoC5/SPIS_1.c **** *
 708:.\Generated_Source\PSoC5/SPIS_1.c **** * Parameters:
 709:.\Generated_Source\PSoC5/SPIS_1.c **** *  None.
 710:.\Generated_Source\PSoC5/SPIS_1.c **** *
 711:.\Generated_Source\PSoC5/SPIS_1.c **** * Return:
 712:.\Generated_Source\PSoC5/SPIS_1.c **** *  Integer count of the number of bytes/words in the RX buffer.
 713:.\Generated_Source\PSoC5/SPIS_1.c **** *
 714:.\Generated_Source\PSoC5/SPIS_1.c **** * Global variables:
 715:.\Generated_Source\PSoC5/SPIS_1.c **** *  SPIS_1_rxBufferWrite - used for the account of the bytes which
ARM GAS  C:\Users\hoangp\AppData\Local\Temp\ccnWRgig.s 			page 25


 716:.\Generated_Source\PSoC5/SPIS_1.c **** *  have been written down in the RX software buffer.
 717:.\Generated_Source\PSoC5/SPIS_1.c **** *  SPIS_1_rxBufferRead - used for the account of the bytes which
 718:.\Generated_Source\PSoC5/SPIS_1.c **** *  have been read from the RX software buffer.
 719:.\Generated_Source\PSoC5/SPIS_1.c **** *
 720:.\Generated_Source\PSoC5/SPIS_1.c **** * Theory:
 721:.\Generated_Source\PSoC5/SPIS_1.c **** *  Allows the user to find out how full the RX Buffer is.
 722:.\Generated_Source\PSoC5/SPIS_1.c **** *
 723:.\Generated_Source\PSoC5/SPIS_1.c **** *******************************************************************************/
 724:.\Generated_Source\PSoC5/SPIS_1.c **** uint8 SPIS_1_GetRxBufferSize(void) 
 725:.\Generated_Source\PSoC5/SPIS_1.c **** {
 650              		.loc 1 725 0
 651              		.cfi_startproc
 652              		@ args = 0, pretend = 0, frame = 8
 653              		@ frame_needed = 1, uses_anonymous_args = 0
 654              		@ link register save eliminated.
 655 0000 80B4     		push	{r7}
 656              	.LCFI39:
 657              		.cfi_def_cfa_offset 4
 658 0002 83B0     		sub	sp, sp, #12
 659              	.LCFI40:
 660              		.cfi_def_cfa_offset 16
 661 0004 00AF     		add	r7, sp, #0
 662              		.cfi_offset 7, -4
 663              	.LCFI41:
 664              		.cfi_def_cfa_register 7
 726:.\Generated_Source\PSoC5/SPIS_1.c ****     uint8 size = 0u;
 665              		.loc 1 726 0
 666 0006 4FF00003 		mov	r3, #0
 667 000a FB71     		strb	r3, [r7, #7]
 727:.\Generated_Source\PSoC5/SPIS_1.c **** 
 728:.\Generated_Source\PSoC5/SPIS_1.c ****     #if(SPIS_1_RXBUFFERSIZE > 4u)
 729:.\Generated_Source\PSoC5/SPIS_1.c **** 
 730:.\Generated_Source\PSoC5/SPIS_1.c ****         /* Disable Interrupt to protect variables that could change on interrupt. */
 731:.\Generated_Source\PSoC5/SPIS_1.c ****         SPIS_1_DisableRxInt();
 732:.\Generated_Source\PSoC5/SPIS_1.c **** 
 733:.\Generated_Source\PSoC5/SPIS_1.c ****         if(SPIS_1_rxBufferRead == SPIS_1_rxBufferWrite)
 734:.\Generated_Source\PSoC5/SPIS_1.c ****         {
 735:.\Generated_Source\PSoC5/SPIS_1.c ****             size = 0u; /* No data in RX buffer */
 736:.\Generated_Source\PSoC5/SPIS_1.c ****         }
 737:.\Generated_Source\PSoC5/SPIS_1.c ****         else if(SPIS_1_rxBufferRead < SPIS_1_rxBufferWrite)
 738:.\Generated_Source\PSoC5/SPIS_1.c ****         {
 739:.\Generated_Source\PSoC5/SPIS_1.c ****             size = (SPIS_1_rxBufferWrite - SPIS_1_rxBufferRead);
 740:.\Generated_Source\PSoC5/SPIS_1.c ****         }
 741:.\Generated_Source\PSoC5/SPIS_1.c ****         else
 742:.\Generated_Source\PSoC5/SPIS_1.c ****         {
 743:.\Generated_Source\PSoC5/SPIS_1.c ****             size = (SPIS_1_RXBUFFERSIZE - SPIS_1_rxBufferRead) + SPIS_1_rxBufferWrite;
 744:.\Generated_Source\PSoC5/SPIS_1.c ****         }
 745:.\Generated_Source\PSoC5/SPIS_1.c **** 
 746:.\Generated_Source\PSoC5/SPIS_1.c ****         /* Enable interrupt. */
 747:.\Generated_Source\PSoC5/SPIS_1.c ****         SPIS_1_EnableRxInt();
 748:.\Generated_Source\PSoC5/SPIS_1.c **** 
 749:.\Generated_Source\PSoC5/SPIS_1.c ****     #else /* SPIS_1_RXBUFFERSIZE > 4u */
 750:.\Generated_Source\PSoC5/SPIS_1.c **** 
 751:.\Generated_Source\PSoC5/SPIS_1.c ****         /* We can only know if there is data in the fifo. */
 752:.\Generated_Source\PSoC5/SPIS_1.c ****         size = ((SPIS_1_RX_STATUS_REG & SPIS_1_STS_RX_FIFO_NOT_EMPTY) == 
 668              		.loc 1 752 0
 669 000c 46F26C43 		movw	r3, #:lower16:1073767532
ARM GAS  C:\Users\hoangp\AppData\Local\Temp\ccnWRgig.s 			page 26


 670 0010 C4F20003 		movt	r3, #:upper16:1073767532
 671 0014 1B78     		ldrb	r3, [r3, #0]
 672 0016 DBB2     		uxtb	r3, r3
 673 0018 03F00803 		and	r3, r3, #8
 674 001c 002B     		cmp	r3, #0
 675 001e 02D0     		beq	.L34
 676 0020 4FF00103 		mov	r3, #1
 677 0024 01E0     		b	.L35
 678              	.L34:
 679 0026 4FF00003 		mov	r3, #0
 680              	.L35:
 681 002a FB71     		strb	r3, [r7, #7]
 753:.\Generated_Source\PSoC5/SPIS_1.c ****                  SPIS_1_STS_RX_FIFO_NOT_EMPTY) ? 1u : 0u;
 754:.\Generated_Source\PSoC5/SPIS_1.c **** 
 755:.\Generated_Source\PSoC5/SPIS_1.c ****     #endif /* SPIS_1_RXBUFFERSIZE > 4u */
 756:.\Generated_Source\PSoC5/SPIS_1.c **** 
 757:.\Generated_Source\PSoC5/SPIS_1.c ****     return (size);
 682              		.loc 1 757 0
 683 002c FB79     		ldrb	r3, [r7, #7]	@ zero_extendqisi2
 758:.\Generated_Source\PSoC5/SPIS_1.c **** }
 684              		.loc 1 758 0
 685 002e 1846     		mov	r0, r3
 686 0030 07F10C07 		add	r7, r7, #12
 687 0034 BD46     		mov	sp, r7
 688 0036 80BC     		pop	{r7}
 689 0038 7047     		bx	lr
 690              		.cfi_endproc
 691              	.LFE15:
 692              		.size	SPIS_1_GetRxBufferSize, .-SPIS_1_GetRxBufferSize
 693 003a 00BF     		.section	.text.SPIS_1_GetTxBufferSize,"ax",%progbits
 694              		.align	2
 695              		.global	SPIS_1_GetTxBufferSize
 696              		.thumb
 697              		.thumb_func
 698              		.type	SPIS_1_GetTxBufferSize, %function
 699              	SPIS_1_GetTxBufferSize:
 700              	.LFB16:
 759:.\Generated_Source\PSoC5/SPIS_1.c **** 
 760:.\Generated_Source\PSoC5/SPIS_1.c **** 
 761:.\Generated_Source\PSoC5/SPIS_1.c **** /*******************************************************************************
 762:.\Generated_Source\PSoC5/SPIS_1.c **** * Function Name: SPIS_1_GetTxBufferSize
 763:.\Generated_Source\PSoC5/SPIS_1.c **** ********************************************************************************
 764:.\Generated_Source\PSoC5/SPIS_1.c **** *
 765:.\Generated_Source\PSoC5/SPIS_1.c **** * Summary:
 766:.\Generated_Source\PSoC5/SPIS_1.c **** *  Returns the number of bytes/words of data currently held in the TX buffer.
 767:.\Generated_Source\PSoC5/SPIS_1.c **** *  If TX Software Buffer not used then function return 0 - if FIFO empty, 1 - if
 768:.\Generated_Source\PSoC5/SPIS_1.c **** *  FIFO not full, 4 - if FIFO full. In another case function return size of TX
 769:.\Generated_Source\PSoC5/SPIS_1.c **** *  Software Buffer.
 770:.\Generated_Source\PSoC5/SPIS_1.c **** *
 771:.\Generated_Source\PSoC5/SPIS_1.c **** * Parameters:
 772:.\Generated_Source\PSoC5/SPIS_1.c **** *  None.
 773:.\Generated_Source\PSoC5/SPIS_1.c **** *
 774:.\Generated_Source\PSoC5/SPIS_1.c **** * Return:
 775:.\Generated_Source\PSoC5/SPIS_1.c **** *  Integer count of the number of bytes/words in the TX buffer.
 776:.\Generated_Source\PSoC5/SPIS_1.c **** *
 777:.\Generated_Source\PSoC5/SPIS_1.c **** * Global variables:
 778:.\Generated_Source\PSoC5/SPIS_1.c **** *  SPIS_1_txBufferWrite - used for the account of the bytes which
ARM GAS  C:\Users\hoangp\AppData\Local\Temp\ccnWRgig.s 			page 27


 779:.\Generated_Source\PSoC5/SPIS_1.c **** *  have been written down in the TX software buffer.
 780:.\Generated_Source\PSoC5/SPIS_1.c **** *  SPIS_1_txBufferRead - used for the account of the bytes which
 781:.\Generated_Source\PSoC5/SPIS_1.c **** *  have been read from the TX software buffer.
 782:.\Generated_Source\PSoC5/SPIS_1.c **** *
 783:.\Generated_Source\PSoC5/SPIS_1.c **** * Theory:
 784:.\Generated_Source\PSoC5/SPIS_1.c **** *  Allows the user to find out how full the TX Buffer is.
 785:.\Generated_Source\PSoC5/SPIS_1.c **** *
 786:.\Generated_Source\PSoC5/SPIS_1.c **** * Side Effects:
 787:.\Generated_Source\PSoC5/SPIS_1.c **** *  Clear status register of the component.
 788:.\Generated_Source\PSoC5/SPIS_1.c **** *
 789:.\Generated_Source\PSoC5/SPIS_1.c **** *******************************************************************************/
 790:.\Generated_Source\PSoC5/SPIS_1.c **** uint8  SPIS_1_GetTxBufferSize(void) 
 791:.\Generated_Source\PSoC5/SPIS_1.c **** {
 701              		.loc 1 791 0
 702              		.cfi_startproc
 703              		@ args = 0, pretend = 0, frame = 8
 704              		@ frame_needed = 1, uses_anonymous_args = 0
 705              		@ link register save eliminated.
 706 0000 80B4     		push	{r7}
 707              	.LCFI42:
 708              		.cfi_def_cfa_offset 4
 709 0002 83B0     		sub	sp, sp, #12
 710              	.LCFI43:
 711              		.cfi_def_cfa_offset 16
 712 0004 00AF     		add	r7, sp, #0
 713              		.cfi_offset 7, -4
 714              	.LCFI44:
 715              		.cfi_def_cfa_register 7
 792:.\Generated_Source\PSoC5/SPIS_1.c ****     uint8 size = 0u;
 716              		.loc 1 792 0
 717 0006 4FF00003 		mov	r3, #0
 718 000a FB71     		strb	r3, [r7, #7]
 793:.\Generated_Source\PSoC5/SPIS_1.c **** 
 794:.\Generated_Source\PSoC5/SPIS_1.c ****     #if(SPIS_1_TXBUFFERSIZE > 4u)
 795:.\Generated_Source\PSoC5/SPIS_1.c **** 
 796:.\Generated_Source\PSoC5/SPIS_1.c ****         /* Disable Interrupt to protect variables that could change on interrupt. */
 797:.\Generated_Source\PSoC5/SPIS_1.c ****         SPIS_1_DisableTxInt();
 798:.\Generated_Source\PSoC5/SPIS_1.c **** 
 799:.\Generated_Source\PSoC5/SPIS_1.c ****         if(SPIS_1_txBufferRead == SPIS_1_txBufferWrite)
 800:.\Generated_Source\PSoC5/SPIS_1.c ****         {
 801:.\Generated_Source\PSoC5/SPIS_1.c ****             size = 0u;
 802:.\Generated_Source\PSoC5/SPIS_1.c ****         }
 803:.\Generated_Source\PSoC5/SPIS_1.c ****         else if(SPIS_1_txBufferRead < SPIS_1_txBufferWrite)
 804:.\Generated_Source\PSoC5/SPIS_1.c ****         {
 805:.\Generated_Source\PSoC5/SPIS_1.c ****             size = (SPIS_1_txBufferWrite - SPIS_1_txBufferRead);
 806:.\Generated_Source\PSoC5/SPIS_1.c ****         }
 807:.\Generated_Source\PSoC5/SPIS_1.c ****         else
 808:.\Generated_Source\PSoC5/SPIS_1.c ****         {
 809:.\Generated_Source\PSoC5/SPIS_1.c ****             size = (SPIS_1_TXBUFFERSIZE - SPIS_1_txBufferRead) + SPIS_1_txBufferWrite;
 810:.\Generated_Source\PSoC5/SPIS_1.c ****         }
 811:.\Generated_Source\PSoC5/SPIS_1.c **** 
 812:.\Generated_Source\PSoC5/SPIS_1.c ****         /* Enable Interrupt. */
 813:.\Generated_Source\PSoC5/SPIS_1.c ****         SPIS_1_EnableTxInt();
 814:.\Generated_Source\PSoC5/SPIS_1.c **** 
 815:.\Generated_Source\PSoC5/SPIS_1.c ****     #else /* SPIS_1_TXBUFFERSIZE <= 4u */
 816:.\Generated_Source\PSoC5/SPIS_1.c **** 
 817:.\Generated_Source\PSoC5/SPIS_1.c ****         size = SPIS_1_TX_STATUS_REG;
ARM GAS  C:\Users\hoangp\AppData\Local\Temp\ccnWRgig.s 			page 28


 719              		.loc 1 817 0
 720 000c 46F26B43 		movw	r3, #:lower16:1073767531
 721 0010 C4F20003 		movt	r3, #:upper16:1073767531
 722 0014 1B78     		ldrb	r3, [r3, #0]
 723 0016 FB71     		strb	r3, [r7, #7]
 818:.\Generated_Source\PSoC5/SPIS_1.c **** 
 819:.\Generated_Source\PSoC5/SPIS_1.c ****         /* Is the fifo is full. */
 820:.\Generated_Source\PSoC5/SPIS_1.c ****         if((size & SPIS_1_STS_TX_FIFO_EMPTY) == SPIS_1_STS_TX_FIFO_EMPTY)
 724              		.loc 1 820 0
 725 0018 FB79     		ldrb	r3, [r7, #7]	@ zero_extendqisi2
 726 001a 03F00403 		and	r3, r3, #4
 727 001e 002B     		cmp	r3, #0
 728 0020 03D0     		beq	.L38
 821:.\Generated_Source\PSoC5/SPIS_1.c ****         {
 822:.\Generated_Source\PSoC5/SPIS_1.c ****             size = 0u;
 729              		.loc 1 822 0
 730 0022 4FF00003 		mov	r3, #0
 731 0026 FB71     		strb	r3, [r7, #7]
 732 0028 0BE0     		b	.L39
 733              	.L38:
 823:.\Generated_Source\PSoC5/SPIS_1.c ****         }
 824:.\Generated_Source\PSoC5/SPIS_1.c ****         else if((size & SPIS_1_STS_TX_FIFO_NOT_FULL) == SPIS_1_STS_TX_FIFO_NOT_FULL)
 734              		.loc 1 824 0
 735 002a FB79     		ldrb	r3, [r7, #7]	@ zero_extendqisi2
 736 002c 03F00203 		and	r3, r3, #2
 737 0030 002B     		cmp	r3, #0
 738 0032 03D0     		beq	.L40
 825:.\Generated_Source\PSoC5/SPIS_1.c ****         {
 826:.\Generated_Source\PSoC5/SPIS_1.c ****             size = 1u;
 739              		.loc 1 826 0
 740 0034 4FF00103 		mov	r3, #1
 741 0038 FB71     		strb	r3, [r7, #7]
 742 003a 02E0     		b	.L39
 743              	.L40:
 827:.\Generated_Source\PSoC5/SPIS_1.c ****         }
 828:.\Generated_Source\PSoC5/SPIS_1.c ****         else
 829:.\Generated_Source\PSoC5/SPIS_1.c ****         {
 830:.\Generated_Source\PSoC5/SPIS_1.c ****             size = 4u;
 744              		.loc 1 830 0
 745 003c 4FF00403 		mov	r3, #4
 746 0040 FB71     		strb	r3, [r7, #7]
 747              	.L39:
 831:.\Generated_Source\PSoC5/SPIS_1.c ****         }
 832:.\Generated_Source\PSoC5/SPIS_1.c **** 
 833:.\Generated_Source\PSoC5/SPIS_1.c ****     #endif /* SPIS_1_TXBUFFERSIZE > 4u */
 834:.\Generated_Source\PSoC5/SPIS_1.c **** 
 835:.\Generated_Source\PSoC5/SPIS_1.c ****     return (size);
 748              		.loc 1 835 0
 749 0042 FB79     		ldrb	r3, [r7, #7]	@ zero_extendqisi2
 836:.\Generated_Source\PSoC5/SPIS_1.c **** }
 750              		.loc 1 836 0
 751 0044 1846     		mov	r0, r3
 752 0046 07F10C07 		add	r7, r7, #12
 753 004a BD46     		mov	sp, r7
 754 004c 80BC     		pop	{r7}
 755 004e 7047     		bx	lr
 756              		.cfi_endproc
ARM GAS  C:\Users\hoangp\AppData\Local\Temp\ccnWRgig.s 			page 29


 757              	.LFE16:
 758              		.size	SPIS_1_GetTxBufferSize, .-SPIS_1_GetTxBufferSize
 759              		.section	.text.SPIS_1_ClearRxBuffer,"ax",%progbits
 760              		.align	2
 761              		.global	SPIS_1_ClearRxBuffer
 762              		.thumb
 763              		.thumb_func
 764              		.type	SPIS_1_ClearRxBuffer, %function
 765              	SPIS_1_ClearRxBuffer:
 766              	.LFB17:
 837:.\Generated_Source\PSoC5/SPIS_1.c **** 
 838:.\Generated_Source\PSoC5/SPIS_1.c **** 
 839:.\Generated_Source\PSoC5/SPIS_1.c **** /*******************************************************************************
 840:.\Generated_Source\PSoC5/SPIS_1.c **** * Function Name: SPIS_1_ClearRxBuffer
 841:.\Generated_Source\PSoC5/SPIS_1.c **** ********************************************************************************
 842:.\Generated_Source\PSoC5/SPIS_1.c **** *
 843:.\Generated_Source\PSoC5/SPIS_1.c **** * Summary:
 844:.\Generated_Source\PSoC5/SPIS_1.c **** *  Clear the RX RAM buffer by setting the read and write pointers both to zero.
 845:.\Generated_Source\PSoC5/SPIS_1.c **** *
 846:.\Generated_Source\PSoC5/SPIS_1.c **** * Parameters:
 847:.\Generated_Source\PSoC5/SPIS_1.c **** *  None.
 848:.\Generated_Source\PSoC5/SPIS_1.c **** *
 849:.\Generated_Source\PSoC5/SPIS_1.c **** * Return:
 850:.\Generated_Source\PSoC5/SPIS_1.c **** *  None.
 851:.\Generated_Source\PSoC5/SPIS_1.c **** *
 852:.\Generated_Source\PSoC5/SPIS_1.c **** * Global variables:
 853:.\Generated_Source\PSoC5/SPIS_1.c **** *  SPIS_1_rxBufferWrite - used for the account of the bytes which
 854:.\Generated_Source\PSoC5/SPIS_1.c **** *  have been written down in the RX software buffer, modified every function
 855:.\Generated_Source\PSoC5/SPIS_1.c **** *  call - resets to zero.
 856:.\Generated_Source\PSoC5/SPIS_1.c **** *  SPIS_1_rxBufferRead - used for the account of the bytes which
 857:.\Generated_Source\PSoC5/SPIS_1.c **** *  have been read from the RX software buffer, modified every function call -
 858:.\Generated_Source\PSoC5/SPIS_1.c **** *  resets to zero.
 859:.\Generated_Source\PSoC5/SPIS_1.c **** *
 860:.\Generated_Source\PSoC5/SPIS_1.c **** * Theory:
 861:.\Generated_Source\PSoC5/SPIS_1.c **** *  Setting the pointers to zero makes the system believe there is no data to
 862:.\Generated_Source\PSoC5/SPIS_1.c **** *  read and writing will resume at address 0 overwriting any data that may have
 863:.\Generated_Source\PSoC5/SPIS_1.c **** *  remained in the RAM.
 864:.\Generated_Source\PSoC5/SPIS_1.c **** *
 865:.\Generated_Source\PSoC5/SPIS_1.c **** * Side Effects:
 866:.\Generated_Source\PSoC5/SPIS_1.c **** *  Any received data not read from the RAM buffer will be lost when overwritten.
 867:.\Generated_Source\PSoC5/SPIS_1.c **** *
 868:.\Generated_Source\PSoC5/SPIS_1.c **** * Reentrant:
 869:.\Generated_Source\PSoC5/SPIS_1.c **** *  No.
 870:.\Generated_Source\PSoC5/SPIS_1.c **** *
 871:.\Generated_Source\PSoC5/SPIS_1.c **** *******************************************************************************/
 872:.\Generated_Source\PSoC5/SPIS_1.c **** void SPIS_1_ClearRxBuffer(void) 
 873:.\Generated_Source\PSoC5/SPIS_1.c **** {
 767              		.loc 1 873 0
 768              		.cfi_startproc
 769              		@ args = 0, pretend = 0, frame = 0
 770              		@ frame_needed = 1, uses_anonymous_args = 0
 771              		@ link register save eliminated.
 772 0000 80B4     		push	{r7}
 773              	.LCFI45:
 774              		.cfi_def_cfa_offset 4
 775 0002 00AF     		add	r7, sp, #0
 776              		.cfi_offset 7, -4
ARM GAS  C:\Users\hoangp\AppData\Local\Temp\ccnWRgig.s 			page 30


 777              	.LCFI46:
 778              		.cfi_def_cfa_register 7
 874:.\Generated_Source\PSoC5/SPIS_1.c ****     /* Clear Hardware RX FIFO */
 875:.\Generated_Source\PSoC5/SPIS_1.c ****     while((!(SPIS_1_RX_STATUS_REG & SPIS_1_STS_RX_FIFO_NOT_EMPTY)) == 0u)
 779              		.loc 1 875 0
 780 0004 04E0     		b	.L43
 781              	.L44:
 876:.\Generated_Source\PSoC5/SPIS_1.c ****     {
 877:.\Generated_Source\PSoC5/SPIS_1.c ****         CY_GET_REG8(SPIS_1_RXDATA_PTR);
 782              		.loc 1 877 0
 783 0006 46F24743 		movw	r3, #:lower16:1073767495
 784 000a C4F20003 		movt	r3, #:upper16:1073767495
 785 000e 1B78     		ldrb	r3, [r3, #0]
 786              	.L43:
 787              		.loc 1 875 0
 788 0010 46F26C43 		movw	r3, #:lower16:1073767532
 789 0014 C4F20003 		movt	r3, #:upper16:1073767532
 790 0018 1B78     		ldrb	r3, [r3, #0]
 791 001a DBB2     		uxtb	r3, r3
 792 001c 03F00803 		and	r3, r3, #8
 793 0020 002B     		cmp	r3, #0
 794 0022 F0D1     		bne	.L44
 878:.\Generated_Source\PSoC5/SPIS_1.c ****     }
 879:.\Generated_Source\PSoC5/SPIS_1.c **** 
 880:.\Generated_Source\PSoC5/SPIS_1.c ****     #if(SPIS_1_RXBUFFERSIZE > 4u)
 881:.\Generated_Source\PSoC5/SPIS_1.c **** 
 882:.\Generated_Source\PSoC5/SPIS_1.c ****         /* Disable interrupt to protect variables that could change on interrupt. */
 883:.\Generated_Source\PSoC5/SPIS_1.c ****         SPIS_1_DisableRxInt();
 884:.\Generated_Source\PSoC5/SPIS_1.c **** 
 885:.\Generated_Source\PSoC5/SPIS_1.c ****         SPIS_1_rxBufferRead = 0u;
 886:.\Generated_Source\PSoC5/SPIS_1.c ****         SPIS_1_rxBufferWrite = 0u;
 887:.\Generated_Source\PSoC5/SPIS_1.c **** 
 888:.\Generated_Source\PSoC5/SPIS_1.c ****         /* Enable interrupt. */
 889:.\Generated_Source\PSoC5/SPIS_1.c ****         SPIS_1_EnableRxInt();
 890:.\Generated_Source\PSoC5/SPIS_1.c **** 
 891:.\Generated_Source\PSoC5/SPIS_1.c ****     #endif /* SPIS_1_RXBUFFERSIZE > 4u */
 892:.\Generated_Source\PSoC5/SPIS_1.c **** }
 795              		.loc 1 892 0
 796 0024 BD46     		mov	sp, r7
 797 0026 80BC     		pop	{r7}
 798 0028 7047     		bx	lr
 799              		.cfi_endproc
 800              	.LFE17:
 801              		.size	SPIS_1_ClearRxBuffer, .-SPIS_1_ClearRxBuffer
 802 002a 00BF     		.section	.text.SPIS_1_ClearTxBuffer,"ax",%progbits
 803              		.align	2
 804              		.global	SPIS_1_ClearTxBuffer
 805              		.thumb
 806              		.thumb_func
 807              		.type	SPIS_1_ClearTxBuffer, %function
 808              	SPIS_1_ClearTxBuffer:
 809              	.LFB18:
 893:.\Generated_Source\PSoC5/SPIS_1.c **** 
 894:.\Generated_Source\PSoC5/SPIS_1.c **** 
 895:.\Generated_Source\PSoC5/SPIS_1.c **** /*******************************************************************************
 896:.\Generated_Source\PSoC5/SPIS_1.c **** * Function Name: SPIS_1_ClearTxBuffer
 897:.\Generated_Source\PSoC5/SPIS_1.c **** ********************************************************************************
ARM GAS  C:\Users\hoangp\AppData\Local\Temp\ccnWRgig.s 			page 31


 898:.\Generated_Source\PSoC5/SPIS_1.c **** *
 899:.\Generated_Source\PSoC5/SPIS_1.c **** * Summary:
 900:.\Generated_Source\PSoC5/SPIS_1.c **** *  Clear the TX RAM buffer by setting the read and write pointers both to zero.
 901:.\Generated_Source\PSoC5/SPIS_1.c **** *
 902:.\Generated_Source\PSoC5/SPIS_1.c **** * Parameters:
 903:.\Generated_Source\PSoC5/SPIS_1.c **** *  None.
 904:.\Generated_Source\PSoC5/SPIS_1.c **** *
 905:.\Generated_Source\PSoC5/SPIS_1.c **** * Return:
 906:.\Generated_Source\PSoC5/SPIS_1.c **** *  None.
 907:.\Generated_Source\PSoC5/SPIS_1.c **** *
 908:.\Generated_Source\PSoC5/SPIS_1.c **** * Global variables:
 909:.\Generated_Source\PSoC5/SPIS_1.c **** *  SPIS_1_txBufferWrite - used for the account of the bytes which
 910:.\Generated_Source\PSoC5/SPIS_1.c **** *  have been written down in the TX software buffer, modified every function
 911:.\Generated_Source\PSoC5/SPIS_1.c **** *  call - resets to zero.
 912:.\Generated_Source\PSoC5/SPIS_1.c **** *  SPIS_1_txBufferRead - used for the account of the bytes which
 913:.\Generated_Source\PSoC5/SPIS_1.c **** *  have been read from the TX software buffer, modified every function call -
 914:.\Generated_Source\PSoC5/SPIS_1.c **** *  resets to zero.
 915:.\Generated_Source\PSoC5/SPIS_1.c **** *
 916:.\Generated_Source\PSoC5/SPIS_1.c **** * Theory:
 917:.\Generated_Source\PSoC5/SPIS_1.c **** *  Setting the pointers to zero makes the system believe there is no data to
 918:.\Generated_Source\PSoC5/SPIS_1.c **** *  read and writing will resume at address 0 overwriting any data that may have
 919:.\Generated_Source\PSoC5/SPIS_1.c **** *  remained in the RAM.
 920:.\Generated_Source\PSoC5/SPIS_1.c **** *
 921:.\Generated_Source\PSoC5/SPIS_1.c **** * Side Effects:
 922:.\Generated_Source\PSoC5/SPIS_1.c **** *  Any data not yet transmitted from the RAM buffer will be lost when
 923:.\Generated_Source\PSoC5/SPIS_1.c **** *  overwritten.
 924:.\Generated_Source\PSoC5/SPIS_1.c **** *
 925:.\Generated_Source\PSoC5/SPIS_1.c **** * Reentrant:
 926:.\Generated_Source\PSoC5/SPIS_1.c **** *  No.
 927:.\Generated_Source\PSoC5/SPIS_1.c **** *
 928:.\Generated_Source\PSoC5/SPIS_1.c **** *******************************************************************************/
 929:.\Generated_Source\PSoC5/SPIS_1.c **** void SPIS_1_ClearTxBuffer(void) 
 930:.\Generated_Source\PSoC5/SPIS_1.c **** {
 810              		.loc 1 930 0
 811              		.cfi_startproc
 812              		@ args = 0, pretend = 0, frame = 8
 813              		@ frame_needed = 1, uses_anonymous_args = 0
 814 0000 80B5     		push	{r7, lr}
 815              	.LCFI47:
 816              		.cfi_def_cfa_offset 8
 817 0002 82B0     		sub	sp, sp, #8
 818              	.LCFI48:
 819              		.cfi_def_cfa_offset 16
 820 0004 00AF     		add	r7, sp, #0
 821              		.cfi_offset 14, -4
 822              		.cfi_offset 7, -8
 823              	.LCFI49:
 824              		.cfi_def_cfa_register 7
 931:.\Generated_Source\PSoC5/SPIS_1.c ****     uint8 enableInterrupts = 0u;
 825              		.loc 1 931 0
 826 0006 4FF00003 		mov	r3, #0
 827 000a FB71     		strb	r3, [r7, #7]
 932:.\Generated_Source\PSoC5/SPIS_1.c **** 
 933:.\Generated_Source\PSoC5/SPIS_1.c ****     /* Clear Hardware TX FIFO */
 934:.\Generated_Source\PSoC5/SPIS_1.c ****     enableInterrupts = CyEnterCriticalSection();
 828              		.loc 1 934 0
 829 000c FFF7FEFF 		bl	CyEnterCriticalSection
ARM GAS  C:\Users\hoangp\AppData\Local\Temp\ccnWRgig.s 			page 32


 830 0010 0346     		mov	r3, r0
 831 0012 FB71     		strb	r3, [r7, #7]
 935:.\Generated_Source\PSoC5/SPIS_1.c **** 
 936:.\Generated_Source\PSoC5/SPIS_1.c ****     #if(SPIS_1_DataWidth <= 8u)
 937:.\Generated_Source\PSoC5/SPIS_1.c **** 
 938:.\Generated_Source\PSoC5/SPIS_1.c ****         /* Clear TX FIFO */
 939:.\Generated_Source\PSoC5/SPIS_1.c ****         SPIS_1_TX_AUX_CONTROL_DP0_REG |= SPIS_1_FIFO_CLR;
 832              		.loc 1 939 0
 833 0014 46F29843 		movw	r3, #:lower16:1073767576
 834 0018 C4F20003 		movt	r3, #:upper16:1073767576
 835 001c 46F29842 		movw	r2, #:lower16:1073767576
 836 0020 C4F20002 		movt	r2, #:upper16:1073767576
 837 0024 1278     		ldrb	r2, [r2, #0]
 838 0026 D2B2     		uxtb	r2, r2
 839 0028 42F00302 		orr	r2, r2, #3
 840 002c D2B2     		uxtb	r2, r2
 841 002e 1A70     		strb	r2, [r3, #0]
 940:.\Generated_Source\PSoC5/SPIS_1.c ****         SPIS_1_TX_AUX_CONTROL_DP0_REG &= ~SPIS_1_FIFO_CLR;
 842              		.loc 1 940 0
 843 0030 46F29843 		movw	r3, #:lower16:1073767576
 844 0034 C4F20003 		movt	r3, #:upper16:1073767576
 845 0038 46F29842 		movw	r2, #:lower16:1073767576
 846 003c C4F20002 		movt	r2, #:upper16:1073767576
 847 0040 1278     		ldrb	r2, [r2, #0]
 848 0042 D2B2     		uxtb	r2, r2
 849 0044 02F0FC02 		and	r2, r2, #252
 850 0048 1A70     		strb	r2, [r3, #0]
 941:.\Generated_Source\PSoC5/SPIS_1.c **** 
 942:.\Generated_Source\PSoC5/SPIS_1.c ****     #else
 943:.\Generated_Source\PSoC5/SPIS_1.c **** 
 944:.\Generated_Source\PSoC5/SPIS_1.c ****         /* Clear TX FIFO */
 945:.\Generated_Source\PSoC5/SPIS_1.c ****         SPIS_1_TX_AUX_CONTROL_DP0_REG |= SPIS_1_FIFO_CLR;
 946:.\Generated_Source\PSoC5/SPIS_1.c ****         SPIS_1_TX_AUX_CONTROL_DP0_REG &= ~SPIS_1_FIFO_CLR;
 947:.\Generated_Source\PSoC5/SPIS_1.c ****         SPIS_1_TX_AUX_CONTROL_DP1_REG |= SPIS_1_FIFO_CLR;
 948:.\Generated_Source\PSoC5/SPIS_1.c ****         SPIS_1_TX_AUX_CONTROL_DP1_REG &= ~SPIS_1_FIFO_CLR;
 949:.\Generated_Source\PSoC5/SPIS_1.c **** 
 950:.\Generated_Source\PSoC5/SPIS_1.c ****     #endif /* SPIS_1_DataWidth > 8u */
 951:.\Generated_Source\PSoC5/SPIS_1.c **** 
 952:.\Generated_Source\PSoC5/SPIS_1.c ****     CyExitCriticalSection(enableInterrupts);
 851              		.loc 1 952 0
 852 004a FB79     		ldrb	r3, [r7, #7]	@ zero_extendqisi2
 853 004c 1846     		mov	r0, r3
 854 004e FFF7FEFF 		bl	CyExitCriticalSection
 953:.\Generated_Source\PSoC5/SPIS_1.c **** 
 954:.\Generated_Source\PSoC5/SPIS_1.c ****     #if(SPIS_1_TXBUFFERSIZE > 4u)
 955:.\Generated_Source\PSoC5/SPIS_1.c **** 
 956:.\Generated_Source\PSoC5/SPIS_1.c ****         /* Disable Interrupt to protect variables that could change on interrupt. */
 957:.\Generated_Source\PSoC5/SPIS_1.c ****         SPIS_1_DisableTxInt();
 958:.\Generated_Source\PSoC5/SPIS_1.c **** 
 959:.\Generated_Source\PSoC5/SPIS_1.c ****         SPIS_1_txBufferRead = 0u;
 960:.\Generated_Source\PSoC5/SPIS_1.c ****         SPIS_1_txBufferWrite = 0u;
 961:.\Generated_Source\PSoC5/SPIS_1.c **** 
 962:.\Generated_Source\PSoC5/SPIS_1.c ****         /* If Buffer is empty then disable TX FIFO status interrupt */
 963:.\Generated_Source\PSoC5/SPIS_1.c ****         SPIS_1_TX_STATUS_MASK_REG &= ~SPIS_1_STS_TX_FIFO_NOT_FULL;
 964:.\Generated_Source\PSoC5/SPIS_1.c **** 
 965:.\Generated_Source\PSoC5/SPIS_1.c ****         /* Enable Interrupt. */
 966:.\Generated_Source\PSoC5/SPIS_1.c ****         SPIS_1_EnableTxInt();
ARM GAS  C:\Users\hoangp\AppData\Local\Temp\ccnWRgig.s 			page 33


 967:.\Generated_Source\PSoC5/SPIS_1.c **** 
 968:.\Generated_Source\PSoC5/SPIS_1.c ****     #endif /* SPIS_1_TXBUFFERSIZE > 4u */
 969:.\Generated_Source\PSoC5/SPIS_1.c **** }
 855              		.loc 1 969 0
 856 0052 07F10807 		add	r7, r7, #8
 857 0056 BD46     		mov	sp, r7
 858 0058 80BD     		pop	{r7, pc}
 859              		.cfi_endproc
 860              	.LFE18:
 861              		.size	SPIS_1_ClearTxBuffer, .-SPIS_1_ClearTxBuffer
 862 005a 00BF     		.section	.text.SPIS_1_PutArray,"ax",%progbits
 863              		.align	2
 864              		.global	SPIS_1_PutArray
 865              		.thumb
 866              		.thumb_func
 867              		.type	SPIS_1_PutArray, %function
 868              	SPIS_1_PutArray:
 869              	.LFB19:
 970:.\Generated_Source\PSoC5/SPIS_1.c **** 
 971:.\Generated_Source\PSoC5/SPIS_1.c **** 
 972:.\Generated_Source\PSoC5/SPIS_1.c **** #if (SPIS_1_BidirectionalMode == 1u)
 973:.\Generated_Source\PSoC5/SPIS_1.c **** 
 974:.\Generated_Source\PSoC5/SPIS_1.c ****     /*******************************************************************************
 975:.\Generated_Source\PSoC5/SPIS_1.c ****     * Function Name: SPIS_1_TxEnable
 976:.\Generated_Source\PSoC5/SPIS_1.c ****     ********************************************************************************
 977:.\Generated_Source\PSoC5/SPIS_1.c ****     *
 978:.\Generated_Source\PSoC5/SPIS_1.c ****     * Summary:
 979:.\Generated_Source\PSoC5/SPIS_1.c ****     *  If the SPI Slave is configured to use a single bi-directional pin then this
 980:.\Generated_Source\PSoC5/SPIS_1.c ****     *  will set the bi-directional pin to transmit.
 981:.\Generated_Source\PSoC5/SPIS_1.c ****     *
 982:.\Generated_Source\PSoC5/SPIS_1.c ****     * Parameters:
 983:.\Generated_Source\PSoC5/SPIS_1.c ****     *  None.
 984:.\Generated_Source\PSoC5/SPIS_1.c ****     *
 985:.\Generated_Source\PSoC5/SPIS_1.c ****     * Return:
 986:.\Generated_Source\PSoC5/SPIS_1.c ****     *  None.
 987:.\Generated_Source\PSoC5/SPIS_1.c ****     *
 988:.\Generated_Source\PSoC5/SPIS_1.c ****     *******************************************************************************/
 989:.\Generated_Source\PSoC5/SPIS_1.c ****     void SPIS_1_TxEnable(void) 
 990:.\Generated_Source\PSoC5/SPIS_1.c ****     {
 991:.\Generated_Source\PSoC5/SPIS_1.c ****             SPIS_1_CONTROL_REG |= SPIS_1_CTRL_TX_SIGNAL_EN;
 992:.\Generated_Source\PSoC5/SPIS_1.c ****     }
 993:.\Generated_Source\PSoC5/SPIS_1.c **** 
 994:.\Generated_Source\PSoC5/SPIS_1.c **** 
 995:.\Generated_Source\PSoC5/SPIS_1.c ****     /*******************************************************************************
 996:.\Generated_Source\PSoC5/SPIS_1.c ****     * Function Name: SPIS_1_TxDisable
 997:.\Generated_Source\PSoC5/SPIS_1.c ****     ********************************************************************************
 998:.\Generated_Source\PSoC5/SPIS_1.c ****     *
 999:.\Generated_Source\PSoC5/SPIS_1.c ****     * Summary:
1000:.\Generated_Source\PSoC5/SPIS_1.c ****     *  If the SPI Slave is configured to use a single bi-directional pin then this
1001:.\Generated_Source\PSoC5/SPIS_1.c ****     *  will set the bi-directional pin to receive.
1002:.\Generated_Source\PSoC5/SPIS_1.c ****     *
1003:.\Generated_Source\PSoC5/SPIS_1.c ****     * Parameters:
1004:.\Generated_Source\PSoC5/SPIS_1.c ****     *  None.
1005:.\Generated_Source\PSoC5/SPIS_1.c ****     *
1006:.\Generated_Source\PSoC5/SPIS_1.c ****     * Return:
1007:.\Generated_Source\PSoC5/SPIS_1.c ****     *  None.
1008:.\Generated_Source\PSoC5/SPIS_1.c ****     *
ARM GAS  C:\Users\hoangp\AppData\Local\Temp\ccnWRgig.s 			page 34


1009:.\Generated_Source\PSoC5/SPIS_1.c ****     *******************************************************************************/
1010:.\Generated_Source\PSoC5/SPIS_1.c ****     void SPIS_1_TxDisable(void) 
1011:.\Generated_Source\PSoC5/SPIS_1.c ****     {
1012:.\Generated_Source\PSoC5/SPIS_1.c ****             SPIS_1_CONTROL_REG &= ~SPIS_1_CTRL_TX_SIGNAL_EN;
1013:.\Generated_Source\PSoC5/SPIS_1.c ****     }
1014:.\Generated_Source\PSoC5/SPIS_1.c **** 
1015:.\Generated_Source\PSoC5/SPIS_1.c **** #endif /* SPIS_1_BidirectionalMode == 1u */
1016:.\Generated_Source\PSoC5/SPIS_1.c **** 
1017:.\Generated_Source\PSoC5/SPIS_1.c **** 
1018:.\Generated_Source\PSoC5/SPIS_1.c **** /*******************************************************************************
1019:.\Generated_Source\PSoC5/SPIS_1.c **** * Function Name: SPIS_1_PutArray
1020:.\Generated_Source\PSoC5/SPIS_1.c **** ********************************************************************************
1021:.\Generated_Source\PSoC5/SPIS_1.c **** *
1022:.\Generated_Source\PSoC5/SPIS_1.c **** * Summary:
1023:.\Generated_Source\PSoC5/SPIS_1.c **** *  Write available data from RAM/ROM to the TX buffer while space is available
1024:.\Generated_Source\PSoC5/SPIS_1.c **** *  in the TX buffer. Keep trying until all data is passed to the TX buffer. If
1025:.\Generated_Source\PSoC5/SPIS_1.c **** *  used Mode 00 or 01 before PutArray() function should be called
1026:.\Generated_Source\PSoC5/SPIS_1.c **** *  WriteTxDataZero() function.
1027:.\Generated_Source\PSoC5/SPIS_1.c **** *
1028:.\Generated_Source\PSoC5/SPIS_1.c **** * Parameters:
1029:.\Generated_Source\PSoC5/SPIS_1.c **** *  *buffer: Pointer to the location in RAM containing the data to send
1030:.\Generated_Source\PSoC5/SPIS_1.c **** *  byteCount: The number of bytes to move to the transmit buffer.
1031:.\Generated_Source\PSoC5/SPIS_1.c **** *
1032:.\Generated_Source\PSoC5/SPIS_1.c **** * Return:
1033:.\Generated_Source\PSoC5/SPIS_1.c **** *  None.
1034:.\Generated_Source\PSoC5/SPIS_1.c **** *
1035:.\Generated_Source\PSoC5/SPIS_1.c **** * Side Effects:
1036:.\Generated_Source\PSoC5/SPIS_1.c **** *  Will stay in this routine until all data has been sent.  May get locked in
1037:.\Generated_Source\PSoC5/SPIS_1.c **** *  this loop if data is not being initiated by the master if there is not
1038:.\Generated_Source\PSoC5/SPIS_1.c **** *  enough room in the TX FIFO.
1039:.\Generated_Source\PSoC5/SPIS_1.c **** *
1040:.\Generated_Source\PSoC5/SPIS_1.c **** * Reentrant:
1041:.\Generated_Source\PSoC5/SPIS_1.c **** *  No.
1042:.\Generated_Source\PSoC5/SPIS_1.c **** *
1043:.\Generated_Source\PSoC5/SPIS_1.c **** *******************************************************************************/
1044:.\Generated_Source\PSoC5/SPIS_1.c **** void SPIS_1_PutArray(uint8 *buffer, uint8 byteCount) 
1045:.\Generated_Source\PSoC5/SPIS_1.c **** {
 870              		.loc 1 1045 0
 871              		.cfi_startproc
 872              		@ args = 0, pretend = 0, frame = 8
 873              		@ frame_needed = 1, uses_anonymous_args = 0
 874 0000 80B5     		push	{r7, lr}
 875              	.LCFI50:
 876              		.cfi_def_cfa_offset 8
 877 0002 82B0     		sub	sp, sp, #8
 878              	.LCFI51:
 879              		.cfi_def_cfa_offset 16
 880 0004 00AF     		add	r7, sp, #0
 881              		.cfi_offset 14, -4
 882              		.cfi_offset 7, -8
 883              	.LCFI52:
 884              		.cfi_def_cfa_register 7
 885 0006 7860     		str	r0, [r7, #4]
 886 0008 0B46     		mov	r3, r1
 887 000a FB70     		strb	r3, [r7, #3]
1046:.\Generated_Source\PSoC5/SPIS_1.c ****     while(byteCount > 0u)
 888              		.loc 1 1046 0
ARM GAS  C:\Users\hoangp\AppData\Local\Temp\ccnWRgig.s 			page 35


 889 000c 0CE0     		b	.L49
 890              	.L50:
1047:.\Generated_Source\PSoC5/SPIS_1.c ****     {
1048:.\Generated_Source\PSoC5/SPIS_1.c ****         SPIS_1_WriteTxData(*buffer++);
 891              		.loc 1 1048 0
 892 000e 7B68     		ldr	r3, [r7, #4]
 893 0010 1B78     		ldrb	r3, [r3, #0]	@ zero_extendqisi2
 894 0012 7A68     		ldr	r2, [r7, #4]
 895 0014 02F10102 		add	r2, r2, #1
 896 0018 7A60     		str	r2, [r7, #4]
 897 001a 1846     		mov	r0, r3
 898 001c FFF7FEFF 		bl	SPIS_1_WriteTxData
1049:.\Generated_Source\PSoC5/SPIS_1.c ****         byteCount--;
 899              		.loc 1 1049 0
 900 0020 FB78     		ldrb	r3, [r7, #3]
 901 0022 03F1FF33 		add	r3, r3, #-1
 902 0026 FB70     		strb	r3, [r7, #3]
 903              	.L49:
 904              		.loc 1 1046 0
 905 0028 FB78     		ldrb	r3, [r7, #3]	@ zero_extendqisi2
 906 002a 002B     		cmp	r3, #0
 907 002c EFD1     		bne	.L50
1050:.\Generated_Source\PSoC5/SPIS_1.c ****     }
1051:.\Generated_Source\PSoC5/SPIS_1.c **** }
 908              		.loc 1 1051 0
 909 002e 07F10807 		add	r7, r7, #8
 910 0032 BD46     		mov	sp, r7
 911 0034 80BD     		pop	{r7, pc}
 912              		.cfi_endproc
 913              	.LFE19:
 914              		.size	SPIS_1_PutArray, .-SPIS_1_PutArray
 915 0036 00BF     		.section	.text.SPIS_1_ClearFIFO,"ax",%progbits
 916              		.align	2
 917              		.global	SPIS_1_ClearFIFO
 918              		.thumb
 919              		.thumb_func
 920              		.type	SPIS_1_ClearFIFO, %function
 921              	SPIS_1_ClearFIFO:
 922              	.LFB20:
1052:.\Generated_Source\PSoC5/SPIS_1.c **** 
1053:.\Generated_Source\PSoC5/SPIS_1.c **** 
1054:.\Generated_Source\PSoC5/SPIS_1.c **** /*******************************************************************************
1055:.\Generated_Source\PSoC5/SPIS_1.c **** * Function Name: SPIS_1_ClearFIFO
1056:.\Generated_Source\PSoC5/SPIS_1.c **** ********************************************************************************
1057:.\Generated_Source\PSoC5/SPIS_1.c **** *
1058:.\Generated_Source\PSoC5/SPIS_1.c **** * Summary:
1059:.\Generated_Source\PSoC5/SPIS_1.c **** *  Clear the RX and TX FIFO's of all data for a fresh start.
1060:.\Generated_Source\PSoC5/SPIS_1.c **** *
1061:.\Generated_Source\PSoC5/SPIS_1.c **** * Parameters:
1062:.\Generated_Source\PSoC5/SPIS_1.c **** *  None.
1063:.\Generated_Source\PSoC5/SPIS_1.c **** *
1064:.\Generated_Source\PSoC5/SPIS_1.c **** * Return:
1065:.\Generated_Source\PSoC5/SPIS_1.c **** *  None.
1066:.\Generated_Source\PSoC5/SPIS_1.c **** *
1067:.\Generated_Source\PSoC5/SPIS_1.c **** * Side Effects:
1068:.\Generated_Source\PSoC5/SPIS_1.c **** *  Clear status register of the component.
1069:.\Generated_Source\PSoC5/SPIS_1.c **** *
ARM GAS  C:\Users\hoangp\AppData\Local\Temp\ccnWRgig.s 			page 36


1070:.\Generated_Source\PSoC5/SPIS_1.c **** *******************************************************************************/
1071:.\Generated_Source\PSoC5/SPIS_1.c **** void SPIS_1_ClearFIFO(void) 
1072:.\Generated_Source\PSoC5/SPIS_1.c **** {
 923              		.loc 1 1072 0
 924              		.cfi_startproc
 925              		@ args = 0, pretend = 0, frame = 8
 926              		@ frame_needed = 1, uses_anonymous_args = 0
 927 0000 80B5     		push	{r7, lr}
 928              	.LCFI53:
 929              		.cfi_def_cfa_offset 8
 930 0002 82B0     		sub	sp, sp, #8
 931              	.LCFI54:
 932              		.cfi_def_cfa_offset 16
 933 0004 00AF     		add	r7, sp, #0
 934              		.cfi_offset 14, -4
 935              		.cfi_offset 7, -8
 936              	.LCFI55:
 937              		.cfi_def_cfa_register 7
1073:.\Generated_Source\PSoC5/SPIS_1.c ****     uint8 enableInterrupts = 0u;
 938              		.loc 1 1073 0
 939 0006 4FF00003 		mov	r3, #0
 940 000a FB71     		strb	r3, [r7, #7]
1074:.\Generated_Source\PSoC5/SPIS_1.c **** 
1075:.\Generated_Source\PSoC5/SPIS_1.c ****     while((!(SPIS_1_RX_STATUS_REG & SPIS_1_STS_RX_FIFO_NOT_EMPTY)) == 0u)
 941              		.loc 1 1075 0
 942 000c 04E0     		b	.L53
 943              	.L54:
1076:.\Generated_Source\PSoC5/SPIS_1.c ****     {
1077:.\Generated_Source\PSoC5/SPIS_1.c ****         CY_GET_REG8(SPIS_1_RXDATA_PTR);
 944              		.loc 1 1077 0
 945 000e 46F24743 		movw	r3, #:lower16:1073767495
 946 0012 C4F20003 		movt	r3, #:upper16:1073767495
 947 0016 1B78     		ldrb	r3, [r3, #0]
 948              	.L53:
 949              		.loc 1 1075 0
 950 0018 46F26C43 		movw	r3, #:lower16:1073767532
 951 001c C4F20003 		movt	r3, #:upper16:1073767532
 952 0020 1B78     		ldrb	r3, [r3, #0]
 953 0022 DBB2     		uxtb	r3, r3
 954 0024 03F00803 		and	r3, r3, #8
 955 0028 002B     		cmp	r3, #0
 956 002a F0D1     		bne	.L54
1078:.\Generated_Source\PSoC5/SPIS_1.c ****     }
1079:.\Generated_Source\PSoC5/SPIS_1.c **** 
1080:.\Generated_Source\PSoC5/SPIS_1.c ****     enableInterrupts = CyEnterCriticalSection();
 957              		.loc 1 1080 0
 958 002c FFF7FEFF 		bl	CyEnterCriticalSection
 959 0030 0346     		mov	r3, r0
 960 0032 FB71     		strb	r3, [r7, #7]
1081:.\Generated_Source\PSoC5/SPIS_1.c **** 
1082:.\Generated_Source\PSoC5/SPIS_1.c ****     #if(SPIS_1_DataWidth <= 8u)
1083:.\Generated_Source\PSoC5/SPIS_1.c **** 
1084:.\Generated_Source\PSoC5/SPIS_1.c ****         /* Clear TX FIFO */
1085:.\Generated_Source\PSoC5/SPIS_1.c ****         SPIS_1_TX_AUX_CONTROL_DP0_REG |= SPIS_1_FIFO_CLR;
 961              		.loc 1 1085 0
 962 0034 46F29843 		movw	r3, #:lower16:1073767576
 963 0038 C4F20003 		movt	r3, #:upper16:1073767576
ARM GAS  C:\Users\hoangp\AppData\Local\Temp\ccnWRgig.s 			page 37


 964 003c 46F29842 		movw	r2, #:lower16:1073767576
 965 0040 C4F20002 		movt	r2, #:upper16:1073767576
 966 0044 1278     		ldrb	r2, [r2, #0]
 967 0046 D2B2     		uxtb	r2, r2
 968 0048 42F00302 		orr	r2, r2, #3
 969 004c D2B2     		uxtb	r2, r2
 970 004e 1A70     		strb	r2, [r3, #0]
1086:.\Generated_Source\PSoC5/SPIS_1.c ****         SPIS_1_TX_AUX_CONTROL_DP0_REG &= ~SPIS_1_FIFO_CLR;
 971              		.loc 1 1086 0
 972 0050 46F29843 		movw	r3, #:lower16:1073767576
 973 0054 C4F20003 		movt	r3, #:upper16:1073767576
 974 0058 46F29842 		movw	r2, #:lower16:1073767576
 975 005c C4F20002 		movt	r2, #:upper16:1073767576
 976 0060 1278     		ldrb	r2, [r2, #0]
 977 0062 D2B2     		uxtb	r2, r2
 978 0064 02F0FC02 		and	r2, r2, #252
 979 0068 1A70     		strb	r2, [r3, #0]
1087:.\Generated_Source\PSoC5/SPIS_1.c **** 
1088:.\Generated_Source\PSoC5/SPIS_1.c ****     #else
1089:.\Generated_Source\PSoC5/SPIS_1.c **** 
1090:.\Generated_Source\PSoC5/SPIS_1.c ****         /* Clear TX FIFO */
1091:.\Generated_Source\PSoC5/SPIS_1.c ****         SPIS_1_TX_AUX_CONTROL_DP0_REG |= SPIS_1_FIFO_CLR;
1092:.\Generated_Source\PSoC5/SPIS_1.c ****         SPIS_1_TX_AUX_CONTROL_DP0_REG &= ~SPIS_1_FIFO_CLR;
1093:.\Generated_Source\PSoC5/SPIS_1.c ****         SPIS_1_TX_AUX_CONTROL_DP1_REG |= SPIS_1_FIFO_CLR;
1094:.\Generated_Source\PSoC5/SPIS_1.c ****         SPIS_1_TX_AUX_CONTROL_DP1_REG &= ~SPIS_1_FIFO_CLR;
1095:.\Generated_Source\PSoC5/SPIS_1.c **** 
1096:.\Generated_Source\PSoC5/SPIS_1.c ****     #endif /* SPIS_1_DataWidth > 8u */
1097:.\Generated_Source\PSoC5/SPIS_1.c **** 
1098:.\Generated_Source\PSoC5/SPIS_1.c ****     CyExitCriticalSection(enableInterrupts);
 980              		.loc 1 1098 0
 981 006a FB79     		ldrb	r3, [r7, #7]	@ zero_extendqisi2
 982 006c 1846     		mov	r0, r3
 983 006e FFF7FEFF 		bl	CyExitCriticalSection
1099:.\Generated_Source\PSoC5/SPIS_1.c **** }
 984              		.loc 1 1099 0
 985 0072 07F10807 		add	r7, r7, #8
 986 0076 BD46     		mov	sp, r7
 987 0078 80BD     		pop	{r7, pc}
 988              		.cfi_endproc
 989              	.LFE20:
 990              		.size	SPIS_1_ClearFIFO, .-SPIS_1_ClearFIFO
 991 007a 00BF     		.section	.text.SPIS_1_EnableInt,"ax",%progbits
 992              		.align	2
 993              		.global	SPIS_1_EnableInt
 994              		.thumb
 995              		.thumb_func
 996              		.type	SPIS_1_EnableInt, %function
 997              	SPIS_1_EnableInt:
 998              	.LFB21:
1100:.\Generated_Source\PSoC5/SPIS_1.c **** 
1101:.\Generated_Source\PSoC5/SPIS_1.c **** 
1102:.\Generated_Source\PSoC5/SPIS_1.c **** /* Following functions are for version Compatibility, they are obsolete.
1103:.\Generated_Source\PSoC5/SPIS_1.c **** *  Please do not use it in new projects.
1104:.\Generated_Source\PSoC5/SPIS_1.c **** */
1105:.\Generated_Source\PSoC5/SPIS_1.c **** 
1106:.\Generated_Source\PSoC5/SPIS_1.c **** /*******************************************************************************
1107:.\Generated_Source\PSoC5/SPIS_1.c **** * Function Name: SPIS_1_EnableInt
ARM GAS  C:\Users\hoangp\AppData\Local\Temp\ccnWRgig.s 			page 38


1108:.\Generated_Source\PSoC5/SPIS_1.c **** ********************************************************************************
1109:.\Generated_Source\PSoC5/SPIS_1.c **** *
1110:.\Generated_Source\PSoC5/SPIS_1.c **** * Summary:
1111:.\Generated_Source\PSoC5/SPIS_1.c **** *  Enable internal interrupt generation.
1112:.\Generated_Source\PSoC5/SPIS_1.c **** *
1113:.\Generated_Source\PSoC5/SPIS_1.c **** * Parameters:
1114:.\Generated_Source\PSoC5/SPIS_1.c **** *  None.
1115:.\Generated_Source\PSoC5/SPIS_1.c **** *
1116:.\Generated_Source\PSoC5/SPIS_1.c **** * Return:
1117:.\Generated_Source\PSoC5/SPIS_1.c **** *  None.
1118:.\Generated_Source\PSoC5/SPIS_1.c **** *
1119:.\Generated_Source\PSoC5/SPIS_1.c **** * Theory:
1120:.\Generated_Source\PSoC5/SPIS_1.c **** *  Enable the internal interrupt output -or- the interrupt component itself.
1121:.\Generated_Source\PSoC5/SPIS_1.c **** *
1122:.\Generated_Source\PSoC5/SPIS_1.c **** *******************************************************************************/
1123:.\Generated_Source\PSoC5/SPIS_1.c **** void SPIS_1_EnableInt(void) 
1124:.\Generated_Source\PSoC5/SPIS_1.c **** {
 999              		.loc 1 1124 0
 1000              		.cfi_startproc
 1001              		@ args = 0, pretend = 0, frame = 0
 1002              		@ frame_needed = 1, uses_anonymous_args = 0
 1003              		@ link register save eliminated.
 1004 0000 80B4     		push	{r7}
 1005              	.LCFI56:
 1006              		.cfi_def_cfa_offset 4
 1007 0002 00AF     		add	r7, sp, #0
 1008              		.cfi_offset 7, -4
 1009              	.LCFI57:
 1010              		.cfi_def_cfa_register 7
1125:.\Generated_Source\PSoC5/SPIS_1.c ****     #if(SPIS_1_InternalTxInterruptEnabled)    
1126:.\Generated_Source\PSoC5/SPIS_1.c ****         CyIntEnable(SPIS_1_TX_ISR_NUMBER);
1127:.\Generated_Source\PSoC5/SPIS_1.c ****     #endif /* SPIS_1_InternalTxInterruptEnabled */                                
1128:.\Generated_Source\PSoC5/SPIS_1.c ****     
1129:.\Generated_Source\PSoC5/SPIS_1.c ****     #if(SPIS_1_InternalRxInterruptEnabled)           
1130:.\Generated_Source\PSoC5/SPIS_1.c ****         CyIntEnable(SPIS_1_RX_ISR_NUMBER);
1131:.\Generated_Source\PSoC5/SPIS_1.c ****     #endif /* SPIS_1_InternalRxInterruptEnabled */
1132:.\Generated_Source\PSoC5/SPIS_1.c **** }
 1011              		.loc 1 1132 0
 1012 0004 BD46     		mov	sp, r7
 1013 0006 80BC     		pop	{r7}
 1014 0008 7047     		bx	lr
 1015              		.cfi_endproc
 1016              	.LFE21:
 1017              		.size	SPIS_1_EnableInt, .-SPIS_1_EnableInt
 1018 000a 00BF     		.section	.text.SPIS_1_DisableInt,"ax",%progbits
 1019              		.align	2
 1020              		.global	SPIS_1_DisableInt
 1021              		.thumb
 1022              		.thumb_func
 1023              		.type	SPIS_1_DisableInt, %function
 1024              	SPIS_1_DisableInt:
 1025              	.LFB22:
1133:.\Generated_Source\PSoC5/SPIS_1.c **** 
1134:.\Generated_Source\PSoC5/SPIS_1.c **** 
1135:.\Generated_Source\PSoC5/SPIS_1.c **** /*******************************************************************************
1136:.\Generated_Source\PSoC5/SPIS_1.c **** * Function Name: SPIS_1_DisableInt
1137:.\Generated_Source\PSoC5/SPIS_1.c **** ********************************************************************************
ARM GAS  C:\Users\hoangp\AppData\Local\Temp\ccnWRgig.s 			page 39


1138:.\Generated_Source\PSoC5/SPIS_1.c **** *
1139:.\Generated_Source\PSoC5/SPIS_1.c **** * Summary:
1140:.\Generated_Source\PSoC5/SPIS_1.c **** *  Disable internal interrupt generation.
1141:.\Generated_Source\PSoC5/SPIS_1.c **** *
1142:.\Generated_Source\PSoC5/SPIS_1.c **** * Parameters:
1143:.\Generated_Source\PSoC5/SPIS_1.c **** *  None.
1144:.\Generated_Source\PSoC5/SPIS_1.c **** *
1145:.\Generated_Source\PSoC5/SPIS_1.c **** * Return:
1146:.\Generated_Source\PSoC5/SPIS_1.c **** *  None.
1147:.\Generated_Source\PSoC5/SPIS_1.c **** *
1148:.\Generated_Source\PSoC5/SPIS_1.c **** * Theory:
1149:.\Generated_Source\PSoC5/SPIS_1.c **** *  Disable the internal interrupt output -or- the interrupt component itself.
1150:.\Generated_Source\PSoC5/SPIS_1.c **** *
1151:.\Generated_Source\PSoC5/SPIS_1.c **** *******************************************************************************/
1152:.\Generated_Source\PSoC5/SPIS_1.c **** void SPIS_1_DisableInt(void) 
1153:.\Generated_Source\PSoC5/SPIS_1.c **** {
 1026              		.loc 1 1153 0
 1027              		.cfi_startproc
 1028              		@ args = 0, pretend = 0, frame = 0
 1029              		@ frame_needed = 1, uses_anonymous_args = 0
 1030              		@ link register save eliminated.
 1031 0000 80B4     		push	{r7}
 1032              	.LCFI58:
 1033              		.cfi_def_cfa_offset 4
 1034 0002 00AF     		add	r7, sp, #0
 1035              		.cfi_offset 7, -4
 1036              	.LCFI59:
 1037              		.cfi_def_cfa_register 7
1154:.\Generated_Source\PSoC5/SPIS_1.c ****     #if(SPIS_1_InternalTxInterruptEnabled)    
1155:.\Generated_Source\PSoC5/SPIS_1.c ****         CyIntDisable(SPIS_1_TX_ISR_NUMBER);
1156:.\Generated_Source\PSoC5/SPIS_1.c ****     #endif /* SPIS_1_InternalTxInterruptEnabled */
1157:.\Generated_Source\PSoC5/SPIS_1.c ****     
1158:.\Generated_Source\PSoC5/SPIS_1.c ****     #if(SPIS_1_InternalRxInterruptEnabled)           
1159:.\Generated_Source\PSoC5/SPIS_1.c ****         CyIntDisable(SPIS_1_RX_ISR_NUMBER);
1160:.\Generated_Source\PSoC5/SPIS_1.c ****     #endif /* SPIS_1_InternalRxInterruptEnabled */
1161:.\Generated_Source\PSoC5/SPIS_1.c **** }
 1038              		.loc 1 1161 0
 1039 0004 BD46     		mov	sp, r7
 1040 0006 80BC     		pop	{r7}
 1041 0008 7047     		bx	lr
 1042              		.cfi_endproc
 1043              	.LFE22:
 1044              		.size	SPIS_1_DisableInt, .-SPIS_1_DisableInt
 1045 000a 00BF     		.section	.text.SPIS_1_SetInterruptMode,"ax",%progbits
 1046              		.align	2
 1047              		.global	SPIS_1_SetInterruptMode
 1048              		.thumb
 1049              		.thumb_func
 1050              		.type	SPIS_1_SetInterruptMode, %function
 1051              	SPIS_1_SetInterruptMode:
 1052              	.LFB23:
1162:.\Generated_Source\PSoC5/SPIS_1.c **** 
1163:.\Generated_Source\PSoC5/SPIS_1.c **** 
1164:.\Generated_Source\PSoC5/SPIS_1.c **** /*******************************************************************************
1165:.\Generated_Source\PSoC5/SPIS_1.c **** * Function Name: SPIS_1_SetInterruptMode
1166:.\Generated_Source\PSoC5/SPIS_1.c **** ********************************************************************************
1167:.\Generated_Source\PSoC5/SPIS_1.c **** *
ARM GAS  C:\Users\hoangp\AppData\Local\Temp\ccnWRgig.s 			page 40


1168:.\Generated_Source\PSoC5/SPIS_1.c **** * Summary:
1169:.\Generated_Source\PSoC5/SPIS_1.c **** *  Configure which status bits trigger an interrupt event.
1170:.\Generated_Source\PSoC5/SPIS_1.c **** *
1171:.\Generated_Source\PSoC5/SPIS_1.c **** * Parameters:
1172:.\Generated_Source\PSoC5/SPIS_1.c **** *  intSrc: An or'd combination of the desired status bit masks (defined in the
1173:.\Generated_Source\PSoC5/SPIS_1.c **** *  header file).
1174:.\Generated_Source\PSoC5/SPIS_1.c **** *
1175:.\Generated_Source\PSoC5/SPIS_1.c **** * Return:
1176:.\Generated_Source\PSoC5/SPIS_1.c **** *  None.
1177:.\Generated_Source\PSoC5/SPIS_1.c **** *
1178:.\Generated_Source\PSoC5/SPIS_1.c **** * Theory:
1179:.\Generated_Source\PSoC5/SPIS_1.c **** *  Enables the output of specific status bits to the interrupt controller.
1180:.\Generated_Source\PSoC5/SPIS_1.c **** *
1181:.\Generated_Source\PSoC5/SPIS_1.c **** *******************************************************************************/
1182:.\Generated_Source\PSoC5/SPIS_1.c **** void SPIS_1_SetInterruptMode(uint8 intSrc) 
1183:.\Generated_Source\PSoC5/SPIS_1.c **** {
 1053              		.loc 1 1183 0
 1054              		.cfi_startproc
 1055              		@ args = 0, pretend = 0, frame = 8
 1056              		@ frame_needed = 1, uses_anonymous_args = 0
 1057              		@ link register save eliminated.
 1058 0000 80B4     		push	{r7}
 1059              	.LCFI60:
 1060              		.cfi_def_cfa_offset 4
 1061 0002 83B0     		sub	sp, sp, #12
 1062              	.LCFI61:
 1063              		.cfi_def_cfa_offset 16
 1064 0004 00AF     		add	r7, sp, #0
 1065              		.cfi_offset 7, -4
 1066              	.LCFI62:
 1067              		.cfi_def_cfa_register 7
 1068 0006 0346     		mov	r3, r0
 1069 0008 FB71     		strb	r3, [r7, #7]
1184:.\Generated_Source\PSoC5/SPIS_1.c ****     SPIS_1_TX_STATUS_MASK_REG  = intSrc;
 1070              		.loc 1 1184 0
 1071 000a 46F28B43 		movw	r3, #:lower16:1073767563
 1072 000e C4F20003 		movt	r3, #:upper16:1073767563
 1073 0012 FA79     		ldrb	r2, [r7, #7]
 1074 0014 1A70     		strb	r2, [r3, #0]
1185:.\Generated_Source\PSoC5/SPIS_1.c ****     SPIS_1_RX_STATUS_MASK_REG  = intSrc;
 1075              		.loc 1 1185 0
 1076 0016 46F28C43 		movw	r3, #:lower16:1073767564
 1077 001a C4F20003 		movt	r3, #:upper16:1073767564
 1078 001e FA79     		ldrb	r2, [r7, #7]
 1079 0020 1A70     		strb	r2, [r3, #0]
1186:.\Generated_Source\PSoC5/SPIS_1.c **** }
 1080              		.loc 1 1186 0
 1081 0022 07F10C07 		add	r7, r7, #12
 1082 0026 BD46     		mov	sp, r7
 1083 0028 80BC     		pop	{r7}
 1084 002a 7047     		bx	lr
 1085              		.cfi_endproc
 1086              	.LFE23:
 1087              		.size	SPIS_1_SetInterruptMode, .-SPIS_1_SetInterruptMode
 1088              		.section	.text.SPIS_1_ReadStatus,"ax",%progbits
 1089              		.align	2
 1090              		.global	SPIS_1_ReadStatus
ARM GAS  C:\Users\hoangp\AppData\Local\Temp\ccnWRgig.s 			page 41


 1091              		.thumb
 1092              		.thumb_func
 1093              		.type	SPIS_1_ReadStatus, %function
 1094              	SPIS_1_ReadStatus:
 1095              	.LFB24:
1187:.\Generated_Source\PSoC5/SPIS_1.c **** 
1188:.\Generated_Source\PSoC5/SPIS_1.c **** 
1189:.\Generated_Source\PSoC5/SPIS_1.c **** /*******************************************************************************
1190:.\Generated_Source\PSoC5/SPIS_1.c **** * Function Name: SPIS_1_ReadStatus
1191:.\Generated_Source\PSoC5/SPIS_1.c **** ********************************************************************************
1192:.\Generated_Source\PSoC5/SPIS_1.c **** *
1193:.\Generated_Source\PSoC5/SPIS_1.c **** * Summary:
1194:.\Generated_Source\PSoC5/SPIS_1.c **** *  Read the status register for the component.
1195:.\Generated_Source\PSoC5/SPIS_1.c **** *
1196:.\Generated_Source\PSoC5/SPIS_1.c **** * Parameters:
1197:.\Generated_Source\PSoC5/SPIS_1.c **** *  None.
1198:.\Generated_Source\PSoC5/SPIS_1.c **** *
1199:.\Generated_Source\PSoC5/SPIS_1.c **** * Return:
1200:.\Generated_Source\PSoC5/SPIS_1.c **** *  Contents of the status register.
1201:.\Generated_Source\PSoC5/SPIS_1.c **** *
1202:.\Generated_Source\PSoC5/SPIS_1.c **** * Global variables:
1203:.\Generated_Source\PSoC5/SPIS_1.c **** *  SPIS_1_swStatus - used to store in software status register,
1204:.\Generated_Source\PSoC5/SPIS_1.c **** *  modified every function call - resets to zero.
1205:.\Generated_Source\PSoC5/SPIS_1.c **** *
1206:.\Generated_Source\PSoC5/SPIS_1.c **** * Theory:
1207:.\Generated_Source\PSoC5/SPIS_1.c **** *  Allows the user and the API to read the status register for error detection
1208:.\Generated_Source\PSoC5/SPIS_1.c **** *  and flow control.
1209:.\Generated_Source\PSoC5/SPIS_1.c **** *
1210:.\Generated_Source\PSoC5/SPIS_1.c **** * Side Effects:
1211:.\Generated_Source\PSoC5/SPIS_1.c **** *  Clear status register of the component.
1212:.\Generated_Source\PSoC5/SPIS_1.c **** *
1213:.\Generated_Source\PSoC5/SPIS_1.c **** * Reentrant:
1214:.\Generated_Source\PSoC5/SPIS_1.c **** *  No.
1215:.\Generated_Source\PSoC5/SPIS_1.c **** *
1216:.\Generated_Source\PSoC5/SPIS_1.c **** *******************************************************************************/
1217:.\Generated_Source\PSoC5/SPIS_1.c **** uint8 SPIS_1_ReadStatus(void) 
1218:.\Generated_Source\PSoC5/SPIS_1.c **** {
 1096              		.loc 1 1218 0
 1097              		.cfi_startproc
 1098              		@ args = 0, pretend = 0, frame = 8
 1099              		@ frame_needed = 1, uses_anonymous_args = 0
 1100              		@ link register save eliminated.
 1101 0000 80B4     		push	{r7}
 1102              	.LCFI63:
 1103              		.cfi_def_cfa_offset 4
 1104 0002 83B0     		sub	sp, sp, #12
 1105              	.LCFI64:
 1106              		.cfi_def_cfa_offset 16
 1107 0004 00AF     		add	r7, sp, #0
 1108              		.cfi_offset 7, -4
 1109              	.LCFI65:
 1110              		.cfi_def_cfa_register 7
1219:.\Generated_Source\PSoC5/SPIS_1.c ****     uint8 tmpStatus;
1220:.\Generated_Source\PSoC5/SPIS_1.c **** 
1221:.\Generated_Source\PSoC5/SPIS_1.c ****     #if ((SPIS_1_TXBUFFERSIZE > 4u) || (SPIS_1_RXBUFFERSIZE > 4u))
1222:.\Generated_Source\PSoC5/SPIS_1.c **** 
1223:.\Generated_Source\PSoC5/SPIS_1.c ****         SPIS_1_DisableInt();
ARM GAS  C:\Users\hoangp\AppData\Local\Temp\ccnWRgig.s 			page 42


1224:.\Generated_Source\PSoC5/SPIS_1.c **** 
1225:.\Generated_Source\PSoC5/SPIS_1.c ****         tmpStatus = SPIS_1_GET_STATUS_TX(SPIS_1_swStatusTx) |
1226:.\Generated_Source\PSoC5/SPIS_1.c ****                     (SPIS_1_GET_STATUS_RX(SPIS_1_swStatusRx) & ~SPIS_1_STS_RX_FIFO_FULL);
1227:.\Generated_Source\PSoC5/SPIS_1.c **** 
1228:.\Generated_Source\PSoC5/SPIS_1.c ****         SPIS_1_swStatusTx = 0u;
1229:.\Generated_Source\PSoC5/SPIS_1.c ****         SPIS_1_swStatusRx = 0u;
1230:.\Generated_Source\PSoC5/SPIS_1.c **** 
1231:.\Generated_Source\PSoC5/SPIS_1.c ****         /* Enable Interrupts */
1232:.\Generated_Source\PSoC5/SPIS_1.c ****         SPIS_1_EnableInt();
1233:.\Generated_Source\PSoC5/SPIS_1.c **** 
1234:.\Generated_Source\PSoC5/SPIS_1.c ****     #else /* (SPIS_1_TXBUFFERSIZE < 4u) && (SPIS_1_RXBUFFERSIZE < 4u) */
1235:.\Generated_Source\PSoC5/SPIS_1.c **** 
1236:.\Generated_Source\PSoC5/SPIS_1.c ****         tmpStatus = SPIS_1_TX_STATUS_REG | (SPIS_1_RX_STATUS_REG &
 1111              		.loc 1 1236 0
 1112 0006 46F26B43 		movw	r3, #:lower16:1073767531
 1113 000a C4F20003 		movt	r3, #:upper16:1073767531
 1114 000e 1B78     		ldrb	r3, [r3, #0]
 1115 0010 DAB2     		uxtb	r2, r3
 1116 0012 46F26C43 		movw	r3, #:lower16:1073767532
 1117 0016 C4F20003 		movt	r3, #:upper16:1073767532
 1118 001a 1B78     		ldrb	r3, [r3, #0]
 1119 001c DBB2     		uxtb	r3, r3
 1120 001e 03F0BF03 		and	r3, r3, #191
 1121 0022 42EA0303 		orr	r3, r2, r3
 1122 0026 FB71     		strb	r3, [r7, #7]
1237:.\Generated_Source\PSoC5/SPIS_1.c ****                                                       ~SPIS_1_STS_RX_FIFO_FULL);
1238:.\Generated_Source\PSoC5/SPIS_1.c **** 
1239:.\Generated_Source\PSoC5/SPIS_1.c ****     #endif /* (SPIS_1_TXBUFFERSIZE > 4u) || (SPIS_1_RXBUFFERSIZE > 4u) */
1240:.\Generated_Source\PSoC5/SPIS_1.c **** 
1241:.\Generated_Source\PSoC5/SPIS_1.c ****     return(tmpStatus);
 1123              		.loc 1 1241 0
 1124 0028 FB79     		ldrb	r3, [r7, #7]	@ zero_extendqisi2
1242:.\Generated_Source\PSoC5/SPIS_1.c **** }
 1125              		.loc 1 1242 0
 1126 002a 1846     		mov	r0, r3
 1127 002c 07F10C07 		add	r7, r7, #12
 1128 0030 BD46     		mov	sp, r7
 1129 0032 80BC     		pop	{r7}
 1130 0034 7047     		bx	lr
 1131              		.cfi_endproc
 1132              	.LFE24:
 1133              		.size	SPIS_1_ReadStatus, .-SPIS_1_ReadStatus
 1134 0036 00BF     		.text
 1135              	.Letext0:
 1136              		.section	.debug_loc,"",%progbits
 1137              	.Ldebug_loc0:
 1138              	.LLST0:
 1139 0000 00000000 		.4byte	.LFB0
 1140 0004 02000000 		.4byte	.LCFI0
 1141 0008 0100     		.2byte	0x1
 1142 000a 5D       		.byte	0x5d
 1143 000b 02000000 		.4byte	.LCFI0
 1144 000f 04000000 		.4byte	.LCFI1
 1145 0013 0200     		.2byte	0x2
 1146 0015 7D       		.byte	0x7d
 1147 0016 08       		.sleb128 8
 1148 0017 04000000 		.4byte	.LCFI1
ARM GAS  C:\Users\hoangp\AppData\Local\Temp\ccnWRgig.s 			page 43


 1149 001b 3C000000 		.4byte	.LFE0
 1150 001f 0200     		.2byte	0x2
 1151 0021 77       		.byte	0x77
 1152 0022 08       		.sleb128 8
 1153 0023 00000000 		.4byte	0x0
 1154 0027 00000000 		.4byte	0x0
 1155              	.LLST1:
 1156 002b 00000000 		.4byte	.LFB1
 1157 002f 02000000 		.4byte	.LCFI2
 1158 0033 0100     		.2byte	0x1
 1159 0035 5D       		.byte	0x5d
 1160 0036 02000000 		.4byte	.LCFI2
 1161 003a 04000000 		.4byte	.LCFI3
 1162 003e 0200     		.2byte	0x2
 1163 0040 7D       		.byte	0x7d
 1164 0041 08       		.sleb128 8
 1165 0042 04000000 		.4byte	.LCFI3
 1166 0046 06000000 		.4byte	.LCFI4
 1167 004a 0200     		.2byte	0x2
 1168 004c 7D       		.byte	0x7d
 1169 004d 10       		.sleb128 16
 1170 004e 06000000 		.4byte	.LCFI4
 1171 0052 78000000 		.4byte	.LFE1
 1172 0056 0200     		.2byte	0x2
 1173 0058 77       		.byte	0x77
 1174 0059 10       		.sleb128 16
 1175 005a 00000000 		.4byte	0x0
 1176 005e 00000000 		.4byte	0x0
 1177              	.LLST2:
 1178 0062 00000000 		.4byte	.LFB2
 1179 0066 02000000 		.4byte	.LCFI5
 1180 006a 0100     		.2byte	0x1
 1181 006c 5D       		.byte	0x5d
 1182 006d 02000000 		.4byte	.LCFI5
 1183 0071 04000000 		.4byte	.LCFI6
 1184 0075 0200     		.2byte	0x2
 1185 0077 7D       		.byte	0x7d
 1186 0078 08       		.sleb128 8
 1187 0079 04000000 		.4byte	.LCFI6
 1188 007d 2A000000 		.4byte	.LFE2
 1189 0081 0200     		.2byte	0x2
 1190 0083 77       		.byte	0x77
 1191 0084 08       		.sleb128 8
 1192 0085 00000000 		.4byte	0x0
 1193 0089 00000000 		.4byte	0x0
 1194              	.LLST3:
 1195 008d 00000000 		.4byte	.LFB3
 1196 0091 02000000 		.4byte	.LCFI7
 1197 0095 0100     		.2byte	0x1
 1198 0097 5D       		.byte	0x5d
 1199 0098 02000000 		.4byte	.LCFI7
 1200 009c 04000000 		.4byte	.LCFI8
 1201 00a0 0200     		.2byte	0x2
 1202 00a2 7D       		.byte	0x7d
 1203 00a3 08       		.sleb128 8
 1204 00a4 04000000 		.4byte	.LCFI8
 1205 00a8 06000000 		.4byte	.LCFI9
ARM GAS  C:\Users\hoangp\AppData\Local\Temp\ccnWRgig.s 			page 44


 1206 00ac 0200     		.2byte	0x2
 1207 00ae 7D       		.byte	0x7d
 1208 00af 10       		.sleb128 16
 1209 00b0 06000000 		.4byte	.LCFI9
 1210 00b4 58000000 		.4byte	.LFE3
 1211 00b8 0200     		.2byte	0x2
 1212 00ba 77       		.byte	0x77
 1213 00bb 10       		.sleb128 16
 1214 00bc 00000000 		.4byte	0x0
 1215 00c0 00000000 		.4byte	0x0
 1216              	.LLST4:
 1217 00c4 00000000 		.4byte	.LFB4
 1218 00c8 02000000 		.4byte	.LCFI10
 1219 00cc 0100     		.2byte	0x1
 1220 00ce 5D       		.byte	0x5d
 1221 00cf 02000000 		.4byte	.LCFI10
 1222 00d3 04000000 		.4byte	.LCFI11
 1223 00d7 0200     		.2byte	0x2
 1224 00d9 7D       		.byte	0x7d
 1225 00da 04       		.sleb128 4
 1226 00db 04000000 		.4byte	.LCFI11
 1227 00df 0A000000 		.4byte	.LFE4
 1228 00e3 0200     		.2byte	0x2
 1229 00e5 77       		.byte	0x77
 1230 00e6 04       		.sleb128 4
 1231 00e7 00000000 		.4byte	0x0
 1232 00eb 00000000 		.4byte	0x0
 1233              	.LLST5:
 1234 00ef 00000000 		.4byte	.LFB5
 1235 00f3 02000000 		.4byte	.LCFI12
 1236 00f7 0100     		.2byte	0x1
 1237 00f9 5D       		.byte	0x5d
 1238 00fa 02000000 		.4byte	.LCFI12
 1239 00fe 04000000 		.4byte	.LCFI13
 1240 0102 0200     		.2byte	0x2
 1241 0104 7D       		.byte	0x7d
 1242 0105 04       		.sleb128 4
 1243 0106 04000000 		.4byte	.LCFI13
 1244 010a 0A000000 		.4byte	.LFE5
 1245 010e 0200     		.2byte	0x2
 1246 0110 77       		.byte	0x77
 1247 0111 04       		.sleb128 4
 1248 0112 00000000 		.4byte	0x0
 1249 0116 00000000 		.4byte	0x0
 1250              	.LLST6:
 1251 011a 00000000 		.4byte	.LFB6
 1252 011e 02000000 		.4byte	.LCFI14
 1253 0122 0100     		.2byte	0x1
 1254 0124 5D       		.byte	0x5d
 1255 0125 02000000 		.4byte	.LCFI14
 1256 0129 04000000 		.4byte	.LCFI15
 1257 012d 0200     		.2byte	0x2
 1258 012f 7D       		.byte	0x7d
 1259 0130 04       		.sleb128 4
 1260 0131 04000000 		.4byte	.LCFI15
 1261 0135 0A000000 		.4byte	.LFE6
 1262 0139 0200     		.2byte	0x2
ARM GAS  C:\Users\hoangp\AppData\Local\Temp\ccnWRgig.s 			page 45


 1263 013b 77       		.byte	0x77
 1264 013c 04       		.sleb128 4
 1265 013d 00000000 		.4byte	0x0
 1266 0141 00000000 		.4byte	0x0
 1267              	.LLST7:
 1268 0145 00000000 		.4byte	.LFB7
 1269 0149 02000000 		.4byte	.LCFI16
 1270 014d 0100     		.2byte	0x1
 1271 014f 5D       		.byte	0x5d
 1272 0150 02000000 		.4byte	.LCFI16
 1273 0154 04000000 		.4byte	.LCFI17
 1274 0158 0200     		.2byte	0x2
 1275 015a 7D       		.byte	0x7d
 1276 015b 04       		.sleb128 4
 1277 015c 04000000 		.4byte	.LCFI17
 1278 0160 0A000000 		.4byte	.LFE7
 1279 0164 0200     		.2byte	0x2
 1280 0166 77       		.byte	0x77
 1281 0167 04       		.sleb128 4
 1282 0168 00000000 		.4byte	0x0
 1283 016c 00000000 		.4byte	0x0
 1284              	.LLST8:
 1285 0170 00000000 		.4byte	.LFB8
 1286 0174 02000000 		.4byte	.LCFI18
 1287 0178 0100     		.2byte	0x1
 1288 017a 5D       		.byte	0x5d
 1289 017b 02000000 		.4byte	.LCFI18
 1290 017f 04000000 		.4byte	.LCFI19
 1291 0183 0200     		.2byte	0x2
 1292 0185 7D       		.byte	0x7d
 1293 0186 04       		.sleb128 4
 1294 0187 04000000 		.4byte	.LCFI19
 1295 018b 06000000 		.4byte	.LCFI20
 1296 018f 0200     		.2byte	0x2
 1297 0191 7D       		.byte	0x7d
 1298 0192 10       		.sleb128 16
 1299 0193 06000000 		.4byte	.LCFI20
 1300 0197 20000000 		.4byte	.LFE8
 1301 019b 0200     		.2byte	0x2
 1302 019d 77       		.byte	0x77
 1303 019e 10       		.sleb128 16
 1304 019f 00000000 		.4byte	0x0
 1305 01a3 00000000 		.4byte	0x0
 1306              	.LLST9:
 1307 01a7 00000000 		.4byte	.LFB9
 1308 01ab 02000000 		.4byte	.LCFI21
 1309 01af 0100     		.2byte	0x1
 1310 01b1 5D       		.byte	0x5d
 1311 01b2 02000000 		.4byte	.LCFI21
 1312 01b6 04000000 		.4byte	.LCFI22
 1313 01ba 0200     		.2byte	0x2
 1314 01bc 7D       		.byte	0x7d
 1315 01bd 04       		.sleb128 4
 1316 01be 04000000 		.4byte	.LCFI22
 1317 01c2 06000000 		.4byte	.LCFI23
 1318 01c6 0200     		.2byte	0x2
 1319 01c8 7D       		.byte	0x7d
ARM GAS  C:\Users\hoangp\AppData\Local\Temp\ccnWRgig.s 			page 46


 1320 01c9 10       		.sleb128 16
 1321 01ca 06000000 		.4byte	.LCFI23
 1322 01ce 20000000 		.4byte	.LFE9
 1323 01d2 0200     		.2byte	0x2
 1324 01d4 77       		.byte	0x77
 1325 01d5 10       		.sleb128 16
 1326 01d6 00000000 		.4byte	0x0
 1327 01da 00000000 		.4byte	0x0
 1328              	.LLST10:
 1329 01de 00000000 		.4byte	.LFB10
 1330 01e2 02000000 		.4byte	.LCFI24
 1331 01e6 0100     		.2byte	0x1
 1332 01e8 5D       		.byte	0x5d
 1333 01e9 02000000 		.4byte	.LCFI24
 1334 01ed 04000000 		.4byte	.LCFI25
 1335 01f1 0200     		.2byte	0x2
 1336 01f3 7D       		.byte	0x7d
 1337 01f4 04       		.sleb128 4
 1338 01f5 04000000 		.4byte	.LCFI25
 1339 01f9 06000000 		.4byte	.LCFI26
 1340 01fd 0200     		.2byte	0x2
 1341 01ff 7D       		.byte	0x7d
 1342 0200 10       		.sleb128 16
 1343 0201 06000000 		.4byte	.LCFI26
 1344 0205 26000000 		.4byte	.LFE10
 1345 0209 0200     		.2byte	0x2
 1346 020b 77       		.byte	0x77
 1347 020c 10       		.sleb128 16
 1348 020d 00000000 		.4byte	0x0
 1349 0211 00000000 		.4byte	0x0
 1350              	.LLST11:
 1351 0215 00000000 		.4byte	.LFB11
 1352 0219 02000000 		.4byte	.LCFI27
 1353 021d 0100     		.2byte	0x1
 1354 021f 5D       		.byte	0x5d
 1355 0220 02000000 		.4byte	.LCFI27
 1356 0224 04000000 		.4byte	.LCFI28
 1357 0228 0200     		.2byte	0x2
 1358 022a 7D       		.byte	0x7d
 1359 022b 04       		.sleb128 4
 1360 022c 04000000 		.4byte	.LCFI28
 1361 0230 06000000 		.4byte	.LCFI29
 1362 0234 0200     		.2byte	0x2
 1363 0236 7D       		.byte	0x7d
 1364 0237 10       		.sleb128 16
 1365 0238 06000000 		.4byte	.LCFI29
 1366 023c 26000000 		.4byte	.LFE11
 1367 0240 0200     		.2byte	0x2
 1368 0242 77       		.byte	0x77
 1369 0243 10       		.sleb128 16
 1370 0244 00000000 		.4byte	0x0
 1371 0248 00000000 		.4byte	0x0
 1372              	.LLST12:
 1373 024c 00000000 		.4byte	.LFB12
 1374 0250 02000000 		.4byte	.LCFI30
 1375 0254 0100     		.2byte	0x1
 1376 0256 5D       		.byte	0x5d
ARM GAS  C:\Users\hoangp\AppData\Local\Temp\ccnWRgig.s 			page 47


 1377 0257 02000000 		.4byte	.LCFI30
 1378 025b 04000000 		.4byte	.LCFI31
 1379 025f 0200     		.2byte	0x2
 1380 0261 7D       		.byte	0x7d
 1381 0262 04       		.sleb128 4
 1382 0263 04000000 		.4byte	.LCFI31
 1383 0267 06000000 		.4byte	.LCFI32
 1384 026b 0200     		.2byte	0x2
 1385 026d 7D       		.byte	0x7d
 1386 026e 10       		.sleb128 16
 1387 026f 06000000 		.4byte	.LCFI32
 1388 0273 34000000 		.4byte	.LFE12
 1389 0277 0200     		.2byte	0x2
 1390 0279 77       		.byte	0x77
 1391 027a 10       		.sleb128 16
 1392 027b 00000000 		.4byte	0x0
 1393 027f 00000000 		.4byte	0x0
 1394              	.LLST13:
 1395 0283 00000000 		.4byte	.LFB13
 1396 0287 02000000 		.4byte	.LCFI33
 1397 028b 0100     		.2byte	0x1
 1398 028d 5D       		.byte	0x5d
 1399 028e 02000000 		.4byte	.LCFI33
 1400 0292 04000000 		.4byte	.LCFI34
 1401 0296 0200     		.2byte	0x2
 1402 0298 7D       		.byte	0x7d
 1403 0299 04       		.sleb128 4
 1404 029a 04000000 		.4byte	.LCFI34
 1405 029e 06000000 		.4byte	.LCFI35
 1406 02a2 0200     		.2byte	0x2
 1407 02a4 7D       		.byte	0x7d
 1408 02a5 10       		.sleb128 16
 1409 02a6 06000000 		.4byte	.LCFI35
 1410 02aa 20000000 		.4byte	.LFE13
 1411 02ae 0200     		.2byte	0x2
 1412 02b0 77       		.byte	0x77
 1413 02b1 10       		.sleb128 16
 1414 02b2 00000000 		.4byte	0x0
 1415 02b6 00000000 		.4byte	0x0
 1416              	.LLST14:
 1417 02ba 00000000 		.4byte	.LFB14
 1418 02be 02000000 		.4byte	.LCFI36
 1419 02c2 0100     		.2byte	0x1
 1420 02c4 5D       		.byte	0x5d
 1421 02c5 02000000 		.4byte	.LCFI36
 1422 02c9 04000000 		.4byte	.LCFI37
 1423 02cd 0200     		.2byte	0x2
 1424 02cf 7D       		.byte	0x7d
 1425 02d0 04       		.sleb128 4
 1426 02d1 04000000 		.4byte	.LCFI37
 1427 02d5 06000000 		.4byte	.LCFI38
 1428 02d9 0200     		.2byte	0x2
 1429 02db 7D       		.byte	0x7d
 1430 02dc 10       		.sleb128 16
 1431 02dd 06000000 		.4byte	.LCFI38
 1432 02e1 26000000 		.4byte	.LFE14
 1433 02e5 0200     		.2byte	0x2
ARM GAS  C:\Users\hoangp\AppData\Local\Temp\ccnWRgig.s 			page 48


 1434 02e7 77       		.byte	0x77
 1435 02e8 10       		.sleb128 16
 1436 02e9 00000000 		.4byte	0x0
 1437 02ed 00000000 		.4byte	0x0
 1438              	.LLST15:
 1439 02f1 00000000 		.4byte	.LFB15
 1440 02f5 02000000 		.4byte	.LCFI39
 1441 02f9 0100     		.2byte	0x1
 1442 02fb 5D       		.byte	0x5d
 1443 02fc 02000000 		.4byte	.LCFI39
 1444 0300 04000000 		.4byte	.LCFI40
 1445 0304 0200     		.2byte	0x2
 1446 0306 7D       		.byte	0x7d
 1447 0307 04       		.sleb128 4
 1448 0308 04000000 		.4byte	.LCFI40
 1449 030c 06000000 		.4byte	.LCFI41
 1450 0310 0200     		.2byte	0x2
 1451 0312 7D       		.byte	0x7d
 1452 0313 10       		.sleb128 16
 1453 0314 06000000 		.4byte	.LCFI41
 1454 0318 3A000000 		.4byte	.LFE15
 1455 031c 0200     		.2byte	0x2
 1456 031e 77       		.byte	0x77
 1457 031f 10       		.sleb128 16
 1458 0320 00000000 		.4byte	0x0
 1459 0324 00000000 		.4byte	0x0
 1460              	.LLST16:
 1461 0328 00000000 		.4byte	.LFB16
 1462 032c 02000000 		.4byte	.LCFI42
 1463 0330 0100     		.2byte	0x1
 1464 0332 5D       		.byte	0x5d
 1465 0333 02000000 		.4byte	.LCFI42
 1466 0337 04000000 		.4byte	.LCFI43
 1467 033b 0200     		.2byte	0x2
 1468 033d 7D       		.byte	0x7d
 1469 033e 04       		.sleb128 4
 1470 033f 04000000 		.4byte	.LCFI43
 1471 0343 06000000 		.4byte	.LCFI44
 1472 0347 0200     		.2byte	0x2
 1473 0349 7D       		.byte	0x7d
 1474 034a 10       		.sleb128 16
 1475 034b 06000000 		.4byte	.LCFI44
 1476 034f 50000000 		.4byte	.LFE16
 1477 0353 0200     		.2byte	0x2
 1478 0355 77       		.byte	0x77
 1479 0356 10       		.sleb128 16
 1480 0357 00000000 		.4byte	0x0
 1481 035b 00000000 		.4byte	0x0
 1482              	.LLST17:
 1483 035f 00000000 		.4byte	.LFB17
 1484 0363 02000000 		.4byte	.LCFI45
 1485 0367 0100     		.2byte	0x1
 1486 0369 5D       		.byte	0x5d
 1487 036a 02000000 		.4byte	.LCFI45
 1488 036e 04000000 		.4byte	.LCFI46
 1489 0372 0200     		.2byte	0x2
 1490 0374 7D       		.byte	0x7d
ARM GAS  C:\Users\hoangp\AppData\Local\Temp\ccnWRgig.s 			page 49


 1491 0375 04       		.sleb128 4
 1492 0376 04000000 		.4byte	.LCFI46
 1493 037a 2A000000 		.4byte	.LFE17
 1494 037e 0200     		.2byte	0x2
 1495 0380 77       		.byte	0x77
 1496 0381 04       		.sleb128 4
 1497 0382 00000000 		.4byte	0x0
 1498 0386 00000000 		.4byte	0x0
 1499              	.LLST18:
 1500 038a 00000000 		.4byte	.LFB18
 1501 038e 02000000 		.4byte	.LCFI47
 1502 0392 0100     		.2byte	0x1
 1503 0394 5D       		.byte	0x5d
 1504 0395 02000000 		.4byte	.LCFI47
 1505 0399 04000000 		.4byte	.LCFI48
 1506 039d 0200     		.2byte	0x2
 1507 039f 7D       		.byte	0x7d
 1508 03a0 08       		.sleb128 8
 1509 03a1 04000000 		.4byte	.LCFI48
 1510 03a5 06000000 		.4byte	.LCFI49
 1511 03a9 0200     		.2byte	0x2
 1512 03ab 7D       		.byte	0x7d
 1513 03ac 10       		.sleb128 16
 1514 03ad 06000000 		.4byte	.LCFI49
 1515 03b1 5A000000 		.4byte	.LFE18
 1516 03b5 0200     		.2byte	0x2
 1517 03b7 77       		.byte	0x77
 1518 03b8 10       		.sleb128 16
 1519 03b9 00000000 		.4byte	0x0
 1520 03bd 00000000 		.4byte	0x0
 1521              	.LLST19:
 1522 03c1 00000000 		.4byte	.LFB19
 1523 03c5 02000000 		.4byte	.LCFI50
 1524 03c9 0100     		.2byte	0x1
 1525 03cb 5D       		.byte	0x5d
 1526 03cc 02000000 		.4byte	.LCFI50
 1527 03d0 04000000 		.4byte	.LCFI51
 1528 03d4 0200     		.2byte	0x2
 1529 03d6 7D       		.byte	0x7d
 1530 03d7 08       		.sleb128 8
 1531 03d8 04000000 		.4byte	.LCFI51
 1532 03dc 06000000 		.4byte	.LCFI52
 1533 03e0 0200     		.2byte	0x2
 1534 03e2 7D       		.byte	0x7d
 1535 03e3 10       		.sleb128 16
 1536 03e4 06000000 		.4byte	.LCFI52
 1537 03e8 36000000 		.4byte	.LFE19
 1538 03ec 0200     		.2byte	0x2
 1539 03ee 77       		.byte	0x77
 1540 03ef 10       		.sleb128 16
 1541 03f0 00000000 		.4byte	0x0
 1542 03f4 00000000 		.4byte	0x0
 1543              	.LLST20:
 1544 03f8 00000000 		.4byte	.LFB20
 1545 03fc 02000000 		.4byte	.LCFI53
 1546 0400 0100     		.2byte	0x1
 1547 0402 5D       		.byte	0x5d
ARM GAS  C:\Users\hoangp\AppData\Local\Temp\ccnWRgig.s 			page 50


 1548 0403 02000000 		.4byte	.LCFI53
 1549 0407 04000000 		.4byte	.LCFI54
 1550 040b 0200     		.2byte	0x2
 1551 040d 7D       		.byte	0x7d
 1552 040e 08       		.sleb128 8
 1553 040f 04000000 		.4byte	.LCFI54
 1554 0413 06000000 		.4byte	.LCFI55
 1555 0417 0200     		.2byte	0x2
 1556 0419 7D       		.byte	0x7d
 1557 041a 10       		.sleb128 16
 1558 041b 06000000 		.4byte	.LCFI55
 1559 041f 7A000000 		.4byte	.LFE20
 1560 0423 0200     		.2byte	0x2
 1561 0425 77       		.byte	0x77
 1562 0426 10       		.sleb128 16
 1563 0427 00000000 		.4byte	0x0
 1564 042b 00000000 		.4byte	0x0
 1565              	.LLST21:
 1566 042f 00000000 		.4byte	.LFB21
 1567 0433 02000000 		.4byte	.LCFI56
 1568 0437 0100     		.2byte	0x1
 1569 0439 5D       		.byte	0x5d
 1570 043a 02000000 		.4byte	.LCFI56
 1571 043e 04000000 		.4byte	.LCFI57
 1572 0442 0200     		.2byte	0x2
 1573 0444 7D       		.byte	0x7d
 1574 0445 04       		.sleb128 4
 1575 0446 04000000 		.4byte	.LCFI57
 1576 044a 0A000000 		.4byte	.LFE21
 1577 044e 0200     		.2byte	0x2
 1578 0450 77       		.byte	0x77
 1579 0451 04       		.sleb128 4
 1580 0452 00000000 		.4byte	0x0
 1581 0456 00000000 		.4byte	0x0
 1582              	.LLST22:
 1583 045a 00000000 		.4byte	.LFB22
 1584 045e 02000000 		.4byte	.LCFI58
 1585 0462 0100     		.2byte	0x1
 1586 0464 5D       		.byte	0x5d
 1587 0465 02000000 		.4byte	.LCFI58
 1588 0469 04000000 		.4byte	.LCFI59
 1589 046d 0200     		.2byte	0x2
 1590 046f 7D       		.byte	0x7d
 1591 0470 04       		.sleb128 4
 1592 0471 04000000 		.4byte	.LCFI59
 1593 0475 0A000000 		.4byte	.LFE22
 1594 0479 0200     		.2byte	0x2
 1595 047b 77       		.byte	0x77
 1596 047c 04       		.sleb128 4
 1597 047d 00000000 		.4byte	0x0
 1598 0481 00000000 		.4byte	0x0
 1599              	.LLST23:
 1600 0485 00000000 		.4byte	.LFB23
 1601 0489 02000000 		.4byte	.LCFI60
 1602 048d 0100     		.2byte	0x1
 1603 048f 5D       		.byte	0x5d
 1604 0490 02000000 		.4byte	.LCFI60
ARM GAS  C:\Users\hoangp\AppData\Local\Temp\ccnWRgig.s 			page 51


 1605 0494 04000000 		.4byte	.LCFI61
 1606 0498 0200     		.2byte	0x2
 1607 049a 7D       		.byte	0x7d
 1608 049b 04       		.sleb128 4
 1609 049c 04000000 		.4byte	.LCFI61
 1610 04a0 06000000 		.4byte	.LCFI62
 1611 04a4 0200     		.2byte	0x2
 1612 04a6 7D       		.byte	0x7d
 1613 04a7 10       		.sleb128 16
 1614 04a8 06000000 		.4byte	.LCFI62
 1615 04ac 2C000000 		.4byte	.LFE23
 1616 04b0 0200     		.2byte	0x2
 1617 04b2 77       		.byte	0x77
 1618 04b3 10       		.sleb128 16
 1619 04b4 00000000 		.4byte	0x0
 1620 04b8 00000000 		.4byte	0x0
 1621              	.LLST24:
 1622 04bc 00000000 		.4byte	.LFB24
 1623 04c0 02000000 		.4byte	.LCFI63
 1624 04c4 0100     		.2byte	0x1
 1625 04c6 5D       		.byte	0x5d
 1626 04c7 02000000 		.4byte	.LCFI63
 1627 04cb 04000000 		.4byte	.LCFI64
 1628 04cf 0200     		.2byte	0x2
 1629 04d1 7D       		.byte	0x7d
 1630 04d2 04       		.sleb128 4
 1631 04d3 04000000 		.4byte	.LCFI64
 1632 04d7 06000000 		.4byte	.LCFI65
 1633 04db 0200     		.2byte	0x2
 1634 04dd 7D       		.byte	0x7d
 1635 04de 10       		.sleb128 16
 1636 04df 06000000 		.4byte	.LCFI65
 1637 04e3 36000000 		.4byte	.LFE24
 1638 04e7 0200     		.2byte	0x2
 1639 04e9 77       		.byte	0x77
 1640 04ea 10       		.sleb128 16
 1641 04eb 00000000 		.4byte	0x0
 1642 04ef 00000000 		.4byte	0x0
 1643              		.file 2 ".\\Generated_Source\\PSoC5\\/cytypes.h"
 1644              		.section	.debug_info
 1645 0000 2E040000 		.4byte	0x42e
 1646 0004 0200     		.2byte	0x2
 1647 0006 00000000 		.4byte	.Ldebug_abbrev0
 1648 000a 04       		.byte	0x4
 1649 000b 01       		.uleb128 0x1
 1650 000c 74000000 		.4byte	.LASF46
 1651 0010 01       		.byte	0x1
 1652 0011 E9000000 		.4byte	.LASF47
 1653 0015 A3010000 		.4byte	.LASF48
 1654 0019 00000000 		.4byte	0x0
 1655 001d 00000000 		.4byte	0x0
 1656 0021 00000000 		.4byte	.Ldebug_ranges0+0x0
 1657 0025 00000000 		.4byte	.Ldebug_line0
 1658 0029 02       		.uleb128 0x2
 1659 002a 01       		.byte	0x1
 1660 002b 06       		.byte	0x6
 1661 002c 01030000 		.4byte	.LASF0
ARM GAS  C:\Users\hoangp\AppData\Local\Temp\ccnWRgig.s 			page 52


 1662 0030 02       		.uleb128 0x2
 1663 0031 01       		.byte	0x1
 1664 0032 08       		.byte	0x8
 1665 0033 65010000 		.4byte	.LASF1
 1666 0037 02       		.uleb128 0x2
 1667 0038 02       		.byte	0x2
 1668 0039 05       		.byte	0x5
 1669 003a DA020000 		.4byte	.LASF2
 1670 003e 02       		.uleb128 0x2
 1671 003f 02       		.byte	0x2
 1672 0040 07       		.byte	0x7
 1673 0041 3E000000 		.4byte	.LASF3
 1674 0045 03       		.uleb128 0x3
 1675 0046 04       		.byte	0x4
 1676 0047 05       		.byte	0x5
 1677 0048 696E7400 		.ascii	"int\000"
 1678 004c 02       		.uleb128 0x2
 1679 004d 04       		.byte	0x4
 1680 004e 07       		.byte	0x7
 1681 004f FB010000 		.4byte	.LASF4
 1682 0053 02       		.uleb128 0x2
 1683 0054 08       		.byte	0x8
 1684 0055 05       		.byte	0x5
 1685 0056 00000000 		.4byte	.LASF5
 1686 005a 02       		.uleb128 0x2
 1687 005b 08       		.byte	0x8
 1688 005c 07       		.byte	0x7
 1689 005d 25020000 		.4byte	.LASF6
 1690 0061 02       		.uleb128 0x2
 1691 0062 04       		.byte	0x4
 1692 0063 05       		.byte	0x5
 1693 0064 EE020000 		.4byte	.LASF7
 1694 0068 04       		.uleb128 0x4
 1695 0069 04       		.byte	0x4
 1696 006a 07       		.byte	0x7
 1697 006b 02       		.uleb128 0x2
 1698 006c 04       		.byte	0x4
 1699 006d 07       		.byte	0x7
 1700 006e 0B010000 		.4byte	.LASF8
 1701 0072 02       		.uleb128 0x2
 1702 0073 01       		.byte	0x1
 1703 0074 08       		.byte	0x8
 1704 0075 C3020000 		.4byte	.LASF9
 1705 0079 05       		.uleb128 0x5
 1706 007a 1D010000 		.4byte	.LASF49
 1707 007e 02       		.byte	0x2
 1708 007f 4C       		.byte	0x4c
 1709 0080 30000000 		.4byte	0x30
 1710 0084 02       		.uleb128 0x2
 1711 0085 04       		.byte	0x4
 1712 0086 04       		.byte	0x4
 1713 0087 93000000 		.4byte	.LASF10
 1714 008b 02       		.uleb128 0x2
 1715 008c 08       		.byte	0x8
 1716 008d 04       		.byte	0x4
 1717 008e 73010000 		.4byte	.LASF11
 1718 0092 06       		.uleb128 0x6
ARM GAS  C:\Users\hoangp\AppData\Local\Temp\ccnWRgig.s 			page 53


 1719 0093 01       		.byte	0x1
 1720 0094 87000000 		.4byte	.LASF12
 1721 0098 01       		.byte	0x1
 1722 0099 44       		.byte	0x44
 1723 009a 01       		.byte	0x1
 1724 009b 00000000 		.4byte	.LFB0
 1725 009f 3C000000 		.4byte	.LFE0
 1726 00a3 00000000 		.4byte	.LLST0
 1727 00a7 07       		.uleb128 0x7
 1728 00a8 01       		.byte	0x1
 1729 00a9 30000000 		.4byte	.LASF14
 1730 00ad 01       		.byte	0x1
 1731 00ae 92       		.byte	0x92
 1732 00af 01       		.byte	0x1
 1733 00b0 00000000 		.4byte	.LFB1
 1734 00b4 78000000 		.4byte	.LFE1
 1735 00b8 2B000000 		.4byte	.LLST1
 1736 00bc CF000000 		.4byte	0xcf
 1737 00c0 08       		.uleb128 0x8
 1738 00c1 54010000 		.4byte	.LASF16
 1739 00c5 01       		.byte	0x1
 1740 00c6 94       		.byte	0x94
 1741 00c7 79000000 		.4byte	0x79
 1742 00cb 02       		.byte	0x2
 1743 00cc 91       		.byte	0x91
 1744 00cd 77       		.sleb128 -9
 1745 00ce 00       		.byte	0x0
 1746 00cf 06       		.uleb128 0x6
 1747 00d0 01       		.byte	0x1
 1748 00d1 23010000 		.4byte	.LASF13
 1749 00d5 01       		.byte	0x1
 1750 00d6 C0       		.byte	0xc0
 1751 00d7 01       		.byte	0x1
 1752 00d8 00000000 		.4byte	.LFB2
 1753 00dc 2A000000 		.4byte	.LFE2
 1754 00e0 62000000 		.4byte	.LLST2
 1755 00e4 07       		.uleb128 0x7
 1756 00e5 01       		.byte	0x1
 1757 00e6 19020000 		.4byte	.LASF15
 1758 00ea 01       		.byte	0x1
 1759 00eb DD       		.byte	0xdd
 1760 00ec 01       		.byte	0x1
 1761 00ed 00000000 		.4byte	.LFB3
 1762 00f1 58000000 		.4byte	.LFE3
 1763 00f5 8D000000 		.4byte	.LLST3
 1764 00f9 0C010000 		.4byte	0x10c
 1765 00fd 08       		.uleb128 0x8
 1766 00fe 54010000 		.4byte	.LASF16
 1767 0102 01       		.byte	0x1
 1768 0103 DF       		.byte	0xdf
 1769 0104 79000000 		.4byte	0x79
 1770 0108 02       		.byte	0x2
 1771 0109 91       		.byte	0x91
 1772 010a 77       		.sleb128 -9
 1773 010b 00       		.byte	0x0
 1774 010c 09       		.uleb128 0x9
 1775 010d 01       		.byte	0x1
ARM GAS  C:\Users\hoangp\AppData\Local\Temp\ccnWRgig.s 			page 54


 1776 010e 61000000 		.4byte	.LASF17
 1777 0112 01       		.byte	0x1
 1778 0113 0301     		.2byte	0x103
 1779 0115 01       		.byte	0x1
 1780 0116 00000000 		.4byte	.LFB4
 1781 011a 0A000000 		.4byte	.LFE4
 1782 011e C4000000 		.4byte	.LLST4
 1783 0122 09       		.uleb128 0x9
 1784 0123 01       		.byte	0x1
 1785 0124 90020000 		.4byte	.LASF18
 1786 0128 01       		.byte	0x1
 1787 0129 1C01     		.2byte	0x11c
 1788 012b 01       		.byte	0x1
 1789 012c 00000000 		.4byte	.LFB5
 1790 0130 0A000000 		.4byte	.LFE5
 1791 0134 EF000000 		.4byte	.LLST5
 1792 0138 09       		.uleb128 0x9
 1793 0139 01       		.byte	0x1
 1794 013a 0E000000 		.4byte	.LASF19
 1795 013e 01       		.byte	0x1
 1796 013f 3501     		.2byte	0x135
 1797 0141 01       		.byte	0x1
 1798 0142 00000000 		.4byte	.LFB6
 1799 0146 0A000000 		.4byte	.LFE6
 1800 014a 1A010000 		.4byte	.LLST6
 1801 014e 09       		.uleb128 0x9
 1802 014f 01       		.byte	0x1
 1803 0150 E7010000 		.4byte	.LASF20
 1804 0154 01       		.byte	0x1
 1805 0155 4E01     		.2byte	0x14e
 1806 0157 01       		.byte	0x1
 1807 0158 00000000 		.4byte	.LFB7
 1808 015c 0A000000 		.4byte	.LFE7
 1809 0160 45010000 		.4byte	.LLST7
 1810 0164 0A       		.uleb128 0xa
 1811 0165 01       		.byte	0x1
 1812 0166 99000000 		.4byte	.LASF21
 1813 016a 01       		.byte	0x1
 1814 016b 6801     		.2byte	0x168
 1815 016d 01       		.byte	0x1
 1816 016e 00000000 		.4byte	.LFB8
 1817 0172 20000000 		.4byte	.LFE8
 1818 0176 70010000 		.4byte	.LLST8
 1819 017a 8E010000 		.4byte	0x18e
 1820 017e 0B       		.uleb128 0xb
 1821 017f 0D030000 		.4byte	.LASF23
 1822 0183 01       		.byte	0x1
 1823 0184 6801     		.2byte	0x168
 1824 0186 79000000 		.4byte	0x79
 1825 018a 02       		.byte	0x2
 1826 018b 91       		.byte	0x91
 1827 018c 77       		.sleb128 -9
 1828 018d 00       		.byte	0x0
 1829 018e 0A       		.uleb128 0xa
 1830 018f 01       		.byte	0x1
 1831 0190 B3000000 		.4byte	.LASF22
 1832 0194 01       		.byte	0x1
ARM GAS  C:\Users\hoangp\AppData\Local\Temp\ccnWRgig.s 			page 55


 1833 0195 8001     		.2byte	0x180
 1834 0197 01       		.byte	0x1
 1835 0198 00000000 		.4byte	.LFB9
 1836 019c 20000000 		.4byte	.LFE9
 1837 01a0 A7010000 		.4byte	.LLST9
 1838 01a4 B8010000 		.4byte	0x1b8
 1839 01a8 0B       		.uleb128 0xb
 1840 01a9 0D030000 		.4byte	.LASF23
 1841 01ad 01       		.byte	0x1
 1842 01ae 8001     		.2byte	0x180
 1843 01b0 79000000 		.4byte	0x79
 1844 01b4 02       		.byte	0x2
 1845 01b5 91       		.byte	0x91
 1846 01b6 77       		.sleb128 -9
 1847 01b7 00       		.byte	0x0
 1848 01b8 0C       		.uleb128 0xc
 1849 01b9 01       		.byte	0x1
 1850 01ba 3C020000 		.4byte	.LASF25
 1851 01be 01       		.byte	0x1
 1852 01bf A201     		.2byte	0x1a2
 1853 01c1 01       		.byte	0x1
 1854 01c2 79000000 		.4byte	0x79
 1855 01c6 00000000 		.4byte	.LFB10
 1856 01ca 26000000 		.4byte	.LFE10
 1857 01ce DE010000 		.4byte	.LLST10
 1858 01d2 E6010000 		.4byte	0x1e6
 1859 01d6 0D       		.uleb128 0xd
 1860 01d7 F7020000 		.4byte	.LASF24
 1861 01db 01       		.byte	0x1
 1862 01dc A401     		.2byte	0x1a4
 1863 01de 79000000 		.4byte	0x79
 1864 01e2 02       		.byte	0x2
 1865 01e3 91       		.byte	0x91
 1866 01e4 77       		.sleb128 -9
 1867 01e5 00       		.byte	0x0
 1868 01e6 0C       		.uleb128 0xc
 1869 01e7 01       		.byte	0x1
 1870 01e8 27030000 		.4byte	.LASF26
 1871 01ec 01       		.byte	0x1
 1872 01ed D701     		.2byte	0x1d7
 1873 01ef 01       		.byte	0x1
 1874 01f0 79000000 		.4byte	0x79
 1875 01f4 00000000 		.4byte	.LFB11
 1876 01f8 26000000 		.4byte	.LFE11
 1877 01fc 15020000 		.4byte	.LLST11
 1878 0200 14020000 		.4byte	0x214
 1879 0204 0D       		.uleb128 0xd
 1880 0205 F7020000 		.4byte	.LASF24
 1881 0209 01       		.byte	0x1
 1882 020a D901     		.2byte	0x1d9
 1883 020c 79000000 		.4byte	0x79
 1884 0210 02       		.byte	0x2
 1885 0211 91       		.byte	0x91
 1886 0212 77       		.sleb128 -9
 1887 0213 00       		.byte	0x0
 1888 0214 0A       		.uleb128 0xa
 1889 0215 01       		.byte	0x1
ARM GAS  C:\Users\hoangp\AppData\Local\Temp\ccnWRgig.s 			page 56


 1890 0216 14030000 		.4byte	.LASF27
 1891 021a 01       		.byte	0x1
 1892 021b 1202     		.2byte	0x212
 1893 021d 01       		.byte	0x1
 1894 021e 00000000 		.4byte	.LFB12
 1895 0222 34000000 		.4byte	.LFE12
 1896 0226 4C020000 		.4byte	.LLST12
 1897 022a 3E020000 		.4byte	0x23e
 1898 022e 0B       		.uleb128 0xb
 1899 022f 29000000 		.4byte	.LASF28
 1900 0233 01       		.byte	0x1
 1901 0234 1202     		.2byte	0x212
 1902 0236 79000000 		.4byte	0x79
 1903 023a 02       		.byte	0x2
 1904 023b 91       		.byte	0x91
 1905 023c 77       		.sleb128 -9
 1906 023d 00       		.byte	0x0
 1907 023e 0A       		.uleb128 0xa
 1908 023f 01       		.byte	0x1
 1909 0240 D2000000 		.4byte	.LASF29
 1910 0244 01       		.byte	0x1
 1911 0245 6802     		.2byte	0x268
 1912 0247 01       		.byte	0x1
 1913 0248 00000000 		.4byte	.LFB13
 1914 024c 20000000 		.4byte	.LFE13
 1915 0250 83020000 		.4byte	.LLST13
 1916 0254 68020000 		.4byte	0x268
 1917 0258 0B       		.uleb128 0xb
 1918 0259 A3020000 		.4byte	.LASF30
 1919 025d 01       		.byte	0x1
 1920 025e 6802     		.2byte	0x268
 1921 0260 79000000 		.4byte	0x79
 1922 0264 02       		.byte	0x2
 1923 0265 91       		.byte	0x91
 1924 0266 77       		.sleb128 -9
 1925 0267 00       		.byte	0x0
 1926 0268 0C       		.uleb128 0xc
 1927 0269 01       		.byte	0x1
 1928 026a 3B030000 		.4byte	.LASF31
 1929 026e 01       		.byte	0x1
 1930 026f 9202     		.2byte	0x292
 1931 0271 01       		.byte	0x1
 1932 0272 79000000 		.4byte	0x79
 1933 0276 00000000 		.4byte	.LFB14
 1934 027a 26000000 		.4byte	.LFE14
 1935 027e BA020000 		.4byte	.LLST14
 1936 0282 96020000 		.4byte	0x296
 1937 0286 0D       		.uleb128 0xd
 1938 0287 80000000 		.4byte	.LASF32
 1939 028b 01       		.byte	0x1
 1940 028c 9402     		.2byte	0x294
 1941 028e 79000000 		.4byte	0x79
 1942 0292 02       		.byte	0x2
 1943 0293 91       		.byte	0x91
 1944 0294 77       		.sleb128 -9
 1945 0295 00       		.byte	0x0
 1946 0296 0C       		.uleb128 0xc
ARM GAS  C:\Users\hoangp\AppData\Local\Temp\ccnWRgig.s 			page 57


 1947 0297 01       		.byte	0x1
 1948 0298 79020000 		.4byte	.LASF33
 1949 029c 01       		.byte	0x1
 1950 029d D402     		.2byte	0x2d4
 1951 029f 01       		.byte	0x1
 1952 02a0 79000000 		.4byte	0x79
 1953 02a4 00000000 		.4byte	.LFB15
 1954 02a8 3A000000 		.4byte	.LFE15
 1955 02ac F1020000 		.4byte	.LLST15
 1956 02b0 C4020000 		.4byte	0x2c4
 1957 02b4 0D       		.uleb128 0xd
 1958 02b5 CD000000 		.4byte	.LASF34
 1959 02b9 01       		.byte	0x1
 1960 02ba D602     		.2byte	0x2d6
 1961 02bc 79000000 		.4byte	0x79
 1962 02c0 02       		.byte	0x2
 1963 02c1 91       		.byte	0x91
 1964 02c2 77       		.sleb128 -9
 1965 02c3 00       		.byte	0x0
 1966 02c4 0C       		.uleb128 0xc
 1967 02c5 01       		.byte	0x1
 1968 02c6 62020000 		.4byte	.LASF35
 1969 02ca 01       		.byte	0x1
 1970 02cb 1603     		.2byte	0x316
 1971 02cd 01       		.byte	0x1
 1972 02ce 79000000 		.4byte	0x79
 1973 02d2 00000000 		.4byte	.LFB16
 1974 02d6 50000000 		.4byte	.LFE16
 1975 02da 28030000 		.4byte	.LLST16
 1976 02de F2020000 		.4byte	0x2f2
 1977 02e2 0D       		.uleb128 0xd
 1978 02e3 CD000000 		.4byte	.LASF34
 1979 02e7 01       		.byte	0x1
 1980 02e8 1803     		.2byte	0x318
 1981 02ea 79000000 		.4byte	0x79
 1982 02ee 02       		.byte	0x2
 1983 02ef 91       		.byte	0x91
 1984 02f0 77       		.sleb128 -9
 1985 02f1 00       		.byte	0x0
 1986 02f2 09       		.uleb128 0x9
 1987 02f3 01       		.byte	0x1
 1988 02f4 AE020000 		.4byte	.LASF36
 1989 02f8 01       		.byte	0x1
 1990 02f9 6803     		.2byte	0x368
 1991 02fb 01       		.byte	0x1
 1992 02fc 00000000 		.4byte	.LFB17
 1993 0300 2A000000 		.4byte	.LFE17
 1994 0304 5F030000 		.4byte	.LLST17
 1995 0308 0A       		.uleb128 0xa
 1996 0309 01       		.byte	0x1
 1997 030a 30010000 		.4byte	.LASF37
 1998 030e 01       		.byte	0x1
 1999 030f A103     		.2byte	0x3a1
 2000 0311 01       		.byte	0x1
 2001 0312 00000000 		.4byte	.LFB18
 2002 0316 5A000000 		.4byte	.LFE18
 2003 031a 8A030000 		.4byte	.LLST18
ARM GAS  C:\Users\hoangp\AppData\Local\Temp\ccnWRgig.s 			page 58


 2004 031e 32030000 		.4byte	0x332
 2005 0322 0D       		.uleb128 0xd
 2006 0323 54010000 		.4byte	.LASF16
 2007 0327 01       		.byte	0x1
 2008 0328 A303     		.2byte	0x3a3
 2009 032a 79000000 		.4byte	0x79
 2010 032e 02       		.byte	0x2
 2011 032f 91       		.byte	0x91
 2012 0330 77       		.sleb128 -9
 2013 0331 00       		.byte	0x0
 2014 0332 0A       		.uleb128 0xa
 2015 0333 01       		.byte	0x1
 2016 0334 51000000 		.4byte	.LASF38
 2017 0338 01       		.byte	0x1
 2018 0339 1404     		.2byte	0x414
 2019 033b 01       		.byte	0x1
 2020 033c 00000000 		.4byte	.LFB19
 2021 0340 36000000 		.4byte	.LFE19
 2022 0344 C1030000 		.4byte	.LLST19
 2023 0348 6B030000 		.4byte	0x36b
 2024 034c 0B       		.uleb128 0xb
 2025 034d 22000000 		.4byte	.LASF39
 2026 0351 01       		.byte	0x1
 2027 0352 1404     		.2byte	0x414
 2028 0354 6B030000 		.4byte	0x36b
 2029 0358 02       		.byte	0x2
 2030 0359 91       		.byte	0x91
 2031 035a 74       		.sleb128 -12
 2032 035b 0B       		.uleb128 0xb
 2033 035c E4020000 		.4byte	.LASF40
 2034 0360 01       		.byte	0x1
 2035 0361 1404     		.2byte	0x414
 2036 0363 79000000 		.4byte	0x79
 2037 0367 02       		.byte	0x2
 2038 0368 91       		.byte	0x91
 2039 0369 73       		.sleb128 -13
 2040 036a 00       		.byte	0x0
 2041 036b 0E       		.uleb128 0xe
 2042 036c 04       		.byte	0x4
 2043 036d 79000000 		.4byte	0x79
 2044 0371 0A       		.uleb128 0xa
 2045 0372 01       		.byte	0x1
 2046 0373 08020000 		.4byte	.LASF41
 2047 0377 01       		.byte	0x1
 2048 0378 2F04     		.2byte	0x42f
 2049 037a 01       		.byte	0x1
 2050 037b 00000000 		.4byte	.LFB20
 2051 037f 7A000000 		.4byte	.LFE20
 2052 0383 F8030000 		.4byte	.LLST20
 2053 0387 9B030000 		.4byte	0x39b
 2054 038b 0D       		.uleb128 0xd
 2055 038c 54010000 		.4byte	.LASF16
 2056 0390 01       		.byte	0x1
 2057 0391 3104     		.2byte	0x431
 2058 0393 79000000 		.4byte	0x79
 2059 0397 02       		.byte	0x2
 2060 0398 91       		.byte	0x91
ARM GAS  C:\Users\hoangp\AppData\Local\Temp\ccnWRgig.s 			page 59


 2061 0399 77       		.sleb128 -9
 2062 039a 00       		.byte	0x0
 2063 039b 09       		.uleb128 0x9
 2064 039c 01       		.byte	0x1
 2065 039d 92010000 		.4byte	.LASF42
 2066 03a1 01       		.byte	0x1
 2067 03a2 6304     		.2byte	0x463
 2068 03a4 01       		.byte	0x1
 2069 03a5 00000000 		.4byte	.LFB21
 2070 03a9 0A000000 		.4byte	.LFE21
 2071 03ad 2F040000 		.4byte	.LLST21
 2072 03b1 09       		.uleb128 0x9
 2073 03b2 01       		.byte	0x1
 2074 03b3 50020000 		.4byte	.LASF43
 2075 03b7 01       		.byte	0x1
 2076 03b8 8004     		.2byte	0x480
 2077 03ba 01       		.byte	0x1
 2078 03bb 00000000 		.4byte	.LFB22
 2079 03bf 0A000000 		.4byte	.LFE22
 2080 03c3 5A040000 		.4byte	.LLST22
 2081 03c7 0A       		.uleb128 0xa
 2082 03c8 01       		.byte	0x1
 2083 03c9 7A010000 		.4byte	.LASF44
 2084 03cd 01       		.byte	0x1
 2085 03ce 9E04     		.2byte	0x49e
 2086 03d0 01       		.byte	0x1
 2087 03d1 00000000 		.4byte	.LFB23
 2088 03d5 2C000000 		.4byte	.LFE23
 2089 03d9 85040000 		.4byte	.LLST23
 2090 03dd F1030000 		.4byte	0x3f1
 2091 03e1 0B       		.uleb128 0xb
 2092 03e2 0D030000 		.4byte	.LASF23
 2093 03e6 01       		.byte	0x1
 2094 03e7 9E04     		.2byte	0x49e
 2095 03e9 79000000 		.4byte	0x79
 2096 03ed 02       		.byte	0x2
 2097 03ee 91       		.byte	0x91
 2098 03ef 77       		.sleb128 -9
 2099 03f0 00       		.byte	0x0
 2100 03f1 0C       		.uleb128 0xc
 2101 03f2 01       		.byte	0x1
 2102 03f3 C8020000 		.4byte	.LASF45
 2103 03f7 01       		.byte	0x1
 2104 03f8 C104     		.2byte	0x4c1
 2105 03fa 01       		.byte	0x1
 2106 03fb 79000000 		.4byte	0x79
 2107 03ff 00000000 		.4byte	.LFB24
 2108 0403 36000000 		.4byte	.LFE24
 2109 0407 BC040000 		.4byte	.LLST24
 2110 040b 1F040000 		.4byte	0x41f
 2111 040f 0D       		.uleb128 0xd
 2112 0410 F7020000 		.4byte	.LASF24
 2113 0414 01       		.byte	0x1
 2114 0415 C304     		.2byte	0x4c3
 2115 0417 79000000 		.4byte	0x79
 2116 041b 02       		.byte	0x2
 2117 041c 91       		.byte	0x91
ARM GAS  C:\Users\hoangp\AppData\Local\Temp\ccnWRgig.s 			page 60


 2118 041d 77       		.sleb128 -9
 2119 041e 00       		.byte	0x0
 2120 041f 0F       		.uleb128 0xf
 2121 0420 45010000 		.4byte	.LASF50
 2122 0424 01       		.byte	0x1
 2123 0425 27       		.byte	0x27
 2124 0426 79000000 		.4byte	0x79
 2125 042a 01       		.byte	0x1
 2126 042b 05       		.byte	0x5
 2127 042c 03       		.byte	0x3
 2128 042d 00000000 		.4byte	SPIS_1_initVar
 2129 0431 00       		.byte	0x0
 2130              		.section	.debug_abbrev
 2131 0000 01       		.uleb128 0x1
 2132 0001 11       		.uleb128 0x11
 2133 0002 01       		.byte	0x1
 2134 0003 25       		.uleb128 0x25
 2135 0004 0E       		.uleb128 0xe
 2136 0005 13       		.uleb128 0x13
 2137 0006 0B       		.uleb128 0xb
 2138 0007 03       		.uleb128 0x3
 2139 0008 0E       		.uleb128 0xe
 2140 0009 1B       		.uleb128 0x1b
 2141 000a 0E       		.uleb128 0xe
 2142 000b 11       		.uleb128 0x11
 2143 000c 01       		.uleb128 0x1
 2144 000d 52       		.uleb128 0x52
 2145 000e 01       		.uleb128 0x1
 2146 000f 55       		.uleb128 0x55
 2147 0010 06       		.uleb128 0x6
 2148 0011 10       		.uleb128 0x10
 2149 0012 06       		.uleb128 0x6
 2150 0013 00       		.byte	0x0
 2151 0014 00       		.byte	0x0
 2152 0015 02       		.uleb128 0x2
 2153 0016 24       		.uleb128 0x24
 2154 0017 00       		.byte	0x0
 2155 0018 0B       		.uleb128 0xb
 2156 0019 0B       		.uleb128 0xb
 2157 001a 3E       		.uleb128 0x3e
 2158 001b 0B       		.uleb128 0xb
 2159 001c 03       		.uleb128 0x3
 2160 001d 0E       		.uleb128 0xe
 2161 001e 00       		.byte	0x0
 2162 001f 00       		.byte	0x0
 2163 0020 03       		.uleb128 0x3
 2164 0021 24       		.uleb128 0x24
 2165 0022 00       		.byte	0x0
 2166 0023 0B       		.uleb128 0xb
 2167 0024 0B       		.uleb128 0xb
 2168 0025 3E       		.uleb128 0x3e
 2169 0026 0B       		.uleb128 0xb
 2170 0027 03       		.uleb128 0x3
 2171 0028 08       		.uleb128 0x8
 2172 0029 00       		.byte	0x0
 2173 002a 00       		.byte	0x0
 2174 002b 04       		.uleb128 0x4
ARM GAS  C:\Users\hoangp\AppData\Local\Temp\ccnWRgig.s 			page 61


 2175 002c 24       		.uleb128 0x24
 2176 002d 00       		.byte	0x0
 2177 002e 0B       		.uleb128 0xb
 2178 002f 0B       		.uleb128 0xb
 2179 0030 3E       		.uleb128 0x3e
 2180 0031 0B       		.uleb128 0xb
 2181 0032 00       		.byte	0x0
 2182 0033 00       		.byte	0x0
 2183 0034 05       		.uleb128 0x5
 2184 0035 16       		.uleb128 0x16
 2185 0036 00       		.byte	0x0
 2186 0037 03       		.uleb128 0x3
 2187 0038 0E       		.uleb128 0xe
 2188 0039 3A       		.uleb128 0x3a
 2189 003a 0B       		.uleb128 0xb
 2190 003b 3B       		.uleb128 0x3b
 2191 003c 0B       		.uleb128 0xb
 2192 003d 49       		.uleb128 0x49
 2193 003e 13       		.uleb128 0x13
 2194 003f 00       		.byte	0x0
 2195 0040 00       		.byte	0x0
 2196 0041 06       		.uleb128 0x6
 2197 0042 2E       		.uleb128 0x2e
 2198 0043 00       		.byte	0x0
 2199 0044 3F       		.uleb128 0x3f
 2200 0045 0C       		.uleb128 0xc
 2201 0046 03       		.uleb128 0x3
 2202 0047 0E       		.uleb128 0xe
 2203 0048 3A       		.uleb128 0x3a
 2204 0049 0B       		.uleb128 0xb
 2205 004a 3B       		.uleb128 0x3b
 2206 004b 0B       		.uleb128 0xb
 2207 004c 27       		.uleb128 0x27
 2208 004d 0C       		.uleb128 0xc
 2209 004e 11       		.uleb128 0x11
 2210 004f 01       		.uleb128 0x1
 2211 0050 12       		.uleb128 0x12
 2212 0051 01       		.uleb128 0x1
 2213 0052 40       		.uleb128 0x40
 2214 0053 06       		.uleb128 0x6
 2215 0054 00       		.byte	0x0
 2216 0055 00       		.byte	0x0
 2217 0056 07       		.uleb128 0x7
 2218 0057 2E       		.uleb128 0x2e
 2219 0058 01       		.byte	0x1
 2220 0059 3F       		.uleb128 0x3f
 2221 005a 0C       		.uleb128 0xc
 2222 005b 03       		.uleb128 0x3
 2223 005c 0E       		.uleb128 0xe
 2224 005d 3A       		.uleb128 0x3a
 2225 005e 0B       		.uleb128 0xb
 2226 005f 3B       		.uleb128 0x3b
 2227 0060 0B       		.uleb128 0xb
 2228 0061 27       		.uleb128 0x27
 2229 0062 0C       		.uleb128 0xc
 2230 0063 11       		.uleb128 0x11
 2231 0064 01       		.uleb128 0x1
ARM GAS  C:\Users\hoangp\AppData\Local\Temp\ccnWRgig.s 			page 62


 2232 0065 12       		.uleb128 0x12
 2233 0066 01       		.uleb128 0x1
 2234 0067 40       		.uleb128 0x40
 2235 0068 06       		.uleb128 0x6
 2236 0069 01       		.uleb128 0x1
 2237 006a 13       		.uleb128 0x13
 2238 006b 00       		.byte	0x0
 2239 006c 00       		.byte	0x0
 2240 006d 08       		.uleb128 0x8
 2241 006e 34       		.uleb128 0x34
 2242 006f 00       		.byte	0x0
 2243 0070 03       		.uleb128 0x3
 2244 0071 0E       		.uleb128 0xe
 2245 0072 3A       		.uleb128 0x3a
 2246 0073 0B       		.uleb128 0xb
 2247 0074 3B       		.uleb128 0x3b
 2248 0075 0B       		.uleb128 0xb
 2249 0076 49       		.uleb128 0x49
 2250 0077 13       		.uleb128 0x13
 2251 0078 02       		.uleb128 0x2
 2252 0079 0A       		.uleb128 0xa
 2253 007a 00       		.byte	0x0
 2254 007b 00       		.byte	0x0
 2255 007c 09       		.uleb128 0x9
 2256 007d 2E       		.uleb128 0x2e
 2257 007e 00       		.byte	0x0
 2258 007f 3F       		.uleb128 0x3f
 2259 0080 0C       		.uleb128 0xc
 2260 0081 03       		.uleb128 0x3
 2261 0082 0E       		.uleb128 0xe
 2262 0083 3A       		.uleb128 0x3a
 2263 0084 0B       		.uleb128 0xb
 2264 0085 3B       		.uleb128 0x3b
 2265 0086 05       		.uleb128 0x5
 2266 0087 27       		.uleb128 0x27
 2267 0088 0C       		.uleb128 0xc
 2268 0089 11       		.uleb128 0x11
 2269 008a 01       		.uleb128 0x1
 2270 008b 12       		.uleb128 0x12
 2271 008c 01       		.uleb128 0x1
 2272 008d 40       		.uleb128 0x40
 2273 008e 06       		.uleb128 0x6
 2274 008f 00       		.byte	0x0
 2275 0090 00       		.byte	0x0
 2276 0091 0A       		.uleb128 0xa
 2277 0092 2E       		.uleb128 0x2e
 2278 0093 01       		.byte	0x1
 2279 0094 3F       		.uleb128 0x3f
 2280 0095 0C       		.uleb128 0xc
 2281 0096 03       		.uleb128 0x3
 2282 0097 0E       		.uleb128 0xe
 2283 0098 3A       		.uleb128 0x3a
 2284 0099 0B       		.uleb128 0xb
 2285 009a 3B       		.uleb128 0x3b
 2286 009b 05       		.uleb128 0x5
 2287 009c 27       		.uleb128 0x27
 2288 009d 0C       		.uleb128 0xc
ARM GAS  C:\Users\hoangp\AppData\Local\Temp\ccnWRgig.s 			page 63


 2289 009e 11       		.uleb128 0x11
 2290 009f 01       		.uleb128 0x1
 2291 00a0 12       		.uleb128 0x12
 2292 00a1 01       		.uleb128 0x1
 2293 00a2 40       		.uleb128 0x40
 2294 00a3 06       		.uleb128 0x6
 2295 00a4 01       		.uleb128 0x1
 2296 00a5 13       		.uleb128 0x13
 2297 00a6 00       		.byte	0x0
 2298 00a7 00       		.byte	0x0
 2299 00a8 0B       		.uleb128 0xb
 2300 00a9 05       		.uleb128 0x5
 2301 00aa 00       		.byte	0x0
 2302 00ab 03       		.uleb128 0x3
 2303 00ac 0E       		.uleb128 0xe
 2304 00ad 3A       		.uleb128 0x3a
 2305 00ae 0B       		.uleb128 0xb
 2306 00af 3B       		.uleb128 0x3b
 2307 00b0 05       		.uleb128 0x5
 2308 00b1 49       		.uleb128 0x49
 2309 00b2 13       		.uleb128 0x13
 2310 00b3 02       		.uleb128 0x2
 2311 00b4 0A       		.uleb128 0xa
 2312 00b5 00       		.byte	0x0
 2313 00b6 00       		.byte	0x0
 2314 00b7 0C       		.uleb128 0xc
 2315 00b8 2E       		.uleb128 0x2e
 2316 00b9 01       		.byte	0x1
 2317 00ba 3F       		.uleb128 0x3f
 2318 00bb 0C       		.uleb128 0xc
 2319 00bc 03       		.uleb128 0x3
 2320 00bd 0E       		.uleb128 0xe
 2321 00be 3A       		.uleb128 0x3a
 2322 00bf 0B       		.uleb128 0xb
 2323 00c0 3B       		.uleb128 0x3b
 2324 00c1 05       		.uleb128 0x5
 2325 00c2 27       		.uleb128 0x27
 2326 00c3 0C       		.uleb128 0xc
 2327 00c4 49       		.uleb128 0x49
 2328 00c5 13       		.uleb128 0x13
 2329 00c6 11       		.uleb128 0x11
 2330 00c7 01       		.uleb128 0x1
 2331 00c8 12       		.uleb128 0x12
 2332 00c9 01       		.uleb128 0x1
 2333 00ca 40       		.uleb128 0x40
 2334 00cb 06       		.uleb128 0x6
 2335 00cc 01       		.uleb128 0x1
 2336 00cd 13       		.uleb128 0x13
 2337 00ce 00       		.byte	0x0
 2338 00cf 00       		.byte	0x0
 2339 00d0 0D       		.uleb128 0xd
 2340 00d1 34       		.uleb128 0x34
 2341 00d2 00       		.byte	0x0
 2342 00d3 03       		.uleb128 0x3
 2343 00d4 0E       		.uleb128 0xe
 2344 00d5 3A       		.uleb128 0x3a
 2345 00d6 0B       		.uleb128 0xb
ARM GAS  C:\Users\hoangp\AppData\Local\Temp\ccnWRgig.s 			page 64


 2346 00d7 3B       		.uleb128 0x3b
 2347 00d8 05       		.uleb128 0x5
 2348 00d9 49       		.uleb128 0x49
 2349 00da 13       		.uleb128 0x13
 2350 00db 02       		.uleb128 0x2
 2351 00dc 0A       		.uleb128 0xa
 2352 00dd 00       		.byte	0x0
 2353 00de 00       		.byte	0x0
 2354 00df 0E       		.uleb128 0xe
 2355 00e0 0F       		.uleb128 0xf
 2356 00e1 00       		.byte	0x0
 2357 00e2 0B       		.uleb128 0xb
 2358 00e3 0B       		.uleb128 0xb
 2359 00e4 49       		.uleb128 0x49
 2360 00e5 13       		.uleb128 0x13
 2361 00e6 00       		.byte	0x0
 2362 00e7 00       		.byte	0x0
 2363 00e8 0F       		.uleb128 0xf
 2364 00e9 34       		.uleb128 0x34
 2365 00ea 00       		.byte	0x0
 2366 00eb 03       		.uleb128 0x3
 2367 00ec 0E       		.uleb128 0xe
 2368 00ed 3A       		.uleb128 0x3a
 2369 00ee 0B       		.uleb128 0xb
 2370 00ef 3B       		.uleb128 0x3b
 2371 00f0 0B       		.uleb128 0xb
 2372 00f1 49       		.uleb128 0x49
 2373 00f2 13       		.uleb128 0x13
 2374 00f3 3F       		.uleb128 0x3f
 2375 00f4 0C       		.uleb128 0xc
 2376 00f5 02       		.uleb128 0x2
 2377 00f6 0A       		.uleb128 0xa
 2378 00f7 00       		.byte	0x0
 2379 00f8 00       		.byte	0x0
 2380 00f9 00       		.byte	0x0
 2381              		.section	.debug_pubnames,"",%progbits
 2382 0000 64020000 		.4byte	0x264
 2383 0004 0200     		.2byte	0x2
 2384 0006 00000000 		.4byte	.Ldebug_info0
 2385 000a 32040000 		.4byte	0x432
 2386 000e 92000000 		.4byte	0x92
 2387 0012 53504953 		.ascii	"SPIS_1_Init\000"
 2387      5F315F49 
 2387      6E697400 
 2388 001e A7000000 		.4byte	0xa7
 2389 0022 53504953 		.ascii	"SPIS_1_Enable\000"
 2389      5F315F45 
 2389      6E61626C 
 2389      6500
 2390 0030 CF000000 		.4byte	0xcf
 2391 0034 53504953 		.ascii	"SPIS_1_Start\000"
 2391      5F315F53 
 2391      74617274 
 2391      00
 2392 0041 E4000000 		.4byte	0xe4
 2393 0045 53504953 		.ascii	"SPIS_1_Stop\000"
 2393      5F315F53 
ARM GAS  C:\Users\hoangp\AppData\Local\Temp\ccnWRgig.s 			page 65


 2393      746F7000 
 2394 0051 0C010000 		.4byte	0x10c
 2395 0055 53504953 		.ascii	"SPIS_1_EnableTxInt\000"
 2395      5F315F45 
 2395      6E61626C 
 2395      65547849 
 2395      6E7400
 2396 0068 22010000 		.4byte	0x122
 2397 006c 53504953 		.ascii	"SPIS_1_EnableRxInt\000"
 2397      5F315F45 
 2397      6E61626C 
 2397      65527849 
 2397      6E7400
 2398 007f 38010000 		.4byte	0x138
 2399 0083 53504953 		.ascii	"SPIS_1_DisableTxInt\000"
 2399      5F315F44 
 2399      69736162 
 2399      6C655478 
 2399      496E7400 
 2400 0097 4E010000 		.4byte	0x14e
 2401 009b 53504953 		.ascii	"SPIS_1_DisableRxInt\000"
 2401      5F315F44 
 2401      69736162 
 2401      6C655278 
 2401      496E7400 
 2402 00af 64010000 		.4byte	0x164
 2403 00b3 53504953 		.ascii	"SPIS_1_SetTxInterruptMode\000"
 2403      5F315F53 
 2403      65745478 
 2403      496E7465 
 2403      72727570 
 2404 00cd 8E010000 		.4byte	0x18e
 2405 00d1 53504953 		.ascii	"SPIS_1_SetRxInterruptMode\000"
 2405      5F315F53 
 2405      65745278 
 2405      496E7465 
 2405      72727570 
 2406 00eb B8010000 		.4byte	0x1b8
 2407 00ef 53504953 		.ascii	"SPIS_1_ReadTxStatus\000"
 2407      5F315F52 
 2407      65616454 
 2407      78537461 
 2407      74757300 
 2408 0103 E6010000 		.4byte	0x1e6
 2409 0107 53504953 		.ascii	"SPIS_1_ReadRxStatus\000"
 2409      5F315F52 
 2409      65616452 
 2409      78537461 
 2409      74757300 
 2410 011b 14020000 		.4byte	0x214
 2411 011f 53504953 		.ascii	"SPIS_1_WriteTxData\000"
 2411      5F315F57 
 2411      72697465 
 2411      54784461 
 2411      746100
 2412 0132 3E020000 		.4byte	0x23e
 2413 0136 53504953 		.ascii	"SPIS_1_WriteTxDataZero\000"
ARM GAS  C:\Users\hoangp\AppData\Local\Temp\ccnWRgig.s 			page 66


 2413      5F315F57 
 2413      72697465 
 2413      54784461 
 2413      74615A65 
 2414 014d 68020000 		.4byte	0x268
 2415 0151 53504953 		.ascii	"SPIS_1_ReadRxData\000"
 2415      5F315F52 
 2415      65616452 
 2415      78446174 
 2415      6100
 2416 0163 96020000 		.4byte	0x296
 2417 0167 53504953 		.ascii	"SPIS_1_GetRxBufferSize\000"
 2417      5F315F47 
 2417      65745278 
 2417      42756666 
 2417      65725369 
 2418 017e C4020000 		.4byte	0x2c4
 2419 0182 53504953 		.ascii	"SPIS_1_GetTxBufferSize\000"
 2419      5F315F47 
 2419      65745478 
 2419      42756666 
 2419      65725369 
 2420 0199 F2020000 		.4byte	0x2f2
 2421 019d 53504953 		.ascii	"SPIS_1_ClearRxBuffer\000"
 2421      5F315F43 
 2421      6C656172 
 2421      52784275 
 2421      66666572 
 2422 01b2 08030000 		.4byte	0x308
 2423 01b6 53504953 		.ascii	"SPIS_1_ClearTxBuffer\000"
 2423      5F315F43 
 2423      6C656172 
 2423      54784275 
 2423      66666572 
 2424 01cb 32030000 		.4byte	0x332
 2425 01cf 53504953 		.ascii	"SPIS_1_PutArray\000"
 2425      5F315F50 
 2425      75744172 
 2425      72617900 
 2426 01df 71030000 		.4byte	0x371
 2427 01e3 53504953 		.ascii	"SPIS_1_ClearFIFO\000"
 2427      5F315F43 
 2427      6C656172 
 2427      4649464F 
 2427      00
 2428 01f4 9B030000 		.4byte	0x39b
 2429 01f8 53504953 		.ascii	"SPIS_1_EnableInt\000"
 2429      5F315F45 
 2429      6E61626C 
 2429      65496E74 
 2429      00
 2430 0209 B1030000 		.4byte	0x3b1
 2431 020d 53504953 		.ascii	"SPIS_1_DisableInt\000"
 2431      5F315F44 
 2431      69736162 
 2431      6C65496E 
 2431      7400
ARM GAS  C:\Users\hoangp\AppData\Local\Temp\ccnWRgig.s 			page 67


 2432 021f C7030000 		.4byte	0x3c7
 2433 0223 53504953 		.ascii	"SPIS_1_SetInterruptMode\000"
 2433      5F315F53 
 2433      6574496E 
 2433      74657272 
 2433      7570744D 
 2434 023b F1030000 		.4byte	0x3f1
 2435 023f 53504953 		.ascii	"SPIS_1_ReadStatus\000"
 2435      5F315F52 
 2435      65616453 
 2435      74617475 
 2435      7300
 2436 0251 1F040000 		.4byte	0x41f
 2437 0255 53504953 		.ascii	"SPIS_1_initVar\000"
 2437      5F315F69 
 2437      6E697456 
 2437      617200
 2438 0264 00000000 		.4byte	0x0
 2439              		.section	.debug_aranges,"",%progbits
 2440 0000 DC000000 		.4byte	0xdc
 2441 0004 0200     		.2byte	0x2
 2442 0006 00000000 		.4byte	.Ldebug_info0
 2443 000a 04       		.byte	0x4
 2444 000b 00       		.byte	0x0
 2445 000c 0000     		.2byte	0x0
 2446 000e 0000     		.2byte	0x0
 2447 0010 00000000 		.4byte	.LFB0
 2448 0014 3C000000 		.4byte	.LFE0-.LFB0
 2449 0018 00000000 		.4byte	.LFB1
 2450 001c 78000000 		.4byte	.LFE1-.LFB1
 2451 0020 00000000 		.4byte	.LFB2
 2452 0024 2A000000 		.4byte	.LFE2-.LFB2
 2453 0028 00000000 		.4byte	.LFB3
 2454 002c 58000000 		.4byte	.LFE3-.LFB3
 2455 0030 00000000 		.4byte	.LFB4
 2456 0034 0A000000 		.4byte	.LFE4-.LFB4
 2457 0038 00000000 		.4byte	.LFB5
 2458 003c 0A000000 		.4byte	.LFE5-.LFB5
 2459 0040 00000000 		.4byte	.LFB6
 2460 0044 0A000000 		.4byte	.LFE6-.LFB6
 2461 0048 00000000 		.4byte	.LFB7
 2462 004c 0A000000 		.4byte	.LFE7-.LFB7
 2463 0050 00000000 		.4byte	.LFB8
 2464 0054 20000000 		.4byte	.LFE8-.LFB8
 2465 0058 00000000 		.4byte	.LFB9
 2466 005c 20000000 		.4byte	.LFE9-.LFB9
 2467 0060 00000000 		.4byte	.LFB10
 2468 0064 26000000 		.4byte	.LFE10-.LFB10
 2469 0068 00000000 		.4byte	.LFB11
 2470 006c 26000000 		.4byte	.LFE11-.LFB11
 2471 0070 00000000 		.4byte	.LFB12
 2472 0074 34000000 		.4byte	.LFE12-.LFB12
 2473 0078 00000000 		.4byte	.LFB13
 2474 007c 20000000 		.4byte	.LFE13-.LFB13
 2475 0080 00000000 		.4byte	.LFB14
 2476 0084 26000000 		.4byte	.LFE14-.LFB14
 2477 0088 00000000 		.4byte	.LFB15
ARM GAS  C:\Users\hoangp\AppData\Local\Temp\ccnWRgig.s 			page 68


 2478 008c 3A000000 		.4byte	.LFE15-.LFB15
 2479 0090 00000000 		.4byte	.LFB16
 2480 0094 50000000 		.4byte	.LFE16-.LFB16
 2481 0098 00000000 		.4byte	.LFB17
 2482 009c 2A000000 		.4byte	.LFE17-.LFB17
 2483 00a0 00000000 		.4byte	.LFB18
 2484 00a4 5A000000 		.4byte	.LFE18-.LFB18
 2485 00a8 00000000 		.4byte	.LFB19
 2486 00ac 36000000 		.4byte	.LFE19-.LFB19
 2487 00b0 00000000 		.4byte	.LFB20
 2488 00b4 7A000000 		.4byte	.LFE20-.LFB20
 2489 00b8 00000000 		.4byte	.LFB21
 2490 00bc 0A000000 		.4byte	.LFE21-.LFB21
 2491 00c0 00000000 		.4byte	.LFB22
 2492 00c4 0A000000 		.4byte	.LFE22-.LFB22
 2493 00c8 00000000 		.4byte	.LFB23
 2494 00cc 2C000000 		.4byte	.LFE23-.LFB23
 2495 00d0 00000000 		.4byte	.LFB24
 2496 00d4 36000000 		.4byte	.LFE24-.LFB24
 2497 00d8 00000000 		.4byte	0x0
 2498 00dc 00000000 		.4byte	0x0
 2499              		.section	.debug_ranges,"",%progbits
 2500              	.Ldebug_ranges0:
 2501 0000 00000000 		.4byte	.Ltext0
 2502 0004 00000000 		.4byte	.Letext0
 2503 0008 00000000 		.4byte	.LFB0
 2504 000c 3C000000 		.4byte	.LFE0
 2505 0010 00000000 		.4byte	.LFB1
 2506 0014 78000000 		.4byte	.LFE1
 2507 0018 00000000 		.4byte	.LFB2
 2508 001c 2A000000 		.4byte	.LFE2
 2509 0020 00000000 		.4byte	.LFB3
 2510 0024 58000000 		.4byte	.LFE3
 2511 0028 00000000 		.4byte	.LFB4
 2512 002c 0A000000 		.4byte	.LFE4
 2513 0030 00000000 		.4byte	.LFB5
 2514 0034 0A000000 		.4byte	.LFE5
 2515 0038 00000000 		.4byte	.LFB6
 2516 003c 0A000000 		.4byte	.LFE6
 2517 0040 00000000 		.4byte	.LFB7
 2518 0044 0A000000 		.4byte	.LFE7
 2519 0048 00000000 		.4byte	.LFB8
 2520 004c 20000000 		.4byte	.LFE8
 2521 0050 00000000 		.4byte	.LFB9
 2522 0054 20000000 		.4byte	.LFE9
 2523 0058 00000000 		.4byte	.LFB10
 2524 005c 26000000 		.4byte	.LFE10
 2525 0060 00000000 		.4byte	.LFB11
 2526 0064 26000000 		.4byte	.LFE11
 2527 0068 00000000 		.4byte	.LFB12
 2528 006c 34000000 		.4byte	.LFE12
 2529 0070 00000000 		.4byte	.LFB13
 2530 0074 20000000 		.4byte	.LFE13
 2531 0078 00000000 		.4byte	.LFB14
 2532 007c 26000000 		.4byte	.LFE14
 2533 0080 00000000 		.4byte	.LFB15
 2534 0084 3A000000 		.4byte	.LFE15
ARM GAS  C:\Users\hoangp\AppData\Local\Temp\ccnWRgig.s 			page 69


 2535 0088 00000000 		.4byte	.LFB16
 2536 008c 50000000 		.4byte	.LFE16
 2537 0090 00000000 		.4byte	.LFB17
 2538 0094 2A000000 		.4byte	.LFE17
 2539 0098 00000000 		.4byte	.LFB18
 2540 009c 5A000000 		.4byte	.LFE18
 2541 00a0 00000000 		.4byte	.LFB19
 2542 00a4 36000000 		.4byte	.LFE19
 2543 00a8 00000000 		.4byte	.LFB20
 2544 00ac 7A000000 		.4byte	.LFE20
 2545 00b0 00000000 		.4byte	.LFB21
 2546 00b4 0A000000 		.4byte	.LFE21
 2547 00b8 00000000 		.4byte	.LFB22
 2548 00bc 0A000000 		.4byte	.LFE22
 2549 00c0 00000000 		.4byte	.LFB23
 2550 00c4 2C000000 		.4byte	.LFE23
 2551 00c8 00000000 		.4byte	.LFB24
 2552 00cc 36000000 		.4byte	.LFE24
 2553 00d0 00000000 		.4byte	0x0
 2554 00d4 00000000 		.4byte	0x0
 2555              		.section	.debug_str,"MS",%progbits,1
 2556              	.LASF5:
 2557 0000 6C6F6E67 		.ascii	"long long int\000"
 2557      206C6F6E 
 2557      6720696E 
 2557      7400
 2558              	.LASF19:
 2559 000e 53504953 		.ascii	"SPIS_1_DisableTxInt\000"
 2559      5F315F44 
 2559      69736162 
 2559      6C655478 
 2559      496E7400 
 2560              	.LASF39:
 2561 0022 62756666 		.ascii	"buffer\000"
 2561      657200
 2562              	.LASF28:
 2563 0029 74784461 		.ascii	"txData\000"
 2563      746100
 2564              	.LASF14:
 2565 0030 53504953 		.ascii	"SPIS_1_Enable\000"
 2565      5F315F45 
 2565      6E61626C 
 2565      6500
 2566              	.LASF3:
 2567 003e 73686F72 		.ascii	"short unsigned int\000"
 2567      7420756E 
 2567      7369676E 
 2567      65642069 
 2567      6E7400
 2568              	.LASF38:
 2569 0051 53504953 		.ascii	"SPIS_1_PutArray\000"
 2569      5F315F50 
 2569      75744172 
 2569      72617900 
 2570              	.LASF17:
 2571 0061 53504953 		.ascii	"SPIS_1_EnableTxInt\000"
 2571      5F315F45 
ARM GAS  C:\Users\hoangp\AppData\Local\Temp\ccnWRgig.s 			page 70


 2571      6E61626C 
 2571      65547849 
 2571      6E7400
 2572              	.LASF46:
 2573 0074 474E5520 		.ascii	"GNU C 4.4.1\000"
 2573      4320342E 
 2573      342E3100 
 2574              	.LASF32:
 2575 0080 72784461 		.ascii	"rxData\000"
 2575      746100
 2576              	.LASF12:
 2577 0087 53504953 		.ascii	"SPIS_1_Init\000"
 2577      5F315F49 
 2577      6E697400 
 2578              	.LASF10:
 2579 0093 666C6F61 		.ascii	"float\000"
 2579      7400
 2580              	.LASF21:
 2581 0099 53504953 		.ascii	"SPIS_1_SetTxInterruptMode\000"
 2581      5F315F53 
 2581      65745478 
 2581      496E7465 
 2581      72727570 
 2582              	.LASF22:
 2583 00b3 53504953 		.ascii	"SPIS_1_SetRxInterruptMode\000"
 2583      5F315F53 
 2583      65745278 
 2583      496E7465 
 2583      72727570 
 2584              	.LASF34:
 2585 00cd 73697A65 		.ascii	"size\000"
 2585      00
 2586              	.LASF29:
 2587 00d2 53504953 		.ascii	"SPIS_1_WriteTxDataZero\000"
 2587      5F315F57 
 2587      72697465 
 2587      54784461 
 2587      74615A65 
 2588              	.LASF47:
 2589 00e9 2E5C4765 		.ascii	".\\Generated_Source\\PSoC5\\SPIS_1.c\000"
 2589      6E657261 
 2589      7465645F 
 2589      536F7572 
 2589      63655C50 
 2590              	.LASF8:
 2591 010b 6C6F6E67 		.ascii	"long unsigned int\000"
 2591      20756E73 
 2591      69676E65 
 2591      6420696E 
 2591      7400
 2592              	.LASF49:
 2593 011d 75696E74 		.ascii	"uint8\000"
 2593      3800
 2594              	.LASF13:
 2595 0123 53504953 		.ascii	"SPIS_1_Start\000"
 2595      5F315F53 
 2595      74617274 
ARM GAS  C:\Users\hoangp\AppData\Local\Temp\ccnWRgig.s 			page 71


 2595      00
 2596              	.LASF37:
 2597 0130 53504953 		.ascii	"SPIS_1_ClearTxBuffer\000"
 2597      5F315F43 
 2597      6C656172 
 2597      54784275 
 2597      66666572 
 2598              	.LASF50:
 2599 0145 53504953 		.ascii	"SPIS_1_initVar\000"
 2599      5F315F69 
 2599      6E697456 
 2599      617200
 2600              	.LASF16:
 2601 0154 656E6162 		.ascii	"enableInterrupts\000"
 2601      6C65496E 
 2601      74657272 
 2601      75707473 
 2601      00
 2602              	.LASF1:
 2603 0165 756E7369 		.ascii	"unsigned char\000"
 2603      676E6564 
 2603      20636861 
 2603      7200
 2604              	.LASF11:
 2605 0173 646F7562 		.ascii	"double\000"
 2605      6C6500
 2606              	.LASF44:
 2607 017a 53504953 		.ascii	"SPIS_1_SetInterruptMode\000"
 2607      5F315F53 
 2607      6574496E 
 2607      74657272 
 2607      7570744D 
 2608              	.LASF42:
 2609 0192 53504953 		.ascii	"SPIS_1_EnableInt\000"
 2609      5F315F45 
 2609      6E61626C 
 2609      65496E74 
 2609      00
 2610              	.LASF48:
 2611 01a3 433A5C55 		.ascii	"C:\\Users\\hoangp\\Documents\\GitHub\\EE542\\firmwa"
 2611      73657273 
 2611      5C686F61 
 2611      6E67705C 
 2611      446F6375 
 2612 01d0 72655C69 		.ascii	"re\\invert\\invert.cydsn\000"
 2612      6E766572 
 2612      745C696E 
 2612      76657274 
 2612      2E637964 
 2613              	.LASF20:
 2614 01e7 53504953 		.ascii	"SPIS_1_DisableRxInt\000"
 2614      5F315F44 
 2614      69736162 
 2614      6C655278 
 2614      496E7400 
 2615              	.LASF4:
 2616 01fb 756E7369 		.ascii	"unsigned int\000"
ARM GAS  C:\Users\hoangp\AppData\Local\Temp\ccnWRgig.s 			page 72


 2616      676E6564 
 2616      20696E74 
 2616      00
 2617              	.LASF41:
 2618 0208 53504953 		.ascii	"SPIS_1_ClearFIFO\000"
 2618      5F315F43 
 2618      6C656172 
 2618      4649464F 
 2618      00
 2619              	.LASF15:
 2620 0219 53504953 		.ascii	"SPIS_1_Stop\000"
 2620      5F315F53 
 2620      746F7000 
 2621              	.LASF6:
 2622 0225 6C6F6E67 		.ascii	"long long unsigned int\000"
 2622      206C6F6E 
 2622      6720756E 
 2622      7369676E 
 2622      65642069 
 2623              	.LASF25:
 2624 023c 53504953 		.ascii	"SPIS_1_ReadTxStatus\000"
 2624      5F315F52 
 2624      65616454 
 2624      78537461 
 2624      74757300 
 2625              	.LASF43:
 2626 0250 53504953 		.ascii	"SPIS_1_DisableInt\000"
 2626      5F315F44 
 2626      69736162 
 2626      6C65496E 
 2626      7400
 2627              	.LASF35:
 2628 0262 53504953 		.ascii	"SPIS_1_GetTxBufferSize\000"
 2628      5F315F47 
 2628      65745478 
 2628      42756666 
 2628      65725369 
 2629              	.LASF33:
 2630 0279 53504953 		.ascii	"SPIS_1_GetRxBufferSize\000"
 2630      5F315F47 
 2630      65745278 
 2630      42756666 
 2630      65725369 
 2631              	.LASF18:
 2632 0290 53504953 		.ascii	"SPIS_1_EnableRxInt\000"
 2632      5F315F45 
 2632      6E61626C 
 2632      65527849 
 2632      6E7400
 2633              	.LASF30:
 2634 02a3 74784461 		.ascii	"txDataByte\000"
 2634      74614279 
 2634      746500
 2635              	.LASF36:
 2636 02ae 53504953 		.ascii	"SPIS_1_ClearRxBuffer\000"
 2636      5F315F43 
 2636      6C656172 
ARM GAS  C:\Users\hoangp\AppData\Local\Temp\ccnWRgig.s 			page 73


 2636      52784275 
 2636      66666572 
 2637              	.LASF9:
 2638 02c3 63686172 		.ascii	"char\000"
 2638      00
 2639              	.LASF45:
 2640 02c8 53504953 		.ascii	"SPIS_1_ReadStatus\000"
 2640      5F315F52 
 2640      65616453 
 2640      74617475 
 2640      7300
 2641              	.LASF2:
 2642 02da 73686F72 		.ascii	"short int\000"
 2642      7420696E 
 2642      7400
 2643              	.LASF40:
 2644 02e4 62797465 		.ascii	"byteCount\000"
 2644      436F756E 
 2644      7400
 2645              	.LASF7:
 2646 02ee 6C6F6E67 		.ascii	"long int\000"
 2646      20696E74 
 2646      00
 2647              	.LASF24:
 2648 02f7 746D7053 		.ascii	"tmpStatus\000"
 2648      74617475 
 2648      7300
 2649              	.LASF0:
 2650 0301 7369676E 		.ascii	"signed char\000"
 2650      65642063 
 2650      68617200 
 2651              	.LASF23:
 2652 030d 696E7453 		.ascii	"intSrc\000"
 2652      726300
 2653              	.LASF27:
 2654 0314 53504953 		.ascii	"SPIS_1_WriteTxData\000"
 2654      5F315F57 
 2654      72697465 
 2654      54784461 
 2654      746100
 2655              	.LASF26:
 2656 0327 53504953 		.ascii	"SPIS_1_ReadRxStatus\000"
 2656      5F315F52 
 2656      65616452 
 2656      78537461 
 2656      74757300 
 2657              	.LASF31:
 2658 033b 53504953 		.ascii	"SPIS_1_ReadRxData\000"
 2658      5F315F52 
 2658      65616452 
 2658      78446174 
 2658      6100
 2659              		.ident	"GCC: (Sourcery G++ Lite 2010q1-188) 4.4.1"
