ARM GAS  C:\Users\hoangp\AppData\Local\Temp\ccnoCuLn.s 			page 1


   1              		.syntax unified
   2              		.cpu cortex-m3
   3              		.fpu softvfp
   4              		.eabi_attribute 20, 1
   5              		.eabi_attribute 21, 1
   6              		.eabi_attribute 23, 3
   7              		.eabi_attribute 24, 1
   8              		.eabi_attribute 25, 1
   9              		.eabi_attribute 26, 1
  10              		.eabi_attribute 30, 6
  11              		.eabi_attribute 18, 4
  12              		.thumb
  13              		.file	"Timer_1.c"
  20 0000 77010000 		.text
  20      02006000 
  20      00000201 
  20      FB0E0D00 
  20      01010101 
  21              	.Ltext0:
  22              		.cfi_sections	.debug_frame
  23              		.global	Timer_1_initVar
  24              		.bss
  25              		.type	Timer_1_initVar, %object
  26              		.size	Timer_1_initVar, 1
  27              	Timer_1_initVar:
  28 0000 00       		.space	1
  29              		.section	.text.Timer_1_Init,"ax",%progbits
  30              		.align	2
  31              		.global	Timer_1_Init
  32              		.thumb
  33              		.thumb_func
  34              		.type	Timer_1_Init, %function
  35              	Timer_1_Init:
  36              	.LFB0:
  37              		.file 1 ".\\Generated_Source\\PSoC5\\Timer_1.c"
   1:.\Generated_Source\PSoC5/Timer_1.c **** /*******************************************************************************
   2:.\Generated_Source\PSoC5/Timer_1.c **** * File Name: Timer_1.c
   3:.\Generated_Source\PSoC5/Timer_1.c **** * Version 2.50
   4:.\Generated_Source\PSoC5/Timer_1.c **** *
   5:.\Generated_Source\PSoC5/Timer_1.c **** * Description:
   6:.\Generated_Source\PSoC5/Timer_1.c **** *  The Timer component consists of a 8, 16, 24 or 32-bit timer with
   7:.\Generated_Source\PSoC5/Timer_1.c **** *  a selectable period between 2 and 2^Width - 1.  The timer may free run
   8:.\Generated_Source\PSoC5/Timer_1.c **** *  or be used as a capture timer as well.  The capture can be initiated
   9:.\Generated_Source\PSoC5/Timer_1.c **** *  by a positive or negative edge signal as well as via software.
  10:.\Generated_Source\PSoC5/Timer_1.c **** *  A trigger input can be programmed to enable the timer on rising edge
  11:.\Generated_Source\PSoC5/Timer_1.c **** *  falling edge, either edge or continous run.
  12:.\Generated_Source\PSoC5/Timer_1.c **** *  Interrupts may be generated due to a terminal count condition
  13:.\Generated_Source\PSoC5/Timer_1.c **** *  or a capture event.
  14:.\Generated_Source\PSoC5/Timer_1.c **** *
  15:.\Generated_Source\PSoC5/Timer_1.c **** * Note:
  16:.\Generated_Source\PSoC5/Timer_1.c **** *
ARM GAS  C:\Users\hoangp\AppData\Local\Temp\ccnoCuLn.s 			page 2


  17:.\Generated_Source\PSoC5/Timer_1.c **** ********************************************************************************
  18:.\Generated_Source\PSoC5/Timer_1.c **** * Copyright 2008-2012, Cypress Semiconductor Corporation.  All rights reserved.
  19:.\Generated_Source\PSoC5/Timer_1.c **** * You may use this file only in accordance with the license, terms, conditions,
  20:.\Generated_Source\PSoC5/Timer_1.c **** * disclaimers, and limitations in the end user license agreement accompanying
  21:.\Generated_Source\PSoC5/Timer_1.c **** * the software package with which this file was provided.
  22:.\Generated_Source\PSoC5/Timer_1.c **** ********************************************************************************/
  23:.\Generated_Source\PSoC5/Timer_1.c **** 
  24:.\Generated_Source\PSoC5/Timer_1.c **** #include "Timer_1.h"
  25:.\Generated_Source\PSoC5/Timer_1.c **** 
  26:.\Generated_Source\PSoC5/Timer_1.c **** uint8 Timer_1_initVar = 0u;
  27:.\Generated_Source\PSoC5/Timer_1.c **** 
  28:.\Generated_Source\PSoC5/Timer_1.c **** 
  29:.\Generated_Source\PSoC5/Timer_1.c **** /*******************************************************************************
  30:.\Generated_Source\PSoC5/Timer_1.c **** * Function Name: Timer_1_Init
  31:.\Generated_Source\PSoC5/Timer_1.c **** ********************************************************************************
  32:.\Generated_Source\PSoC5/Timer_1.c **** *
  33:.\Generated_Source\PSoC5/Timer_1.c **** * Summary:
  34:.\Generated_Source\PSoC5/Timer_1.c **** *  Initialize to the schematic state
  35:.\Generated_Source\PSoC5/Timer_1.c **** *
  36:.\Generated_Source\PSoC5/Timer_1.c **** * Parameters:
  37:.\Generated_Source\PSoC5/Timer_1.c **** *  void
  38:.\Generated_Source\PSoC5/Timer_1.c **** *
  39:.\Generated_Source\PSoC5/Timer_1.c **** * Return:
  40:.\Generated_Source\PSoC5/Timer_1.c **** *  void
  41:.\Generated_Source\PSoC5/Timer_1.c **** *
  42:.\Generated_Source\PSoC5/Timer_1.c **** *******************************************************************************/
  43:.\Generated_Source\PSoC5/Timer_1.c **** void Timer_1_Init(void) 
  44:.\Generated_Source\PSoC5/Timer_1.c **** {
  38              		.loc 1 44 0
  39              		.cfi_startproc
  40              		@ args = 0, pretend = 0, frame = 0
  41              		@ frame_needed = 1, uses_anonymous_args = 0
  42 0000 80B5     		push	{r7, lr}
  43              	.LCFI0:
  44              		.cfi_def_cfa_offset 8
  45 0002 00AF     		add	r7, sp, #0
  46              		.cfi_offset 14, -4
  47              		.cfi_offset 7, -8
  48              	.LCFI1:
  49              		.cfi_def_cfa_register 7
  45:.\Generated_Source\PSoC5/Timer_1.c ****     #if(!Timer_1_UsingFixedFunction)
  46:.\Generated_Source\PSoC5/Timer_1.c ****             /* Interrupt State Backup for Critical Region*/
  47:.\Generated_Source\PSoC5/Timer_1.c ****             uint8 Timer_1_interruptState;
  48:.\Generated_Source\PSoC5/Timer_1.c ****     #endif /* Interrupt state back up for Fixed Function only */
  49:.\Generated_Source\PSoC5/Timer_1.c **** 
  50:.\Generated_Source\PSoC5/Timer_1.c ****     #if (Timer_1_UsingFixedFunction)
  51:.\Generated_Source\PSoC5/Timer_1.c ****         /* Clear all bits but the enable bit (if it's already set) for Timer operation */
  52:.\Generated_Source\PSoC5/Timer_1.c ****         Timer_1_CONTROL &= Timer_1_CTRL_ENABLE;
  50              		.loc 1 52 0
  51 0004 44F60073 		movw	r3, #:lower16:1073762048
  52 0008 C4F20003 		movt	r3, #:upper16:1073762048
  53 000c 44F60072 		movw	r2, #:lower16:1073762048
  54 0010 C4F20002 		movt	r2, #:upper16:1073762048
  55 0014 1278     		ldrb	r2, [r2, #0]
  56 0016 D2B2     		uxtb	r2, r2
  57 0018 02F00102 		and	r2, r2, #1
  58 001c 1A70     		strb	r2, [r3, #0]
ARM GAS  C:\Users\hoangp\AppData\Local\Temp\ccnoCuLn.s 			page 3


  53:.\Generated_Source\PSoC5/Timer_1.c **** 
  54:.\Generated_Source\PSoC5/Timer_1.c ****         /* Clear the mode bits for continuous run mode */
  55:.\Generated_Source\PSoC5/Timer_1.c ****         #if (CY_PSOC5A)
  56:.\Generated_Source\PSoC5/Timer_1.c ****             Timer_1_CONTROL2 &= ((uint8)(~Timer_1_CTRL_MODE_MASK));
  59              		.loc 1 56 0
  60 001e 44F60173 		movw	r3, #:lower16:1073762049
  61 0022 C4F20003 		movt	r3, #:upper16:1073762049
  62 0026 44F60172 		movw	r2, #:lower16:1073762049
  63 002a C4F20002 		movt	r2, #:upper16:1073762049
  64 002e 1278     		ldrb	r2, [r2, #0]
  65 0030 D2B2     		uxtb	r2, r2
  66 0032 02F0F102 		and	r2, r2, #241
  67 0036 1A70     		strb	r2, [r3, #0]
  57:.\Generated_Source\PSoC5/Timer_1.c ****         #endif /* Clear bits in CONTROL2 only in PSOC5A */
  58:.\Generated_Source\PSoC5/Timer_1.c **** 
  59:.\Generated_Source\PSoC5/Timer_1.c ****         #if (CY_PSOC3 || CY_PSOC5LP)
  60:.\Generated_Source\PSoC5/Timer_1.c ****             Timer_1_CONTROL3 &= ((uint8)(~Timer_1_CTRL_MODE_MASK));
  61:.\Generated_Source\PSoC5/Timer_1.c ****         #endif /* CONTROL3 register exists only in PSoC3 OR PSoC5LP */
  62:.\Generated_Source\PSoC5/Timer_1.c **** 
  63:.\Generated_Source\PSoC5/Timer_1.c ****         /* Check if One Shot mode is enabled i.e. RunMode !=0*/
  64:.\Generated_Source\PSoC5/Timer_1.c ****         #if (Timer_1_RunModeUsed != 0x0u)
  65:.\Generated_Source\PSoC5/Timer_1.c ****             /* Set 3rd bit of Control register to enable one shot mode */
  66:.\Generated_Source\PSoC5/Timer_1.c ****             Timer_1_CONTROL |= 0x04u;
  67:.\Generated_Source\PSoC5/Timer_1.c ****         #endif /* One Shot enabled only when RunModeUsed is not Continuous*/
  68:.\Generated_Source\PSoC5/Timer_1.c **** 
  69:.\Generated_Source\PSoC5/Timer_1.c ****         #if (Timer_1_RunModeUsed == 2)
  70:.\Generated_Source\PSoC5/Timer_1.c ****             #if (CY_PSOC5A)
  71:.\Generated_Source\PSoC5/Timer_1.c ****                 /* Set last 2 bits of control2 register if one shot(halt on
  72:.\Generated_Source\PSoC5/Timer_1.c ****                 interrupt) is enabled*/
  73:.\Generated_Source\PSoC5/Timer_1.c ****                 Timer_1_CONTROL2 |= 0x03u;
  74:.\Generated_Source\PSoC5/Timer_1.c ****             #endif /* Set One-Shot Halt on Interrupt bit in CONTROL2 for PSoC5A */
  75:.\Generated_Source\PSoC5/Timer_1.c **** 
  76:.\Generated_Source\PSoC5/Timer_1.c ****             #if (CY_PSOC3 || CY_PSOC5LP)
  77:.\Generated_Source\PSoC5/Timer_1.c ****                 /* Set last 2 bits of control3 register if one shot(halt on
  78:.\Generated_Source\PSoC5/Timer_1.c ****                 interrupt) is enabled*/
  79:.\Generated_Source\PSoC5/Timer_1.c ****                 Timer_1_CONTROL3 |= 0x03u;
  80:.\Generated_Source\PSoC5/Timer_1.c ****             #endif /* Set One-Shot Halt on Interrupt bit in CONTROL3 for PSoC3 or PSoC5LP */
  81:.\Generated_Source\PSoC5/Timer_1.c **** 
  82:.\Generated_Source\PSoC5/Timer_1.c ****         #endif /* Remove section if One Shot Halt on Interrupt is not enabled */
  83:.\Generated_Source\PSoC5/Timer_1.c **** 
  84:.\Generated_Source\PSoC5/Timer_1.c ****         #if (Timer_1_UsingHWEnable != 0)
  85:.\Generated_Source\PSoC5/Timer_1.c ****             #if (CY_PSOC5A)
  86:.\Generated_Source\PSoC5/Timer_1.c ****                 /* Set the default Run Mode of the Timer to Continuous */
  87:.\Generated_Source\PSoC5/Timer_1.c ****                 Timer_1_CONTROL2 |= Timer_1_CTRL_MODE_PULSEWIDTH;
  88:.\Generated_Source\PSoC5/Timer_1.c ****             #endif /* Set Continuous Run Mode in CONTROL2 for PSoC5A */
  89:.\Generated_Source\PSoC5/Timer_1.c **** 
  90:.\Generated_Source\PSoC5/Timer_1.c ****             #if (CY_PSOC3 || CY_PSOC5LP)
  91:.\Generated_Source\PSoC5/Timer_1.c ****                 /* Clear and Set ROD and COD bits of CFG2 register */
  92:.\Generated_Source\PSoC5/Timer_1.c ****                 Timer_1_CONTROL3 &= ((uint8)(~Timer_1_CTRL_RCOD_MASK));
  93:.\Generated_Source\PSoC5/Timer_1.c ****                 Timer_1_CONTROL3 |= Timer_1_CTRL_RCOD;
  94:.\Generated_Source\PSoC5/Timer_1.c **** 
  95:.\Generated_Source\PSoC5/Timer_1.c ****                 /* Clear and Enable the HW enable bit in CFG2 register */
  96:.\Generated_Source\PSoC5/Timer_1.c ****                 Timer_1_CONTROL3 &= ((uint8)(~Timer_1_CTRL_ENBL_MASK));
  97:.\Generated_Source\PSoC5/Timer_1.c ****                 Timer_1_CONTROL3 |= Timer_1_CTRL_ENBL;
  98:.\Generated_Source\PSoC5/Timer_1.c **** 
  99:.\Generated_Source\PSoC5/Timer_1.c ****                 /* Set the default Run Mode of the Timer to Continuous */
 100:.\Generated_Source\PSoC5/Timer_1.c ****                 Timer_1_CONTROL3 |= Timer_1_CTRL_MODE_CONTINUOUS;
ARM GAS  C:\Users\hoangp\AppData\Local\Temp\ccnoCuLn.s 			page 4


 101:.\Generated_Source\PSoC5/Timer_1.c ****             #endif /* Set Continuous Run Mode in CONTROL3 for PSoC3ES3 or PSoC5A */
 102:.\Generated_Source\PSoC5/Timer_1.c **** 
 103:.\Generated_Source\PSoC5/Timer_1.c ****         #endif /* Configure Run Mode with hardware enable */
 104:.\Generated_Source\PSoC5/Timer_1.c **** 
 105:.\Generated_Source\PSoC5/Timer_1.c ****         /* Clear and Set SYNCTC and SYNCCMP bits of RT1 register */
 106:.\Generated_Source\PSoC5/Timer_1.c ****         Timer_1_RT1 &= ((uint8)(~Timer_1_RT1_MASK));
  68              		.loc 1 106 0
  69 0038 44F60A73 		movw	r3, #:lower16:1073762058
  70 003c C4F20003 		movt	r3, #:upper16:1073762058
  71 0040 44F60A72 		movw	r2, #:lower16:1073762058
  72 0044 C4F20002 		movt	r2, #:upper16:1073762058
  73 0048 1278     		ldrb	r2, [r2, #0]
  74 004a D2B2     		uxtb	r2, r2
  75 004c 02F0CF02 		and	r2, r2, #207
  76 0050 1A70     		strb	r2, [r3, #0]
 107:.\Generated_Source\PSoC5/Timer_1.c ****         Timer_1_RT1 |= Timer_1_SYNC;
  77              		.loc 1 107 0
  78 0052 44F60A73 		movw	r3, #:lower16:1073762058
  79 0056 C4F20003 		movt	r3, #:upper16:1073762058
  80 005a 44F60A72 		movw	r2, #:lower16:1073762058
  81 005e C4F20002 		movt	r2, #:upper16:1073762058
  82 0062 1278     		ldrb	r2, [r2, #0]
  83 0064 D2B2     		uxtb	r2, r2
  84 0066 42F03002 		orr	r2, r2, #48
  85 006a D2B2     		uxtb	r2, r2
  86 006c 1A70     		strb	r2, [r3, #0]
 108:.\Generated_Source\PSoC5/Timer_1.c **** 
 109:.\Generated_Source\PSoC5/Timer_1.c ****         /*Enable DSI Sync all all inputs of the Timer*/
 110:.\Generated_Source\PSoC5/Timer_1.c ****         Timer_1_RT1 &= ((uint8)(~Timer_1_SYNCDSI_MASK));
  87              		.loc 1 110 0
  88 006e 44F60A73 		movw	r3, #:lower16:1073762058
  89 0072 C4F20003 		movt	r3, #:upper16:1073762058
  90 0076 44F60A72 		movw	r2, #:lower16:1073762058
  91 007a C4F20002 		movt	r2, #:upper16:1073762058
  92 007e 1278     		ldrb	r2, [r2, #0]
  93 0080 D2B2     		uxtb	r2, r2
  94 0082 02F0F002 		and	r2, r2, #240
  95 0086 1A70     		strb	r2, [r3, #0]
 111:.\Generated_Source\PSoC5/Timer_1.c ****         Timer_1_RT1 |= Timer_1_SYNCDSI_EN;
  96              		.loc 1 111 0
  97 0088 44F60A73 		movw	r3, #:lower16:1073762058
  98 008c C4F20003 		movt	r3, #:upper16:1073762058
  99 0090 44F60A72 		movw	r2, #:lower16:1073762058
 100 0094 C4F20002 		movt	r2, #:upper16:1073762058
 101 0098 1278     		ldrb	r2, [r2, #0]
 102 009a D2B2     		uxtb	r2, r2
 103 009c 42F00F02 		orr	r2, r2, #15
 104 00a0 D2B2     		uxtb	r2, r2
 105 00a2 1A70     		strb	r2, [r3, #0]
 112:.\Generated_Source\PSoC5/Timer_1.c **** 
 113:.\Generated_Source\PSoC5/Timer_1.c ****         /* Set the IRQ to use the status register interrupts */
 114:.\Generated_Source\PSoC5/Timer_1.c ****         Timer_1_CONTROL2 |= Timer_1_CTRL2_IRQ_SEL;
 106              		.loc 1 114 0
 107 00a4 44F60173 		movw	r3, #:lower16:1073762049
 108 00a8 C4F20003 		movt	r3, #:upper16:1073762049
 109 00ac 44F60172 		movw	r2, #:lower16:1073762049
 110 00b0 C4F20002 		movt	r2, #:upper16:1073762049
ARM GAS  C:\Users\hoangp\AppData\Local\Temp\ccnoCuLn.s 			page 5


 111 00b4 1278     		ldrb	r2, [r2, #0]
 112 00b6 D2B2     		uxtb	r2, r2
 113 00b8 42F00102 		orr	r2, r2, #1
 114 00bc D2B2     		uxtb	r2, r2
 115 00be 1A70     		strb	r2, [r3, #0]
 115:.\Generated_Source\PSoC5/Timer_1.c ****     #endif /* Configuring registers of fixed function implementation */
 116:.\Generated_Source\PSoC5/Timer_1.c **** 
 117:.\Generated_Source\PSoC5/Timer_1.c ****     /* Set Initial values from Configuration */
 118:.\Generated_Source\PSoC5/Timer_1.c ****     Timer_1_WritePeriod(Timer_1_INIT_PERIOD);
 116              		.loc 1 118 0
 117 00c0 4FF0FF00 		mov	r0, #255
 118 00c4 FFF7FEFF 		bl	Timer_1_WritePeriod
 119:.\Generated_Source\PSoC5/Timer_1.c ****     Timer_1_WriteCounter(Timer_1_INIT_PERIOD);
 119              		.loc 1 119 0
 120 00c8 4FF0FF00 		mov	r0, #255
 121 00cc FFF7FEFF 		bl	Timer_1_WriteCounter
 120:.\Generated_Source\PSoC5/Timer_1.c **** 
 121:.\Generated_Source\PSoC5/Timer_1.c ****     #if (Timer_1_UsingHWCaptureCounter)/* Capture counter is enabled */
 122:.\Generated_Source\PSoC5/Timer_1.c ****         Timer_1_CAPTURE_COUNT_CTRL |= Timer_1_CNTR_ENABLE;
 123:.\Generated_Source\PSoC5/Timer_1.c ****         Timer_1_SetCaptureCount(Timer_1_INIT_CAPTURE_COUNT);
 124:.\Generated_Source\PSoC5/Timer_1.c ****     #endif /* Configure capture counter value */
 125:.\Generated_Source\PSoC5/Timer_1.c **** 
 126:.\Generated_Source\PSoC5/Timer_1.c ****     #if (!Timer_1_UsingFixedFunction)
 127:.\Generated_Source\PSoC5/Timer_1.c ****         #if (Timer_1_SoftwareCaptureMode)
 128:.\Generated_Source\PSoC5/Timer_1.c ****             Timer_1_SetCaptureMode(Timer_1_INIT_CAPTURE_MODE);
 129:.\Generated_Source\PSoC5/Timer_1.c ****         #endif /* Set Capture Mode for UDB implementation if capture mode is software controlled */
 130:.\Generated_Source\PSoC5/Timer_1.c **** 
 131:.\Generated_Source\PSoC5/Timer_1.c ****         #if (Timer_1_SoftwareTriggerMode)
 132:.\Generated_Source\PSoC5/Timer_1.c ****             if (0u == (Timer_1_CONTROL & Timer_1__B_TIMER__TM_SOFTWARE))
 133:.\Generated_Source\PSoC5/Timer_1.c ****             {
 134:.\Generated_Source\PSoC5/Timer_1.c ****                 Timer_1_SetTriggerMode(Timer_1_INIT_TRIGGER_MODE);
 135:.\Generated_Source\PSoC5/Timer_1.c ****             }
 136:.\Generated_Source\PSoC5/Timer_1.c ****         #endif /* Set trigger mode for UDB Implementation if trigger mode is software controlled */
 137:.\Generated_Source\PSoC5/Timer_1.c **** 
 138:.\Generated_Source\PSoC5/Timer_1.c ****         /* CyEnterCriticalRegion and CyExitCriticalRegion are used to mark following region critica
 139:.\Generated_Source\PSoC5/Timer_1.c ****         /* Enter Critical Region*/
 140:.\Generated_Source\PSoC5/Timer_1.c ****         Timer_1_interruptState = CyEnterCriticalSection();
 141:.\Generated_Source\PSoC5/Timer_1.c **** 
 142:.\Generated_Source\PSoC5/Timer_1.c ****         /* Use the interrupt output of the status register for IRQ output */
 143:.\Generated_Source\PSoC5/Timer_1.c ****         Timer_1_STATUS_AUX_CTRL |= Timer_1_STATUS_ACTL_INT_EN_MASK;
 144:.\Generated_Source\PSoC5/Timer_1.c **** 
 145:.\Generated_Source\PSoC5/Timer_1.c ****         /* Exit Critical Region*/
 146:.\Generated_Source\PSoC5/Timer_1.c ****         CyExitCriticalSection(Timer_1_interruptState);
 147:.\Generated_Source\PSoC5/Timer_1.c **** 
 148:.\Generated_Source\PSoC5/Timer_1.c ****         #if (Timer_1_EnableTriggerMode)
 149:.\Generated_Source\PSoC5/Timer_1.c ****             Timer_1_EnableTrigger();
 150:.\Generated_Source\PSoC5/Timer_1.c ****         #endif /* Set Trigger enable bit for UDB implementation in the control register*/
 151:.\Generated_Source\PSoC5/Timer_1.c **** 
 152:.\Generated_Source\PSoC5/Timer_1.c ****         #if (Timer_1_InterruptOnCaptureCount)
 153:.\Generated_Source\PSoC5/Timer_1.c ****              #if (!Timer_1_ControlRegRemoved)
 154:.\Generated_Source\PSoC5/Timer_1.c ****                 Timer_1_SetInterruptCount(Timer_1_INIT_INT_CAPTURE_COUNT);
 155:.\Generated_Source\PSoC5/Timer_1.c ****             #endif /* Set interrupt count in control register if control register is not removed */
 156:.\Generated_Source\PSoC5/Timer_1.c ****         #endif /*Set interrupt count in UDB implementation if interrupt count feature is checked.*/
 157:.\Generated_Source\PSoC5/Timer_1.c **** 
 158:.\Generated_Source\PSoC5/Timer_1.c ****         Timer_1_ClearFIFO();
 159:.\Generated_Source\PSoC5/Timer_1.c ****     #endif /* Configure additional features of UDB implementation */
 160:.\Generated_Source\PSoC5/Timer_1.c **** 
ARM GAS  C:\Users\hoangp\AppData\Local\Temp\ccnoCuLn.s 			page 6


 161:.\Generated_Source\PSoC5/Timer_1.c ****     Timer_1_SetInterruptMode(Timer_1_INIT_INTERRUPT_MODE);
 122              		.loc 1 161 0
 123 00d0 4FF00000 		mov	r0, #0
 124 00d4 FFF7FEFF 		bl	Timer_1_SetInterruptMode
 162:.\Generated_Source\PSoC5/Timer_1.c **** }
 125              		.loc 1 162 0
 126 00d8 80BD     		pop	{r7, pc}
 127              		.cfi_endproc
 128              	.LFE0:
 129              		.size	Timer_1_Init, .-Timer_1_Init
 130 00da 00BF     		.section	.text.Timer_1_Enable,"ax",%progbits
 131              		.align	2
 132              		.global	Timer_1_Enable
 133              		.thumb
 134              		.thumb_func
 135              		.type	Timer_1_Enable, %function
 136              	Timer_1_Enable:
 137              	.LFB1:
 163:.\Generated_Source\PSoC5/Timer_1.c **** 
 164:.\Generated_Source\PSoC5/Timer_1.c **** 
 165:.\Generated_Source\PSoC5/Timer_1.c **** /*******************************************************************************
 166:.\Generated_Source\PSoC5/Timer_1.c **** * Function Name: Timer_1_Enable
 167:.\Generated_Source\PSoC5/Timer_1.c **** ********************************************************************************
 168:.\Generated_Source\PSoC5/Timer_1.c **** *
 169:.\Generated_Source\PSoC5/Timer_1.c **** * Summary:
 170:.\Generated_Source\PSoC5/Timer_1.c **** *  Enable the Timer
 171:.\Generated_Source\PSoC5/Timer_1.c **** *
 172:.\Generated_Source\PSoC5/Timer_1.c **** * Parameters:
 173:.\Generated_Source\PSoC5/Timer_1.c **** *  void
 174:.\Generated_Source\PSoC5/Timer_1.c **** *
 175:.\Generated_Source\PSoC5/Timer_1.c **** * Return:
 176:.\Generated_Source\PSoC5/Timer_1.c **** *  void
 177:.\Generated_Source\PSoC5/Timer_1.c **** *
 178:.\Generated_Source\PSoC5/Timer_1.c **** *******************************************************************************/
 179:.\Generated_Source\PSoC5/Timer_1.c **** void Timer_1_Enable(void) 
 180:.\Generated_Source\PSoC5/Timer_1.c **** {
 138              		.loc 1 180 0
 139              		.cfi_startproc
 140              		@ args = 0, pretend = 0, frame = 0
 141              		@ frame_needed = 1, uses_anonymous_args = 0
 142              		@ link register save eliminated.
 143 0000 80B4     		push	{r7}
 144              	.LCFI2:
 145              		.cfi_def_cfa_offset 4
 146 0002 00AF     		add	r7, sp, #0
 147              		.cfi_offset 7, -4
 148              	.LCFI3:
 149              		.cfi_def_cfa_register 7
 181:.\Generated_Source\PSoC5/Timer_1.c ****     /* Globally Enable the Fixed Function Block chosen */
 182:.\Generated_Source\PSoC5/Timer_1.c ****     #if (Timer_1_UsingFixedFunction)
 183:.\Generated_Source\PSoC5/Timer_1.c ****         Timer_1_GLOBAL_ENABLE |= Timer_1_BLOCK_EN_MASK;
 150              		.loc 1 183 0
 151 0004 44F2A333 		movw	r3, #:lower16:1073759139
 152 0008 C4F20003 		movt	r3, #:upper16:1073759139
 153 000c 44F2A332 		movw	r2, #:lower16:1073759139
 154 0010 C4F20002 		movt	r2, #:upper16:1073759139
 155 0014 1278     		ldrb	r2, [r2, #0]
ARM GAS  C:\Users\hoangp\AppData\Local\Temp\ccnoCuLn.s 			page 7


 156 0016 D2B2     		uxtb	r2, r2
 157 0018 42F00102 		orr	r2, r2, #1
 158 001c D2B2     		uxtb	r2, r2
 159 001e 1A70     		strb	r2, [r3, #0]
 184:.\Generated_Source\PSoC5/Timer_1.c ****         Timer_1_GLOBAL_STBY_ENABLE |= Timer_1_BLOCK_STBY_EN_MASK;
 160              		.loc 1 184 0
 161 0020 44F2B333 		movw	r3, #:lower16:1073759155
 162 0024 C4F20003 		movt	r3, #:upper16:1073759155
 163 0028 44F2B332 		movw	r2, #:lower16:1073759155
 164 002c C4F20002 		movt	r2, #:upper16:1073759155
 165 0030 1278     		ldrb	r2, [r2, #0]
 166 0032 D2B2     		uxtb	r2, r2
 167 0034 42F00102 		orr	r2, r2, #1
 168 0038 D2B2     		uxtb	r2, r2
 169 003a 1A70     		strb	r2, [r3, #0]
 185:.\Generated_Source\PSoC5/Timer_1.c ****     #endif /* Set Enable bit for enabling Fixed function timer*/
 186:.\Generated_Source\PSoC5/Timer_1.c **** 
 187:.\Generated_Source\PSoC5/Timer_1.c ****     /* Remove assignment if control register is removed */
 188:.\Generated_Source\PSoC5/Timer_1.c ****     #if (!Timer_1_ControlRegRemoved || Timer_1_UsingFixedFunction)
 189:.\Generated_Source\PSoC5/Timer_1.c ****         Timer_1_CONTROL |= Timer_1_CTRL_ENABLE;
 170              		.loc 1 189 0
 171 003c 44F60073 		movw	r3, #:lower16:1073762048
 172 0040 C4F20003 		movt	r3, #:upper16:1073762048
 173 0044 44F60072 		movw	r2, #:lower16:1073762048
 174 0048 C4F20002 		movt	r2, #:upper16:1073762048
 175 004c 1278     		ldrb	r2, [r2, #0]
 176 004e D2B2     		uxtb	r2, r2
 177 0050 42F00102 		orr	r2, r2, #1
 178 0054 D2B2     		uxtb	r2, r2
 179 0056 1A70     		strb	r2, [r3, #0]
 190:.\Generated_Source\PSoC5/Timer_1.c ****     #endif /* Remove assignment if control register is removed */
 191:.\Generated_Source\PSoC5/Timer_1.c **** }
 180              		.loc 1 191 0
 181 0058 BD46     		mov	sp, r7
 182 005a 80BC     		pop	{r7}
 183 005c 7047     		bx	lr
 184              		.cfi_endproc
 185              	.LFE1:
 186              		.size	Timer_1_Enable, .-Timer_1_Enable
 187 005e 00BF     		.section	.text.Timer_1_Start,"ax",%progbits
 188              		.align	2
 189              		.global	Timer_1_Start
 190              		.thumb
 191              		.thumb_func
 192              		.type	Timer_1_Start, %function
 193              	Timer_1_Start:
 194              	.LFB2:
 192:.\Generated_Source\PSoC5/Timer_1.c **** 
 193:.\Generated_Source\PSoC5/Timer_1.c **** 
 194:.\Generated_Source\PSoC5/Timer_1.c **** /*******************************************************************************
 195:.\Generated_Source\PSoC5/Timer_1.c **** * Function Name: Timer_1_Start
 196:.\Generated_Source\PSoC5/Timer_1.c **** ********************************************************************************
 197:.\Generated_Source\PSoC5/Timer_1.c **** *
 198:.\Generated_Source\PSoC5/Timer_1.c **** * Summary:
 199:.\Generated_Source\PSoC5/Timer_1.c **** *  The start function initializes the timer with the default values, the
 200:.\Generated_Source\PSoC5/Timer_1.c **** *  enables the timerto begin counting.  It does not enable interrupts,
 201:.\Generated_Source\PSoC5/Timer_1.c **** *  the EnableInt command should be called if interrupt generation is required.
ARM GAS  C:\Users\hoangp\AppData\Local\Temp\ccnoCuLn.s 			page 8


 202:.\Generated_Source\PSoC5/Timer_1.c **** *
 203:.\Generated_Source\PSoC5/Timer_1.c **** * Parameters:
 204:.\Generated_Source\PSoC5/Timer_1.c **** *  void
 205:.\Generated_Source\PSoC5/Timer_1.c **** *
 206:.\Generated_Source\PSoC5/Timer_1.c **** * Return:
 207:.\Generated_Source\PSoC5/Timer_1.c **** *  void
 208:.\Generated_Source\PSoC5/Timer_1.c **** *
 209:.\Generated_Source\PSoC5/Timer_1.c **** * Global variables:
 210:.\Generated_Source\PSoC5/Timer_1.c **** *  Timer_1_initVar: Is modified when this function is called for the
 211:.\Generated_Source\PSoC5/Timer_1.c **** *   first time. Is used to ensure that initialization happens only once.
 212:.\Generated_Source\PSoC5/Timer_1.c **** *
 213:.\Generated_Source\PSoC5/Timer_1.c **** *******************************************************************************/
 214:.\Generated_Source\PSoC5/Timer_1.c **** void Timer_1_Start(void) 
 215:.\Generated_Source\PSoC5/Timer_1.c **** {
 195              		.loc 1 215 0
 196              		.cfi_startproc
 197              		@ args = 0, pretend = 0, frame = 0
 198              		@ frame_needed = 1, uses_anonymous_args = 0
 199 0000 80B5     		push	{r7, lr}
 200              	.LCFI4:
 201              		.cfi_def_cfa_offset 8
 202 0002 00AF     		add	r7, sp, #0
 203              		.cfi_offset 14, -4
 204              		.cfi_offset 7, -8
 205              	.LCFI5:
 206              		.cfi_def_cfa_register 7
 216:.\Generated_Source\PSoC5/Timer_1.c ****     if(Timer_1_initVar == 0u)
 207              		.loc 1 216 0
 208 0004 40F20003 		movw	r3, #:lower16:Timer_1_initVar
 209 0008 C0F20003 		movt	r3, #:upper16:Timer_1_initVar
 210 000c 1B78     		ldrb	r3, [r3, #0]	@ zero_extendqisi2
 211 000e 002B     		cmp	r3, #0
 212 0010 08D1     		bne	.L6
 217:.\Generated_Source\PSoC5/Timer_1.c ****     {
 218:.\Generated_Source\PSoC5/Timer_1.c ****         Timer_1_Init();
 213              		.loc 1 218 0
 214 0012 FFF7FEFF 		bl	Timer_1_Init
 219:.\Generated_Source\PSoC5/Timer_1.c **** 
 220:.\Generated_Source\PSoC5/Timer_1.c ****         Timer_1_initVar = 1u;   /* Clear this bit for Initialization */
 215              		.loc 1 220 0
 216 0016 40F20003 		movw	r3, #:lower16:Timer_1_initVar
 217 001a C0F20003 		movt	r3, #:upper16:Timer_1_initVar
 218 001e 4FF00102 		mov	r2, #1
 219 0022 1A70     		strb	r2, [r3, #0]
 220              	.L6:
 221:.\Generated_Source\PSoC5/Timer_1.c ****     }
 222:.\Generated_Source\PSoC5/Timer_1.c **** 
 223:.\Generated_Source\PSoC5/Timer_1.c ****     /* Enable the Timer */
 224:.\Generated_Source\PSoC5/Timer_1.c ****     Timer_1_Enable();
 221              		.loc 1 224 0
 222 0024 FFF7FEFF 		bl	Timer_1_Enable
 225:.\Generated_Source\PSoC5/Timer_1.c **** }
 223              		.loc 1 225 0
 224 0028 80BD     		pop	{r7, pc}
 225              		.cfi_endproc
 226              	.LFE2:
 227              		.size	Timer_1_Start, .-Timer_1_Start
ARM GAS  C:\Users\hoangp\AppData\Local\Temp\ccnoCuLn.s 			page 9


 228 002a 00BF     		.section	.text.Timer_1_Stop,"ax",%progbits
 229              		.align	2
 230              		.global	Timer_1_Stop
 231              		.thumb
 232              		.thumb_func
 233              		.type	Timer_1_Stop, %function
 234              	Timer_1_Stop:
 235              	.LFB3:
 226:.\Generated_Source\PSoC5/Timer_1.c **** 
 227:.\Generated_Source\PSoC5/Timer_1.c **** 
 228:.\Generated_Source\PSoC5/Timer_1.c **** /*******************************************************************************
 229:.\Generated_Source\PSoC5/Timer_1.c **** * Function Name: Timer_1_Stop
 230:.\Generated_Source\PSoC5/Timer_1.c **** ********************************************************************************
 231:.\Generated_Source\PSoC5/Timer_1.c **** *
 232:.\Generated_Source\PSoC5/Timer_1.c **** * Summary:
 233:.\Generated_Source\PSoC5/Timer_1.c **** *  The stop function halts the timer, but does not change any modes or disable
 234:.\Generated_Source\PSoC5/Timer_1.c **** *  interrupts.
 235:.\Generated_Source\PSoC5/Timer_1.c **** *
 236:.\Generated_Source\PSoC5/Timer_1.c **** * Parameters:
 237:.\Generated_Source\PSoC5/Timer_1.c **** *  void
 238:.\Generated_Source\PSoC5/Timer_1.c **** *
 239:.\Generated_Source\PSoC5/Timer_1.c **** * Return:
 240:.\Generated_Source\PSoC5/Timer_1.c **** *  void
 241:.\Generated_Source\PSoC5/Timer_1.c **** *
 242:.\Generated_Source\PSoC5/Timer_1.c **** * Side Effects: If the Enable mode is set to Hardware only then this function
 243:.\Generated_Source\PSoC5/Timer_1.c **** *               has no effect on the operation of the timer.
 244:.\Generated_Source\PSoC5/Timer_1.c **** *
 245:.\Generated_Source\PSoC5/Timer_1.c **** *******************************************************************************/
 246:.\Generated_Source\PSoC5/Timer_1.c **** void Timer_1_Stop(void) 
 247:.\Generated_Source\PSoC5/Timer_1.c **** {
 236              		.loc 1 247 0
 237              		.cfi_startproc
 238              		@ args = 0, pretend = 0, frame = 0
 239              		@ frame_needed = 1, uses_anonymous_args = 0
 240              		@ link register save eliminated.
 241 0000 80B4     		push	{r7}
 242              	.LCFI6:
 243              		.cfi_def_cfa_offset 4
 244 0002 00AF     		add	r7, sp, #0
 245              		.cfi_offset 7, -4
 246              	.LCFI7:
 247              		.cfi_def_cfa_register 7
 248:.\Generated_Source\PSoC5/Timer_1.c ****     /* Disable Timer */
 249:.\Generated_Source\PSoC5/Timer_1.c ****     #if(!Timer_1_ControlRegRemoved || Timer_1_UsingFixedFunction)
 250:.\Generated_Source\PSoC5/Timer_1.c ****         Timer_1_CONTROL &= ((uint8)(~Timer_1_CTRL_ENABLE));
 248              		.loc 1 250 0
 249 0004 44F60073 		movw	r3, #:lower16:1073762048
 250 0008 C4F20003 		movt	r3, #:upper16:1073762048
 251 000c 44F60072 		movw	r2, #:lower16:1073762048
 252 0010 C4F20002 		movt	r2, #:upper16:1073762048
 253 0014 1278     		ldrb	r2, [r2, #0]
 254 0016 D2B2     		uxtb	r2, r2
 255 0018 02F0FE02 		and	r2, r2, #254
 256 001c 1A70     		strb	r2, [r3, #0]
 251:.\Generated_Source\PSoC5/Timer_1.c ****     #endif /* Remove assignment if control register is removed */
 252:.\Generated_Source\PSoC5/Timer_1.c **** 
 253:.\Generated_Source\PSoC5/Timer_1.c ****     /* Globally disable the Fixed Function Block chosen */
ARM GAS  C:\Users\hoangp\AppData\Local\Temp\ccnoCuLn.s 			page 10


 254:.\Generated_Source\PSoC5/Timer_1.c ****     #if (Timer_1_UsingFixedFunction)
 255:.\Generated_Source\PSoC5/Timer_1.c ****         Timer_1_GLOBAL_ENABLE &= ((uint8)(~Timer_1_BLOCK_EN_MASK));
 257              		.loc 1 255 0
 258 001e 44F2A333 		movw	r3, #:lower16:1073759139
 259 0022 C4F20003 		movt	r3, #:upper16:1073759139
 260 0026 44F2A332 		movw	r2, #:lower16:1073759139
 261 002a C4F20002 		movt	r2, #:upper16:1073759139
 262 002e 1278     		ldrb	r2, [r2, #0]
 263 0030 D2B2     		uxtb	r2, r2
 264 0032 02F0FE02 		and	r2, r2, #254
 265 0036 1A70     		strb	r2, [r3, #0]
 256:.\Generated_Source\PSoC5/Timer_1.c ****         Timer_1_GLOBAL_STBY_ENABLE &= ((uint8)(~Timer_1_BLOCK_STBY_EN_MASK));
 266              		.loc 1 256 0
 267 0038 44F2B333 		movw	r3, #:lower16:1073759155
 268 003c C4F20003 		movt	r3, #:upper16:1073759155
 269 0040 44F2B332 		movw	r2, #:lower16:1073759155
 270 0044 C4F20002 		movt	r2, #:upper16:1073759155
 271 0048 1278     		ldrb	r2, [r2, #0]
 272 004a D2B2     		uxtb	r2, r2
 273 004c 02F0FE02 		and	r2, r2, #254
 274 0050 1A70     		strb	r2, [r3, #0]
 257:.\Generated_Source\PSoC5/Timer_1.c ****     #endif /* Disable global enable for the Timer Fixed function block to stop the Timer*/
 258:.\Generated_Source\PSoC5/Timer_1.c **** }
 275              		.loc 1 258 0
 276 0052 BD46     		mov	sp, r7
 277 0054 80BC     		pop	{r7}
 278 0056 7047     		bx	lr
 279              		.cfi_endproc
 280              	.LFE3:
 281              		.size	Timer_1_Stop, .-Timer_1_Stop
 282              		.section	.text.Timer_1_SetInterruptMode,"ax",%progbits
 283              		.align	2
 284              		.global	Timer_1_SetInterruptMode
 285              		.thumb
 286              		.thumb_func
 287              		.type	Timer_1_SetInterruptMode, %function
 288              	Timer_1_SetInterruptMode:
 289              	.LFB4:
 259:.\Generated_Source\PSoC5/Timer_1.c **** 
 260:.\Generated_Source\PSoC5/Timer_1.c **** 
 261:.\Generated_Source\PSoC5/Timer_1.c **** /*******************************************************************************
 262:.\Generated_Source\PSoC5/Timer_1.c **** * Function Name: Timer_1_SetInterruptMode
 263:.\Generated_Source\PSoC5/Timer_1.c **** ********************************************************************************
 264:.\Generated_Source\PSoC5/Timer_1.c **** *
 265:.\Generated_Source\PSoC5/Timer_1.c **** * Summary:
 266:.\Generated_Source\PSoC5/Timer_1.c **** *  This function selects which of the interrupt inputs may cause an interrupt.
 267:.\Generated_Source\PSoC5/Timer_1.c **** *  The twosources are caputure and terminal.  One, both or neither may
 268:.\Generated_Source\PSoC5/Timer_1.c **** *  be selected.
 269:.\Generated_Source\PSoC5/Timer_1.c **** *
 270:.\Generated_Source\PSoC5/Timer_1.c **** * Parameters:
 271:.\Generated_Source\PSoC5/Timer_1.c **** *  interruptMode:   This parameter is used to enable interrups on either/or
 272:.\Generated_Source\PSoC5/Timer_1.c **** *                   terminal count or capture.
 273:.\Generated_Source\PSoC5/Timer_1.c **** *
 274:.\Generated_Source\PSoC5/Timer_1.c **** * Return:
 275:.\Generated_Source\PSoC5/Timer_1.c **** *  void
 276:.\Generated_Source\PSoC5/Timer_1.c **** *
 277:.\Generated_Source\PSoC5/Timer_1.c **** *******************************************************************************/
ARM GAS  C:\Users\hoangp\AppData\Local\Temp\ccnoCuLn.s 			page 11


 278:.\Generated_Source\PSoC5/Timer_1.c **** void Timer_1_SetInterruptMode(uint8 interruptMode) 
 279:.\Generated_Source\PSoC5/Timer_1.c **** {
 290              		.loc 1 279 0
 291              		.cfi_startproc
 292              		@ args = 0, pretend = 0, frame = 8
 293              		@ frame_needed = 1, uses_anonymous_args = 0
 294              		@ link register save eliminated.
 295 0000 80B4     		push	{r7}
 296              	.LCFI8:
 297              		.cfi_def_cfa_offset 4
 298 0002 83B0     		sub	sp, sp, #12
 299              	.LCFI9:
 300              		.cfi_def_cfa_offset 16
 301 0004 00AF     		add	r7, sp, #0
 302              		.cfi_offset 7, -4
 303              	.LCFI10:
 304              		.cfi_def_cfa_register 7
 305 0006 0346     		mov	r3, r0
 306 0008 FB71     		strb	r3, [r7, #7]
 280:.\Generated_Source\PSoC5/Timer_1.c ****     Timer_1_STATUS_MASK = interruptMode;
 307              		.loc 1 280 0
 308 000a 44F60873 		movw	r3, #:lower16:1073762056
 309 000e C4F20003 		movt	r3, #:upper16:1073762056
 310 0012 FA79     		ldrb	r2, [r7, #7]
 311 0014 1A70     		strb	r2, [r3, #0]
 281:.\Generated_Source\PSoC5/Timer_1.c **** }
 312              		.loc 1 281 0
 313 0016 07F10C07 		add	r7, r7, #12
 314 001a BD46     		mov	sp, r7
 315 001c 80BC     		pop	{r7}
 316 001e 7047     		bx	lr
 317              		.cfi_endproc
 318              	.LFE4:
 319              		.size	Timer_1_SetInterruptMode, .-Timer_1_SetInterruptMode
 320              		.section	.text.Timer_1_SoftwareCapture,"ax",%progbits
 321              		.align	2
 322              		.global	Timer_1_SoftwareCapture
 323              		.thumb
 324              		.thumb_func
 325              		.type	Timer_1_SoftwareCapture, %function
 326              	Timer_1_SoftwareCapture:
 327              	.LFB5:
 282:.\Generated_Source\PSoC5/Timer_1.c **** 
 283:.\Generated_Source\PSoC5/Timer_1.c **** 
 284:.\Generated_Source\PSoC5/Timer_1.c **** /*******************************************************************************
 285:.\Generated_Source\PSoC5/Timer_1.c **** * Function Name: Timer_1_SoftwareCapture
 286:.\Generated_Source\PSoC5/Timer_1.c **** ********************************************************************************
 287:.\Generated_Source\PSoC5/Timer_1.c **** *
 288:.\Generated_Source\PSoC5/Timer_1.c **** * Summary:
 289:.\Generated_Source\PSoC5/Timer_1.c **** *  This function forces a capture independent of the capture signal.
 290:.\Generated_Source\PSoC5/Timer_1.c **** *
 291:.\Generated_Source\PSoC5/Timer_1.c **** * Parameters:
 292:.\Generated_Source\PSoC5/Timer_1.c **** *  void
 293:.\Generated_Source\PSoC5/Timer_1.c **** *
 294:.\Generated_Source\PSoC5/Timer_1.c **** * Return:
 295:.\Generated_Source\PSoC5/Timer_1.c **** *  void
 296:.\Generated_Source\PSoC5/Timer_1.c **** *
ARM GAS  C:\Users\hoangp\AppData\Local\Temp\ccnoCuLn.s 			page 12


 297:.\Generated_Source\PSoC5/Timer_1.c **** * Side Effects:
 298:.\Generated_Source\PSoC5/Timer_1.c **** *  An existing hardware capture could be overwritten.
 299:.\Generated_Source\PSoC5/Timer_1.c **** *
 300:.\Generated_Source\PSoC5/Timer_1.c **** *******************************************************************************/
 301:.\Generated_Source\PSoC5/Timer_1.c **** void Timer_1_SoftwareCapture(void) 
 302:.\Generated_Source\PSoC5/Timer_1.c **** {
 328              		.loc 1 302 0
 329              		.cfi_startproc
 330              		@ args = 0, pretend = 0, frame = 0
 331              		@ frame_needed = 1, uses_anonymous_args = 0
 332              		@ link register save eliminated.
 333 0000 80B4     		push	{r7}
 334              	.LCFI11:
 335              		.cfi_def_cfa_offset 4
 336 0002 00AF     		add	r7, sp, #0
 337              		.cfi_offset 7, -4
 338              	.LCFI12:
 339              		.cfi_def_cfa_register 7
 303:.\Generated_Source\PSoC5/Timer_1.c ****     /* Generate a software capture by reading the counter register */
 304:.\Generated_Source\PSoC5/Timer_1.c ****     (void)Timer_1_COUNTER_LSB;
 340              		.loc 1 304 0
 341 0004 44F60473 		movw	r3, #:lower16:1073762052
 342 0008 C4F20003 		movt	r3, #:upper16:1073762052
 343 000c 1B88     		ldrh	r3, [r3, #0]	@ movhi
 305:.\Generated_Source\PSoC5/Timer_1.c ****     /* Capture Data is now in the FIFO */
 306:.\Generated_Source\PSoC5/Timer_1.c **** }
 344              		.loc 1 306 0
 345 000e BD46     		mov	sp, r7
 346 0010 80BC     		pop	{r7}
 347 0012 7047     		bx	lr
 348              		.cfi_endproc
 349              	.LFE5:
 350              		.size	Timer_1_SoftwareCapture, .-Timer_1_SoftwareCapture
 351              		.section	.text.Timer_1_ReadStatusRegister,"ax",%progbits
 352              		.align	2
 353              		.global	Timer_1_ReadStatusRegister
 354              		.thumb
 355              		.thumb_func
 356              		.type	Timer_1_ReadStatusRegister, %function
 357              	Timer_1_ReadStatusRegister:
 358              	.LFB6:
 307:.\Generated_Source\PSoC5/Timer_1.c **** 
 308:.\Generated_Source\PSoC5/Timer_1.c **** 
 309:.\Generated_Source\PSoC5/Timer_1.c **** /*******************************************************************************
 310:.\Generated_Source\PSoC5/Timer_1.c **** * Function Name: Timer_1_ReadStatusRegister
 311:.\Generated_Source\PSoC5/Timer_1.c **** ********************************************************************************
 312:.\Generated_Source\PSoC5/Timer_1.c **** *
 313:.\Generated_Source\PSoC5/Timer_1.c **** * Summary:
 314:.\Generated_Source\PSoC5/Timer_1.c **** *  Reads the status register and returns it's state. This function should use
 315:.\Generated_Source\PSoC5/Timer_1.c **** *  defined types for the bit-field information as the bits in this register may
 316:.\Generated_Source\PSoC5/Timer_1.c **** *  be permuteable.
 317:.\Generated_Source\PSoC5/Timer_1.c **** *
 318:.\Generated_Source\PSoC5/Timer_1.c **** * Parameters:
 319:.\Generated_Source\PSoC5/Timer_1.c **** *  void
 320:.\Generated_Source\PSoC5/Timer_1.c **** *
 321:.\Generated_Source\PSoC5/Timer_1.c **** * Return:
 322:.\Generated_Source\PSoC5/Timer_1.c **** *  The contents of the status register
ARM GAS  C:\Users\hoangp\AppData\Local\Temp\ccnoCuLn.s 			page 13


 323:.\Generated_Source\PSoC5/Timer_1.c **** *
 324:.\Generated_Source\PSoC5/Timer_1.c **** * Side Effects:
 325:.\Generated_Source\PSoC5/Timer_1.c **** *  Status register bits may be clear on read.
 326:.\Generated_Source\PSoC5/Timer_1.c **** *
 327:.\Generated_Source\PSoC5/Timer_1.c **** *******************************************************************************/
 328:.\Generated_Source\PSoC5/Timer_1.c **** uint8   Timer_1_ReadStatusRegister(void) 
 329:.\Generated_Source\PSoC5/Timer_1.c **** {
 359              		.loc 1 329 0
 360              		.cfi_startproc
 361              		@ args = 0, pretend = 0, frame = 0
 362              		@ frame_needed = 1, uses_anonymous_args = 0
 363              		@ link register save eliminated.
 364 0000 80B4     		push	{r7}
 365              	.LCFI13:
 366              		.cfi_def_cfa_offset 4
 367 0002 00AF     		add	r7, sp, #0
 368              		.cfi_offset 7, -4
 369              	.LCFI14:
 370              		.cfi_def_cfa_register 7
 330:.\Generated_Source\PSoC5/Timer_1.c ****     return (Timer_1_STATUS);
 371              		.loc 1 330 0
 372 0004 44F60873 		movw	r3, #:lower16:1073762056
 373 0008 C4F20003 		movt	r3, #:upper16:1073762056
 374 000c 1B78     		ldrb	r3, [r3, #0]
 375 000e DBB2     		uxtb	r3, r3
 331:.\Generated_Source\PSoC5/Timer_1.c **** }
 376              		.loc 1 331 0
 377 0010 1846     		mov	r0, r3
 378 0012 BD46     		mov	sp, r7
 379 0014 80BC     		pop	{r7}
 380 0016 7047     		bx	lr
 381              		.cfi_endproc
 382              	.LFE6:
 383              		.size	Timer_1_ReadStatusRegister, .-Timer_1_ReadStatusRegister
 384              		.section	.text.Timer_1_ReadControlRegister,"ax",%progbits
 385              		.align	2
 386              		.global	Timer_1_ReadControlRegister
 387              		.thumb
 388              		.thumb_func
 389              		.type	Timer_1_ReadControlRegister, %function
 390              	Timer_1_ReadControlRegister:
 391              	.LFB7:
 332:.\Generated_Source\PSoC5/Timer_1.c **** 
 333:.\Generated_Source\PSoC5/Timer_1.c **** 
 334:.\Generated_Source\PSoC5/Timer_1.c **** #if (!Timer_1_ControlRegRemoved) /* Remove API if control register is removed */
 335:.\Generated_Source\PSoC5/Timer_1.c **** 
 336:.\Generated_Source\PSoC5/Timer_1.c **** 
 337:.\Generated_Source\PSoC5/Timer_1.c **** /*******************************************************************************
 338:.\Generated_Source\PSoC5/Timer_1.c **** * Function Name: Timer_1_ReadControlRegister
 339:.\Generated_Source\PSoC5/Timer_1.c **** ********************************************************************************
 340:.\Generated_Source\PSoC5/Timer_1.c **** *
 341:.\Generated_Source\PSoC5/Timer_1.c **** * Summary:
 342:.\Generated_Source\PSoC5/Timer_1.c **** *  Reads the control register and returns it's value.
 343:.\Generated_Source\PSoC5/Timer_1.c **** *
 344:.\Generated_Source\PSoC5/Timer_1.c **** * Parameters:
 345:.\Generated_Source\PSoC5/Timer_1.c **** *  void
 346:.\Generated_Source\PSoC5/Timer_1.c **** *
ARM GAS  C:\Users\hoangp\AppData\Local\Temp\ccnoCuLn.s 			page 14


 347:.\Generated_Source\PSoC5/Timer_1.c **** * Return:
 348:.\Generated_Source\PSoC5/Timer_1.c **** *  The contents of the control register
 349:.\Generated_Source\PSoC5/Timer_1.c **** *
 350:.\Generated_Source\PSoC5/Timer_1.c **** *******************************************************************************/
 351:.\Generated_Source\PSoC5/Timer_1.c **** uint8 Timer_1_ReadControlRegister(void) 
 352:.\Generated_Source\PSoC5/Timer_1.c **** {
 392              		.loc 1 352 0
 393              		.cfi_startproc
 394              		@ args = 0, pretend = 0, frame = 0
 395              		@ frame_needed = 1, uses_anonymous_args = 0
 396              		@ link register save eliminated.
 397 0000 80B4     		push	{r7}
 398              	.LCFI15:
 399              		.cfi_def_cfa_offset 4
 400 0002 00AF     		add	r7, sp, #0
 401              		.cfi_offset 7, -4
 402              	.LCFI16:
 403              		.cfi_def_cfa_register 7
 353:.\Generated_Source\PSoC5/Timer_1.c ****     return ((uint8)Timer_1_CONTROL);
 404              		.loc 1 353 0
 405 0004 44F60073 		movw	r3, #:lower16:1073762048
 406 0008 C4F20003 		movt	r3, #:upper16:1073762048
 407 000c 1B78     		ldrb	r3, [r3, #0]
 408 000e DBB2     		uxtb	r3, r3
 354:.\Generated_Source\PSoC5/Timer_1.c **** }
 409              		.loc 1 354 0
 410 0010 1846     		mov	r0, r3
 411 0012 BD46     		mov	sp, r7
 412 0014 80BC     		pop	{r7}
 413 0016 7047     		bx	lr
 414              		.cfi_endproc
 415              	.LFE7:
 416              		.size	Timer_1_ReadControlRegister, .-Timer_1_ReadControlRegister
 417              		.section	.text.Timer_1_WriteControlRegister,"ax",%progbits
 418              		.align	2
 419              		.global	Timer_1_WriteControlRegister
 420              		.thumb
 421              		.thumb_func
 422              		.type	Timer_1_WriteControlRegister, %function
 423              	Timer_1_WriteControlRegister:
 424              	.LFB8:
 355:.\Generated_Source\PSoC5/Timer_1.c **** 
 356:.\Generated_Source\PSoC5/Timer_1.c **** 
 357:.\Generated_Source\PSoC5/Timer_1.c **** /*******************************************************************************
 358:.\Generated_Source\PSoC5/Timer_1.c **** * Function Name: Timer_1_WriteControlRegister
 359:.\Generated_Source\PSoC5/Timer_1.c **** ********************************************************************************
 360:.\Generated_Source\PSoC5/Timer_1.c **** *
 361:.\Generated_Source\PSoC5/Timer_1.c **** * Summary:
 362:.\Generated_Source\PSoC5/Timer_1.c **** *  Sets the bit-field of the control register.
 363:.\Generated_Source\PSoC5/Timer_1.c **** *
 364:.\Generated_Source\PSoC5/Timer_1.c **** * Parameters:
 365:.\Generated_Source\PSoC5/Timer_1.c **** *  control: The contents of the control register
 366:.\Generated_Source\PSoC5/Timer_1.c **** *
 367:.\Generated_Source\PSoC5/Timer_1.c **** * Return:
 368:.\Generated_Source\PSoC5/Timer_1.c **** *
 369:.\Generated_Source\PSoC5/Timer_1.c **** *******************************************************************************/
 370:.\Generated_Source\PSoC5/Timer_1.c **** void Timer_1_WriteControlRegister(uint8 control) 
ARM GAS  C:\Users\hoangp\AppData\Local\Temp\ccnoCuLn.s 			page 15


 371:.\Generated_Source\PSoC5/Timer_1.c **** {
 425              		.loc 1 371 0
 426              		.cfi_startproc
 427              		@ args = 0, pretend = 0, frame = 8
 428              		@ frame_needed = 1, uses_anonymous_args = 0
 429              		@ link register save eliminated.
 430 0000 80B4     		push	{r7}
 431              	.LCFI17:
 432              		.cfi_def_cfa_offset 4
 433 0002 83B0     		sub	sp, sp, #12
 434              	.LCFI18:
 435              		.cfi_def_cfa_offset 16
 436 0004 00AF     		add	r7, sp, #0
 437              		.cfi_offset 7, -4
 438              	.LCFI19:
 439              		.cfi_def_cfa_register 7
 440 0006 0346     		mov	r3, r0
 441 0008 FB71     		strb	r3, [r7, #7]
 372:.\Generated_Source\PSoC5/Timer_1.c ****     Timer_1_CONTROL = control;
 442              		.loc 1 372 0
 443 000a 44F60073 		movw	r3, #:lower16:1073762048
 444 000e C4F20003 		movt	r3, #:upper16:1073762048
 445 0012 FA79     		ldrb	r2, [r7, #7]
 446 0014 1A70     		strb	r2, [r3, #0]
 373:.\Generated_Source\PSoC5/Timer_1.c **** }
 447              		.loc 1 373 0
 448 0016 07F10C07 		add	r7, r7, #12
 449 001a BD46     		mov	sp, r7
 450 001c 80BC     		pop	{r7}
 451 001e 7047     		bx	lr
 452              		.cfi_endproc
 453              	.LFE8:
 454              		.size	Timer_1_WriteControlRegister, .-Timer_1_WriteControlRegister
 455              		.section	.text.Timer_1_ReadPeriod,"ax",%progbits
 456              		.align	2
 457              		.global	Timer_1_ReadPeriod
 458              		.thumb
 459              		.thumb_func
 460              		.type	Timer_1_ReadPeriod, %function
 461              	Timer_1_ReadPeriod:
 462              	.LFB9:
 374:.\Generated_Source\PSoC5/Timer_1.c **** #endif /* Remove API if control register is removed */
 375:.\Generated_Source\PSoC5/Timer_1.c **** 
 376:.\Generated_Source\PSoC5/Timer_1.c **** 
 377:.\Generated_Source\PSoC5/Timer_1.c **** /*******************************************************************************
 378:.\Generated_Source\PSoC5/Timer_1.c **** * Function Name: Timer_1_ReadPeriod
 379:.\Generated_Source\PSoC5/Timer_1.c **** ********************************************************************************
 380:.\Generated_Source\PSoC5/Timer_1.c **** *
 381:.\Generated_Source\PSoC5/Timer_1.c **** * Summary:
 382:.\Generated_Source\PSoC5/Timer_1.c **** *  This function returns the current value of the Period.
 383:.\Generated_Source\PSoC5/Timer_1.c **** *
 384:.\Generated_Source\PSoC5/Timer_1.c **** * Parameters:
 385:.\Generated_Source\PSoC5/Timer_1.c **** *  void
 386:.\Generated_Source\PSoC5/Timer_1.c **** *
 387:.\Generated_Source\PSoC5/Timer_1.c **** * Return:
 388:.\Generated_Source\PSoC5/Timer_1.c **** *  The present value of the counter.
 389:.\Generated_Source\PSoC5/Timer_1.c **** *
ARM GAS  C:\Users\hoangp\AppData\Local\Temp\ccnoCuLn.s 			page 16


 390:.\Generated_Source\PSoC5/Timer_1.c **** *******************************************************************************/
 391:.\Generated_Source\PSoC5/Timer_1.c **** uint8 Timer_1_ReadPeriod(void) 
 392:.\Generated_Source\PSoC5/Timer_1.c **** {
 463              		.loc 1 392 0
 464              		.cfi_startproc
 465              		@ args = 0, pretend = 0, frame = 0
 466              		@ frame_needed = 1, uses_anonymous_args = 0
 467              		@ link register save eliminated.
 468 0000 80B4     		push	{r7}
 469              	.LCFI20:
 470              		.cfi_def_cfa_offset 4
 471 0002 00AF     		add	r7, sp, #0
 472              		.cfi_offset 7, -4
 473              	.LCFI21:
 474              		.cfi_def_cfa_register 7
 393:.\Generated_Source\PSoC5/Timer_1.c ****    #if(Timer_1_UsingFixedFunction)
 394:.\Generated_Source\PSoC5/Timer_1.c ****        return ((uint8)CY_GET_REG16(Timer_1_PERIOD_LSB_PTR));
 475              		.loc 1 394 0
 476 0004 44F60273 		movw	r3, #:lower16:1073762050
 477 0008 C4F20003 		movt	r3, #:upper16:1073762050
 478 000c 1B88     		ldrh	r3, [r3, #0]	@ movhi
 479 000e 9BB2     		uxth	r3, r3
 480 0010 DBB2     		uxtb	r3, r3
 395:.\Generated_Source\PSoC5/Timer_1.c ****    #else
 396:.\Generated_Source\PSoC5/Timer_1.c ****        return (CY_GET_REG8(Timer_1_PERIOD_LSB_PTR));
 397:.\Generated_Source\PSoC5/Timer_1.c ****    #endif /* (Timer_1_UsingFixedFunction) */
 398:.\Generated_Source\PSoC5/Timer_1.c **** }
 481              		.loc 1 398 0
 482 0012 1846     		mov	r0, r3
 483 0014 BD46     		mov	sp, r7
 484 0016 80BC     		pop	{r7}
 485 0018 7047     		bx	lr
 486              		.cfi_endproc
 487              	.LFE9:
 488              		.size	Timer_1_ReadPeriod, .-Timer_1_ReadPeriod
 489 001a 00BF     		.section	.text.Timer_1_WritePeriod,"ax",%progbits
 490              		.align	2
 491              		.global	Timer_1_WritePeriod
 492              		.thumb
 493              		.thumb_func
 494              		.type	Timer_1_WritePeriod, %function
 495              	Timer_1_WritePeriod:
 496              	.LFB10:
 399:.\Generated_Source\PSoC5/Timer_1.c **** 
 400:.\Generated_Source\PSoC5/Timer_1.c **** 
 401:.\Generated_Source\PSoC5/Timer_1.c **** /*******************************************************************************
 402:.\Generated_Source\PSoC5/Timer_1.c **** * Function Name: Timer_1_WritePeriod
 403:.\Generated_Source\PSoC5/Timer_1.c **** ********************************************************************************
 404:.\Generated_Source\PSoC5/Timer_1.c **** *
 405:.\Generated_Source\PSoC5/Timer_1.c **** * Summary:
 406:.\Generated_Source\PSoC5/Timer_1.c **** *  This function is used to change the period of the counter.  The new period
 407:.\Generated_Source\PSoC5/Timer_1.c **** *  will be loaded the next time terminal count is detected.
 408:.\Generated_Source\PSoC5/Timer_1.c **** *
 409:.\Generated_Source\PSoC5/Timer_1.c **** * Parameters:
 410:.\Generated_Source\PSoC5/Timer_1.c **** *  period: This value may be between 1 and (2^Resolution)-1.  A value of 0 will
 411:.\Generated_Source\PSoC5/Timer_1.c **** *          result in the counter remaining at zero.
 412:.\Generated_Source\PSoC5/Timer_1.c **** *
ARM GAS  C:\Users\hoangp\AppData\Local\Temp\ccnoCuLn.s 			page 17


 413:.\Generated_Source\PSoC5/Timer_1.c **** * Return:
 414:.\Generated_Source\PSoC5/Timer_1.c **** *  void
 415:.\Generated_Source\PSoC5/Timer_1.c **** *
 416:.\Generated_Source\PSoC5/Timer_1.c **** *******************************************************************************/
 417:.\Generated_Source\PSoC5/Timer_1.c **** void Timer_1_WritePeriod(uint8 period) 
 418:.\Generated_Source\PSoC5/Timer_1.c **** {
 497              		.loc 1 418 0
 498              		.cfi_startproc
 499              		@ args = 0, pretend = 0, frame = 16
 500              		@ frame_needed = 1, uses_anonymous_args = 0
 501              		@ link register save eliminated.
 502 0000 80B4     		push	{r7}
 503              	.LCFI22:
 504              		.cfi_def_cfa_offset 4
 505 0002 85B0     		sub	sp, sp, #20
 506              	.LCFI23:
 507              		.cfi_def_cfa_offset 24
 508 0004 00AF     		add	r7, sp, #0
 509              		.cfi_offset 7, -4
 510              	.LCFI24:
 511              		.cfi_def_cfa_register 7
 512 0006 0346     		mov	r3, r0
 513 0008 FB71     		strb	r3, [r7, #7]
 419:.\Generated_Source\PSoC5/Timer_1.c ****     #if(Timer_1_UsingFixedFunction)
 420:.\Generated_Source\PSoC5/Timer_1.c ****         uint16 period_temp = (uint16)period;
 514              		.loc 1 420 0
 515 000a FB79     		ldrb	r3, [r7, #7]	@ zero_extendqisi2
 516 000c FB81     		strh	r3, [r7, #14]	@ movhi
 421:.\Generated_Source\PSoC5/Timer_1.c ****         CY_SET_REG16(Timer_1_PERIOD_LSB_PTR, period_temp);
 517              		.loc 1 421 0
 518 000e 44F60273 		movw	r3, #:lower16:1073762050
 519 0012 C4F20003 		movt	r3, #:upper16:1073762050
 520 0016 FA89     		ldrh	r2, [r7, #14]	@ movhi
 521 0018 1A80     		strh	r2, [r3, #0]	@ movhi
 422:.\Generated_Source\PSoC5/Timer_1.c ****     #else
 423:.\Generated_Source\PSoC5/Timer_1.c ****         CY_SET_REG8(Timer_1_PERIOD_LSB_PTR, period);
 424:.\Generated_Source\PSoC5/Timer_1.c ****     #endif /*Write Period value with appropriate resolution suffix depending on UDB or fixed functi
 425:.\Generated_Source\PSoC5/Timer_1.c **** }
 522              		.loc 1 425 0
 523 001a 07F11407 		add	r7, r7, #20
 524 001e BD46     		mov	sp, r7
 525 0020 80BC     		pop	{r7}
 526 0022 7047     		bx	lr
 527              		.cfi_endproc
 528              	.LFE10:
 529              		.size	Timer_1_WritePeriod, .-Timer_1_WritePeriod
 530              		.section	.text.Timer_1_ReadCapture,"ax",%progbits
 531              		.align	2
 532              		.global	Timer_1_ReadCapture
 533              		.thumb
 534              		.thumb_func
 535              		.type	Timer_1_ReadCapture, %function
 536              	Timer_1_ReadCapture:
 537              	.LFB11:
 426:.\Generated_Source\PSoC5/Timer_1.c **** 
 427:.\Generated_Source\PSoC5/Timer_1.c **** 
 428:.\Generated_Source\PSoC5/Timer_1.c **** /*******************************************************************************
ARM GAS  C:\Users\hoangp\AppData\Local\Temp\ccnoCuLn.s 			page 18


 429:.\Generated_Source\PSoC5/Timer_1.c **** * Function Name: Timer_1_ReadCapture
 430:.\Generated_Source\PSoC5/Timer_1.c **** ********************************************************************************
 431:.\Generated_Source\PSoC5/Timer_1.c **** *
 432:.\Generated_Source\PSoC5/Timer_1.c **** * Summary:
 433:.\Generated_Source\PSoC5/Timer_1.c **** *  This function returns the last value captured.
 434:.\Generated_Source\PSoC5/Timer_1.c **** *
 435:.\Generated_Source\PSoC5/Timer_1.c **** * Parameters:
 436:.\Generated_Source\PSoC5/Timer_1.c **** *  void
 437:.\Generated_Source\PSoC5/Timer_1.c **** *
 438:.\Generated_Source\PSoC5/Timer_1.c **** * Return:
 439:.\Generated_Source\PSoC5/Timer_1.c **** *  Present Capture value.
 440:.\Generated_Source\PSoC5/Timer_1.c **** *
 441:.\Generated_Source\PSoC5/Timer_1.c **** *******************************************************************************/
 442:.\Generated_Source\PSoC5/Timer_1.c **** uint8 Timer_1_ReadCapture(void) 
 443:.\Generated_Source\PSoC5/Timer_1.c **** {
 538              		.loc 1 443 0
 539              		.cfi_startproc
 540              		@ args = 0, pretend = 0, frame = 0
 541              		@ frame_needed = 1, uses_anonymous_args = 0
 542              		@ link register save eliminated.
 543 0000 80B4     		push	{r7}
 544              	.LCFI25:
 545              		.cfi_def_cfa_offset 4
 546 0002 00AF     		add	r7, sp, #0
 547              		.cfi_offset 7, -4
 548              	.LCFI26:
 549              		.cfi_def_cfa_register 7
 444:.\Generated_Source\PSoC5/Timer_1.c ****    #if(Timer_1_UsingFixedFunction)
 445:.\Generated_Source\PSoC5/Timer_1.c ****        return ((uint8)CY_GET_REG16(Timer_1_CAPTURE_LSB_PTR));
 550              		.loc 1 445 0
 551 0004 44F60673 		movw	r3, #:lower16:1073762054
 552 0008 C4F20003 		movt	r3, #:upper16:1073762054
 553 000c 1B88     		ldrh	r3, [r3, #0]	@ movhi
 554 000e 9BB2     		uxth	r3, r3
 555 0010 DBB2     		uxtb	r3, r3
 446:.\Generated_Source\PSoC5/Timer_1.c ****    #else
 447:.\Generated_Source\PSoC5/Timer_1.c ****        return (CY_GET_REG8(Timer_1_CAPTURE_LSB_PTR));
 448:.\Generated_Source\PSoC5/Timer_1.c ****    #endif /* (Timer_1_UsingFixedFunction) */
 449:.\Generated_Source\PSoC5/Timer_1.c **** }
 556              		.loc 1 449 0
 557 0012 1846     		mov	r0, r3
 558 0014 BD46     		mov	sp, r7
 559 0016 80BC     		pop	{r7}
 560 0018 7047     		bx	lr
 561              		.cfi_endproc
 562              	.LFE11:
 563              		.size	Timer_1_ReadCapture, .-Timer_1_ReadCapture
 564 001a 00BF     		.section	.text.Timer_1_WriteCounter,"ax",%progbits
 565              		.align	2
 566              		.global	Timer_1_WriteCounter
 567              		.thumb
 568              		.thumb_func
 569              		.type	Timer_1_WriteCounter, %function
 570              	Timer_1_WriteCounter:
 571              	.LFB12:
 450:.\Generated_Source\PSoC5/Timer_1.c **** 
 451:.\Generated_Source\PSoC5/Timer_1.c **** 
ARM GAS  C:\Users\hoangp\AppData\Local\Temp\ccnoCuLn.s 			page 19


 452:.\Generated_Source\PSoC5/Timer_1.c **** /*******************************************************************************
 453:.\Generated_Source\PSoC5/Timer_1.c **** * Function Name: Timer_1_WriteCounter
 454:.\Generated_Source\PSoC5/Timer_1.c **** ********************************************************************************
 455:.\Generated_Source\PSoC5/Timer_1.c **** *
 456:.\Generated_Source\PSoC5/Timer_1.c **** * Summary:
 457:.\Generated_Source\PSoC5/Timer_1.c **** *  This funtion is used to set the counter to a specific value
 458:.\Generated_Source\PSoC5/Timer_1.c **** *
 459:.\Generated_Source\PSoC5/Timer_1.c **** * Parameters:
 460:.\Generated_Source\PSoC5/Timer_1.c **** *  counter:  New counter value.
 461:.\Generated_Source\PSoC5/Timer_1.c **** *
 462:.\Generated_Source\PSoC5/Timer_1.c **** * Return:
 463:.\Generated_Source\PSoC5/Timer_1.c **** *  void
 464:.\Generated_Source\PSoC5/Timer_1.c **** *
 465:.\Generated_Source\PSoC5/Timer_1.c **** *******************************************************************************/
 466:.\Generated_Source\PSoC5/Timer_1.c **** void Timer_1_WriteCounter(uint8 counter) \
 467:.\Generated_Source\PSoC5/Timer_1.c ****                                    
 468:.\Generated_Source\PSoC5/Timer_1.c **** {
 572              		.loc 1 468 0
 573              		.cfi_startproc
 574              		@ args = 0, pretend = 0, frame = 8
 575              		@ frame_needed = 1, uses_anonymous_args = 0
 576              		@ link register save eliminated.
 577 0000 80B4     		push	{r7}
 578              	.LCFI27:
 579              		.cfi_def_cfa_offset 4
 580 0002 83B0     		sub	sp, sp, #12
 581              	.LCFI28:
 582              		.cfi_def_cfa_offset 16
 583 0004 00AF     		add	r7, sp, #0
 584              		.cfi_offset 7, -4
 585              	.LCFI29:
 586              		.cfi_def_cfa_register 7
 587 0006 0346     		mov	r3, r0
 588 0008 FB71     		strb	r3, [r7, #7]
 469:.\Generated_Source\PSoC5/Timer_1.c ****    #if(Timer_1_UsingFixedFunction)
 470:.\Generated_Source\PSoC5/Timer_1.c ****         /* This functionality is removed until a FixedFunction HW update to
 471:.\Generated_Source\PSoC5/Timer_1.c ****          * allow this register to be written
 472:.\Generated_Source\PSoC5/Timer_1.c ****          */
 473:.\Generated_Source\PSoC5/Timer_1.c ****         CY_SET_REG16(Timer_1_COUNTER_LSB_PTR, (uint16)counter);
 589              		.loc 1 473 0
 590 000a 44F60473 		movw	r3, #:lower16:1073762052
 591 000e C4F20003 		movt	r3, #:upper16:1073762052
 592 0012 FA79     		ldrb	r2, [r7, #7]	@ zero_extendqisi2
 593 0014 1A80     		strh	r2, [r3, #0]	@ movhi
 474:.\Generated_Source\PSoC5/Timer_1.c ****         
 475:.\Generated_Source\PSoC5/Timer_1.c ****     #else
 476:.\Generated_Source\PSoC5/Timer_1.c ****         CY_SET_REG8(Timer_1_COUNTER_LSB_PTR, counter);
 477:.\Generated_Source\PSoC5/Timer_1.c ****     #endif /* Set Write Counter only for the UDB implementation (Write Counter not available in fix
 478:.\Generated_Source\PSoC5/Timer_1.c **** }
 594              		.loc 1 478 0
 595 0016 07F10C07 		add	r7, r7, #12
 596 001a BD46     		mov	sp, r7
 597 001c 80BC     		pop	{r7}
 598 001e 7047     		bx	lr
 599              		.cfi_endproc
 600              	.LFE12:
 601              		.size	Timer_1_WriteCounter, .-Timer_1_WriteCounter
ARM GAS  C:\Users\hoangp\AppData\Local\Temp\ccnoCuLn.s 			page 20


 602              		.section	.text.Timer_1_ReadCounter,"ax",%progbits
 603              		.align	2
 604              		.global	Timer_1_ReadCounter
 605              		.thumb
 606              		.thumb_func
 607              		.type	Timer_1_ReadCounter, %function
 608              	Timer_1_ReadCounter:
 609              	.LFB13:
 479:.\Generated_Source\PSoC5/Timer_1.c **** 
 480:.\Generated_Source\PSoC5/Timer_1.c **** 
 481:.\Generated_Source\PSoC5/Timer_1.c **** /*******************************************************************************
 482:.\Generated_Source\PSoC5/Timer_1.c **** * Function Name: Timer_1_ReadCounter
 483:.\Generated_Source\PSoC5/Timer_1.c **** ********************************************************************************
 484:.\Generated_Source\PSoC5/Timer_1.c **** *
 485:.\Generated_Source\PSoC5/Timer_1.c **** * Summary:
 486:.\Generated_Source\PSoC5/Timer_1.c **** *  This function returns the current counter value.
 487:.\Generated_Source\PSoC5/Timer_1.c **** *
 488:.\Generated_Source\PSoC5/Timer_1.c **** * Parameters:
 489:.\Generated_Source\PSoC5/Timer_1.c **** *  void
 490:.\Generated_Source\PSoC5/Timer_1.c **** *
 491:.\Generated_Source\PSoC5/Timer_1.c **** * Return:
 492:.\Generated_Source\PSoC5/Timer_1.c **** *  Present compare value.
 493:.\Generated_Source\PSoC5/Timer_1.c **** *
 494:.\Generated_Source\PSoC5/Timer_1.c **** *******************************************************************************/
 495:.\Generated_Source\PSoC5/Timer_1.c **** uint8 Timer_1_ReadCounter(void) 
 496:.\Generated_Source\PSoC5/Timer_1.c **** {
 610              		.loc 1 496 0
 611              		.cfi_startproc
 612              		@ args = 0, pretend = 0, frame = 0
 613              		@ frame_needed = 1, uses_anonymous_args = 0
 614              		@ link register save eliminated.
 615 0000 80B4     		push	{r7}
 616              	.LCFI30:
 617              		.cfi_def_cfa_offset 4
 618 0002 00AF     		add	r7, sp, #0
 619              		.cfi_offset 7, -4
 620              	.LCFI31:
 621              		.cfi_def_cfa_register 7
 497:.\Generated_Source\PSoC5/Timer_1.c **** 
 498:.\Generated_Source\PSoC5/Timer_1.c ****     /* Force capture by reading Accumulator */
 499:.\Generated_Source\PSoC5/Timer_1.c ****     /* Must first do a software capture to be able to read the counter */
 500:.\Generated_Source\PSoC5/Timer_1.c ****     /* It is up to the user code to make sure there isn't already captured data in the FIFO */
 501:.\Generated_Source\PSoC5/Timer_1.c ****     (void)Timer_1_COUNTER_LSB;
 622              		.loc 1 501 0
 623 0004 44F60473 		movw	r3, #:lower16:1073762052
 624 0008 C4F20003 		movt	r3, #:upper16:1073762052
 625 000c 1B88     		ldrh	r3, [r3, #0]	@ movhi
 502:.\Generated_Source\PSoC5/Timer_1.c **** 
 503:.\Generated_Source\PSoC5/Timer_1.c ****     /* Read the data from the FIFO (or capture register for Fixed Function)*/
 504:.\Generated_Source\PSoC5/Timer_1.c ****     #if(Timer_1_UsingFixedFunction)
 505:.\Generated_Source\PSoC5/Timer_1.c ****         return ((uint8)CY_GET_REG16(Timer_1_CAPTURE_LSB_PTR));
 626              		.loc 1 505 0
 627 000e 44F60673 		movw	r3, #:lower16:1073762054
 628 0012 C4F20003 		movt	r3, #:upper16:1073762054
 629 0016 1B88     		ldrh	r3, [r3, #0]	@ movhi
 630 0018 9BB2     		uxth	r3, r3
 631 001a DBB2     		uxtb	r3, r3
ARM GAS  C:\Users\hoangp\AppData\Local\Temp\ccnoCuLn.s 			page 21


 506:.\Generated_Source\PSoC5/Timer_1.c ****     #else
 507:.\Generated_Source\PSoC5/Timer_1.c ****         return (CY_GET_REG8(Timer_1_CAPTURE_LSB_PTR));
 508:.\Generated_Source\PSoC5/Timer_1.c ****     #endif /* (Timer_1_UsingFixedFunction) */
 509:.\Generated_Source\PSoC5/Timer_1.c **** }
 632              		.loc 1 509 0
 633 001c 1846     		mov	r0, r3
 634 001e BD46     		mov	sp, r7
 635 0020 80BC     		pop	{r7}
 636 0022 7047     		bx	lr
 637              		.cfi_endproc
 638              	.LFE13:
 639              		.size	Timer_1_ReadCounter, .-Timer_1_ReadCounter
 640              		.text
 641              	.Letext0: